

Microchip MPLAB XC8 Assembler V2.35 build 20211206165544 
                                                                                               Mon Jun 06 10:01:23 2022

Microchip MPLAB XC8 C Compiler v2.35 (Free license) build 20211206165544 Og1 
     1                           	processor	16F1459
     2                           	pagewidth 120
     3                           	opt	flic
     4                           	psect	stringtext1,global,class=STRCODE,delta=2,noexec
     5                           	psect	stringtext2,global,class=STRCODE,delta=2,noexec
     6                           	psect	stringtext3,global,class=STRCODE,delta=2,noexec
     7                           	psect	stringtext4,global,class=STRCODE,delta=2,noexec
     8                           	psect	stringtext5,global,class=STRCODE,delta=2,noexec
     9                           	psect	stringtext6,global,class=STRCODE,delta=2,noexec
    10                           	psect	stringtext7,global,class=STRCODE,delta=2,noexec
    11                           	psect	stringtext8,global,class=STRCODE,delta=2,noexec
    12                           	psect	cinit,global,class=CODE,merge=1,delta=2
    13                           	psect	bssBANK0,global,class=BANK0,space=1,delta=1,noexec
    14                           	psect	bssBANK1,global,class=BANK1,space=1,delta=1,noexec
    15                           	psect	bssBANK2,global,class=BANK2,space=1,delta=1,noexec
    16                           	psect	bssBANK3,global,class=BANK3,space=1,delta=1,noexec
    17                           	psect	clrtext,global,class=CODE,delta=2
    18                           	psect	cstackBANK2,global,class=BANK2,space=1,delta=1,noexec
    19                           	psect	cstackBANK1,global,class=BANK1,space=1,delta=1,noexec
    20                           	psect	cstackCOMMON,global,class=COMMON,space=1,delta=1,noexec
    21                           	psect	cstackBANK0,global,class=BANK0,space=1,delta=1,noexec
    22                           	psect	maintext,global,class=CODE,merge=1,split=1,delta=2
    23                           	psect	text1,local,class=CODE,merge=1,delta=2
    24                           	psect	text2,local,class=CODE,merge=1,delta=2
    25                           	psect	text3,local,class=CODE,merge=1,delta=2
    26                           	psect	text4,local,class=CODE,merge=1,delta=2
    27                           	psect	text5,local,class=CODE,merge=1,delta=2
    28                           	psect	text6,local,class=CODE,merge=1,delta=2
    29                           	psect	text7,local,class=CODE,merge=1,delta=2
    30                           	psect	text8,local,class=CODE,merge=1,delta=2
    31                           	psect	text9,local,class=CODE,merge=1,delta=2
    32                           	psect	text10,local,class=CODE,merge=1,delta=2
    33                           	psect	text11,local,class=CODE,merge=1,delta=2
    34                           	psect	intentry,global,class=CODE,delta=2
    35                           	psect	text13,local,class=CODE,merge=1,delta=2
    36                           	psect	text14,local,class=CODE,merge=1,delta=2
    37                           	psect	text15,local,class=CODE,merge=1,delta=2
    38                           	psect	text16,local,class=CODE,merge=1,delta=2
    39                           	psect	text17,local,class=CODE,merge=1,delta=2
    40                           	psect	text18,local,class=CODE,merge=1,delta=2
    41                           	psect	text19,local,class=CODE,merge=1,delta=2
    42                           	psect	text20,local,class=CODE,merge=1,delta=2,group=2
    43                           	psect	text21,local,class=CODE,merge=1,delta=2
    44                           	psect	text22,local,class=CODE,merge=1,delta=2
    45                           	psect	text23,local,class=CODE,merge=1,delta=2
    46                           	psect	text24,local,class=CODE,merge=1,delta=2
    47                           	psect	text25,local,class=CODE,merge=1,delta=2
    48                           	psect	text26,local,class=CODE,merge=1,delta=2,group=2
    49                           	psect	text27,local,class=CODE,merge=1,delta=2
    50                           	psect	text28,local,class=CODE,merge=1,delta=2
    51                           	psect	text29,local,class=CODE,merge=1,delta=2
    52                           	psect	text30,local,class=CODE,merge=1,delta=2
    53                           	psect	text31,local,class=CODE,merge=1,delta=2
    54                           	psect	text32,local,class=CODE,merge=1,delta=2
    55                           	psect	text33,local,class=CODE,merge=1,delta=2
    56                           	psect	text34,local,class=CODE,merge=1,delta=2
    57                           	psect	text35,local,class=CODE,merge=1,delta=2
    58                           	psect	text36,local,class=CODE,merge=1,delta=2
    59                           	psect	text37,local,class=CODE,merge=1,delta=2
    60                           	psect	text38,local,class=CODE,merge=1,delta=2
    61                           	psect	text39,local,class=CODE,merge=1,delta=2
    62                           	psect	text40,local,class=CODE,merge=1,delta=2
    63                           	psect	text41,local,class=CODE,merge=1,delta=2
    64                           	psect	text42,local,class=CODE,merge=1,delta=2
    65                           	psect	text43,local,class=CODE,merge=1,delta=2
    66                           	psect	text44,local,class=CODE,merge=1,delta=2
    67                           	psect	text45,local,class=CODE,merge=1,delta=2
    68                           	psect	config,global,abs,ovrld,class=CONFIG,space=4,delta=2,noexec
    69                           	dabs	1,0x20,32,_BDT
    70                           	dabs	1,0x48,8,_CtrlTrfData
    71                           	dabs	1,0x40,8,_SetupPkt
    72                           	dabs	1,0xA0,64,_ReceivedDataBuffer
    73                           	dabs	1,0x120,64,_ToSendDataBuffer
    74                           	dabs	1,0x7E,2
    75  0000                     
    76                           ; Version 2.20
    77                           ; Generated 12/02/2020 GMT
    78                           ; 
    79                           ; Copyright © 2020, Microchip Technology Inc. and its subsidiaries ("Microchip")
    80                           ; All rights reserved.
    81                           ; 
    82                           ; This software is developed by Microchip Technology Inc. and its subsidiaries ("Microch
      +                          ip").
    83                           ; 
    84                           ; Redistribution and use in source and binary forms, with or without modification, are
    85                           ; permitted provided that the following conditions are met:
    86                           ; 
    87                           ;     1. Redistributions of source code must retain the above copyright notice, this lis
      +                          t of
    88                           ;        conditions and the following disclaimer.
    89                           ; 
    90                           ;     2. Redistributions in binary form must reproduce the above copyright notice, this 
      +                          list
    91                           ;        of conditions and the following disclaimer in the documentation and/or other
    92                           ;        materials provided with the distribution.
    93                           ; 
    94                           ;     3. Microchip's name may not be used to endorse or promote products derived from th
      +                          is
    95                           ;        software without specific prior written permission.
    96                           ; 
    97                           ; THIS SOFTWARE IS PROVIDED BY MICROCHIP "AS IS" AND ANY EXPRESS OR IMPLIED WARRANTIES,
    98                           ; INCLUDING, BUT NOT LIMITED TO, THE IMPLIED WARRANTIES OF MERCHANTABILITY AND FITNESS F
      +                          OR
    99                           ; PURPOSE ARE DISCLAIMED.  IN NO EVENT SHALL MICROCHIP BE LIABLE FOR ANY DIRECT, INDIREC
      +                          T,
   100                           ; INCIDENTAL, SPECIAL, EXEMPLARY, OR CONSEQUENTIAL DAMAGES (INCLUDING BUT NOT LIMITED TO
   101                           ; PROCUREMENT OF SUBSTITUTE GOODS OR SERVICES; LOSS OF USE, DATA OR PROFITS; OR BUSINESS
   102                           ; INTERRUPTION) HOWSOEVER CAUSED AND ON ANY THEORY OF LIABILITY, WHETHER IN CONTRACT, ST
      +                          RICT
   103                           ; LIABILITY, OR TORT (INCLUDING NEGLIGENCE OR OTHERWISE) ARISING IN ANY WAY OUT OF THE U
      +                          SE OF
   104                           ; THIS SOFTWARE, EVEN IF ADVISED OF THE POSSIBILITY OF SUCH DAMAGE.
   105                           ; 
   106                           ; 
   107                           ; Code-generator required, PIC16F1459 Definitions
   108                           ; 
   109                           ; SFR Addresses
   110  0000                     	;# 
   111  0001                     	;# 
   112  0002                     	;# 
   113  0003                     	;# 
   114  0004                     	;# 
   115  0005                     	;# 
   116  0006                     	;# 
   117  0007                     	;# 
   118  0008                     	;# 
   119  0009                     	;# 
   120  000A                     	;# 
   121  000B                     	;# 
   122  000C                     	;# 
   123  000D                     	;# 
   124  000E                     	;# 
   125  0011                     	;# 
   126  0012                     	;# 
   127  0015                     	;# 
   128  0016                     	;# 
   129  0016                     	;# 
   130  0017                     	;# 
   131  0018                     	;# 
   132  0019                     	;# 
   133  001A                     	;# 
   134  001B                     	;# 
   135  001C                     	;# 
   136  008C                     	;# 
   137  008D                     	;# 
   138  008E                     	;# 
   139  0091                     	;# 
   140  0092                     	;# 
   141  0095                     	;# 
   142  0096                     	;# 
   143  0097                     	;# 
   144  0098                     	;# 
   145  0099                     	;# 
   146  009A                     	;# 
   147  009B                     	;# 
   148  009B                     	;# 
   149  009C                     	;# 
   150  009D                     	;# 
   151  009E                     	;# 
   152  009F                     	;# 
   153  010C                     	;# 
   154  010D                     	;# 
   155  010E                     	;# 
   156  0111                     	;# 
   157  0112                     	;# 
   158  0113                     	;# 
   159  0114                     	;# 
   160  0115                     	;# 
   161  0116                     	;# 
   162  0117                     	;# 
   163  0118                     	;# 
   164  0119                     	;# 
   165  011D                     	;# 
   166  018C                     	;# 
   167  018D                     	;# 
   168  018E                     	;# 
   169  0191                     	;# 
   170  0191                     	;# 
   171  0192                     	;# 
   172  0193                     	;# 
   173  0193                     	;# 
   174  0194                     	;# 
   175  0195                     	;# 
   176  0196                     	;# 
   177  0197                     	;# 
   178  0199                     	;# 
   179  019A                     	;# 
   180  019B                     	;# 
   181  019B                     	;# 
   182  019C                     	;# 
   183  019D                     	;# 
   184  019E                     	;# 
   185  019F                     	;# 
   186  020C                     	;# 
   187  020D                     	;# 
   188  0211                     	;# 
   189  0211                     	;# 
   190  0212                     	;# 
   191  0212                     	;# 
   192  0213                     	;# 
   193  0213                     	;# 
   194  0214                     	;# 
   195  0214                     	;# 
   196  0215                     	;# 
   197  0215                     	;# 
   198  0215                     	;# 
   199  0216                     	;# 
   200  0216                     	;# 
   201  0217                     	;# 
   202  0217                     	;# 
   203  0391                     	;# 
   204  0392                     	;# 
   205  0393                     	;# 
   206  0394                     	;# 
   207  0395                     	;# 
   208  0396                     	;# 
   209  039A                     	;# 
   210  039B                     	;# 
   211  0611                     	;# 
   212  0612                     	;# 
   213  0613                     	;# 
   214  0613                     	;# 
   215  0614                     	;# 
   216  0615                     	;# 
   217  0616                     	;# 
   218  0616                     	;# 
   219  0691                     	;# 
   220  0692                     	;# 
   221  0693                     	;# 
   222  0694                     	;# 
   223  0695                     	;# 
   224  0E8E                     	;# 
   225  0E8F                     	;# 
   226  0E90                     	;# 
   227  0E91                     	;# 
   228  0E92                     	;# 
   229  0E93                     	;# 
   230  0E94                     	;# 
   231  0E94                     	;# 
   232  0E95                     	;# 
   233  0E96                     	;# 
   234  0E97                     	;# 
   235  0E98                     	;# 
   236  0E99                     	;# 
   237  0E9A                     	;# 
   238  0E9B                     	;# 
   239  0E9C                     	;# 
   240  0E9D                     	;# 
   241  0E9E                     	;# 
   242  0E9F                     	;# 
   243  0FE4                     	;# 
   244  0FE5                     	;# 
   245  0FE6                     	;# 
   246  0FE7                     	;# 
   247  0FE8                     	;# 
   248  0FE9                     	;# 
   249  0FEA                     	;# 
   250  0FEB                     	;# 
   251  0FED                     	;# 
   252  0FEE                     	;# 
   253  0FEF                     	;# 
   254  0000                     	;# 
   255  0001                     	;# 
   256  0002                     	;# 
   257  0003                     	;# 
   258  0004                     	;# 
   259  0005                     	;# 
   260  0006                     	;# 
   261  0007                     	;# 
   262  0008                     	;# 
   263  0009                     	;# 
   264  000A                     	;# 
   265  000B                     	;# 
   266  000C                     	;# 
   267  000D                     	;# 
   268  000E                     	;# 
   269  0011                     	;# 
   270  0012                     	;# 
   271  0015                     	;# 
   272  0016                     	;# 
   273  0016                     	;# 
   274  0017                     	;# 
   275  0018                     	;# 
   276  0019                     	;# 
   277  001A                     	;# 
   278  001B                     	;# 
   279  001C                     	;# 
   280  008C                     	;# 
   281  008D                     	;# 
   282  008E                     	;# 
   283  0091                     	;# 
   284  0092                     	;# 
   285  0095                     	;# 
   286  0096                     	;# 
   287  0097                     	;# 
   288  0098                     	;# 
   289  0099                     	;# 
   290  009A                     	;# 
   291  009B                     	;# 
   292  009B                     	;# 
   293  009C                     	;# 
   294  009D                     	;# 
   295  009E                     	;# 
   296  009F                     	;# 
   297  010C                     	;# 
   298  010D                     	;# 
   299  010E                     	;# 
   300  0111                     	;# 
   301  0112                     	;# 
   302  0113                     	;# 
   303  0114                     	;# 
   304  0115                     	;# 
   305  0116                     	;# 
   306  0117                     	;# 
   307  0118                     	;# 
   308  0119                     	;# 
   309  011D                     	;# 
   310  018C                     	;# 
   311  018D                     	;# 
   312  018E                     	;# 
   313  0191                     	;# 
   314  0191                     	;# 
   315  0192                     	;# 
   316  0193                     	;# 
   317  0193                     	;# 
   318  0194                     	;# 
   319  0195                     	;# 
   320  0196                     	;# 
   321  0197                     	;# 
   322  0199                     	;# 
   323  019A                     	;# 
   324  019B                     	;# 
   325  019B                     	;# 
   326  019C                     	;# 
   327  019D                     	;# 
   328  019E                     	;# 
   329  019F                     	;# 
   330  020C                     	;# 
   331  020D                     	;# 
   332  0211                     	;# 
   333  0211                     	;# 
   334  0212                     	;# 
   335  0212                     	;# 
   336  0213                     	;# 
   337  0213                     	;# 
   338  0214                     	;# 
   339  0214                     	;# 
   340  0215                     	;# 
   341  0215                     	;# 
   342  0215                     	;# 
   343  0216                     	;# 
   344  0216                     	;# 
   345  0217                     	;# 
   346  0217                     	;# 
   347  0391                     	;# 
   348  0392                     	;# 
   349  0393                     	;# 
   350  0394                     	;# 
   351  0395                     	;# 
   352  0396                     	;# 
   353  039A                     	;# 
   354  039B                     	;# 
   355  0611                     	;# 
   356  0612                     	;# 
   357  0613                     	;# 
   358  0613                     	;# 
   359  0614                     	;# 
   360  0615                     	;# 
   361  0616                     	;# 
   362  0616                     	;# 
   363  0691                     	;# 
   364  0692                     	;# 
   365  0693                     	;# 
   366  0694                     	;# 
   367  0695                     	;# 
   368  0E8E                     	;# 
   369  0E8F                     	;# 
   370  0E90                     	;# 
   371  0E91                     	;# 
   372  0E92                     	;# 
   373  0E93                     	;# 
   374  0E94                     	;# 
   375  0E94                     	;# 
   376  0E95                     	;# 
   377  0E96                     	;# 
   378  0E97                     	;# 
   379  0E98                     	;# 
   380  0E99                     	;# 
   381  0E9A                     	;# 
   382  0E9B                     	;# 
   383  0E9C                     	;# 
   384  0E9D                     	;# 
   385  0E9E                     	;# 
   386  0E9F                     	;# 
   387  0FE4                     	;# 
   388  0FE5                     	;# 
   389  0FE6                     	;# 
   390  0FE7                     	;# 
   391  0FE8                     	;# 
   392  0FE9                     	;# 
   393  0FEA                     	;# 
   394  0FEB                     	;# 
   395  0FED                     	;# 
   396  0FEE                     	;# 
   397  0FEF                     	;# 
   398  0000                     	;# 
   399  0001                     	;# 
   400  0002                     	;# 
   401  0003                     	;# 
   402  0004                     	;# 
   403  0005                     	;# 
   404  0006                     	;# 
   405  0007                     	;# 
   406  0008                     	;# 
   407  0009                     	;# 
   408  000A                     	;# 
   409  000B                     	;# 
   410  000C                     	;# 
   411  000D                     	;# 
   412  000E                     	;# 
   413  0011                     	;# 
   414  0012                     	;# 
   415  0015                     	;# 
   416  0016                     	;# 
   417  0016                     	;# 
   418  0017                     	;# 
   419  0018                     	;# 
   420  0019                     	;# 
   421  001A                     	;# 
   422  001B                     	;# 
   423  001C                     	;# 
   424  008C                     	;# 
   425  008D                     	;# 
   426  008E                     	;# 
   427  0091                     	;# 
   428  0092                     	;# 
   429  0095                     	;# 
   430  0096                     	;# 
   431  0097                     	;# 
   432  0098                     	;# 
   433  0099                     	;# 
   434  009A                     	;# 
   435  009B                     	;# 
   436  009B                     	;# 
   437  009C                     	;# 
   438  009D                     	;# 
   439  009E                     	;# 
   440  009F                     	;# 
   441  010C                     	;# 
   442  010D                     	;# 
   443  010E                     	;# 
   444  0111                     	;# 
   445  0112                     	;# 
   446  0113                     	;# 
   447  0114                     	;# 
   448  0115                     	;# 
   449  0116                     	;# 
   450  0117                     	;# 
   451  0118                     	;# 
   452  0119                     	;# 
   453  011D                     	;# 
   454  018C                     	;# 
   455  018D                     	;# 
   456  018E                     	;# 
   457  0191                     	;# 
   458  0191                     	;# 
   459  0192                     	;# 
   460  0193                     	;# 
   461  0193                     	;# 
   462  0194                     	;# 
   463  0195                     	;# 
   464  0196                     	;# 
   465  0197                     	;# 
   466  0199                     	;# 
   467  019A                     	;# 
   468  019B                     	;# 
   469  019B                     	;# 
   470  019C                     	;# 
   471  019D                     	;# 
   472  019E                     	;# 
   473  019F                     	;# 
   474  020C                     	;# 
   475  020D                     	;# 
   476  0211                     	;# 
   477  0211                     	;# 
   478  0212                     	;# 
   479  0212                     	;# 
   480  0213                     	;# 
   481  0213                     	;# 
   482  0214                     	;# 
   483  0214                     	;# 
   484  0215                     	;# 
   485  0215                     	;# 
   486  0215                     	;# 
   487  0216                     	;# 
   488  0216                     	;# 
   489  0217                     	;# 
   490  0217                     	;# 
   491  0391                     	;# 
   492  0392                     	;# 
   493  0393                     	;# 
   494  0394                     	;# 
   495  0395                     	;# 
   496  0396                     	;# 
   497  039A                     	;# 
   498  039B                     	;# 
   499  0611                     	;# 
   500  0612                     	;# 
   501  0613                     	;# 
   502  0613                     	;# 
   503  0614                     	;# 
   504  0615                     	;# 
   505  0616                     	;# 
   506  0616                     	;# 
   507  0691                     	;# 
   508  0692                     	;# 
   509  0693                     	;# 
   510  0694                     	;# 
   511  0695                     	;# 
   512  0E8E                     	;# 
   513  0E8F                     	;# 
   514  0E90                     	;# 
   515  0E91                     	;# 
   516  0E92                     	;# 
   517  0E93                     	;# 
   518  0E94                     	;# 
   519  0E94                     	;# 
   520  0E95                     	;# 
   521  0E96                     	;# 
   522  0E97                     	;# 
   523  0E98                     	;# 
   524  0E99                     	;# 
   525  0E9A                     	;# 
   526  0E9B                     	;# 
   527  0E9C                     	;# 
   528  0E9D                     	;# 
   529  0E9E                     	;# 
   530  0E9F                     	;# 
   531  0FE4                     	;# 
   532  0FE5                     	;# 
   533  0FE6                     	;# 
   534  0FE7                     	;# 
   535  0FE8                     	;# 
   536  0FE9                     	;# 
   537  0FEA                     	;# 
   538  0FEB                     	;# 
   539  0FED                     	;# 
   540  0FEE                     	;# 
   541  0FEF                     	;# 
   542  0000                     	;# 
   543  0001                     	;# 
   544  0002                     	;# 
   545  0003                     	;# 
   546  0004                     	;# 
   547  0005                     	;# 
   548  0006                     	;# 
   549  0007                     	;# 
   550  0008                     	;# 
   551  0009                     	;# 
   552  000A                     	;# 
   553  000B                     	;# 
   554  000C                     	;# 
   555  000D                     	;# 
   556  000E                     	;# 
   557  0011                     	;# 
   558  0012                     	;# 
   559  0015                     	;# 
   560  0016                     	;# 
   561  0016                     	;# 
   562  0017                     	;# 
   563  0018                     	;# 
   564  0019                     	;# 
   565  001A                     	;# 
   566  001B                     	;# 
   567  001C                     	;# 
   568  008C                     	;# 
   569  008D                     	;# 
   570  008E                     	;# 
   571  0091                     	;# 
   572  0092                     	;# 
   573  0095                     	;# 
   574  0096                     	;# 
   575  0097                     	;# 
   576  0098                     	;# 
   577  0099                     	;# 
   578  009A                     	;# 
   579  009B                     	;# 
   580  009B                     	;# 
   581  009C                     	;# 
   582  009D                     	;# 
   583  009E                     	;# 
   584  009F                     	;# 
   585  010C                     	;# 
   586  010D                     	;# 
   587  010E                     	;# 
   588  0111                     	;# 
   589  0112                     	;# 
   590  0113                     	;# 
   591  0114                     	;# 
   592  0115                     	;# 
   593  0116                     	;# 
   594  0117                     	;# 
   595  0118                     	;# 
   596  0119                     	;# 
   597  011D                     	;# 
   598  018C                     	;# 
   599  018D                     	;# 
   600  018E                     	;# 
   601  0191                     	;# 
   602  0191                     	;# 
   603  0192                     	;# 
   604  0193                     	;# 
   605  0193                     	;# 
   606  0194                     	;# 
   607  0195                     	;# 
   608  0196                     	;# 
   609  0197                     	;# 
   610  0199                     	;# 
   611  019A                     	;# 
   612  019B                     	;# 
   613  019B                     	;# 
   614  019C                     	;# 
   615  019D                     	;# 
   616  019E                     	;# 
   617  019F                     	;# 
   618  020C                     	;# 
   619  020D                     	;# 
   620  0211                     	;# 
   621  0211                     	;# 
   622  0212                     	;# 
   623  0212                     	;# 
   624  0213                     	;# 
   625  0213                     	;# 
   626  0214                     	;# 
   627  0214                     	;# 
   628  0215                     	;# 
   629  0215                     	;# 
   630  0215                     	;# 
   631  0216                     	;# 
   632  0216                     	;# 
   633  0217                     	;# 
   634  0217                     	;# 
   635  0391                     	;# 
   636  0392                     	;# 
   637  0393                     	;# 
   638  0394                     	;# 
   639  0395                     	;# 
   640  0396                     	;# 
   641  039A                     	;# 
   642  039B                     	;# 
   643  0611                     	;# 
   644  0612                     	;# 
   645  0613                     	;# 
   646  0613                     	;# 
   647  0614                     	;# 
   648  0615                     	;# 
   649  0616                     	;# 
   650  0616                     	;# 
   651  0691                     	;# 
   652  0692                     	;# 
   653  0693                     	;# 
   654  0694                     	;# 
   655  0695                     	;# 
   656  0E8E                     	;# 
   657  0E8F                     	;# 
   658  0E90                     	;# 
   659  0E91                     	;# 
   660  0E92                     	;# 
   661  0E93                     	;# 
   662  0E94                     	;# 
   663  0E94                     	;# 
   664  0E95                     	;# 
   665  0E96                     	;# 
   666  0E97                     	;# 
   667  0E98                     	;# 
   668  0E99                     	;# 
   669  0E9A                     	;# 
   670  0E9B                     	;# 
   671  0E9C                     	;# 
   672  0E9D                     	;# 
   673  0E9E                     	;# 
   674  0E9F                     	;# 
   675  0FE4                     	;# 
   676  0FE5                     	;# 
   677  0FE6                     	;# 
   678  0FE7                     	;# 
   679  0FE8                     	;# 
   680  0FE9                     	;# 
   681  0FEA                     	;# 
   682  0FEB                     	;# 
   683  0FED                     	;# 
   684  0FEE                     	;# 
   685  0FEF                     	;# 
   686  0000                     	;# 
   687  0001                     	;# 
   688  0002                     	;# 
   689  0003                     	;# 
   690  0004                     	;# 
   691  0005                     	;# 
   692  0006                     	;# 
   693  0007                     	;# 
   694  0008                     	;# 
   695  0009                     	;# 
   696  000A                     	;# 
   697  000B                     	;# 
   698  000C                     	;# 
   699  000D                     	;# 
   700  000E                     	;# 
   701  0011                     	;# 
   702  0012                     	;# 
   703  0015                     	;# 
   704  0016                     	;# 
   705  0016                     	;# 
   706  0017                     	;# 
   707  0018                     	;# 
   708  0019                     	;# 
   709  001A                     	;# 
   710  001B                     	;# 
   711  001C                     	;# 
   712  008C                     	;# 
   713  008D                     	;# 
   714  008E                     	;# 
   715  0091                     	;# 
   716  0092                     	;# 
   717  0095                     	;# 
   718  0096                     	;# 
   719  0097                     	;# 
   720  0098                     	;# 
   721  0099                     	;# 
   722  009A                     	;# 
   723  009B                     	;# 
   724  009B                     	;# 
   725  009C                     	;# 
   726  009D                     	;# 
   727  009E                     	;# 
   728  009F                     	;# 
   729  010C                     	;# 
   730  010D                     	;# 
   731  010E                     	;# 
   732  0111                     	;# 
   733  0112                     	;# 
   734  0113                     	;# 
   735  0114                     	;# 
   736  0115                     	;# 
   737  0116                     	;# 
   738  0117                     	;# 
   739  0118                     	;# 
   740  0119                     	;# 
   741  011D                     	;# 
   742  018C                     	;# 
   743  018D                     	;# 
   744  018E                     	;# 
   745  0191                     	;# 
   746  0191                     	;# 
   747  0192                     	;# 
   748  0193                     	;# 
   749  0193                     	;# 
   750  0194                     	;# 
   751  0195                     	;# 
   752  0196                     	;# 
   753  0197                     	;# 
   754  0199                     	;# 
   755  019A                     	;# 
   756  019B                     	;# 
   757  019B                     	;# 
   758  019C                     	;# 
   759  019D                     	;# 
   760  019E                     	;# 
   761  019F                     	;# 
   762  020C                     	;# 
   763  020D                     	;# 
   764  0211                     	;# 
   765  0211                     	;# 
   766  0212                     	;# 
   767  0212                     	;# 
   768  0213                     	;# 
   769  0213                     	;# 
   770  0214                     	;# 
   771  0214                     	;# 
   772  0215                     	;# 
   773  0215                     	;# 
   774  0215                     	;# 
   775  0216                     	;# 
   776  0216                     	;# 
   777  0217                     	;# 
   778  0217                     	;# 
   779  0391                     	;# 
   780  0392                     	;# 
   781  0393                     	;# 
   782  0394                     	;# 
   783  0395                     	;# 
   784  0396                     	;# 
   785  039A                     	;# 
   786  039B                     	;# 
   787  0611                     	;# 
   788  0612                     	;# 
   789  0613                     	;# 
   790  0613                     	;# 
   791  0614                     	;# 
   792  0615                     	;# 
   793  0616                     	;# 
   794  0616                     	;# 
   795  0691                     	;# 
   796  0692                     	;# 
   797  0693                     	;# 
   798  0694                     	;# 
   799  0695                     	;# 
   800  0E8E                     	;# 
   801  0E8F                     	;# 
   802  0E90                     	;# 
   803  0E91                     	;# 
   804  0E92                     	;# 
   805  0E93                     	;# 
   806  0E94                     	;# 
   807  0E94                     	;# 
   808  0E95                     	;# 
   809  0E96                     	;# 
   810  0E97                     	;# 
   811  0E98                     	;# 
   812  0E99                     	;# 
   813  0E9A                     	;# 
   814  0E9B                     	;# 
   815  0E9C                     	;# 
   816  0E9D                     	;# 
   817  0E9E                     	;# 
   818  0E9F                     	;# 
   819  0FE4                     	;# 
   820  0FE5                     	;# 
   821  0FE6                     	;# 
   822  0FE7                     	;# 
   823  0FE8                     	;# 
   824  0FE9                     	;# 
   825  0FEA                     	;# 
   826  0FEB                     	;# 
   827  0FED                     	;# 
   828  0FEE                     	;# 
   829  0FEF                     	;# 
   830  0000                     	;# 
   831  0001                     	;# 
   832  0002                     	;# 
   833  0003                     	;# 
   834  0004                     	;# 
   835  0005                     	;# 
   836  0006                     	;# 
   837  0007                     	;# 
   838  0008                     	;# 
   839  0009                     	;# 
   840  000A                     	;# 
   841  000B                     	;# 
   842  000C                     	;# 
   843  000D                     	;# 
   844  000E                     	;# 
   845  0011                     	;# 
   846  0012                     	;# 
   847  0015                     	;# 
   848  0016                     	;# 
   849  0016                     	;# 
   850  0017                     	;# 
   851  0018                     	;# 
   852  0019                     	;# 
   853  001A                     	;# 
   854  001B                     	;# 
   855  001C                     	;# 
   856  008C                     	;# 
   857  008D                     	;# 
   858  008E                     	;# 
   859  0091                     	;# 
   860  0092                     	;# 
   861  0095                     	;# 
   862  0096                     	;# 
   863  0097                     	;# 
   864  0098                     	;# 
   865  0099                     	;# 
   866  009A                     	;# 
   867  009B                     	;# 
   868  009B                     	;# 
   869  009C                     	;# 
   870  009D                     	;# 
   871  009E                     	;# 
   872  009F                     	;# 
   873  010C                     	;# 
   874  010D                     	;# 
   875  010E                     	;# 
   876  0111                     	;# 
   877  0112                     	;# 
   878  0113                     	;# 
   879  0114                     	;# 
   880  0115                     	;# 
   881  0116                     	;# 
   882  0117                     	;# 
   883  0118                     	;# 
   884  0119                     	;# 
   885  011D                     	;# 
   886  018C                     	;# 
   887  018D                     	;# 
   888  018E                     	;# 
   889  0191                     	;# 
   890  0191                     	;# 
   891  0192                     	;# 
   892  0193                     	;# 
   893  0193                     	;# 
   894  0194                     	;# 
   895  0195                     	;# 
   896  0196                     	;# 
   897  0197                     	;# 
   898  0199                     	;# 
   899  019A                     	;# 
   900  019B                     	;# 
   901  019B                     	;# 
   902  019C                     	;# 
   903  019D                     	;# 
   904  019E                     	;# 
   905  019F                     	;# 
   906  020C                     	;# 
   907  020D                     	;# 
   908  0211                     	;# 
   909  0211                     	;# 
   910  0212                     	;# 
   911  0212                     	;# 
   912  0213                     	;# 
   913  0213                     	;# 
   914  0214                     	;# 
   915  0214                     	;# 
   916  0215                     	;# 
   917  0215                     	;# 
   918  0215                     	;# 
   919  0216                     	;# 
   920  0216                     	;# 
   921  0217                     	;# 
   922  0217                     	;# 
   923  0391                     	;# 
   924  0392                     	;# 
   925  0393                     	;# 
   926  0394                     	;# 
   927  0395                     	;# 
   928  0396                     	;# 
   929  039A                     	;# 
   930  039B                     	;# 
   931  0611                     	;# 
   932  0612                     	;# 
   933  0613                     	;# 
   934  0613                     	;# 
   935  0614                     	;# 
   936  0615                     	;# 
   937  0616                     	;# 
   938  0616                     	;# 
   939  0691                     	;# 
   940  0692                     	;# 
   941  0693                     	;# 
   942  0694                     	;# 
   943  0695                     	;# 
   944  0E8E                     	;# 
   945  0E8F                     	;# 
   946  0E90                     	;# 
   947  0E91                     	;# 
   948  0E92                     	;# 
   949  0E93                     	;# 
   950  0E94                     	;# 
   951  0E94                     	;# 
   952  0E95                     	;# 
   953  0E96                     	;# 
   954  0E97                     	;# 
   955  0E98                     	;# 
   956  0E99                     	;# 
   957  0E9A                     	;# 
   958  0E9B                     	;# 
   959  0E9C                     	;# 
   960  0E9D                     	;# 
   961  0E9E                     	;# 
   962  0E9F                     	;# 
   963  0FE4                     	;# 
   964  0FE5                     	;# 
   965  0FE6                     	;# 
   966  0FE7                     	;# 
   967  0FE8                     	;# 
   968  0FE9                     	;# 
   969  0FEA                     	;# 
   970  0FEB                     	;# 
   971  0FED                     	;# 
   972  0FEE                     	;# 
   973  0FEF                     	;# 
   974  0000                     	;# 
   975  0001                     	;# 
   976  0002                     	;# 
   977  0003                     	;# 
   978  0004                     	;# 
   979  0005                     	;# 
   980  0006                     	;# 
   981  0007                     	;# 
   982  0008                     	;# 
   983  0009                     	;# 
   984  000A                     	;# 
   985  000B                     	;# 
   986  000C                     	;# 
   987  000D                     	;# 
   988  000E                     	;# 
   989  0011                     	;# 
   990  0012                     	;# 
   991  0015                     	;# 
   992  0016                     	;# 
   993  0016                     	;# 
   994  0017                     	;# 
   995  0018                     	;# 
   996  0019                     	;# 
   997  001A                     	;# 
   998  001B                     	;# 
   999  001C                     	;# 
  1000  008C                     	;# 
  1001  008D                     	;# 
  1002  008E                     	;# 
  1003  0091                     	;# 
  1004  0092                     	;# 
  1005  0095                     	;# 
  1006  0096                     	;# 
  1007  0097                     	;# 
  1008  0098                     	;# 
  1009  0099                     	;# 
  1010  009A                     	;# 
  1011  009B                     	;# 
  1012  009B                     	;# 
  1013  009C                     	;# 
  1014  009D                     	;# 
  1015  009E                     	;# 
  1016  009F                     	;# 
  1017  010C                     	;# 
  1018  010D                     	;# 
  1019  010E                     	;# 
  1020  0111                     	;# 
  1021  0112                     	;# 
  1022  0113                     	;# 
  1023  0114                     	;# 
  1024  0115                     	;# 
  1025  0116                     	;# 
  1026  0117                     	;# 
  1027  0118                     	;# 
  1028  0119                     	;# 
  1029  011D                     	;# 
  1030  018C                     	;# 
  1031  018D                     	;# 
  1032  018E                     	;# 
  1033  0191                     	;# 
  1034  0191                     	;# 
  1035  0192                     	;# 
  1036  0193                     	;# 
  1037  0193                     	;# 
  1038  0194                     	;# 
  1039  0195                     	;# 
  1040  0196                     	;# 
  1041  0197                     	;# 
  1042  0199                     	;# 
  1043  019A                     	;# 
  1044  019B                     	;# 
  1045  019B                     	;# 
  1046  019C                     	;# 
  1047  019D                     	;# 
  1048  019E                     	;# 
  1049  019F                     	;# 
  1050  020C                     	;# 
  1051  020D                     	;# 
  1052  0211                     	;# 
  1053  0211                     	;# 
  1054  0212                     	;# 
  1055  0212                     	;# 
  1056  0213                     	;# 
  1057  0213                     	;# 
  1058  0214                     	;# 
  1059  0214                     	;# 
  1060  0215                     	;# 
  1061  0215                     	;# 
  1062  0215                     	;# 
  1063  0216                     	;# 
  1064  0216                     	;# 
  1065  0217                     	;# 
  1066  0217                     	;# 
  1067  0391                     	;# 
  1068  0392                     	;# 
  1069  0393                     	;# 
  1070  0394                     	;# 
  1071  0395                     	;# 
  1072  0396                     	;# 
  1073  039A                     	;# 
  1074  039B                     	;# 
  1075  0611                     	;# 
  1076  0612                     	;# 
  1077  0613                     	;# 
  1078  0613                     	;# 
  1079  0614                     	;# 
  1080  0615                     	;# 
  1081  0616                     	;# 
  1082  0616                     	;# 
  1083  0691                     	;# 
  1084  0692                     	;# 
  1085  0693                     	;# 
  1086  0694                     	;# 
  1087  0695                     	;# 
  1088  0E8E                     	;# 
  1089  0E8F                     	;# 
  1090  0E90                     	;# 
  1091  0E91                     	;# 
  1092  0E92                     	;# 
  1093  0E93                     	;# 
  1094  0E94                     	;# 
  1095  0E94                     	;# 
  1096  0E95                     	;# 
  1097  0E96                     	;# 
  1098  0E97                     	;# 
  1099  0E98                     	;# 
  1100  0E99                     	;# 
  1101  0E9A                     	;# 
  1102  0E9B                     	;# 
  1103  0E9C                     	;# 
  1104  0E9D                     	;# 
  1105  0E9E                     	;# 
  1106  0E9F                     	;# 
  1107  0FE4                     	;# 
  1108  0FE5                     	;# 
  1109  0FE6                     	;# 
  1110  0FE7                     	;# 
  1111  0FE8                     	;# 
  1112  0FE9                     	;# 
  1113  0FEA                     	;# 
  1114  0FEB                     	;# 
  1115  0FED                     	;# 
  1116  0FEE                     	;# 
  1117  0FEF                     	;# 
  1118  0000                     	;# 
  1119  0001                     	;# 
  1120  0002                     	;# 
  1121  0003                     	;# 
  1122  0004                     	;# 
  1123  0005                     	;# 
  1124  0006                     	;# 
  1125  0007                     	;# 
  1126  0008                     	;# 
  1127  0009                     	;# 
  1128  000A                     	;# 
  1129  000B                     	;# 
  1130  000C                     	;# 
  1131  000D                     	;# 
  1132  000E                     	;# 
  1133  0011                     	;# 
  1134  0012                     	;# 
  1135  0015                     	;# 
  1136  0016                     	;# 
  1137  0016                     	;# 
  1138  0017                     	;# 
  1139  0018                     	;# 
  1140  0019                     	;# 
  1141  001A                     	;# 
  1142  001B                     	;# 
  1143  001C                     	;# 
  1144  008C                     	;# 
  1145  008D                     	;# 
  1146  008E                     	;# 
  1147  0091                     	;# 
  1148  0092                     	;# 
  1149  0095                     	;# 
  1150  0096                     	;# 
  1151  0097                     	;# 
  1152  0098                     	;# 
  1153  0099                     	;# 
  1154  009A                     	;# 
  1155  009B                     	;# 
  1156  009B                     	;# 
  1157  009C                     	;# 
  1158  009D                     	;# 
  1159  009E                     	;# 
  1160  009F                     	;# 
  1161  010C                     	;# 
  1162  010D                     	;# 
  1163  010E                     	;# 
  1164  0111                     	;# 
  1165  0112                     	;# 
  1166  0113                     	;# 
  1167  0114                     	;# 
  1168  0115                     	;# 
  1169  0116                     	;# 
  1170  0117                     	;# 
  1171  0118                     	;# 
  1172  0119                     	;# 
  1173  011D                     	;# 
  1174  018C                     	;# 
  1175  018D                     	;# 
  1176  018E                     	;# 
  1177  0191                     	;# 
  1178  0191                     	;# 
  1179  0192                     	;# 
  1180  0193                     	;# 
  1181  0193                     	;# 
  1182  0194                     	;# 
  1183  0195                     	;# 
  1184  0196                     	;# 
  1185  0197                     	;# 
  1186  0199                     	;# 
  1187  019A                     	;# 
  1188  019B                     	;# 
  1189  019B                     	;# 
  1190  019C                     	;# 
  1191  019D                     	;# 
  1192  019E                     	;# 
  1193  019F                     	;# 
  1194  020C                     	;# 
  1195  020D                     	;# 
  1196  0211                     	;# 
  1197  0211                     	;# 
  1198  0212                     	;# 
  1199  0212                     	;# 
  1200  0213                     	;# 
  1201  0213                     	;# 
  1202  0214                     	;# 
  1203  0214                     	;# 
  1204  0215                     	;# 
  1205  0215                     	;# 
  1206  0215                     	;# 
  1207  0216                     	;# 
  1208  0216                     	;# 
  1209  0217                     	;# 
  1210  0217                     	;# 
  1211  0391                     	;# 
  1212  0392                     	;# 
  1213  0393                     	;# 
  1214  0394                     	;# 
  1215  0395                     	;# 
  1216  0396                     	;# 
  1217  039A                     	;# 
  1218  039B                     	;# 
  1219  0611                     	;# 
  1220  0612                     	;# 
  1221  0613                     	;# 
  1222  0613                     	;# 
  1223  0614                     	;# 
  1224  0615                     	;# 
  1225  0616                     	;# 
  1226  0616                     	;# 
  1227  0691                     	;# 
  1228  0692                     	;# 
  1229  0693                     	;# 
  1230  0694                     	;# 
  1231  0695                     	;# 
  1232  0E8E                     	;# 
  1233  0E8F                     	;# 
  1234  0E90                     	;# 
  1235  0E91                     	;# 
  1236  0E92                     	;# 
  1237  0E93                     	;# 
  1238  0E94                     	;# 
  1239  0E94                     	;# 
  1240  0E95                     	;# 
  1241  0E96                     	;# 
  1242  0E97                     	;# 
  1243  0E98                     	;# 
  1244  0E99                     	;# 
  1245  0E9A                     	;# 
  1246  0E9B                     	;# 
  1247  0E9C                     	;# 
  1248  0E9D                     	;# 
  1249  0E9E                     	;# 
  1250  0E9F                     	;# 
  1251  0FE4                     	;# 
  1252  0FE5                     	;# 
  1253  0FE6                     	;# 
  1254  0FE7                     	;# 
  1255  0FE8                     	;# 
  1256  0FE9                     	;# 
  1257  0FEA                     	;# 
  1258  0FEB                     	;# 
  1259  0FED                     	;# 
  1260  0FEE                     	;# 
  1261  0FEF                     	;# 
  1262  0000                     	;# 
  1263  0001                     	;# 
  1264  0002                     	;# 
  1265  0003                     	;# 
  1266  0004                     	;# 
  1267  0005                     	;# 
  1268  0006                     	;# 
  1269  0007                     	;# 
  1270  0008                     	;# 
  1271  0009                     	;# 
  1272  000A                     	;# 
  1273  000B                     	;# 
  1274  000C                     	;# 
  1275  000D                     	;# 
  1276  000E                     	;# 
  1277  0011                     	;# 
  1278  0012                     	;# 
  1279  0015                     	;# 
  1280  0016                     	;# 
  1281  0016                     	;# 
  1282  0017                     	;# 
  1283  0018                     	;# 
  1284  0019                     	;# 
  1285  001A                     	;# 
  1286  001B                     	;# 
  1287  001C                     	;# 
  1288  008C                     	;# 
  1289  008D                     	;# 
  1290  008E                     	;# 
  1291  0091                     	;# 
  1292  0092                     	;# 
  1293  0095                     	;# 
  1294  0096                     	;# 
  1295  0097                     	;# 
  1296  0098                     	;# 
  1297  0099                     	;# 
  1298  009A                     	;# 
  1299  009B                     	;# 
  1300  009B                     	;# 
  1301  009C                     	;# 
  1302  009D                     	;# 
  1303  009E                     	;# 
  1304  009F                     	;# 
  1305  010C                     	;# 
  1306  010D                     	;# 
  1307  010E                     	;# 
  1308  0111                     	;# 
  1309  0112                     	;# 
  1310  0113                     	;# 
  1311  0114                     	;# 
  1312  0115                     	;# 
  1313  0116                     	;# 
  1314  0117                     	;# 
  1315  0118                     	;# 
  1316  0119                     	;# 
  1317  011D                     	;# 
  1318  018C                     	;# 
  1319  018D                     	;# 
  1320  018E                     	;# 
  1321  0191                     	;# 
  1322  0191                     	;# 
  1323  0192                     	;# 
  1324  0193                     	;# 
  1325  0193                     	;# 
  1326  0194                     	;# 
  1327  0195                     	;# 
  1328  0196                     	;# 
  1329  0197                     	;# 
  1330  0199                     	;# 
  1331  019A                     	;# 
  1332  019B                     	;# 
  1333  019B                     	;# 
  1334  019C                     	;# 
  1335  019D                     	;# 
  1336  019E                     	;# 
  1337  019F                     	;# 
  1338  020C                     	;# 
  1339  020D                     	;# 
  1340  0211                     	;# 
  1341  0211                     	;# 
  1342  0212                     	;# 
  1343  0212                     	;# 
  1344  0213                     	;# 
  1345  0213                     	;# 
  1346  0214                     	;# 
  1347  0214                     	;# 
  1348  0215                     	;# 
  1349  0215                     	;# 
  1350  0215                     	;# 
  1351  0216                     	;# 
  1352  0216                     	;# 
  1353  0217                     	;# 
  1354  0217                     	;# 
  1355  0391                     	;# 
  1356  0392                     	;# 
  1357  0393                     	;# 
  1358  0394                     	;# 
  1359  0395                     	;# 
  1360  0396                     	;# 
  1361  039A                     	;# 
  1362  039B                     	;# 
  1363  0611                     	;# 
  1364  0612                     	;# 
  1365  0613                     	;# 
  1366  0613                     	;# 
  1367  0614                     	;# 
  1368  0615                     	;# 
  1369  0616                     	;# 
  1370  0616                     	;# 
  1371  0691                     	;# 
  1372  0692                     	;# 
  1373  0693                     	;# 
  1374  0694                     	;# 
  1375  0695                     	;# 
  1376  0E8E                     	;# 
  1377  0E8F                     	;# 
  1378  0E90                     	;# 
  1379  0E91                     	;# 
  1380  0E92                     	;# 
  1381  0E93                     	;# 
  1382  0E94                     	;# 
  1383  0E94                     	;# 
  1384  0E95                     	;# 
  1385  0E96                     	;# 
  1386  0E97                     	;# 
  1387  0E98                     	;# 
  1388  0E99                     	;# 
  1389  0E9A                     	;# 
  1390  0E9B                     	;# 
  1391  0E9C                     	;# 
  1392  0E9D                     	;# 
  1393  0E9E                     	;# 
  1394  0E9F                     	;# 
  1395  0FE4                     	;# 
  1396  0FE5                     	;# 
  1397  0FE6                     	;# 
  1398  0FE7                     	;# 
  1399  0FE8                     	;# 
  1400  0FE9                     	;# 
  1401  0FEA                     	;# 
  1402  0FEB                     	;# 
  1403  0FED                     	;# 
  1404  0FEE                     	;# 
  1405  0FEF                     	;# 
  1406                           
  1407                           	psect	stringtext1
  1408  1812                     __pstringtext1:
  1409  1812                     _USB_SD_Ptr:
  1410  1812  3418               	retlw	low (_sd000| (0+32768))
  1411  1813  3498               	retlw	high (_sd000| (0+32768))
  1412  1814  3453               	retlw	low (_sd001| (0+32768))
  1413  1815  3490               	retlw	high (_sd001| (0+32768))
  1414  1816  3400               	retlw	low (_sd002| (0+32768))
  1415  1817  3490               	retlw	high (_sd002| (0+32768))
  1416  1818                     __end_of_USB_SD_Ptr:
  1417                           
  1418                           	psect	stringtext2
  1419  181C                     __pstringtext2:
  1420  181C                     _USB_CD_Ptr:
  1421  181C  342A               	retlw	low (_configDescriptor1| (0+32768))
  1422  181D  3490               	retlw	high (_configDescriptor1| (0+32768))
  1423  181E                     __end_of_USB_CD_Ptr:
  1424                           
  1425                           	psect	stringtext3
  1426  1000                     __pstringtext3:
  1427  1000                     _sd002:
  1428  1000  342A               	retlw	42
  1429  1001  3403               	retlw	3
  1430  1002  3441               	retlw	65
  1431  1003  3400               	retlw	0
  1432  1004  346C               	retlw	108
  1433  1005  3400               	retlw	0
  1434  1006  3463               	retlw	99
  1435  1007  3400               	retlw	0
  1436  1008  346F               	retlw	111
  1437  1009  3400               	retlw	0
  1438  100A  3468               	retlw	104
  1439  100B  3400               	retlw	0
  1440  100C  346F               	retlw	111
  1441  100D  3400               	retlw	0
  1442  100E  346C               	retlw	108
  1443  100F  3400               	retlw	0
  1444  1010  3420               	retlw	32
  1445  1011  3400               	retlw	0
  1446  1012  3444               	retlw	68
  1447  1013  3400               	retlw	0
  1448  1014  3472               	retlw	114
  1449  1015  3400               	retlw	0
  1450  1016  3469               	retlw	105
  1451  1017  3400               	retlw	0
  1452  1018  3476               	retlw	118
  1453  1019  3400               	retlw	0
  1454  101A  3465               	retlw	101
  1455  101B  3400               	retlw	0
  1456  101C  3420               	retlw	32
  1457  101D  3400               	retlw	0
  1458  101E  3441               	retlw	65
  1459  101F  3400               	retlw	0
  1460  1020  344C               	retlw	76
  1461  1021  3400               	retlw	0
  1462  1022  3443               	retlw	67
  1463  1023  3400               	retlw	0
  1464  1024  3430               	retlw	48
  1465  1025  3400               	retlw	0
  1466  1026  3430               	retlw	48
  1467  1027  3400               	retlw	0
  1468  1028  3431               	retlw	49
  1469  1029  3400               	retlw	0
  1470  102A                     __end_of_sd002:
  1471                           
  1472                           	psect	stringtext4
  1473  102A                     __pstringtext4:
  1474  102A                     _configDescriptor1:
  1475  102A  3409               	retlw	9
  1476  102B  3402               	retlw	2
  1477  102C  3429               	retlw	41
  1478  102D  3400               	retlw	0
  1479  102E  3401               	retlw	1
  1480  102F  3401               	retlw	1
  1481  1030  3400               	retlw	0
  1482  1031  34C0               	retlw	192
  1483  1032  3432               	retlw	50
  1484  1033  3409               	retlw	9
  1485  1034  3404               	retlw	4
  1486  1035  3400               	retlw	0
  1487  1036  3400               	retlw	0
  1488  1037  3402               	retlw	2
  1489  1038  3403               	retlw	3
  1490  1039  3400               	retlw	0
  1491  103A  3400               	retlw	0
  1492  103B  3400               	retlw	0
  1493  103C  3409               	retlw	9
  1494  103D  3421               	retlw	33
  1495  103E  3411               	retlw	17
  1496  103F  3401               	retlw	1
  1497  1040  3400               	retlw	0
  1498  1041  3401               	retlw	1
  1499  1042  3422               	retlw	34
  1500  1043  341D               	retlw	29
  1501  1044  3400               	retlw	0
  1502  1045  3407               	retlw	7
  1503  1046  3405               	retlw	5
  1504  1047  3481               	retlw	129
  1505  1048  3403               	retlw	3
  1506  1049  3440               	retlw	64
  1507  104A  3400               	retlw	0
  1508  104B  3401               	retlw	1
  1509  104C  3407               	retlw	7
  1510  104D  3405               	retlw	5
  1511  104E  3401               	retlw	1
  1512  104F  3403               	retlw	3
  1513  1050  3440               	retlw	64
  1514  1051  3400               	retlw	0
  1515  1052  3401               	retlw	1
  1516  1053                     __end_of_configDescriptor1:
  1517                           
  1518                           	psect	stringtext5
  1519  1053                     __pstringtext5:
  1520  1053                     _sd001:
  1521  1053  3422               	retlw	34
  1522  1054  3403               	retlw	3
  1523  1055  3447               	retlw	71
  1524  1056  3400               	retlw	0
  1525  1057  3465               	retlw	101
  1526  1058  3400               	retlw	0
  1527  1059  346F               	retlw	111
  1528  105A  3400               	retlw	0
  1529  105B  3472               	retlw	114
  1530  105C  3400               	retlw	0
  1531  105D  3467               	retlw	103
  1532  105E  3400               	retlw	0
  1533  105F  3465               	retlw	101
  1534  1060  3400               	retlw	0
  1535  1061  3420               	retlw	32
  1536  1062  3400               	retlw	0
  1537  1063  3454               	retlw	84
  1538  1064  3400               	retlw	0
  1539  1065  3465               	retlw	101
  1540  1066  3400               	retlw	0
  1541  1067  3463               	retlw	99
  1542  1068  3400               	retlw	0
  1543  1069  3468               	retlw	104
  1544  106A  3400               	retlw	0
  1545  106B  3420               	retlw	32
  1546  106C  3400               	retlw	0
  1547  106D  3449               	retlw	73
  1548  106E  3400               	retlw	0
  1549  106F  346E               	retlw	110
  1550  1070  3400               	retlw	0
  1551  1071  3463               	retlw	99
  1552  1072  3400               	retlw	0
  1553  1073  342E               	retlw	46
  1554  1074  3400               	retlw	0
  1555  1075                     __end_of_sd001:
  1556                           
  1557                           	psect	stringtext6
  1558  1075                     __pstringtext6:
  1559  1075                     _hid_rpt01:
  1560  1075  3406               	retlw	6
  1561  1076  3400               	retlw	0
  1562  1077  34FF               	retlw	255
  1563  1078  3409               	retlw	9
  1564  1079  3401               	retlw	1
  1565  107A  34A1               	retlw	161
  1566  107B  3401               	retlw	1
  1567  107C  3419               	retlw	25
  1568  107D  3401               	retlw	1
  1569  107E  3429               	retlw	41
  1570  107F  3440               	retlw	64
  1571  1080  3415               	retlw	21
  1572  1081  3400               	retlw	0
  1573  1082  3426               	retlw	38
  1574  1083  34FF               	retlw	255
  1575  1084  3400               	retlw	0
  1576  1085  3475               	retlw	117
  1577  1086  3408               	retlw	8
  1578  1087  3495               	retlw	149
  1579  1088  3440               	retlw	64
  1580  1089  3481               	retlw	129
  1581  108A  3400               	retlw	0
  1582  108B  3419               	retlw	25
  1583  108C  3401               	retlw	1
  1584  108D  3429               	retlw	41
  1585  108E  3440               	retlw	64
  1586  108F  3491               	retlw	145
  1587  1090  3400               	retlw	0
  1588  1091  34C0               	retlw	192
  1589  1092                     __end_of_hid_rpt01:
  1590                           
  1591                           	psect	stringtext7
  1592  1800                     __pstringtext7:
  1593  1800                     _device_dsc:
  1594  1800  3412               	retlw	18
  1595  1801  3401               	retlw	1
  1596  1802  3400               	retlw	0
  1597  1803  3402               	retlw	2
  1598  1804  3400               	retlw	0
  1599  1805  3400               	retlw	0
  1600  1806  3400               	retlw	0
  1601  1807  3408               	retlw	8
  1602  1808  34D8               	retlw	216
  1603  1809  3404               	retlw	4
  1604  180A  343F               	retlw	63
  1605  180B  3400               	retlw	0
  1606  180C  3400               	retlw	0
  1607  180D  3401               	retlw	1
  1608  180E  3401               	retlw	1
  1609  180F  3402               	retlw	2
  1610  1810  3400               	retlw	0
  1611  1811  3401               	retlw	1
  1612  1812                     __end_of_device_dsc:
  1613                           
  1614                           	psect	stringtext8
  1615  1818                     __pstringtext8:
  1616  1818                     _sd000:
  1617  1818  3404               	retlw	4
  1618  1819  3403               	retlw	3
  1619  181A  3409               	retlw	9
  1620  181B  3404               	retlw	4
  1621  181C                     __end_of_sd000:
  1622  000B                     _INTCONbits	set	11
  1623  0012                     _PIR2bits	set	18
  1624  009C                     _ADRESH	set	156
  1625  009B                     _ADRESL	set	155
  1626  009D                     _ADCON0bits	set	157
  1627  009E                     _ADCON1	set	158
  1628  009D                     _ADCON0	set	157
  1629  008C                     _TRISAbits	set	140
  1630  008E                     _TRISCbits	set	142
  1631  0092                     _PIE2bits	set	146
  1632  0099                     _OSCCON	set	153
  1633  010E                     _LATCbits	set	270
  1634  018E                     _ANSELC	set	398
  1635  018C                     _ANSELA	set	396
  1636  039B                     _ACTCON	set	923
  1637  0E98                     _UEP0bits	set	3736
  1638  0E8E                     _UCON	set	3726
  1639  0E8F                     _USTAT	set	3727
  1640  0E92                     _UIEbits	set	3730
  1641  0E90                     _UIRbits	set	3728
  1642  0E96                     _UADDR	set	3734
  1643  0E92                     _UIE	set	3730
  1644  0E97                     _UEIE	set	3735
  1645  0E91                     _UCFG	set	3729
  1646  0E90                     _UIR	set	3728
  1647  0E93                     _UEIR	set	3731
  1648  0E8E                     _UCONbits	set	3726
  1649  0E99                     _UEP1	set	3737
  1650  0E98                     _UEP0	set	3736
  1651                           
  1652                           	psect	cinit
  1653  000D                     start_initialization:	
  1654                           ; #config settings
  1655                           
  1656  000D                     __initialization:
  1657                           
  1658                           ; Clear objects allocated to BANK0
  1659  000D  3065               	movlw	low __pbssBANK0
  1660  000E  0084               	movwf	4
  1661  000F  3000               	movlw	high __pbssBANK0
  1662  0010  0085               	movwf	5
  1663  0011  300B               	movlw	11
  1664  0012  3197  27A4  3180   	fcall	clear_ram0
  1665                           
  1666                           ; Clear objects allocated to BANK1
  1667  0015  0021               	movlb	1	; select bank1
  1668  0016  01ED               	clrf	__pbssBANK1& (0+127)
  1669  0017  01EE               	clrf	(__pbssBANK1+1)& (0+127)
  1670  0018  01EF               	clrf	(__pbssBANK1+2)& (0+127)
  1671                           
  1672                           ; Clear objects allocated to BANK2
  1673  0019  3060               	movlw	low __pbssBANK2
  1674  001A  0084               	movwf	4
  1675  001B  3001               	movlw	high __pbssBANK2
  1676  001C  0085               	movwf	5
  1677  001D  300B               	movlw	11
  1678  001E  3197  27A4  3180   	fcall	clear_ram0
  1679                           
  1680                           ; Clear objects allocated to BANK3
  1681  0021  30A0               	movlw	low __pbssBANK3
  1682  0022  0084               	movwf	4
  1683  0023  3001               	movlw	high __pbssBANK3
  1684  0024  0085               	movwf	5
  1685  0025  301E               	movlw	30
  1686  0026  3197  27A4  3180   	fcall	clear_ram0
  1687  0029                     end_of_initialization:	
  1688                           ;End of C runtime variable initialization code
  1689                           
  1690  0029                     __end_of__initialization:
  1691  0029  107E               	bcf	int$flags,0	;clear compiler interrupt flag (level 1)
  1692  002A  0020               	movlb	0
  1693  002B  3188  2801         	ljmp	_main	;jump to C main() function
  1694                           
  1695                           	psect	bssBANK0
  1696  0065                     __pbssBANK0:
  1697  0065                     _inPipes:
  1698  0065                     	ds	5
  1699  006A                     _pBDTEntryIn:
  1700  006A                     	ds	4
  1701  006E                     _pBDTEntryEP0OutNext:
  1702  006E                     	ds	2
  1703                           
  1704                           	psect	bssBANK1
  1705  00ED                     __pbssBANK1:
  1706  00ED                     _controlTransferState:
  1707  00ED                     	ds	1
  1708  00EE                     _pBDTEntryEP0OutCurrent:
  1709  00EE                     	ds	1
  1710  00EF                     _USTATcopy:
  1711  00EF                     	ds	1
  1712                           
  1713                           	psect	bssBANK2
  1714  0160                     __pbssBANK2:
  1715  0160                     _ep_data_out:
  1716  0160                     	ds	2
  1717  0162                     _ep_data_in:
  1718  0162                     	ds	2
  1719  0164                     _USBDeferStatusStagePacket:
  1720  0164                     	ds	1
  1721  0165                     _USBStatusStageTimeoutCounter:
  1722  0165                     	ds	1
  1723  0166                     _endpoint_number:
  1724  0166                     	ds	1
  1725  0167                     _shortPacketStatus:
  1726  0167                     	ds	1
  1727  0168                     _USBDeviceState:
  1728  0168                     	ds	1
  1729  0169                     _USBAlternateInterface:
  1730  0169                     	ds	1
  1731  016A                     _USBActiveConfiguration:
  1732  016A                     	ds	1
  1733                           
  1734                           	psect	bssBANK3
  1735  01A0                     __pbssBANK3:
  1736  01A0                     _outPipes:
  1737  01A0                     	ds	7
  1738  01A7                     _USB1msTickCount:
  1739  01A7                     	ds	4
  1740  01AB                     _pBDTEntryOut:
  1741  01AB                     	ds	4
  1742  01AF                     _USBInHandle:
  1743  01AF                     	ds	2
  1744  01B1                     _USBOutHandle:
  1745  01B1                     	ds	2
  1746  01B3                     _USBTicksSinceSuspendEnd:
  1747  01B3                     	ds	1
  1748  01B4                     _USBDeferOUTDataStagePackets:
  1749  01B4                     	ds	1
  1750  01B5                     _USBDeferINDataStagePackets:
  1751  01B5                     	ds	1
  1752  01B6                     _USBStatusStageEnabledFlag2:
  1753  01B6                     	ds	1
  1754  01B7                     _USBStatusStageEnabledFlag1:
  1755  01B7                     	ds	1
  1756  01B8                     _BothEP0OutUOWNsSet:
  1757  01B8                     	ds	1
  1758  01B9                     _USBBusIsSuspended:
  1759  01B9                     	ds	1
  1760  01BA                     _RemoteWakeup:
  1761  01BA                     	ds	1
  1762  01BB                     _pDst:
  1763  01BB                     	ds	1
  1764  01BC                     _active_protocol:
  1765  01BC                     	ds	1
  1766  01BD                     _idle_rate:
  1767  01BD                     	ds	1
  1768                           
  1769                           	psect	clrtext
  1770  17A4                     clear_ram0:	
  1771                           ;	Called with FSR0 containing the base address, and
  1772                           ;	WREG with the size to clear
  1773                           
  1774  17A4  0064               	clrwdt	;clear the watchdog before getting into this loop
  1775  17A5                     clrloop0:
  1776  17A5  0180               	clrf	0	;clear RAM location pointed to by FSR
  1777  17A6  3101               	addfsr 0,1
  1778  17A7  0B89               	decfsz	9,f	;Have we reached the end of clearing yet?
  1779  17A8  2FA5               	goto	clrloop0	;have we reached the end yet?
  1780  17A9  3400               	retlw	0	;all done for this memory range, return
  1781                           
  1782                           	psect	cstackBANK2
  1783  016B                     __pcstackBANK2:
  1784  016B                     APP_DeviceCustomHIDTasks@head_dat:
  1785                           
  1786                           ; 1 bytes @ 0x0
  1787  016B                     	ds	1
  1788  016C                     APP_DeviceCustomHIDTasks@tail_dat:
  1789                           
  1790                           ; 1 bytes @ 0x1
  1791  016C                     	ds	1
  1792  016D                     APP_DeviceCustomHIDTasks@value:
  1793                           
  1794                           ; 2 bytes @ 0x2
  1795  016D                     	ds	2
  1796  016F                     APP_DeviceCustomHIDTasks@i:
  1797                           
  1798                           ; 1 bytes @ 0x4
  1799  016F                     	ds	1
  1800                           
  1801                           	psect	cstackBANK1
  1802  00E0                     __pcstackBANK1:
  1803  00E0                     ??_LED_On:
  1804  00E0                     ??_start_alcohol:	
  1805                           ; 1 bytes @ 0x0
  1806                           
  1807  00E0                     ??_LED_Off:	
  1808                           ; 1 bytes @ 0x0
  1809                           
  1810  00E0                     ??_USBDeviceInit:	
  1811                           ; 1 bytes @ 0x0
  1812                           
  1813  00E0                     ??_USBDeviceAttach:	
  1814                           ; 1 bytes @ 0x0
  1815                           
  1816  00E0                     ??_LED_Init:	
  1817                           ; 1 bytes @ 0x0
  1818                           
  1819  00E0                     ??_init_alcohol:	
  1820                           ; 1 bytes @ 0x0
  1821                           
  1822  00E0                     ?_USBTransferOnePacket:	
  1823                           ; 1 bytes @ 0x0
  1824                           
  1825  00E0                     ?_check_alcohol:	
  1826                           ; 2 bytes @ 0x0
  1827                           
  1828  00E0                     USBTransferOnePacket@dir:	
  1829                           ; 2 bytes @ 0x0
  1830                           
  1831                           
  1832                           ; 1 bytes @ 0x0
  1833  00E0                     	ds	1
  1834  00E1                     USBDeviceInit@p:
  1835  00E1                     USBTransferOnePacket@data:	
  1836                           ; 2 bytes @ 0x1
  1837                           
  1838                           
  1839                           ; 2 bytes @ 0x1
  1840  00E1                     	ds	1
  1841  00E2                     ??_check_alcohol:
  1842  00E2                     LED_On@led:	
  1843                           ; 1 bytes @ 0x2
  1844                           
  1845  00E2                     LED_Off@led:	
  1846                           ; 1 bytes @ 0x2
  1847                           
  1848  00E2                     check_alcohol@value:	
  1849                           ; 1 bytes @ 0x2
  1850                           
  1851                           
  1852                           ; 2 bytes @ 0x2
  1853  00E2                     	ds	1
  1854  00E3                     ??_SYSTEM_Initialize:
  1855  00E3                     USBDeviceInit@i_886:	
  1856                           ; 1 bytes @ 0x3
  1857                           
  1858  00E3                     USBTransferOnePacket@len:	
  1859                           ; 1 bytes @ 0x3
  1860                           
  1861                           
  1862                           ; 1 bytes @ 0x3
  1863  00E3                     	ds	1
  1864  00E4                     ??_USBTransferOnePacket:
  1865  00E4                     USBDeviceInit@i:	
  1866                           ; 1 bytes @ 0x4
  1867                           
  1868                           
  1869                           ; 1 bytes @ 0x4
  1870  00E4                     	ds	1
  1871  00E5                     SYSTEM_Initialize@state:
  1872                           
  1873                           ; 1 bytes @ 0x5
  1874  00E5                     	ds	3
  1875  00E8                     USBTransferOnePacket@ep:
  1876                           
  1877                           ; 1 bytes @ 0x8
  1878  00E8                     	ds	1
  1879  00E9                     USBTransferOnePacket@handle:
  1880                           
  1881                           ; 2 bytes @ 0x9
  1882  00E9                     	ds	2
  1883  00EB                     ??_APP_DeviceCustomHIDTasks:
  1884                           
  1885                           ; 1 bytes @ 0xB
  1886  00EB                     	ds	2
  1887  00ED                     ??_main:
  1888                           
  1889                           	psect	cstackCOMMON
  1890  0070                     __pcstackCOMMON:	
  1891                           ; 1 bytes @ 0xD
  1892                           
  1893  0070                     ?_LED_On:
  1894  0070                     ?_start_alcohol:	
  1895                           ; 1 bytes @ 0x0
  1896                           
  1897  0070                     ?_LED_Off:	
  1898                           ; 1 bytes @ 0x0
  1899                           
  1900  0070                     ?_SYSTEM_Initialize:	
  1901                           ; 1 bytes @ 0x0
  1902                           
  1903  0070                     ?_USBDeviceInit:	
  1904                           ; 1 bytes @ 0x0
  1905                           
  1906  0070                     ?_USBDeviceAttach:	
  1907                           ; 1 bytes @ 0x0
  1908                           
  1909  0070                     ?_LED_Init:	
  1910                           ; 1 bytes @ 0x0
  1911                           
  1912  0070                     ?_init_alcohol:	
  1913                           ; 1 bytes @ 0x0
  1914                           
  1915  0070                     ?_USBDeviceTasks:	
  1916                           ; 1 bytes @ 0x0
  1917                           
  1918  0070                     ?_USBWakeFromSuspend:	
  1919                           ; 1 bytes @ 0x0
  1920                           
  1921  0070                     ?_USBSuspend:	
  1922                           ; 1 bytes @ 0x0
  1923                           
  1924  0070                     ?_USBIncrement1msInternalTimers:	
  1925                           ; 1 bytes @ 0x0
  1926                           
  1927  0070                     ??_USBIncrement1msInternalTimers:	
  1928                           ; 1 bytes @ 0x0
  1929                           
  1930  0070                     ?_USBCtrlEPAllowStatusStage:	
  1931                           ; 1 bytes @ 0x0
  1932                           
  1933  0070                     ??_USBCtrlEPAllowStatusStage:	
  1934                           ; 1 bytes @ 0x0
  1935                           
  1936  0070                     ?_USBStallHandler:	
  1937                           ; 1 bytes @ 0x0
  1938                           
  1939  0070                     ??_USBStallHandler:	
  1940                           ; 1 bytes @ 0x0
  1941                           
  1942  0070                     ?_USBCtrlEPService:	
  1943                           ; 1 bytes @ 0x0
  1944                           
  1945  0070                     ?_USBConfigureEndpoint:	
  1946                           ; 1 bytes @ 0x0
  1947                           
  1948  0070                     ?_USBCtrlTrfTxService:	
  1949                           ; 1 bytes @ 0x0
  1950                           
  1951  0070                     ??_USBCtrlTrfTxService:	
  1952                           ; 1 bytes @ 0x0
  1953                           
  1954  0070                     ?_memcpy:	
  1955                           ; 1 bytes @ 0x0
  1956                           
  1957  0070                     ?_USBCtrlTrfSetupHandler:	
  1958                           ; 1 bytes @ 0x0
  1959                           
  1960  0070                     ?_USBCtrlTrfOutHandler:	
  1961                           ; 1 bytes @ 0x0
  1962                           
  1963  0070                     ?_USBCtrlTrfInHandler:	
  1964                           ; 1 bytes @ 0x0
  1965                           
  1966  0070                     ?_USBCheckStdRequest:	
  1967                           ; 1 bytes @ 0x0
  1968                           
  1969  0070                     ?_USBStdFeatureReqHandler:	
  1970                           ; 1 bytes @ 0x0
  1971                           
  1972  0070                     ?_APP_DeviceCustomHIDInitialize:	
  1973                           ; 1 bytes @ 0x0
  1974                           
  1975  0070                     ?_APP_DeviceCustomHIDTasks:	
  1976                           ; 1 bytes @ 0x0
  1977                           
  1978  0070                     ?_main:	
  1979                           ; 1 bytes @ 0x0
  1980                           
  1981  0070                     ?_SYS_InterruptHigh:	
  1982                           ; 1 bytes @ 0x0
  1983                           
  1984  0070                     ?_USBCtrlEPAllowDataStage:	
  1985                           ; 1 bytes @ 0x0
  1986                           
  1987  0070                     ?_USBCtrlEPServiceComplete:	
  1988                           ; 1 bytes @ 0x0
  1989                           
  1990  0070                     ?_USBCtrlTrfRxService:	
  1991                           ; 1 bytes @ 0x0
  1992                           
  1993  0070                     ?_USBStdSetCfgHandler:	
  1994                           ; 1 bytes @ 0x0
  1995                           
  1996  0070                     ?_USBStdGetDscHandler:	
  1997                           ; 1 bytes @ 0x0
  1998                           
  1999  0070                     ??_USBStdGetDscHandler:	
  2000                           ; 1 bytes @ 0x0
  2001                           
  2002  0070                     ?_USBStdGetStatusHandler:	
  2003                           ; 1 bytes @ 0x0
  2004                           
  2005  0070                     ??_USBStdGetStatusHandler:	
  2006                           ; 1 bytes @ 0x0
  2007                           
  2008  0070                     ?_USBCheckHIDRequest:	
  2009                           ; 1 bytes @ 0x0
  2010                           
  2011  0070                     ??_USBCheckHIDRequest:	
  2012                           ; 1 bytes @ 0x0
  2013                           
  2014  0070                     ?i1_SYSTEM_Initialize:	
  2015                           ; 1 bytes @ 0x0
  2016                           
  2017  0070                     ?i1_USBDeviceInit:	
  2018                           ; 1 bytes @ 0x0
  2019                           
  2020  0070                     ??i1_USBDeviceInit:	
  2021                           ; 1 bytes @ 0x0
  2022                           
  2023  0070                     ?i1_LED_On:	
  2024                           ; 1 bytes @ 0x0
  2025                           
  2026  0070                     ??i1_LED_On:	
  2027                           ; 1 bytes @ 0x0
  2028                           
  2029  0070                     ?i1_LED_Off:	
  2030                           ; 1 bytes @ 0x0
  2031                           
  2032  0070                     ??i1_LED_Off:	
  2033                           ; 1 bytes @ 0x0
  2034                           
  2035  0070                     ?i1_LED_Init:	
  2036                           ; 1 bytes @ 0x0
  2037                           
  2038  0070                     ??i1_LED_Init:	
  2039                           ; 1 bytes @ 0x0
  2040                           
  2041  0070                     ?i1_init_alcohol:	
  2042                           ; 1 bytes @ 0x0
  2043                           
  2044  0070                     ??i1_init_alcohol:	
  2045                           ; 1 bytes @ 0x0
  2046                           
  2047  0070                     ?_memset:	
  2048                           ; 1 bytes @ 0x0
  2049                           
  2050  0070                     ?i1_USBTransferOnePacket:	
  2051                           ; 2 bytes @ 0x0
  2052                           
  2053  0070                     USBConfigureEndpoint@direction:	
  2054                           ; 2 bytes @ 0x0
  2055                           
  2056  0070                     i1USBTransferOnePacket@dir:	
  2057                           ; 1 bytes @ 0x0
  2058                           
  2059  0070                     memcpy@s1:	
  2060                           ; 1 bytes @ 0x0
  2061                           
  2062  0070                     memset@dest:	
  2063                           ; 2 bytes @ 0x0
  2064                           
  2065                           
  2066                           ; 2 bytes @ 0x0
  2067  0070                     	ds	1
  2068  0071                     ??_USBConfigureEndpoint:
  2069  0071                     i1USBDeviceInit@p:	
  2070                           ; 1 bytes @ 0x1
  2071                           
  2072  0071                     i1USBTransferOnePacket@data:	
  2073                           ; 2 bytes @ 0x1
  2074                           
  2075                           
  2076                           ; 2 bytes @ 0x1
  2077  0071                     	ds	1
  2078  0072                     ??_USBCtrlTrfRxService:
  2079  0072                     USBCtrlTrfTxService@byteToSend:	
  2080                           ; 1 bytes @ 0x2
  2081                           
  2082  0072                     i1LED_On@led:	
  2083                           ; 1 bytes @ 0x2
  2084                           
  2085  0072                     i1LED_Off@led:	
  2086                           ; 1 bytes @ 0x2
  2087                           
  2088  0072                     USBStdGetStatusHandler@p:	
  2089                           ; 1 bytes @ 0x2
  2090                           
  2091  0072                     memcpy@n:	
  2092                           ; 2 bytes @ 0x2
  2093                           
  2094  0072                     memset@c:	
  2095                           ; 2 bytes @ 0x2
  2096                           
  2097                           
  2098                           ; 2 bytes @ 0x2
  2099  0072                     	ds	1
  2100  0073                     ??_USBCtrlTrfInHandler:
  2101  0073                     ??_USBCtrlEPAllowDataStage:	
  2102                           ; 1 bytes @ 0x3
  2103                           
  2104  0073                     ??i1_SYSTEM_Initialize:	
  2105                           ; 1 bytes @ 0x3
  2106                           
  2107  0073                     i1USBDeviceInit@i_886:	
  2108                           ; 1 bytes @ 0x3
  2109                           
  2110  0073                     i1USBTransferOnePacket@len:	
  2111                           ; 1 bytes @ 0x3
  2112                           
  2113                           
  2114                           ; 1 bytes @ 0x3
  2115  0073                     	ds	1
  2116  0074                     ??_memcpy:
  2117  0074                     ??i1_USBTransferOnePacket:	
  2118                           ; 1 bytes @ 0x4
  2119                           
  2120  0074                     USBCtrlTrfRxService@i:	
  2121                           ; 1 bytes @ 0x4
  2122                           
  2123  0074                     i1USBDeviceInit@i:	
  2124                           ; 1 bytes @ 0x4
  2125                           
  2126  0074                     memset@n:	
  2127                           ; 1 bytes @ 0x4
  2128                           
  2129                           
  2130                           ; 2 bytes @ 0x4
  2131  0074                     	ds	1
  2132  0075                     ??_USBCtrlEPServiceComplete:
  2133  0075                     USBConfigureEndpoint@EPNum:	
  2134                           ; 1 bytes @ 0x5
  2135                           
  2136  0075                     USBCtrlTrfRxService@byteToRead:	
  2137                           ; 1 bytes @ 0x5
  2138                           
  2139  0075                     USBCtrlTrfInHandler@lastDTS:	
  2140                           ; 1 bytes @ 0x5
  2141                           
  2142  0075                     i1SYSTEM_Initialize@state:	
  2143                           ; 1 bytes @ 0x5
  2144                           
  2145  0075                     memcpy@s:	
  2146                           ; 1 bytes @ 0x5
  2147                           
  2148                           
  2149                           ; 2 bytes @ 0x5
  2150  0075                     	ds	1
  2151  0076                     ??_memset:
  2152  0076                     ??_USBCtrlTrfOutHandler:	
  2153                           ; 1 bytes @ 0x6
  2154                           
  2155  0076                     USBConfigureEndpoint@handle:	
  2156                           ; 1 bytes @ 0x6
  2157                           
  2158                           
  2159                           ; 1 bytes @ 0x6
  2160  0076                     	ds	1
  2161  0077                     ?_USBEnableEndpoint:
  2162  0077                     USBEnableEndpoint@options:	
  2163                           ; 1 bytes @ 0x7
  2164                           
  2165  0077                     memcpy@tmp:	
  2166                           ; 1 bytes @ 0x7
  2167                           
  2168                           
  2169                           ; 1 bytes @ 0x7
  2170  0077                     	ds	1
  2171  0078                     ??_USBEnableEndpoint:
  2172  0078                     memcpy@d1:	
  2173                           ; 1 bytes @ 0x8
  2174                           
  2175  0078                     i1USBTransferOnePacket@ep:	
  2176                           ; 1 bytes @ 0x8
  2177                           
  2178                           
  2179                           ; 1 bytes @ 0x8
  2180  0078                     	ds	1
  2181  0079                     memcpy@d:
  2182  0079                     i1USBTransferOnePacket@handle:	
  2183                           ; 1 bytes @ 0x9
  2184                           
  2185                           
  2186                           ; 2 bytes @ 0x9
  2187  0079                     	ds	1
  2188  007A                     USBEnableEndpoint@p:
  2189  007A                     memset@k:	
  2190                           ; 2 bytes @ 0xA
  2191                           
  2192                           
  2193                           ; 2 bytes @ 0xA
  2194  007A                     	ds	2
  2195  007C                     USBEnableEndpoint@ep:
  2196  007C                     memset@s:	
  2197                           ; 1 bytes @ 0xC
  2198                           
  2199                           
  2200                           ; 2 bytes @ 0xC
  2201  007C                     	ds	1
  2202  007D                     ??_APP_DeviceCustomHIDInitialize:
  2203                           
  2204                           ; 1 bytes @ 0xD
  2205  007D                     	ds	1
  2206  007E                     ??_USER_USB_CALLBACK_EVENT_HANDLER:
  2207  007E                     ??_SYS_InterruptHigh:	
  2208                           ; 1 bytes @ 0xE
  2209                           
  2210                           
  2211                           	psect	cstackBANK0
  2212  0050                     __pcstackBANK0:	
  2213                           ; 1 bytes @ 0xE
  2214                           
  2215  0050                     ?_USER_USB_CALLBACK_EVENT_HANDLER:
  2216  0050                     USER_USB_CALLBACK_EVENT_HANDLER@event:	
  2217                           ; 1 bytes @ 0x0
  2218                           
  2219                           
  2220                           ; 2 bytes @ 0x0
  2221  0050                     	ds	2
  2222  0052                     USER_USB_CALLBACK_EVENT_HANDLER@pdata:
  2223                           
  2224                           ; 2 bytes @ 0x2
  2225  0052                     	ds	2
  2226  0054                     USER_USB_CALLBACK_EVENT_HANDLER@size:
  2227                           
  2228                           ; 2 bytes @ 0x4
  2229  0054                     	ds	2
  2230  0056                     ??_USBWakeFromSuspend:
  2231  0056                     ??_USBSuspend:	
  2232                           ; 1 bytes @ 0x6
  2233                           
  2234  0056                     ??_USBStdFeatureReqHandler:	
  2235                           ; 1 bytes @ 0x6
  2236                           
  2237  0056                     ??_USBStdSetCfgHandler:	
  2238                           ; 1 bytes @ 0x6
  2239                           
  2240                           
  2241                           ; 1 bytes @ 0x6
  2242  0056                     	ds	1
  2243  0057                     USBStdSetCfgHandler@p:
  2244                           
  2245                           ; 2 bytes @ 0x7
  2246  0057                     	ds	1
  2247  0058                     USBStdFeatureReqHandler@pUEP:
  2248                           
  2249                           ; 2 bytes @ 0x8
  2250  0058                     	ds	1
  2251  0059                     USBStdSetCfgHandler@i_1619:
  2252                           
  2253                           ; 1 bytes @ 0x9
  2254  0059                     	ds	1
  2255  005A                     USBStdSetCfgHandler@i:
  2256  005A                     USBStdFeatureReqHandler@current_ep_data:	
  2257                           ; 1 bytes @ 0xA
  2258                           
  2259                           
  2260                           ; 1 bytes @ 0xA
  2261  005A                     	ds	1
  2262  005B                     USBStdFeatureReqHandler@p:
  2263                           
  2264                           ; 2 bytes @ 0xB
  2265  005B                     	ds	2
  2266  005D                     ??_USBCheckStdRequest:
  2267                           
  2268                           ; 1 bytes @ 0xD
  2269  005D                     	ds	2
  2270  005F                     ??_USBCtrlTrfSetupHandler:
  2271                           
  2272                           ; 1 bytes @ 0xF
  2273  005F                     	ds	1
  2274  0060                     ??_USBCtrlEPService:
  2275                           
  2276                           ; 1 bytes @ 0x10
  2277  0060                     	ds	2
  2278  0062                     ??_USBDeviceTasks:
  2279                           
  2280                           ; 1 bytes @ 0x12
  2281  0062                     	ds	2
  2282  0064                     USBDeviceTasks@i:
  2283                           
  2284                           ; 1 bytes @ 0x14
  2285  0064                     	ds	1
  2286                           
  2287                           	psect	maintext
  2288  0801                     __pmaintext:	
  2289 ;;
  2290 ;;Main: autosize = 0, tempsize = 0, incstack = 0, save=0
  2291 ;;
  2292 ;; *************** function _main *****************
  2293 ;; Defined at:
  2294 ;;		line 30 in file "main.c"
  2295 ;; Parameters:    Size  Location     Type
  2296 ;;		None
  2297 ;; Auto vars:     Size  Location     Type
  2298 ;;		None
  2299 ;; Return value:  Size  Location     Type
  2300 ;;                  1    wreg      void 
  2301 ;; Registers used:
  2302 ;;		wreg, fsr0l, fsr0h, fsr1l, fsr1h, status,2, status,0, pclath, cstack
  2303 ;; Tracked objects:
  2304 ;;		On entry : B1F/0
  2305 ;;		On exit  : 0/0
  2306 ;;		Unchanged: 0/0
  2307 ;; Data sizes:     COMMON   BANK0   BANK1   BANK2   BANK3   BANK4   BANK5   BANK6   BANK7   BANK8   BANK9  BANK10  BANK1
      +1  BANK12
  2308 ;;      Params:         0       0       0       0       0       0       0       0       0       0       0       0       
      +0       0
  2309 ;;      Locals:         0       0       0       0       0       0       0       0       0       0       0       0       
      +0       0
  2310 ;;      Temps:          0       0       0       0       0       0       0       0       0       0       0       0       
      +0       0
  2311 ;;      Totals:         0       0       0       0       0       0       0       0       0       0       0       0       
      +0       0
  2312 ;;Total ram usage:        0 bytes
  2313 ;; Hardware stack levels required when called: 12
  2314 ;; This function calls:
  2315 ;;		_APP_DeviceCustomHIDTasks
  2316 ;;		_SYSTEM_Initialize
  2317 ;;		_USBDeviceAttach
  2318 ;;		_USBDeviceInit
  2319 ;; This function is called by:
  2320 ;;		Startup code after reset
  2321 ;; This function uses a non-reentrant model
  2322 ;;
  2323                           
  2324  0801                     _main:	
  2325                           ;psect for function _main
  2326                           
  2327  0801                     l4154:	
  2328                           ;incstack = 0
  2329                           ; Regs used in _main: [wreg-fsr1h+status,2+status,0+pclath+cstack]
  2330                           
  2331                           
  2332                           ;main.c: 32:     SYSTEM_Initialize(SYSTEM_STATE_USB_START);
  2333  0801  3000               	movlw	0
  2334  0802  3189  2185  3188   	fcall	_SYSTEM_Initialize
  2335  0805                     l4156:
  2336                           
  2337                           ;main.c: 34:     USBDeviceInit();
  2338  0805  3184  2453  3188   	fcall	_USBDeviceInit
  2339  0808                     l4158:
  2340                           
  2341                           ;main.c: 35:     USBDeviceAttach();
  2342  0808  3188  204F  3188   	fcall	_USBDeviceAttach
  2343  080B                     l64:	
  2344                           ;main.c: 37:     while(1)
  2345                           
  2346                           
  2347                           ;main.c: 38:     {;main.c: 58:         APP_DeviceCustomHIDTasks();
  2348  080B  3182  22A9  3188   	fcall	_APP_DeviceCustomHIDTasks
  2349  080E  280B               	goto	l64
  2350  080F  3180  280B         	ljmp	start
  2351  0811                     __end_of_main:
  2352                           
  2353                           	psect	text1
  2354  0453                     __ptext1:	
  2355 ;; *************** function _USBDeviceInit *****************
  2356 ;; Defined at:
  2357 ;;		line 281 in file "usb_device.c"
  2358 ;; Parameters:    Size  Location     Type
  2359 ;;		None
  2360 ;; Auto vars:     Size  Location     Type
  2361 ;;  p               2    1[BANK1 ] PTR unsigned char 
  2362 ;;		 -> UEP1(1), 
  2363 ;;  i               1    3[BANK1 ] unsigned char 
  2364 ;;  i               1    4[BANK1 ] unsigned char 
  2365 ;; Return value:  Size  Location     Type
  2366 ;;                  1    wreg      void 
  2367 ;; Registers used:
  2368 ;;		wreg, fsr1l, fsr1h, status,2, status,0
  2369 ;; Tracked objects:
  2370 ;;		On entry : 0/0
  2371 ;;		On exit  : 0/0
  2372 ;;		Unchanged: 0/0
  2373 ;; Data sizes:     COMMON   BANK0   BANK1   BANK2   BANK3   BANK4   BANK5   BANK6   BANK7   BANK8   BANK9  BANK10  BANK1
      +1  BANK12
  2374 ;;      Params:         0       0       0       0       0       0       0       0       0       0       0       0       
      +0       0
  2375 ;;      Locals:         0       0       4       0       0       0       0       0       0       0       0       0       
      +0       0
  2376 ;;      Temps:          0       0       1       0       0       0       0       0       0       0       0       0       
      +0       0
  2377 ;;      Totals:         0       0       5       0       0       0       0       0       0       0       0       0       
      +0       0
  2378 ;;Total ram usage:        5 bytes
  2379 ;; Hardware stack levels used: 1
  2380 ;; Hardware stack levels required when called: 10
  2381 ;; This function calls:
  2382 ;;		Nothing
  2383 ;; This function is called by:
  2384 ;;		_main
  2385 ;; This function uses a non-reentrant model
  2386 ;;
  2387                           
  2388  0453                     _USBDeviceInit:	
  2389                           ;psect for function _USBDeviceInit
  2390                           
  2391  0453                     l3948:	
  2392                           ;incstack = 0
  2393                           ; Regs used in _USBDeviceInit: [wreg+fsr1l+fsr1h+status,2+status,0]
  2394                           
  2395                           
  2396                           ;usb_device.c: 283:     uint8_t i;;usb_device.c: 285:     {PIE2bits.USBIE = 0;};
  2397  0453  0021               	movlb	1	; select bank1
  2398  0454  1112               	bcf	18,2	;volatile
  2399  0455                     l3950:
  2400                           
  2401                           ;usb_device.c: 292:     {UEIR = 0;};
  2402  0455  003D               	movlb	29	; select bank29
  2403  0456  0193               	clrf	19	;volatile
  2404                           
  2405                           ;usb_device.c: 295:     {UIR = 0;};
  2406  0457  0190               	clrf	16	;volatile
  2407                           
  2408                           ;usb_device.c: 298:     UEP0 = 0;
  2409  0458  0198               	clrf	24	;volatile
  2410  0459                     l3952:
  2411                           
  2412                           ;usb_device.c: 300:     { uint8_t i; uint8_t* p = (uint8_t*)&UEP1; for(i=0;i<1;i++) *p++
      +                           = 0; };
  2413  0459  300E               	movlw	14
  2414  045A  0021               	movlb	1	; select bank1
  2415  045B  00E2               	movwf	(USBDeviceInit@p+1)^(0+128)
  2416  045C  3099               	movlw	153
  2417  045D  00E1               	movwf	USBDeviceInit@p^(0+128)
  2418  045E  01E3               	clrf	USBDeviceInit@i_886^(0+128)
  2419  045F                     l3958:
  2420  045F  0861               	movf	USBDeviceInit@p^(0+128),w
  2421  0460  0086               	movwf	6
  2422  0461  0862               	movf	(USBDeviceInit@p+1)^(0+128),w
  2423  0462  0087               	movwf	7
  2424  0463  0181               	clrf	1
  2425  0464                     l3960:
  2426  0464  3001               	movlw	1
  2427  0465  07E1               	addwf	USBDeviceInit@p^(0+128),f
  2428  0466  3000               	movlw	0
  2429  0467  3DE2               	addwfc	(USBDeviceInit@p+1)^(0+128),f
  2430  0468                     l3962:
  2431  0468  3001               	movlw	1
  2432  0469  00E0               	movwf	??_USBDeviceInit^(0+128)
  2433  046A  0860               	movf	??_USBDeviceInit^(0+128),w
  2434  046B  07E3               	addwf	USBDeviceInit@i_886^(0+128),f
  2435  046C                     l3964:
  2436  046C  0863               	movf	USBDeviceInit@i_886^(0+128),w
  2437  046D  1903               	btfsc	3,2
  2438  046E  2C70               	goto	u2581
  2439  046F  2C71               	goto	u2580
  2440  0470                     u2581:
  2441  0470  2C5F               	goto	l3958
  2442  0471                     u2580:
  2443  0471                     l3966:
  2444                           
  2445                           ;usb_device.c: 302:     { UCFG = 0x10 | 0x00 | 0x04 | 0x02; UEIE = 0x9F; UIE = 0x39 | 0x
      +                          40 | 0x02; };
  2446  0471  3016               	movlw	22
  2447  0472  003D               	movlb	29	; select bank29
  2448  0473  0091               	movwf	17	;volatile
  2449  0474  309F               	movlw	159
  2450  0475  0097               	movwf	23	;volatile
  2451  0476  307B               	movlw	123
  2452  0477  0092               	movwf	18	;volatile
  2453  0478                     l3968:
  2454                           
  2455                           ;usb_device.c: 311:     for(i = 0; i < (sizeof(BDT)/sizeof(BDT_ENTRY)); i++)
  2456  0478  0021               	movlb	1	; select bank1
  2457  0479  01E4               	clrf	USBDeviceInit@i^(0+128)
  2458  047A                     l3974:
  2459                           
  2460                           ;usb_device.c: 312:     {;usb_device.c: 313:         BDT[i].Val = 0x00;
  2461  047A  0864               	movf	USBDeviceInit@i^(0+128),w
  2462  047B  00E0               	movwf	??_USBDeviceInit^(0+128)
  2463  047C  3001               	movlw	1
  2464  047D                     u2595:
  2465  047D  35E0               	lslf	??_USBDeviceInit^(0+128),f
  2466  047E  3EFF               	addlw	-1
  2467  047F  1D03               	skipz
  2468  0480  2C7D               	goto	u2595
  2469  0481  3560               	lslf	??_USBDeviceInit^(0+128),w
  2470  0482  3E20               	addlw	32
  2471  0483  0086               	movwf	6
  2472  0484  0187               	clrf	7
  2473  0485  3000               	movlw	0
  2474  0486  3FC0               	movwi [0]fsr1
  2475  0487  3000               	movlw	0
  2476  0488  3FC1               	movwi [1]fsr1
  2477  0489  3FC2               	movwi [2]fsr1
  2478  048A  3FC3               	movwi [3]fsr1
  2479  048B                     l3976:
  2480                           
  2481                           ;usb_device.c: 314:     }
  2482  048B  3001               	movlw	1
  2483  048C  00E0               	movwf	??_USBDeviceInit^(0+128)
  2484  048D  0860               	movf	??_USBDeviceInit^(0+128),w
  2485  048E  07E4               	addwf	USBDeviceInit@i^(0+128),f
  2486  048F                     l3978:
  2487  048F  3008               	movlw	8
  2488  0490  0264               	subwf	USBDeviceInit@i^(0+128),w
  2489  0491  1C03               	skipc
  2490  0492  2C94               	goto	u2601
  2491  0493  2C95               	goto	u2600
  2492  0494                     u2601:
  2493  0494  2C7A               	goto	l3974
  2494  0495                     u2600:
  2495  0495                     l250:
  2496                           
  2497                           ;usb_device.c: 317:     UCONbits.PPBRST = 1;
  2498  0495  003D               	movlb	29	; select bank29
  2499  0496  170E               	bsf	14,6	;volatile
  2500  0497                     l3980:
  2501                           
  2502                           ;usb_device.c: 320:     UADDR = 0x00;
  2503  0497  0196               	clrf	22	;volatile
  2504  0498                     l3982:
  2505                           
  2506                           ;usb_device.c: 323:     UCONbits.PKTDIS = 0;
  2507  0498  120E               	bcf	14,4	;volatile
  2508  0499                     l3984:
  2509                           
  2510                           ;usb_device.c: 326:     UCONbits.PPBRST = 0;
  2511  0499  130E               	bcf	14,6	;volatile
  2512  049A                     l3986:
  2513                           
  2514                           ;usb_device.c: 330:     {;usb_device.c: 331:         (UIR &= 0xF7);
  2515  049A  30F7               	movlw	247
  2516  049B  0021               	movlb	1	; select bank1
  2517  049C  00E0               	movwf	??_USBDeviceInit^(0+128)
  2518  049D  0860               	movf	??_USBDeviceInit^(0+128),w
  2519  049E  003D               	movlb	29	; select bank29
  2520  049F  0590               	andwf	16,f	;volatile
  2521  04A0                     l3988:
  2522                           
  2523                           ;usb_device.c: 333:         inPipes[0].info.Val = 0;
  2524  04A0  0020               	movlb	0	; select bank0
  2525  04A1  01E7               	clrf	_inPipes+2	;volatile
  2526  04A2                     l3990:
  2527                           
  2528                           ;usb_device.c: 334:         outPipes[0].info.Val = 0;
  2529  04A2  0023               	movlb	3	; select bank3
  2530  04A3  01A2               	clrf	(_outPipes^(0+384)+2)	;volatile
  2531  04A4                     l3992:
  2532                           
  2533                           ;usb_device.c: 335:         outPipes[0].wCount.Val = 0;
  2534  04A4  01A3               	clrf	(_outPipes^(0+384)+3)	;volatile
  2535  04A5  01A4               	clrf	((_outPipes+1)^(0+384)+3)	;volatile
  2536  04A6                     l3994:
  2537                           
  2538                           ;usb_device.c: 336:     }while(UIRbits.TRNIF == 1);
  2539  04A6  003D               	movlb	29	; select bank29
  2540  04A7  1990               	btfsc	16,3	;volatile
  2541  04A8  2CAA               	goto	u2611
  2542  04A9  2CAB               	goto	u2610
  2543  04AA                     u2611:
  2544  04AA  2C9A               	goto	l3986
  2545  04AB                     u2610:
  2546  04AB                     l3996:
  2547                           
  2548                           ;usb_device.c: 340:     USBStatusStageEnabledFlag1 = 1;
  2549  04AB  3001               	movlw	1
  2550  04AC  0021               	movlb	1	; select bank1
  2551  04AD  00E0               	movwf	??_USBDeviceInit^(0+128)
  2552  04AE  0860               	movf	??_USBDeviceInit^(0+128),w
  2553  04AF  0023               	movlb	3	; select bank3
  2554  04B0  00B7               	movwf	_USBStatusStageEnabledFlag1^(0+384)	;volatile
  2555                           
  2556                           ;usb_device.c: 341:     USBStatusStageEnabledFlag2 = 1;
  2557  04B1  3001               	movlw	1
  2558  04B2  0021               	movlb	1	; select bank1
  2559  04B3  00E0               	movwf	??_USBDeviceInit^(0+128)
  2560  04B4  0860               	movf	??_USBDeviceInit^(0+128),w
  2561  04B5  0023               	movlb	3	; select bank3
  2562  04B6  00B6               	movwf	_USBStatusStageEnabledFlag2^(0+384)	;volatile
  2563  04B7                     l3998:
  2564                           
  2565                           ;usb_device.c: 343:     USBDeferINDataStagePackets = 0;
  2566  04B7  01B5               	clrf	_USBDeferINDataStagePackets^(0+384)	;volatile
  2567  04B8                     l4000:
  2568                           
  2569                           ;usb_device.c: 344:     USBDeferOUTDataStagePackets = 0;
  2570  04B8  01B4               	clrf	_USBDeferOUTDataStagePackets^(0+384)	;volatile
  2571  04B9                     l4002:
  2572                           
  2573                           ;usb_device.c: 345:     USBBusIsSuspended = 0;
  2574  04B9  01B9               	clrf	_USBBusIsSuspended^(0+384)	;volatile
  2575  04BA                     l4004:
  2576                           
  2577                           ;usb_device.c: 349:     for(i = 0; i < (uint8_t)(1 +1u); i++)
  2578  04BA  0021               	movlb	1	; select bank1
  2579  04BB  01E4               	clrf	USBDeviceInit@i^(0+128)
  2580  04BC                     l4008:
  2581                           
  2582                           ;usb_device.c: 350:     {;usb_device.c: 351:         pBDTEntryIn[i] = 0u;
  2583  04BC  3564               	lslf	USBDeviceInit@i^(0+128),w
  2584  04BD  3E6A               	addlw	(low (_pBDTEntryIn| 0))& (0+255)
  2585  04BE  0086               	movwf	6
  2586  04BF  0187               	clrf	7
  2587  04C0  3000               	movlw	0
  2588  04C1  3FC0               	movwi [0]fsr1
  2589  04C2  3FC1               	movwi [1]fsr1
  2590                           
  2591                           ;usb_device.c: 352:         pBDTEntryOut[i] = 0u;
  2592  04C3  3564               	lslf	USBDeviceInit@i^(0+128),w
  2593  04C4  3EAB               	addlw	(low (_pBDTEntryOut| (0+256)))& (0+255)
  2594  04C5  0086               	movwf	6
  2595  04C6  3001               	movlw	1	; select bank3/4
  2596  04C7  0087               	movwf	7
  2597  04C8  3000               	movlw	0
  2598  04C9  3FC0               	movwi [0]fsr1
  2599  04CA  3FC1               	movwi [1]fsr1
  2600                           
  2601                           ;usb_device.c: 353:         ep_data_in[i].Val = 0u;
  2602  04CB  0864               	movf	USBDeviceInit@i^(0+128),w
  2603  04CC  3E62               	addlw	(low (_ep_data_in| (0+256)))& (0+255)
  2604  04CD  0086               	movwf	6
  2605  04CE  3001               	movlw	1	; select bank2/3
  2606  04CF  0087               	movwf	7
  2607  04D0  0181               	clrf	1
  2608                           
  2609                           ;usb_device.c: 354:         ep_data_out[i].Val = 0u;
  2610  04D1  0864               	movf	USBDeviceInit@i^(0+128),w
  2611  04D2  3E60               	addlw	(low (_ep_data_out| (0+256)))& (0+255)
  2612  04D3  0086               	movwf	6
  2613  04D4  3001               	movlw	1	; select bank2/3
  2614  04D5  0087               	movwf	7
  2615  04D6  0181               	clrf	1
  2616  04D7                     l4010:
  2617                           
  2618                           ;usb_device.c: 355:     }
  2619  04D7  3001               	movlw	1
  2620  04D8  00E0               	movwf	??_USBDeviceInit^(0+128)
  2621  04D9  0860               	movf	??_USBDeviceInit^(0+128),w
  2622  04DA  07E4               	addwf	USBDeviceInit@i^(0+128),f
  2623  04DB                     l4012:
  2624  04DB  3002               	movlw	2
  2625  04DC  0264               	subwf	USBDeviceInit@i^(0+128),w
  2626  04DD  1C03               	skipc
  2627  04DE  2CE0               	goto	u2621
  2628  04DF  2CE1               	goto	u2620
  2629  04E0                     u2621:
  2630  04E0  2CBC               	goto	l4008
  2631  04E1                     u2620:
  2632  04E1                     l4014:
  2633                           
  2634                           ;usb_device.c: 358:     pBDTEntryIn[0] = (volatile BDT_ENTRY*)&BDT[2];
  2635  04E1  3028               	movlw	40
  2636  04E2  0020               	movlb	0	; select bank0
  2637  04E3  00EA               	movwf	_pBDTEntryIn
  2638  04E4  3000               	movlw	0
  2639  04E5  00EB               	movwf	_pBDTEntryIn+1
  2640  04E6                     l4016:
  2641                           
  2642                           ;usb_device.c: 360:     UEP0 = 0x06|0x10;
  2643  04E6  3016               	movlw	22
  2644  04E7  003D               	movlb	29	; select bank29
  2645  04E8  0098               	movwf	24	;volatile
  2646  04E9                     l4018:
  2647                           
  2648                           ;usb_device.c: 362:     BDT[0].ADR = (((uint16_t)(&SetupPkt)) & 0x7FFF);
  2649  04E9  3000               	movlw	0
  2650  04EA  0020               	movlb	0	; select bank0
  2651  04EB  00A3               	movwf	35	;volatile
  2652  04EC  3040               	movlw	64
  2653  04ED  00A2               	movwf	34	;volatile
  2654  04EE                     l4020:
  2655                           
  2656                           ;usb_device.c: 363:     BDT[0].CNT = 8;
  2657  04EE  3008               	movlw	8
  2658  04EF  00A1               	movwf	33	;volatile
  2659  04F0                     l4022:
  2660                           
  2661                           ;usb_device.c: 364:     BDT[0].STAT.Val = 0x00|0x04;
  2662  04F0  3004               	movlw	4
  2663  04F1  0021               	movlb	1	; select bank1
  2664  04F2  00E0               	movwf	??_USBDeviceInit^(0+128)
  2665  04F3  0860               	movf	??_USBDeviceInit^(0+128),w
  2666  04F4  0020               	movlb	0	; select bank0
  2667  04F5  00A0               	movwf	32	;volatile
  2668  04F6                     l4024:
  2669                           
  2670                           ;usb_device.c: 365:     BDT[0].STAT.Val |= 0x80;
  2671  04F6  17A0               	bsf	32,7	;volatile
  2672  04F7                     l4026:
  2673                           
  2674                           ;usb_device.c: 368:     USBActiveConfiguration = 0;
  2675  04F7  0022               	movlb	2	; select bank2
  2676  04F8  01EA               	clrf	_USBActiveConfiguration^(0+256)	;volatile
  2677  04F9                     l4028:
  2678                           
  2679                           ;usb_device.c: 370:     USB1msTickCount = 0;
  2680  04F9  3000               	movlw	0
  2681  04FA  0023               	movlb	3	; select bank3
  2682  04FB  00AA               	movwf	(_USB1msTickCount+3)^(0+384)	;volatile
  2683  04FC  3000               	movlw	0
  2684  04FD  00A9               	movwf	(_USB1msTickCount+2)^(0+384)	;volatile
  2685  04FE  3000               	movlw	0
  2686  04FF  00A8               	movwf	(_USB1msTickCount+1)^(0+384)	;volatile
  2687  0500  3000               	movlw	0
  2688  0501  00A7               	movwf	_USB1msTickCount^(0+384)	;volatile
  2689  0502                     l4030:
  2690                           
  2691                           ;usb_device.c: 371:     USBTicksSinceSuspendEnd = 0;
  2692  0502  01B3               	clrf	_USBTicksSinceSuspendEnd^(0+384)	;volatile
  2693  0503                     l4032:
  2694                           
  2695                           ;usb_device.c: 374:     USBDeviceState = DETACHED_STATE;
  2696  0503  0022               	movlb	2	; select bank2
  2697  0504  01E8               	clrf	_USBDeviceState^(0+256)	;volatile
  2698  0505                     l255:
  2699  0505  0008               	return
  2700  0506                     __end_of_USBDeviceInit:
  2701                           
  2702                           	psect	text2
  2703  084F                     __ptext2:	
  2704 ;; *************** function _USBDeviceAttach *****************
  2705 ;; Defined at:
  2706 ;;		line 1356 in file "usb_device.c"
  2707 ;; Parameters:    Size  Location     Type
  2708 ;;		None
  2709 ;; Auto vars:     Size  Location     Type
  2710 ;;		None
  2711 ;; Return value:  Size  Location     Type
  2712 ;;                  1    wreg      void 
  2713 ;; Registers used:
  2714 ;;		wreg, status,2, status,0
  2715 ;; Tracked objects:
  2716 ;;		On entry : 0/0
  2717 ;;		On exit  : 0/0
  2718 ;;		Unchanged: 0/0
  2719 ;; Data sizes:     COMMON   BANK0   BANK1   BANK2   BANK3   BANK4   BANK5   BANK6   BANK7   BANK8   BANK9  BANK10  BANK1
      +1  BANK12
  2720 ;;      Params:         0       0       0       0       0       0       0       0       0       0       0       0       
      +0       0
  2721 ;;      Locals:         0       0       0       0       0       0       0       0       0       0       0       0       
      +0       0
  2722 ;;      Temps:          0       0       1       0       0       0       0       0       0       0       0       0       
      +0       0
  2723 ;;      Totals:         0       0       1       0       0       0       0       0       0       0       0       0       
      +0       0
  2724 ;;Total ram usage:        1 bytes
  2725 ;; Hardware stack levels used: 1
  2726 ;; Hardware stack levels required when called: 10
  2727 ;; This function calls:
  2728 ;;		Nothing
  2729 ;; This function is called by:
  2730 ;;		_main
  2731 ;; This function uses a non-reentrant model
  2732 ;;
  2733                           
  2734  084F                     _USBDeviceAttach:	
  2735                           ;psect for function _USBDeviceAttach
  2736                           
  2737  084F                     l4034:	
  2738                           ;incstack = 0
  2739                           ; Regs used in _USBDeviceAttach: [wreg+status,2+status,0]
  2740                           
  2741                           
  2742                           ;usb_device.c: 1360:     {;usb_device.c: 1361:         if(1 == 1)
  2743  084F  0022               	movlb	2	; select bank2
  2744  0850  0868               	movf	_USBDeviceState^(0+256),w	;volatile
  2745  0851  1D03               	btfss	3,2
  2746  0852  2854               	goto	u2631
  2747  0853  2855               	goto	u2630
  2748  0854                     u2631:
  2749  0854  286F               	goto	l313
  2750  0855                     u2630:
  2751  0855                     l4036:
  2752                           
  2753                           ;usb_device.c: 1362:         {;usb_device.c: 1364:             UCON = 0;
  2754  0855  003D               	movlb	29	; select bank29
  2755  0856  018E               	clrf	14	;volatile
  2756                           
  2757                           ;usb_device.c: 1367:             UIE = 0;
  2758  0857  0192               	clrf	18	;volatile
  2759  0858                     l4038:
  2760                           
  2761                           ;usb_device.c: 1371:             { UCFG = 0x10 | 0x00 | 0x04 | 0x02; UEIE = 0x9F; UIE = 
      +                          0x39 | 0x40 | 0x02; };
  2762  0858  3016               	movlw	22
  2763  0859  0091               	movwf	17	;volatile
  2764  085A                     l4040:
  2765  085A  309F               	movlw	159
  2766  085B  0097               	movwf	23	;volatile
  2767  085C                     l4042:
  2768  085C  307B               	movlw	123
  2769  085D  0092               	movwf	18	;volatile
  2770  085E                     l4044:
  2771                           
  2772                           ;usb_device.c: 1373:             {PIE2bits.USBIE = 1;INTCONbits.PEIE = 1; INTCONbits.GIE
      +                           = 1;};
  2773  085E  0021               	movlb	1	; select bank1
  2774  085F  1512               	bsf	18,2	;volatile
  2775  0860                     l4046:
  2776  0860  170B               	bsf	11,6	;volatile
  2777  0861                     l4048:
  2778  0861  178B               	bsf	11,7	;volatile
  2779                           
  2780                           ;usb_device.c: 1376:             while(!UCONbits.USBEN){UCONbits.USBEN = 1;}
  2781  0862  2864               	goto	l310
  2782  0863                     l311:
  2783  0863  158E               	bsf	14,3	;volatile
  2784  0864                     l310:
  2785  0864  003D               	movlb	29	; select bank29
  2786  0865  1D8E               	btfss	14,3	;volatile
  2787  0866  2868               	goto	u2641
  2788  0867  2869               	goto	u2640
  2789  0868                     u2641:
  2790  0868  2863               	goto	l311
  2791  0869                     u2640:
  2792  0869                     l4050:
  2793                           
  2794                           ;usb_device.c: 1379:             USBDeviceState = ATTACHED_STATE;
  2795  0869  3001               	movlw	1
  2796  086A  0021               	movlb	1	; select bank1
  2797  086B  00E0               	movwf	??_USBDeviceAttach^(0+128)
  2798  086C  0860               	movf	??_USBDeviceAttach^(0+128),w
  2799  086D  0022               	movlb	2	; select bank2
  2800  086E  00E8               	movwf	_USBDeviceState^(0+256)	;volatile
  2801  086F                     l313:
  2802  086F  0008               	return
  2803  0870                     __end_of_USBDeviceAttach:
  2804                           
  2805                           	psect	text3
  2806  0985                     __ptext3:	
  2807 ;; *************** function _SYSTEM_Initialize *****************
  2808 ;; Defined at:
  2809 ;;		line 85 in file "system.c"
  2810 ;; Parameters:    Size  Location     Type
  2811 ;;  state           1    wreg     enum E2309
  2812 ;; Auto vars:     Size  Location     Type
  2813 ;;  state           1    5[BANK1 ] enum E2309
  2814 ;; Return value:  Size  Location     Type
  2815 ;;                  1    wreg      void 
  2816 ;; Registers used:
  2817 ;;		wreg, fsr0l, fsr0h, status,2, status,0, pclath, cstack
  2818 ;; Tracked objects:
  2819 ;;		On entry : 0/0
  2820 ;;		On exit  : 0/0
  2821 ;;		Unchanged: 0/0
  2822 ;; Data sizes:     COMMON   BANK0   BANK1   BANK2   BANK3   BANK4   BANK5   BANK6   BANK7   BANK8   BANK9  BANK10  BANK1
      +1  BANK12
  2823 ;;      Params:         0       0       0       0       0       0       0       0       0       0       0       0       
      +0       0
  2824 ;;      Locals:         0       0       1       0       0       0       0       0       0       0       0       0       
      +0       0
  2825 ;;      Temps:          0       0       2       0       0       0       0       0       0       0       0       0       
      +0       0
  2826 ;;      Totals:         0       0       3       0       0       0       0       0       0       0       0       0       
      +0       0
  2827 ;;Total ram usage:        3 bytes
  2828 ;; Hardware stack levels used: 1
  2829 ;; Hardware stack levels required when called: 11
  2830 ;; This function calls:
  2831 ;;		_LED_Init
  2832 ;;		_LED_Off
  2833 ;;		_init_alcohol
  2834 ;; This function is called by:
  2835 ;;		_main
  2836 ;; This function uses a non-reentrant model
  2837 ;;
  2838                           
  2839  0985                     _SYSTEM_Initialize:	
  2840                           ;psect for function _SYSTEM_Initialize
  2841                           
  2842                           
  2843                           ;incstack = 0
  2844                           ; Regs used in _SYSTEM_Initialize: [wreg-fsr0h+status,2+status,0+pclath+cstack]
  2845                           ;SYSTEM_Initialize@state stored from wreg
  2846  0985  0021               	movlb	1	; select bank1
  2847  0986  00E5               	movwf	SYSTEM_Initialize@state^(0+128)
  2848  0987                     l3926:
  2849                           
  2850                           ;system.c: 85: void SYSTEM_Initialize( SYSTEM_STATE state );system.c: 86: {;system.c: 87
      +                          :     switch(state)
  2851  0987  299D               	goto	l3940
  2852  0988                     l3928:
  2853                           
  2854                           ;system.c: 93:                 OSCCON = 0xFC;
  2855  0988  30FC               	movlw	252
  2856  0989  0099               	movwf	25	;volatile
  2857                           
  2858                           ;system.c: 94:                 ACTCON = 0x90;
  2859  098A  3090               	movlw	144
  2860  098B  0027               	movlb	7	; select bank7
  2861  098C  009B               	movwf	27	;volatile
  2862                           
  2863                           ;system.c: 96:             ANSELA = 0x10;
  2864  098D  3010               	movlw	16
  2865  098E  0023               	movlb	3	; select bank3
  2866  098F  008C               	movwf	12	;volatile
  2867  0990                     l3930:
  2868                           
  2869                           ;system.c: 97:             ANSELC = 0x00;
  2870  0990  018E               	clrf	14	;volatile
  2871  0991                     l3932:
  2872                           
  2873                           ;system.c: 99:             LED_Init();
  2874  0991  3197  27CA  3189   	fcall	_LED_Init
  2875  0994                     l3934:
  2876                           
  2877                           ;system.c: 101:             init_alcohol();
  2878  0994  3197  27B8  3189   	fcall	_init_alcohol
  2879                           
  2880                           ;system.c: 102:             break;
  2881  0997  29B0               	goto	l91
  2882  0998                     l3936:
  2883                           
  2884                           ;system.c: 105:             LED_Off(LED_CONNECT);
  2885  0998  3001               	movlw	1
  2886  0999  3189  2107  3189   	fcall	_LED_Off
  2887                           
  2888                           ;system.c: 106:             break;
  2889  099C  29B0               	goto	l91
  2890  099D                     l3940:
  2891  099D  0865               	movf	SYSTEM_Initialize@state^(0+128),w
  2892  099E  00E3               	movwf	??_SYSTEM_Initialize^(0+128)
  2893  099F  01E4               	clrf	(??_SYSTEM_Initialize^(0+128)+1)
  2894                           
  2895                           ; Switch on 2 bytes has been partitioned into a top level switch of size 1, and 1 sub-sw
      +                          itches
  2896                           ; Switch size 1, requested type "simple"
  2897                           ; Number of cases is 1, Range of values is 0 to 0
  2898                           ; switch strategies available:
  2899                           ; Name         Instructions Cycles
  2900                           ; simple_byte            4     3 (average)
  2901                           ; direct_byte            8     6 (fixed)
  2902                           ; jumptable            260     6 (fixed)
  2903                           ;	Chosen strategy is simple_byte
  2904  09A0  0864               	movf	(??_SYSTEM_Initialize+1)^(0+128),w
  2905  09A1  3A00               	xorlw	0	; case 0
  2906  09A2  1903               	skipnz
  2907  09A3  29A5               	goto	l5104
  2908  09A4  29B0               	goto	l91
  2909  09A5                     l5104:
  2910                           
  2911                           ; Switch size 1, requested type "simple"
  2912                           ; Number of cases is 3, Range of values is 0 to 2
  2913                           ; switch strategies available:
  2914                           ; Name         Instructions Cycles
  2915                           ; simple_byte           10     6 (average)
  2916                           ; direct_byte           12     6 (fixed)
  2917                           ; jumptable            260     6 (fixed)
  2918                           ;	Chosen strategy is simple_byte
  2919  09A5  0863               	movf	??_SYSTEM_Initialize^(0+128),w
  2920  09A6  3A00               	xorlw	0	; case 0
  2921  09A7  1903               	skipnz
  2922  09A8  2988               	goto	l3928
  2923  09A9  3A01               	xorlw	1	; case 1
  2924  09AA  1903               	skipnz
  2925  09AB  2998               	goto	l3936
  2926  09AC  3A03               	xorlw	3	; case 2
  2927  09AD  1903               	skipnz
  2928  09AE  29B0               	goto	l91
  2929  09AF  29B0               	goto	l91
  2930  09B0                     l91:
  2931  09B0  0008               	return
  2932  09B1                     __end_of_SYSTEM_Initialize:
  2933                           
  2934                           	psect	text4
  2935  17B8                     __ptext4:	
  2936 ;; *************** function _init_alcohol *****************
  2937 ;; Defined at:
  2938 ;;		line 10 in file "alcohol_drive.c"
  2939 ;; Parameters:    Size  Location     Type
  2940 ;;		None
  2941 ;; Auto vars:     Size  Location     Type
  2942 ;;		None
  2943 ;; Return value:  Size  Location     Type
  2944 ;;                  1    wreg      void 
  2945 ;; Registers used:
  2946 ;;		wreg, status,2
  2947 ;; Tracked objects:
  2948 ;;		On entry : 0/0
  2949 ;;		On exit  : 0/0
  2950 ;;		Unchanged: 0/0
  2951 ;; Data sizes:     COMMON   BANK0   BANK1   BANK2   BANK3   BANK4   BANK5   BANK6   BANK7   BANK8   BANK9  BANK10  BANK1
      +1  BANK12
  2952 ;;      Params:         0       0       0       0       0       0       0       0       0       0       0       0       
      +0       0
  2953 ;;      Locals:         0       0       0       0       0       0       0       0       0       0       0       0       
      +0       0
  2954 ;;      Temps:          0       0       0       0       0       0       0       0       0       0       0       0       
      +0       0
  2955 ;;      Totals:         0       0       0       0       0       0       0       0       0       0       0       0       
      +0       0
  2956 ;;Total ram usage:        0 bytes
  2957 ;; Hardware stack levels used: 1
  2958 ;; Hardware stack levels required when called: 10
  2959 ;; This function calls:
  2960 ;;		Nothing
  2961 ;; This function is called by:
  2962 ;;		_SYSTEM_Initialize
  2963 ;; This function uses a non-reentrant model
  2964 ;;
  2965                           
  2966  17B8                     _init_alcohol:	
  2967                           ;psect for function _init_alcohol
  2968                           
  2969  17B8                     l3706:	
  2970                           ;incstack = 0
  2971                           ; Regs used in _init_alcohol: [wreg+status,2]
  2972                           
  2973                           
  2974                           ;alcohol_drive.c: 11:     TRISAbits.TRISA5 = 1;
  2975  17B8  0021               	movlb	1	; select bank1
  2976  17B9  168C               	bsf	12,5	;volatile
  2977                           
  2978                           ;alcohol_drive.c: 12:     TRISAbits.TRISA4 = 1;
  2979  17BA  160C               	bsf	12,4	;volatile
  2980  17BB                     l3708:
  2981                           
  2982                           ;alcohol_drive.c: 14:     ADCON0 = 0x00;
  2983  17BB  019D               	clrf	29	;volatile
  2984  17BC                     l3710:
  2985                           
  2986                           ;alcohol_drive.c: 15:     ADCON1 = 0x80;
  2987  17BC  3080               	movlw	128
  2988  17BD  009E               	movwf	30	;volatile
  2989  17BE                     l615:
  2990  17BE  0008               	return
  2991  17BF                     __end_of_init_alcohol:
  2992                           
  2993                           	psect	text5
  2994  17CA                     __ptext5:	
  2995 ;; *************** function _LED_Init *****************
  2996 ;; Defined at:
  2997 ;;		line 75 in file "leds.c"
  2998 ;; Parameters:    Size  Location     Type
  2999 ;;		None
  3000 ;; Auto vars:     Size  Location     Type
  3001 ;;		None
  3002 ;; Return value:  Size  Location     Type
  3003 ;;                  1    wreg      void 
  3004 ;; Registers used:
  3005 ;;		None
  3006 ;; Tracked objects:
  3007 ;;		On entry : 0/0
  3008 ;;		On exit  : 0/0
  3009 ;;		Unchanged: 0/0
  3010 ;; Data sizes:     COMMON   BANK0   BANK1   BANK2   BANK3   BANK4   BANK5   BANK6   BANK7   BANK8   BANK9  BANK10  BANK1
      +1  BANK12
  3011 ;;      Params:         0       0       0       0       0       0       0       0       0       0       0       0       
      +0       0
  3012 ;;      Locals:         0       0       0       0       0       0       0       0       0       0       0       0       
      +0       0
  3013 ;;      Temps:          0       0       0       0       0       0       0       0       0       0       0       0       
      +0       0
  3014 ;;      Totals:         0       0       0       0       0       0       0       0       0       0       0       0       
      +0       0
  3015 ;;Total ram usage:        0 bytes
  3016 ;; Hardware stack levels used: 1
  3017 ;; Hardware stack levels required when called: 10
  3018 ;; This function calls:
  3019 ;;		Nothing
  3020 ;; This function is called by:
  3021 ;;		_SYSTEM_Initialize
  3022 ;; This function uses a non-reentrant model
  3023 ;;
  3024                           
  3025  17CA                     _LED_Init:	
  3026                           ;psect for function _LED_Init
  3027                           
  3028  17CA                     l3704:	
  3029                           ;incstack = 0
  3030                           ; Regs used in _LED_Init: []
  3031                           
  3032                           
  3033                           ;leds.c: 77:     TRISCbits.TRISC5 = 0;
  3034  17CA  0021               	movlb	1	; select bank1
  3035  17CB  128E               	bcf	14,5	;volatile
  3036                           
  3037                           ;leds.c: 78:     TRISCbits.TRISC4 = 0;
  3038  17CC  120E               	bcf	14,4	;volatile
  3039                           
  3040                           ;leds.c: 79:     TRISCbits.TRISC3 = 0;
  3041  17CD  118E               	bcf	14,3	;volatile
  3042                           
  3043                           ;leds.c: 80:     TRISCbits.TRISC6 = 0;
  3044  17CE  130E               	bcf	14,6	;volatile
  3045                           
  3046                           ;leds.c: 82:     LATCbits.LATC5 = 0;
  3047  17CF  0022               	movlb	2	; select bank2
  3048  17D0  128E               	bcf	14,5	;volatile
  3049                           
  3050                           ;leds.c: 83:     LATCbits.LATC4 = 0;
  3051  17D1  120E               	bcf	14,4	;volatile
  3052                           
  3053                           ;leds.c: 84:     LATCbits.LATC3 = 0;
  3054  17D2  118E               	bcf	14,3	;volatile
  3055                           
  3056                           ;leds.c: 85:     LATCbits.LATC6 = 0;
  3057  17D3  130E               	bcf	14,6	;volatile
  3058  17D4                     l598:
  3059  17D4  0008               	return
  3060  17D5                     __end_of_LED_Init:
  3061                           
  3062                           	psect	text6
  3063  02A9                     __ptext6:	
  3064 ;; *************** function _APP_DeviceCustomHIDTasks *****************
  3065 ;; Defined at:
  3066 ;;		line 54 in file "app_device_custom_hid.c"
  3067 ;; Parameters:    Size  Location     Type
  3068 ;;		None
  3069 ;; Auto vars:     Size  Location     Type
  3070 ;;  value           2    2[BANK2 ] unsigned short 
  3071 ;;  tail_dat        1    1[BANK2 ] unsigned char 
  3072 ;;  head_dat        1    0[BANK2 ] unsigned char 
  3073 ;;  i               1    4[BANK2 ] unsigned char 
  3074 ;; Return value:  Size  Location     Type
  3075 ;;                  1    wreg      void 
  3076 ;; Registers used:
  3077 ;;		wreg, fsr0l, fsr0h, fsr1l, fsr1h, status,2, status,0, pclath, cstack
  3078 ;; Tracked objects:
  3079 ;;		On entry : 0/0
  3080 ;;		On exit  : 0/0
  3081 ;;		Unchanged: 0/0
  3082 ;; Data sizes:     COMMON   BANK0   BANK1   BANK2   BANK3   BANK4   BANK5   BANK6   BANK7   BANK8   BANK9  BANK10  BANK1
      +1  BANK12
  3083 ;;      Params:         0       0       0       0       0       0       0       0       0       0       0       0       
      +0       0
  3084 ;;      Locals:         0       0       0       5       0       0       0       0       0       0       0       0       
      +0       0
  3085 ;;      Temps:          0       0       2       0       0       0       0       0       0       0       0       0       
      +0       0
  3086 ;;      Totals:         0       0       2       5       0       0       0       0       0       0       0       0       
      +0       0
  3087 ;;Total ram usage:        7 bytes
  3088 ;; Hardware stack levels used: 1
  3089 ;; Hardware stack levels required when called: 11
  3090 ;; This function calls:
  3091 ;;		_LED_Off
  3092 ;;		_LED_On
  3093 ;;		_USBTransferOnePacket
  3094 ;;		_check_alcohol
  3095 ;;		_start_alcohol
  3096 ;; This function is called by:
  3097 ;;		_main
  3098 ;; This function uses a non-reentrant model
  3099 ;;
  3100                           
  3101  02A9                     _APP_DeviceCustomHIDTasks:	
  3102                           ;psect for function _APP_DeviceCustomHIDTasks
  3103                           
  3104  02A9                     l3866:	
  3105                           ;incstack = 0
  3106                           ; Regs used in _APP_DeviceCustomHIDTasks: [wreg-fsr1h+status,2+status,0+pclath+cstack]
  3107                           
  3108                           
  3109                           ;app_device_custom_hid.c: 59:     if( USBDeviceState < CONFIGURED_STATE )
  3110  02A9  3020               	movlw	32
  3111  02AA  0022               	movlb	2	; select bank2
  3112  02AB  0268               	subwf	_USBDeviceState^(0+256),w	;volatile
  3113  02AC  1803               	skipnc
  3114  02AD  2AAF               	goto	u2471
  3115  02AE  2AB0               	goto	u2470
  3116  02AF                     u2471:
  3117  02AF  2AB1               	goto	l30
  3118  02B0                     u2470:
  3119  02B0  2B88               	goto	l31
  3120  02B1                     l30:	
  3121                           ;app_device_custom_hid.c: 62:     }
  3122                           
  3123                           
  3124                           ;app_device_custom_hid.c: 68:     if( UCONbits.SUSPND== 1 )
  3125  02B1  003D               	movlb	29	; select bank29
  3126  02B2  1C8E               	btfss	14,1	;volatile
  3127  02B3  2AB5               	goto	u2481
  3128  02B4  2AB6               	goto	u2480
  3129  02B5                     u2481:
  3130  02B5  2AB7               	goto	l3872
  3131  02B6                     u2480:
  3132  02B6  2B88               	goto	l31
  3133  02B7                     l3872:
  3134                           
  3135                           ;app_device_custom_hid.c: 74:     if(((USBOutHandle != 0x0000) && ((*(volatile uint8_t*)
      +                          USBOutHandle & 0x80) != 0x00)) == 0)
  3136  02B7  0023               	movlb	3	; select bank3
  3137  02B8  0831               	movf	_USBOutHandle^(0+384),w
  3138  02B9  0432               	iorwf	(_USBOutHandle+1)^(0+384),w
  3139  02BA  1903               	btfsc	3,2
  3140  02BB  2ABD               	goto	u2491
  3141  02BC  2ABE               	goto	u2490
  3142  02BD                     u2491:
  3143  02BD  2B5E               	goto	l3918
  3144  02BE                     u2490:
  3145  02BE                     l3874:
  3146  02BE  0831               	movf	_USBOutHandle^(0+384),w
  3147  02BF  0086               	movwf	6
  3148  02C0  0832               	movf	(_USBOutHandle+1)^(0+384),w
  3149  02C1  0087               	movwf	7
  3150  02C2  1B81               	btfsc	1,7
  3151  02C3  2AC5               	goto	u2501
  3152  02C4  2AC6               	goto	u2500
  3153  02C5                     u2501:
  3154  02C5  2B88               	goto	l31
  3155  02C6                     u2500:
  3156  02C6  2B5E               	goto	l3918
  3157  02C7                     l3876:
  3158                           
  3159                           ;app_device_custom_hid.c: 79:                 if(!((USBInHandle != 0x0000) && ((*(volati
      +                          le uint8_t*)USBInHandle & 0x80) != 0x00)))
  3160  02C7  0023               	movlb	3	; select bank3
  3161  02C8  082F               	movf	_USBInHandle^(0+384),w
  3162  02C9  0430               	iorwf	(_USBInHandle+1)^(0+384),w
  3163  02CA  1903               	btfsc	3,2
  3164  02CB  2ACD               	goto	u2511
  3165  02CC  2ACE               	goto	u2510
  3166  02CD                     u2511:
  3167  02CD  2AD6               	goto	l3880
  3168  02CE                     u2510:
  3169  02CE                     l3878:
  3170  02CE  082F               	movf	_USBInHandle^(0+384),w
  3171  02CF  0086               	movwf	6
  3172  02D0  0830               	movf	(_USBInHandle+1)^(0+384),w
  3173  02D1  0087               	movwf	7
  3174  02D2  1B81               	btfsc	1,7
  3175  02D3  2AD5               	goto	u2521
  3176  02D4  2AD6               	goto	u2520
  3177  02D5                     u2521:
  3178  02D5  2B72               	goto	l3920
  3179  02D6                     u2520:
  3180  02D6                     l3880:
  3181                           
  3182                           ;app_device_custom_hid.c: 80:                 {;app_device_custom_hid.c: 81:            
      +                                   LED_On(LED_SCANNING);
  3183  02D6  3002               	movlw	2
  3184  02D7  3189  2130  3182   	fcall	_LED_On
  3185  02DA                     l3882:
  3186                           
  3187                           ;app_device_custom_hid.c: 92:                     start_alcohol();
  3188  02DA  3197  27B1  3182   	fcall	_start_alcohol
  3189  02DD  2B72               	goto	l3920
  3190  02DE                     l3884:
  3191                           
  3192                           ;app_device_custom_hid.c: 96:                 if(!((USBInHandle != 0x0000) && ((*(volati
      +                          le uint8_t*)USBInHandle & 0x80) != 0x00)))
  3193  02DE  0023               	movlb	3	; select bank3
  3194  02DF  082F               	movf	_USBInHandle^(0+384),w
  3195  02E0  0430               	iorwf	(_USBInHandle+1)^(0+384),w
  3196  02E1  1903               	btfsc	3,2
  3197  02E2  2AE4               	goto	u2531
  3198  02E3  2AE5               	goto	u2530
  3199  02E4                     u2531:
  3200  02E4  2AED               	goto	l3888
  3201  02E5                     u2530:
  3202  02E5                     l3886:
  3203  02E5  082F               	movf	_USBInHandle^(0+384),w
  3204  02E6  0086               	movwf	6
  3205  02E7  0830               	movf	(_USBInHandle+1)^(0+384),w
  3206  02E8  0087               	movwf	7
  3207  02E9  1B81               	btfsc	1,7
  3208  02EA  2AEC               	goto	u2541
  3209  02EB  2AED               	goto	u2540
  3210  02EC                     u2541:
  3211  02EC  2B72               	goto	l3920
  3212  02ED                     u2540:
  3213  02ED                     l3888:
  3214                           
  3215                           ;app_device_custom_hid.c: 97:                 {;app_device_custom_hid.c: 99:            
      +                                   LED_Off(LED_NG);
  3216  02ED  3004               	movlw	4
  3217  02EE  3189  2107  3182   	fcall	_LED_Off
  3218                           
  3219                           ;app_device_custom_hid.c: 100:                     LED_Off(LED_OK);
  3220  02F1  3003               	movlw	3
  3221  02F2  3189  2107  3182   	fcall	_LED_Off
  3222                           
  3223                           ;app_device_custom_hid.c: 101:                     LED_Off(LED_SCANNING);
  3224  02F5  3002               	movlw	2
  3225  02F6  3189  2107  3182   	fcall	_LED_Off
  3226  02F9  2B72               	goto	l3920
  3227  02FA                     l3890:
  3228                           
  3229                           ;app_device_custom_hid.c: 105:                 if(!((USBInHandle != 0x0000) && ((*(volat
      +                          ile uint8_t*)USBInHandle & 0x80) != 0x00)))
  3230  02FA  0023               	movlb	3	; select bank3
  3231  02FB  082F               	movf	_USBInHandle^(0+384),w
  3232  02FC  0430               	iorwf	(_USBInHandle+1)^(0+384),w
  3233  02FD  1903               	btfsc	3,2
  3234  02FE  2B00               	goto	u2551
  3235  02FF  2B01               	goto	u2550
  3236  0300                     u2551:
  3237  0300  2B09               	goto	l3894
  3238  0301                     u2550:
  3239  0301                     l3892:
  3240  0301  082F               	movf	_USBInHandle^(0+384),w
  3241  0302  0086               	movwf	6
  3242  0303  0830               	movf	(_USBInHandle+1)^(0+384),w
  3243  0304  0087               	movwf	7
  3244  0305  1B81               	btfsc	1,7
  3245  0306  2B08               	goto	u2561
  3246  0307  2B09               	goto	u2560
  3247  0308                     u2561:
  3248  0308  2B72               	goto	l3920
  3249  0309                     u2560:
  3250  0309                     l3894:
  3251                           
  3252                           ;app_device_custom_hid.c: 106:                 {;app_device_custom_hid.c: 107:          
      +                                     for(uint8_t i = 0; i < 64; i+=2){
  3253  0309  0022               	movlb	2	; select bank2
  3254  030A  01EF               	clrf	APP_DeviceCustomHIDTasks@i^(0+256)
  3255  030B                     l3900:
  3256                           
  3257                           ;app_device_custom_hid.c: 108:                         unsigned short value = check_alco
      +                          hol();
  3258  030B  3197  27D5  3182   	fcall	_check_alcohol
  3259  030E  0021               	movlb	1	; select bank1
  3260  030F  0861               	movf	(?_check_alcohol+1)^(0+128),w
  3261  0310  0022               	movlb	2	; select bank2
  3262  0311  00EE               	movwf	(APP_DeviceCustomHIDTasks@value+1)^(0+256)
  3263  0312  0021               	movlb	1	; select bank1
  3264  0313  0860               	movf	?_check_alcohol^(0+128),w
  3265  0314  0022               	movlb	2	; select bank2
  3266  0315  00ED               	movwf	APP_DeviceCustomHIDTasks@value^(0+256)
  3267  0316                     l3902:
  3268                           
  3269                           ;app_device_custom_hid.c: 110:                         uint8_t head_dat = value >> 8;
  3270  0316  086E               	movf	(APP_DeviceCustomHIDTasks@value+1)^(0+256),w
  3271  0317  0021               	movlb	1	; select bank1
  3272  0318  00EB               	movwf	??_APP_DeviceCustomHIDTasks^(0+128)
  3273  0319  086B               	movf	??_APP_DeviceCustomHIDTasks^(0+128),w
  3274  031A  0022               	movlb	2	; select bank2
  3275  031B  00EB               	movwf	APP_DeviceCustomHIDTasks@head_dat^(0+256)
  3276  031C                     l3904:
  3277                           
  3278                           ;app_device_custom_hid.c: 111:                         uint8_t tail_dat = value & 0x00FF
      +                          ;
  3279  031C  086D               	movf	APP_DeviceCustomHIDTasks@value^(0+256),w
  3280  031D  0021               	movlb	1	; select bank1
  3281  031E  00EB               	movwf	??_APP_DeviceCustomHIDTasks^(0+128)
  3282  031F  086B               	movf	??_APP_DeviceCustomHIDTasks^(0+128),w
  3283  0320  0022               	movlb	2	; select bank2
  3284  0321  00EC               	movwf	APP_DeviceCustomHIDTasks@tail_dat^(0+256)
  3285  0322                     l3906:
  3286                           
  3287                           ;app_device_custom_hid.c: 113:                         ToSendDataBuffer[i] = head_dat;
  3288  0322  086B               	movf	APP_DeviceCustomHIDTasks@head_dat^(0+256),w
  3289  0323  0021               	movlb	1	; select bank1
  3290  0324  00EB               	movwf	??_APP_DeviceCustomHIDTasks^(0+128)
  3291  0325  0022               	movlb	2	; select bank2
  3292  0326  086F               	movf	APP_DeviceCustomHIDTasks@i^(0+256),w
  3293  0327  3E20               	addlw	32
  3294  0328  0086               	movwf	6
  3295  0329  3001               	movlw	1	; select bank2/3
  3296  032A  0087               	movwf	7
  3297  032B  0021               	movlb	1	; select bank1
  3298  032C  086B               	movf	??_APP_DeviceCustomHIDTasks^(0+128),w
  3299  032D  0081               	movwf	1
  3300  032E                     l3908:
  3301                           
  3302                           ;app_device_custom_hid.c: 114:                         ToSendDataBuffer[i + 1] = tail_da
      +                          t;
  3303  032E  0022               	movlb	2	; select bank2
  3304  032F  086C               	movf	APP_DeviceCustomHIDTasks@tail_dat^(0+256),w
  3305  0330  0021               	movlb	1	; select bank1
  3306  0331  00EB               	movwf	??_APP_DeviceCustomHIDTasks^(0+128)
  3307  0332  0022               	movlb	2	; select bank2
  3308  0333  086F               	movf	APP_DeviceCustomHIDTasks@i^(0+256),w
  3309  0334  3E21               	addlw	33
  3310  0335  0086               	movwf	6
  3311  0336  3001               	movlw	1	; select bank2/3
  3312  0337  0087               	movwf	7
  3313  0338  0021               	movlb	1	; select bank1
  3314  0339  086B               	movf	??_APP_DeviceCustomHIDTasks^(0+128),w
  3315  033A  0081               	movwf	1
  3316  033B                     l3910:
  3317                           
  3318                           ;app_device_custom_hid.c: 115:                     }
  3319  033B  3002               	movlw	2
  3320  033C  00EB               	movwf	??_APP_DeviceCustomHIDTasks^(0+128)
  3321  033D  086B               	movf	??_APP_DeviceCustomHIDTasks^(0+128),w
  3322  033E  0022               	movlb	2	; select bank2
  3323  033F  07EF               	addwf	APP_DeviceCustomHIDTasks@i^(0+256),f
  3324  0340                     l3912:
  3325  0340  3040               	movlw	64
  3326  0341  026F               	subwf	APP_DeviceCustomHIDTasks@i^(0+256),w
  3327  0342  1C03               	skipc
  3328  0343  2B45               	goto	u2571
  3329  0344  2B46               	goto	u2570
  3330  0345                     u2571:
  3331  0345  2B0B               	goto	l3900
  3332  0346                     u2570:
  3333  0346                     l3914:
  3334                           
  3335                           ;app_device_custom_hid.c: 118:                     USBInHandle = USBTransferOnePacket(1,
      +                          1,(uint8_t*)&ToSendDataBuffer[0],64);
  3336  0346  0021               	movlb	1	; select bank1
  3337  0347  01E0               	clrf	USBTransferOnePacket@dir^(0+128)
  3338  0348  0AE0               	incf	USBTransferOnePacket@dir^(0+128),f
  3339  0349  3020               	movlw	32
  3340  034A  00E1               	movwf	USBTransferOnePacket@data^(0+128)
  3341  034B  3001               	movlw	1
  3342  034C  00E2               	movwf	(USBTransferOnePacket@data+1)^(0+128)
  3343  034D  3040               	movlw	64
  3344  034E  00EB               	movwf	??_APP_DeviceCustomHIDTasks^(0+128)
  3345  034F  086B               	movf	??_APP_DeviceCustomHIDTasks^(0+128),w
  3346  0350  00E3               	movwf	USBTransferOnePacket@len^(0+128)
  3347  0351  3001               	movlw	1
  3348  0352  318E  26EE  3182   	fcall	_USBTransferOnePacket
  3349  0355  0021               	movlb	1	; select bank1
  3350  0356  0861               	movf	(?_USBTransferOnePacket+1)^(0+128),w
  3351  0357  0023               	movlb	3	; select bank3
  3352  0358  00B0               	movwf	(_USBInHandle+1)^(0+384)
  3353  0359  0021               	movlb	1	; select bank1
  3354  035A  0860               	movf	?_USBTransferOnePacket^(0+128),w
  3355  035B  0023               	movlb	3	; select bank3
  3356  035C  00AF               	movwf	_USBInHandle^(0+384)
  3357  035D  2B72               	goto	l3920
  3358  035E                     l3918:
  3359  035E  0021               	movlb	1	; select bank1
  3360  035F  0820               	movf	32,w
  3361  0360  00EB               	movwf	??_APP_DeviceCustomHIDTasks^(0+128)
  3362  0361  01EC               	clrf	(??_APP_DeviceCustomHIDTasks^(0+128)+1)
  3363                           
  3364                           ; Switch on 2 bytes has been partitioned into a top level switch of size 1, and 1 sub-sw
      +                          itches
  3365                           ; Switch size 1, requested type "simple"
  3366                           ; Number of cases is 1, Range of values is 0 to 0
  3367                           ; switch strategies available:
  3368                           ; Name         Instructions Cycles
  3369                           ; simple_byte            4     3 (average)
  3370                           ; direct_byte            8     6 (fixed)
  3371                           ; jumptable            260     6 (fixed)
  3372                           ;	Chosen strategy is simple_byte
  3373  0362  086C               	movf	(??_APP_DeviceCustomHIDTasks+1)^(0+128),w
  3374  0363  3A00               	xorlw	0	; case 0
  3375  0364  1903               	skipnz
  3376  0365  2B67               	goto	l5106
  3377  0366  2B72               	goto	l3920
  3378  0367                     l5106:
  3379                           
  3380                           ; Switch size 1, requested type "simple"
  3381                           ; Number of cases is 3, Range of values is 96 to 128
  3382                           ; switch strategies available:
  3383                           ; Name         Instructions Cycles
  3384                           ; simple_byte           10     6 (average)
  3385                           ; direct_byte           75     9 (fixed)
  3386                           ; jumptable            263     9 (fixed)
  3387                           ;	Chosen strategy is simple_byte
  3388  0367  086B               	movf	??_APP_DeviceCustomHIDTasks^(0+128),w
  3389  0368  3A60               	xorlw	96	; case 96
  3390  0369  1903               	skipnz
  3391  036A  2AFA               	goto	l3890
  3392  036B  3A10               	xorlw	16	; case 112
  3393  036C  1903               	skipnz
  3394  036D  2ADE               	goto	l3884
  3395  036E  3AF0               	xorlw	240	; case 128
  3396  036F  1903               	skipnz
  3397  0370  2AC7               	goto	l3876
  3398  0371  2B72               	goto	l3920
  3399  0372                     l3920:
  3400                           
  3401                           ;app_device_custom_hid.c: 126:         USBOutHandle = USBTransferOnePacket(1,0,(uint8_t*
      +                          )&ReceivedDataBuffer[0],64);
  3402  0372  0021               	movlb	1	; select bank1
  3403  0373  01E0               	clrf	USBTransferOnePacket@dir^(0+128)
  3404  0374  30A0               	movlw	160
  3405  0375  00E1               	movwf	USBTransferOnePacket@data^(0+128)
  3406  0376  3000               	movlw	0
  3407  0377  00E2               	movwf	(USBTransferOnePacket@data+1)^(0+128)
  3408  0378  3040               	movlw	64
  3409  0379  00EB               	movwf	??_APP_DeviceCustomHIDTasks^(0+128)
  3410  037A  086B               	movf	??_APP_DeviceCustomHIDTasks^(0+128),w
  3411  037B  00E3               	movwf	USBTransferOnePacket@len^(0+128)
  3412  037C  3001               	movlw	1
  3413  037D  318E  26EE  3182   	fcall	_USBTransferOnePacket
  3414  0380  0021               	movlb	1	; select bank1
  3415  0381  0861               	movf	(?_USBTransferOnePacket+1)^(0+128),w
  3416  0382  0023               	movlb	3	; select bank3
  3417  0383  00B2               	movwf	(_USBOutHandle+1)^(0+384)
  3418  0384  0021               	movlb	1	; select bank1
  3419  0385  0860               	movf	?_USBTransferOnePacket^(0+128),w
  3420  0386  0023               	movlb	3	; select bank3
  3421  0387  00B1               	movwf	_USBOutHandle^(0+384)
  3422  0388                     l31:
  3423  0388  0008               	return
  3424  0389                     __end_of_APP_DeviceCustomHIDTasks:
  3425                           
  3426                           	psect	text7
  3427  17B1                     __ptext7:	
  3428 ;; *************** function _start_alcohol *****************
  3429 ;; Defined at:
  3430 ;;		line 22 in file "alcohol_drive.c"
  3431 ;; Parameters:    Size  Location     Type
  3432 ;;		None
  3433 ;; Auto vars:     Size  Location     Type
  3434 ;;		None
  3435 ;; Return value:  Size  Location     Type
  3436 ;;                  1    wreg      void 
  3437 ;; Registers used:
  3438 ;;		wreg
  3439 ;; Tracked objects:
  3440 ;;		On entry : 0/0
  3441 ;;		On exit  : 0/0
  3442 ;;		Unchanged: 0/0
  3443 ;; Data sizes:     COMMON   BANK0   BANK1   BANK2   BANK3   BANK4   BANK5   BANK6   BANK7   BANK8   BANK9  BANK10  BANK1
      +1  BANK12
  3444 ;;      Params:         0       0       0       0       0       0       0       0       0       0       0       0       
      +0       0
  3445 ;;      Locals:         0       0       0       0       0       0       0       0       0       0       0       0       
      +0       0
  3446 ;;      Temps:          0       0       0       0       0       0       0       0       0       0       0       0       
      +0       0
  3447 ;;      Totals:         0       0       0       0       0       0       0       0       0       0       0       0       
      +0       0
  3448 ;;Total ram usage:        0 bytes
  3449 ;; Hardware stack levels used: 1
  3450 ;; Hardware stack levels required when called: 10
  3451 ;; This function calls:
  3452 ;;		Nothing
  3453 ;; This function is called by:
  3454 ;;		_APP_DeviceCustomHIDTasks
  3455 ;; This function uses a non-reentrant model
  3456 ;;
  3457                           
  3458  17B1                     _start_alcohol:	
  3459                           ;psect for function _start_alcohol
  3460                           
  3461  17B1                     l3684:	
  3462                           ;incstack = 0
  3463                           ; Regs used in _start_alcohol: [wreg]
  3464                           
  3465                           
  3466                           ;alcohol_drive.c: 23:     ADCON0 = 0x09;
  3467  17B1  3009               	movlw	9
  3468  17B2  0021               	movlb	1	; select bank1
  3469  17B3  009D               	movwf	29	;volatile
  3470                           
  3471                           ;alcohol_drive.c: 24:     _delay((unsigned long)((20)*(48000000/4000000.0)));
  3472  17B4  3050               	movlw	80
  3473  17B5                     u3317:
  3474  17B5  0B89               	decfsz	9,f
  3475  17B6  2FB5               	goto	u3317
  3476  17B7                     l618:
  3477  17B7  0008               	return
  3478  17B8                     __end_of_start_alcohol:
  3479                           
  3480                           	psect	text8
  3481  17D5                     __ptext8:	
  3482 ;; *************** function _check_alcohol *****************
  3483 ;; Defined at:
  3484 ;;		line 31 in file "alcohol_drive.c"
  3485 ;; Parameters:    Size  Location     Type
  3486 ;;		None
  3487 ;; Auto vars:     Size  Location     Type
  3488 ;;  value           2    2[BANK1 ] unsigned short 
  3489 ;; Return value:  Size  Location     Type
  3490 ;;                  2    0[BANK1 ] unsigned short 
  3491 ;; Registers used:
  3492 ;;		wreg
  3493 ;; Tracked objects:
  3494 ;;		On entry : 0/0
  3495 ;;		On exit  : 0/0
  3496 ;;		Unchanged: 0/0
  3497 ;; Data sizes:     COMMON   BANK0   BANK1   BANK2   BANK3   BANK4   BANK5   BANK6   BANK7   BANK8   BANK9  BANK10  BANK1
      +1  BANK12
  3498 ;;      Params:         0       0       2       0       0       0       0       0       0       0       0       0       
      +0       0
  3499 ;;      Locals:         0       0       2       0       0       0       0       0       0       0       0       0       
      +0       0
  3500 ;;      Temps:          0       0       0       0       0       0       0       0       0       0       0       0       
      +0       0
  3501 ;;      Totals:         0       0       4       0       0       0       0       0       0       0       0       0       
      +0       0
  3502 ;;Total ram usage:        4 bytes
  3503 ;; Hardware stack levels used: 1
  3504 ;; Hardware stack levels required when called: 10
  3505 ;; This function calls:
  3506 ;;		Nothing
  3507 ;; This function is called by:
  3508 ;;		_APP_DeviceCustomHIDTasks
  3509 ;; This function uses a non-reentrant model
  3510 ;;
  3511                           
  3512  17D5                     _check_alcohol:	
  3513                           ;psect for function _check_alcohol
  3514                           
  3515  17D5                     l3698:	
  3516                           ;incstack = 0
  3517                           ; Regs used in _check_alcohol: [wreg]
  3518                           
  3519                           
  3520                           ;alcohol_drive.c: 43:     ADCON0bits.GO = 1;
  3521  17D5  0021               	movlb	1	; select bank1
  3522  17D6  149D               	bsf	29,1	;volatile
  3523  17D7                     l621:	
  3524                           ;alcohol_drive.c: 44:     while(ADCON0bits.GO);
  3525                           
  3526  17D7  189D               	btfsc	29,1	;volatile
  3527  17D8  2FDA               	goto	u2311
  3528  17D9  2FDB               	goto	u2310
  3529  17DA                     u2311:
  3530  17DA  2FD7               	goto	l621
  3531  17DB                     u2310:
  3532  17DB                     l3700:
  3533                           
  3534                           ;alcohol_drive.c: 45:     unsigned short value = ADRESL + ( ADRESH * 256);
  3535  17DB  081C               	movf	28,w	;volatile
  3536  17DC  00E3               	movwf	(check_alcohol@value+1)^(0+128)
  3537  17DD  081B               	movf	27,w	;volatile
  3538  17DE  00E2               	movwf	check_alcohol@value^(0+128)
  3539                           
  3540                           ;alcohol_drive.c: 46:     return value;
  3541  17DF  0863               	movf	(check_alcohol@value+1)^(0+128),w
  3542  17E0  00E1               	movwf	(?_check_alcohol+1)^(0+128)
  3543  17E1  0862               	movf	check_alcohol@value^(0+128),w
  3544  17E2  00E0               	movwf	?_check_alcohol^(0+128)
  3545  17E3                     l624:
  3546  17E3  0008               	return
  3547  17E4                     __end_of_check_alcohol:
  3548                           
  3549                           	psect	text9
  3550  0EEE                     __ptext9:	
  3551 ;; *************** function _USBTransferOnePacket *****************
  3552 ;; Defined at:
  3553 ;;		line 999 in file "usb_device.c"
  3554 ;; Parameters:    Size  Location     Type
  3555 ;;  ep              1    wreg     unsigned char 
  3556 ;;  dir             1    0[BANK1 ] unsigned char 
  3557 ;;  data            2    1[BANK1 ] PTR unsigned char 
  3558 ;;		 -> ToSendDataBuffer(64), ReceivedDataBuffer(64), 
  3559 ;;  len             1    3[BANK1 ] unsigned char 
  3560 ;; Auto vars:     Size  Location     Type
  3561 ;;  ep              1    8[BANK1 ] unsigned char 
  3562 ;;  handle          2    9[BANK1 ] PTR volatile struct __BD
  3563 ;;		 -> RAM(4096), BDT(32), NULL(0), 
  3564 ;; Return value:  Size  Location     Type
  3565 ;;                  2    0[BANK1 ] PTR void 
  3566 ;; Registers used:
  3567 ;;		wreg, fsr1l, fsr1h, status,2, status,0
  3568 ;; Tracked objects:
  3569 ;;		On entry : 0/0
  3570 ;;		On exit  : 0/0
  3571 ;;		Unchanged: 0/0
  3572 ;; Data sizes:     COMMON   BANK0   BANK1   BANK2   BANK3   BANK4   BANK5   BANK6   BANK7   BANK8   BANK9  BANK10  BANK1
      +1  BANK12
  3573 ;;      Params:         0       0       4       0       0       0       0       0       0       0       0       0       
      +0       0
  3574 ;;      Locals:         0       0       3       0       0       0       0       0       0       0       0       0       
      +0       0
  3575 ;;      Temps:          0       0       4       0       0       0       0       0       0       0       0       0       
      +0       0
  3576 ;;      Totals:         0       0      11       0       0       0       0       0       0       0       0       0       
      +0       0
  3577 ;;Total ram usage:       11 bytes
  3578 ;; Hardware stack levels used: 1
  3579 ;; Hardware stack levels required when called: 10
  3580 ;; This function calls:
  3581 ;;		Nothing
  3582 ;; This function is called by:
  3583 ;;		_APP_DeviceCustomHIDTasks
  3584 ;; This function uses a non-reentrant model
  3585 ;;
  3586                           
  3587  0EEE                     _USBTransferOnePacket:	
  3588                           ;psect for function _USBTransferOnePacket
  3589                           
  3590                           
  3591                           ;incstack = 0
  3592                           ; Regs used in _USBTransferOnePacket: [wreg+fsr1l+fsr1h+status,2+status,0]
  3593                           ;USBTransferOnePacket@ep stored from wreg
  3594  0EEE  0021               	movlb	1	; select bank1
  3595  0EEF  00E8               	movwf	USBTransferOnePacket@ep^(0+128)
  3596  0EF0                     l3644:
  3597                           
  3598                           ;usb_device.c: 999: void* USBTransferOnePacket(uint8_t ep,uint8_t dir,uint8_t* data,uint
      +                          8_t len);usb_device.c: 1000: {;usb_device.c: 1001:     volatile BDT_ENTRY* handle;;usb_d
      +                          evice.c: 1004:     if(dir != 0)
  3599  0EF0  0860               	movf	USBTransferOnePacket@dir^(0+128),w
  3600  0EF1  1903               	btfsc	3,2
  3601  0EF2  2EF4               	goto	u2281
  3602  0EF3  2EF5               	goto	u2280
  3603  0EF4                     u2281:
  3604  0EF4  2EFE               	goto	l3648
  3605  0EF5                     u2280:
  3606  0EF5                     l3646:
  3607                           
  3608                           ;usb_device.c: 1005:     {;usb_device.c: 1007:         handle = pBDTEntryIn[ep];
  3609  0EF5  3568               	lslf	USBTransferOnePacket@ep^(0+128),w
  3610  0EF6  3E6A               	addlw	(low (_pBDTEntryIn| 0))& (0+255)
  3611  0EF7  0086               	movwf	6
  3612  0EF8  0187               	clrf	7
  3613  0EF9  3F40               	moviw [0]fsr1
  3614  0EFA  00E9               	movwf	USBTransferOnePacket@handle^(0+128)
  3615  0EFB  3F41               	moviw [1]fsr1
  3616  0EFC  00EA               	movwf	(USBTransferOnePacket@handle+1)^(0+128)
  3617                           
  3618                           ;usb_device.c: 1008:     }
  3619  0EFD  2F07               	goto	l3650
  3620  0EFE                     l3648:
  3621                           
  3622                           ;usb_device.c: 1010:     {;usb_device.c: 1012:         handle = pBDTEntryOut[ep];
  3623  0EFE  3568               	lslf	USBTransferOnePacket@ep^(0+128),w
  3624  0EFF  3EAB               	addlw	(low (_pBDTEntryOut| (0+256)))& (0+255)
  3625  0F00  0086               	movwf	6
  3626  0F01  3001               	movlw	1	; select bank3/4
  3627  0F02  0087               	movwf	7
  3628  0F03  3F40               	moviw [0]fsr1
  3629  0F04  00E9               	movwf	USBTransferOnePacket@handle^(0+128)
  3630  0F05  3F41               	moviw [1]fsr1
  3631  0F06  00EA               	movwf	(USBTransferOnePacket@handle+1)^(0+128)
  3632  0F07                     l3650:
  3633                           
  3634                           ;usb_device.c: 1017:     if(handle == 0)
  3635  0F07  0869               	movf	USBTransferOnePacket@handle^(0+128),w
  3636  0F08  046A               	iorwf	(USBTransferOnePacket@handle+1)^(0+128),w
  3637  0F09  1D03               	btfss	3,2
  3638  0F0A  2F0C               	goto	u2291
  3639  0F0B  2F0D               	goto	u2290
  3640  0F0C                     u2291:
  3641  0F0C  2F10               	goto	l3656
  3642  0F0D                     u2290:
  3643  0F0D                     l3652:
  3644                           
  3645                           ;usb_device.c: 1018:     {;usb_device.c: 1019:         return 0;
  3646  0F0D  01E0               	clrf	?_USBTransferOnePacket^(0+128)
  3647  0F0E  01E1               	clrf	(?_USBTransferOnePacket+1)^(0+128)
  3648  0F0F  2F75               	goto	l291
  3649  0F10                     l3656:
  3650                           
  3651                           ;usb_device.c: 1033:     handle->ADR = (((uint16_t)(data)) & 0x7FFF);
  3652  0F10  30FF               	movlw	255
  3653  0F11  0561               	andwf	USBTransferOnePacket@data^(0+128),w
  3654  0F12  00E4               	movwf	??_USBTransferOnePacket^(0+128)
  3655  0F13  307F               	movlw	127
  3656  0F14  0562               	andwf	(USBTransferOnePacket@data+1)^(0+128),w
  3657  0F15  00E5               	movwf	(??_USBTransferOnePacket+1)^(0+128)
  3658  0F16  0869               	movf	USBTransferOnePacket@handle^(0+128),w
  3659  0F17  0086               	movwf	6
  3660  0F18  086A               	movf	(USBTransferOnePacket@handle+1)^(0+128),w
  3661  0F19  0087               	movwf	7
  3662  0F1A  3142               	addfsr 1,2
  3663  0F1B  0864               	movf	??_USBTransferOnePacket^(0+128),w
  3664  0F1C  3FC0               	movwi [0]fsr1
  3665  0F1D  0865               	movf	(??_USBTransferOnePacket^(0+128)+1),w
  3666  0F1E  3FC1               	movwi [1]fsr1
  3667  0F1F                     l3658:
  3668                           
  3669                           ;usb_device.c: 1034:     handle->CNT = len;
  3670  0F1F  0869               	movf	USBTransferOnePacket@handle^(0+128),w
  3671  0F20  3E01               	addlw	1
  3672  0F21  00E4               	movwf	??_USBTransferOnePacket^(0+128)
  3673  0F22  3000               	movlw	0
  3674  0F23  3D6A               	addwfc	(USBTransferOnePacket@handle+1)^(0+128),w
  3675  0F24  00E5               	movwf	(??_USBTransferOnePacket+1)^(0+128)
  3676  0F25  0864               	movf	??_USBTransferOnePacket^(0+128),w
  3677  0F26  0086               	movwf	6
  3678  0F27  0865               	movf	(??_USBTransferOnePacket+1)^(0+128),w
  3679  0F28  0087               	movwf	7
  3680  0F29  0863               	movf	USBTransferOnePacket@len^(0+128),w
  3681  0F2A  0081               	movwf	1
  3682  0F2B                     l3660:
  3683                           
  3684                           ;usb_device.c: 1035:     handle->STAT.Val &= 0x40;
  3685  0F2B  3040               	movlw	64
  3686  0F2C  00E4               	movwf	??_USBTransferOnePacket^(0+128)
  3687  0F2D  0869               	movf	USBTransferOnePacket@handle^(0+128),w
  3688  0F2E  0086               	movwf	6
  3689  0F2F  086A               	movf	(USBTransferOnePacket@handle+1)^(0+128),w
  3690  0F30  0087               	movwf	7
  3691  0F31  0864               	movf	??_USBTransferOnePacket^(0+128),w
  3692  0F32  0581               	andwf	1,f
  3693                           
  3694                           ;usb_device.c: 1036:     handle->STAT.Val |= (0x08 & 0x08);
  3695  0F33  0869               	movf	USBTransferOnePacket@handle^(0+128),w
  3696  0F34  0086               	movwf	6
  3697  0F35  086A               	movf	(USBTransferOnePacket@handle+1)^(0+128),w
  3698  0F36  0087               	movwf	7
  3699  0F37  1581               	bsf	1,3
  3700                           
  3701                           ;usb_device.c: 1037:     handle->STAT.Val |= 0x80;
  3702  0F38  0869               	movf	USBTransferOnePacket@handle^(0+128),w
  3703  0F39  0086               	movwf	6
  3704  0F3A  086A               	movf	(USBTransferOnePacket@handle+1)^(0+128),w
  3705  0F3B  0087               	movwf	7
  3706  0F3C  1781               	bsf	1,7
  3707  0F3D                     l3662:
  3708                           
  3709                           ;usb_device.c: 1040:     if(dir != 0)
  3710  0F3D  0860               	movf	USBTransferOnePacket@dir^(0+128),w
  3711  0F3E  1903               	btfsc	3,2
  3712  0F3F  2F41               	goto	u2301
  3713  0F40  2F42               	goto	u2300
  3714  0F41                     u2301:
  3715  0F41  2F59               	goto	l3666
  3716  0F42                     u2300:
  3717  0F42                     l3664:
  3718                           
  3719                           ;usb_device.c: 1041:     {;usb_device.c: 1043:         pBDTEntryIn[ep] = (BDT_ENTRY*)(((
      +                          uint16_t)pBDTEntryIn[ep]) ^ 0x0004);
  3720  0F42  3568               	lslf	USBTransferOnePacket@ep^(0+128),w
  3721  0F43  3E6A               	addlw	(low (_pBDTEntryIn| 0))& (0+255)
  3722  0F44  0086               	movwf	6
  3723  0F45  0187               	clrf	7
  3724  0F46  3F40               	moviw [0]fsr1
  3725  0F47  00E4               	movwf	??_USBTransferOnePacket^(0+128)
  3726  0F48  3F41               	moviw [1]fsr1
  3727  0F49  00E5               	movwf	(??_USBTransferOnePacket^(0+128)+1)
  3728  0F4A  3004               	movlw	4
  3729  0F4B  0664               	xorwf	??_USBTransferOnePacket^(0+128),w
  3730  0F4C  00E6               	movwf	(??_USBTransferOnePacket+2)^(0+128)
  3731  0F4D  3000               	movlw	0
  3732  0F4E  0665               	xorwf	(??_USBTransferOnePacket+1)^(0+128),w
  3733  0F4F  00E7               	movwf	(??_USBTransferOnePacket+3)^(0+128)
  3734  0F50  3568               	lslf	USBTransferOnePacket@ep^(0+128),w
  3735  0F51  3E6A               	addlw	(low (_pBDTEntryIn| 0))& (0+255)
  3736  0F52  0086               	movwf	6
  3737  0F53  0187               	clrf	7
  3738  0F54  0866               	movf	(??_USBTransferOnePacket+2)^(0+128),w
  3739  0F55  3FC0               	movwi [0]fsr1
  3740  0F56  0867               	movf	(??_USBTransferOnePacket+3)^(0+128),w
  3741  0F57  3FC1               	movwi [1]fsr1
  3742                           
  3743                           ;usb_device.c: 1044:     }
  3744  0F58  2F71               	goto	l3668
  3745  0F59                     l3666:
  3746                           
  3747                           ;usb_device.c: 1046:     {;usb_device.c: 1048:         pBDTEntryOut[ep] = (BDT_ENTRY*)((
      +                          (uint16_t)pBDTEntryOut[ep]) ^ 0x0004);
  3748  0F59  3568               	lslf	USBTransferOnePacket@ep^(0+128),w
  3749  0F5A  3EAB               	addlw	(low (_pBDTEntryOut| (0+256)))& (0+255)
  3750  0F5B  0086               	movwf	6
  3751  0F5C  3001               	movlw	1	; select bank3/4
  3752  0F5D  0087               	movwf	7
  3753  0F5E  3F40               	moviw [0]fsr1
  3754  0F5F  00E4               	movwf	??_USBTransferOnePacket^(0+128)
  3755  0F60  3F41               	moviw [1]fsr1
  3756  0F61  00E5               	movwf	(??_USBTransferOnePacket^(0+128)+1)
  3757  0F62  3004               	movlw	4
  3758  0F63  0664               	xorwf	??_USBTransferOnePacket^(0+128),w
  3759  0F64  00E6               	movwf	(??_USBTransferOnePacket+2)^(0+128)
  3760  0F65  3000               	movlw	0
  3761  0F66  0665               	xorwf	(??_USBTransferOnePacket+1)^(0+128),w
  3762  0F67  00E7               	movwf	(??_USBTransferOnePacket+3)^(0+128)
  3763  0F68  3568               	lslf	USBTransferOnePacket@ep^(0+128),w
  3764  0F69  3EAB               	addlw	(low (_pBDTEntryOut| (0+256)))& (0+255)
  3765  0F6A  0086               	movwf	6
  3766  0F6B  3001               	movlw	1	; select bank3/4
  3767  0F6C  0087               	movwf	7
  3768  0F6D  0866               	movf	(??_USBTransferOnePacket+2)^(0+128),w
  3769  0F6E  3FC0               	movwi [0]fsr1
  3770  0F6F  0867               	movf	(??_USBTransferOnePacket+3)^(0+128),w
  3771  0F70  3FC1               	movwi [1]fsr1
  3772  0F71                     l3668:
  3773                           
  3774                           ;usb_device.c: 1050:     return (void*)handle;
  3775  0F71  086A               	movf	(USBTransferOnePacket@handle+1)^(0+128),w
  3776  0F72  00E1               	movwf	(?_USBTransferOnePacket+1)^(0+128)
  3777  0F73  0869               	movf	USBTransferOnePacket@handle^(0+128),w
  3778  0F74  00E0               	movwf	?_USBTransferOnePacket^(0+128)
  3779  0F75                     l291:
  3780  0F75  0008               	return
  3781  0F76                     __end_of_USBTransferOnePacket:
  3782                           
  3783                           	psect	text10
  3784  0930                     __ptext10:	
  3785 ;; *************** function _LED_On *****************
  3786 ;; Defined at:
  3787 ;;		line 26 in file "leds.c"
  3788 ;; Parameters:    Size  Location     Type
  3789 ;;  led             1    wreg     enum E2
  3790 ;; Auto vars:     Size  Location     Type
  3791 ;;  led             1    2[BANK1 ] enum E2
  3792 ;; Return value:  Size  Location     Type
  3793 ;;                  1    wreg      void 
  3794 ;; Registers used:
  3795 ;;		wreg, fsr0l, fsr0h, status,2, status,0
  3796 ;; Tracked objects:
  3797 ;;		On entry : 0/0
  3798 ;;		On exit  : 0/0
  3799 ;;		Unchanged: 0/0
  3800 ;; Data sizes:     COMMON   BANK0   BANK1   BANK2   BANK3   BANK4   BANK5   BANK6   BANK7   BANK8   BANK9  BANK10  BANK1
      +1  BANK12
  3801 ;;      Params:         0       0       0       0       0       0       0       0       0       0       0       0       
      +0       0
  3802 ;;      Locals:         0       0       1       0       0       0       0       0       0       0       0       0       
      +0       0
  3803 ;;      Temps:          0       0       2       0       0       0       0       0       0       0       0       0       
      +0       0
  3804 ;;      Totals:         0       0       3       0       0       0       0       0       0       0       0       0       
      +0       0
  3805 ;;Total ram usage:        3 bytes
  3806 ;; Hardware stack levels used: 1
  3807 ;; Hardware stack levels required when called: 10
  3808 ;; This function calls:
  3809 ;;		Nothing
  3810 ;; This function is called by:
  3811 ;;		_APP_DeviceCustomHIDTasks
  3812 ;; This function uses a non-reentrant model
  3813 ;;
  3814                           
  3815  0930                     _LED_On:	
  3816                           ;psect for function _LED_On
  3817                           
  3818                           
  3819                           ;incstack = 0
  3820                           ; Regs used in _LED_On: [wreg-fsr0h+status,2+status,0]
  3821                           ;LED_On@led stored from wreg
  3822  0930  0021               	movlb	1	; select bank1
  3823  0931  00E2               	movwf	LED_On@led^(0+128)
  3824  0932                     l3672:
  3825                           
  3826                           ;leds.c: 26: void LED_On(LED led);leds.c: 27: {;leds.c: 28:     switch(led)
  3827  0932  293F               	goto	l3676
  3828  0933                     l579:	
  3829                           ;leds.c: 29:     {;leds.c: 30:         case LED_CONNECT:
  3830                           
  3831                           
  3832                           ;leds.c: 31:             LATCbits.LATC5 = 1;
  3833  0933  0022               	movlb	2	; select bank2
  3834  0934  168E               	bsf	14,5	;volatile
  3835                           
  3836                           ;leds.c: 32:             break;
  3837  0935  2958               	goto	l585
  3838  0936                     l581:	
  3839                           ;leds.c: 33:         case LED_SCANNING:
  3840                           
  3841                           
  3842                           ;leds.c: 34:             LATCbits.LATC4 = 1;
  3843  0936  0022               	movlb	2	; select bank2
  3844  0937  160E               	bsf	14,4	;volatile
  3845                           
  3846                           ;leds.c: 35:             break;
  3847  0938  2958               	goto	l585
  3848  0939                     l582:	
  3849                           ;leds.c: 36:         case LED_OK:
  3850                           
  3851                           
  3852                           ;leds.c: 37:             LATCbits.LATC3 = 1;
  3853  0939  0022               	movlb	2	; select bank2
  3854  093A  158E               	bsf	14,3	;volatile
  3855                           
  3856                           ;leds.c: 38:             break;
  3857  093B  2958               	goto	l585
  3858  093C                     l583:	
  3859                           ;leds.c: 39:         case LED_NG:
  3860                           
  3861                           
  3862                           ;leds.c: 40:             LATCbits.LATC6 = 1;
  3863  093C  0022               	movlb	2	; select bank2
  3864  093D  170E               	bsf	14,6	;volatile
  3865                           
  3866                           ;leds.c: 41:             break;
  3867  093E  2958               	goto	l585
  3868  093F                     l3676:
  3869  093F  0862               	movf	LED_On@led^(0+128),w
  3870  0940  00E0               	movwf	??_LED_On^(0+128)
  3871  0941  01E1               	clrf	(??_LED_On^(0+128)+1)
  3872                           
  3873                           ; Switch on 2 bytes has been partitioned into a top level switch of size 1, and 1 sub-sw
      +                          itches
  3874                           ; Switch size 1, requested type "simple"
  3875                           ; Number of cases is 1, Range of values is 0 to 0
  3876                           ; switch strategies available:
  3877                           ; Name         Instructions Cycles
  3878                           ; simple_byte            4     3 (average)
  3879                           ; direct_byte            8     6 (fixed)
  3880                           ; jumptable            260     6 (fixed)
  3881                           ;	Chosen strategy is simple_byte
  3882  0942  0861               	movf	(??_LED_On+1)^(0+128),w
  3883  0943  3A00               	xorlw	0	; case 0
  3884  0944  1903               	skipnz
  3885  0945  2947               	goto	l5108
  3886  0946  2958               	goto	l585
  3887  0947                     l5108:
  3888                           
  3889                           ; Switch size 1, requested type "simple"
  3890                           ; Number of cases is 5, Range of values is 0 to 4
  3891                           ; switch strategies available:
  3892                           ; Name         Instructions Cycles
  3893                           ; direct_byte           16     6 (fixed)
  3894                           ; simple_byte           16     9 (average)
  3895                           ; jumptable            260     6 (fixed)
  3896                           ;	Chosen strategy is simple_byte
  3897  0947  0860               	movf	??_LED_On^(0+128),w
  3898  0948  3A00               	xorlw	0	; case 0
  3899  0949  1903               	skipnz
  3900  094A  2958               	goto	l585
  3901  094B  3A01               	xorlw	1	; case 1
  3902  094C  1903               	skipnz
  3903  094D  2933               	goto	l579
  3904  094E  3A03               	xorlw	3	; case 2
  3905  094F  1903               	skipnz
  3906  0950  2936               	goto	l581
  3907  0951  3A01               	xorlw	1	; case 3
  3908  0952  1903               	skipnz
  3909  0953  2939               	goto	l582
  3910  0954  3A07               	xorlw	7	; case 4
  3911  0955  1903               	skipnz
  3912  0956  293C               	goto	l583
  3913  0957  2958               	goto	l585
  3914  0958                     l585:
  3915  0958  0008               	return
  3916  0959                     __end_of_LED_On:
  3917                           
  3918                           	psect	text11
  3919  0907                     __ptext11:	
  3920 ;; *************** function _LED_Off *****************
  3921 ;; Defined at:
  3922 ;;		line 51 in file "leds.c"
  3923 ;; Parameters:    Size  Location     Type
  3924 ;;  led             1    wreg     enum E2
  3925 ;; Auto vars:     Size  Location     Type
  3926 ;;  led             1    2[BANK1 ] enum E2
  3927 ;; Return value:  Size  Location     Type
  3928 ;;                  1    wreg      void 
  3929 ;; Registers used:
  3930 ;;		wreg, fsr0l, fsr0h, status,2, status,0
  3931 ;; Tracked objects:
  3932 ;;		On entry : 0/0
  3933 ;;		On exit  : 0/0
  3934 ;;		Unchanged: 0/0
  3935 ;; Data sizes:     COMMON   BANK0   BANK1   BANK2   BANK3   BANK4   BANK5   BANK6   BANK7   BANK8   BANK9  BANK10  BANK1
      +1  BANK12
  3936 ;;      Params:         0       0       0       0       0       0       0       0       0       0       0       0       
      +0       0
  3937 ;;      Locals:         0       0       1       0       0       0       0       0       0       0       0       0       
      +0       0
  3938 ;;      Temps:          0       0       2       0       0       0       0       0       0       0       0       0       
      +0       0
  3939 ;;      Totals:         0       0       3       0       0       0       0       0       0       0       0       0       
      +0       0
  3940 ;;Total ram usage:        3 bytes
  3941 ;; Hardware stack levels used: 1
  3942 ;; Hardware stack levels required when called: 10
  3943 ;; This function calls:
  3944 ;;		Nothing
  3945 ;; This function is called by:
  3946 ;;		_APP_DeviceCustomHIDTasks
  3947 ;;		_SYSTEM_Initialize
  3948 ;; This function uses a non-reentrant model
  3949 ;;
  3950                           
  3951  0907                     _LED_Off:	
  3952                           ;psect for function _LED_Off
  3953                           
  3954                           
  3955                           ;incstack = 0
  3956                           ; Regs used in _LED_Off: [wreg-fsr0h+status,2+status,0]
  3957                           ;LED_Off@led stored from wreg
  3958  0907  0021               	movlb	1	; select bank1
  3959  0908  00E2               	movwf	LED_Off@led^(0+128)
  3960  0909                     l3686:
  3961                           
  3962                           ;leds.c: 51: void LED_Off(LED led);leds.c: 52: {;leds.c: 53:     switch(led)
  3963  0909  2916               	goto	l3690
  3964  090A                     l589:	
  3965                           ;leds.c: 54:     {;leds.c: 55:         case LED_CONNECT:
  3966                           
  3967                           
  3968                           ;leds.c: 56:             LATCbits.LATC5 = 0;
  3969  090A  0022               	movlb	2	; select bank2
  3970  090B  128E               	bcf	14,5	;volatile
  3971                           
  3972                           ;leds.c: 57:             break;
  3973  090C  292F               	goto	l595
  3974  090D                     l591:	
  3975                           ;leds.c: 58:         case LED_SCANNING:
  3976                           
  3977                           
  3978                           ;leds.c: 59:             LATCbits.LATC4 = 0;
  3979  090D  0022               	movlb	2	; select bank2
  3980  090E  120E               	bcf	14,4	;volatile
  3981                           
  3982                           ;leds.c: 60:             break;
  3983  090F  292F               	goto	l595
  3984  0910                     l592:	
  3985                           ;leds.c: 61:         case LED_OK:
  3986                           
  3987                           
  3988                           ;leds.c: 62:             LATCbits.LATC3 = 0;
  3989  0910  0022               	movlb	2	; select bank2
  3990  0911  118E               	bcf	14,3	;volatile
  3991                           
  3992                           ;leds.c: 63:             break;
  3993  0912  292F               	goto	l595
  3994  0913                     l593:	
  3995                           ;leds.c: 64:         case LED_NG:
  3996                           
  3997                           
  3998                           ;leds.c: 65:             LATCbits.LATC6 = 0;
  3999  0913  0022               	movlb	2	; select bank2
  4000  0914  130E               	bcf	14,6	;volatile
  4001                           
  4002                           ;leds.c: 66:             break;
  4003  0915  292F               	goto	l595
  4004  0916                     l3690:
  4005  0916  0862               	movf	LED_Off@led^(0+128),w
  4006  0917  00E0               	movwf	??_LED_Off^(0+128)
  4007  0918  01E1               	clrf	(??_LED_Off^(0+128)+1)
  4008                           
  4009                           ; Switch on 2 bytes has been partitioned into a top level switch of size 1, and 1 sub-sw
      +                          itches
  4010                           ; Switch size 1, requested type "simple"
  4011                           ; Number of cases is 1, Range of values is 0 to 0
  4012                           ; switch strategies available:
  4013                           ; Name         Instructions Cycles
  4014                           ; simple_byte            4     3 (average)
  4015                           ; direct_byte            8     6 (fixed)
  4016                           ; jumptable            260     6 (fixed)
  4017                           ;	Chosen strategy is simple_byte
  4018  0919  0861               	movf	(??_LED_Off+1)^(0+128),w
  4019  091A  3A00               	xorlw	0	; case 0
  4020  091B  1903               	skipnz
  4021  091C  291E               	goto	l5110
  4022  091D  292F               	goto	l595
  4023  091E                     l5110:
  4024                           
  4025                           ; Switch size 1, requested type "simple"
  4026                           ; Number of cases is 5, Range of values is 0 to 4
  4027                           ; switch strategies available:
  4028                           ; Name         Instructions Cycles
  4029                           ; direct_byte           16     6 (fixed)
  4030                           ; simple_byte           16     9 (average)
  4031                           ; jumptable            260     6 (fixed)
  4032                           ;	Chosen strategy is simple_byte
  4033  091E  0860               	movf	??_LED_Off^(0+128),w
  4034  091F  3A00               	xorlw	0	; case 0
  4035  0920  1903               	skipnz
  4036  0921  292F               	goto	l595
  4037  0922  3A01               	xorlw	1	; case 1
  4038  0923  1903               	skipnz
  4039  0924  290A               	goto	l589
  4040  0925  3A03               	xorlw	3	; case 2
  4041  0926  1903               	skipnz
  4042  0927  290D               	goto	l591
  4043  0928  3A01               	xorlw	1	; case 3
  4044  0929  1903               	skipnz
  4045  092A  2910               	goto	l592
  4046  092B  3A07               	xorlw	7	; case 4
  4047  092C  1903               	skipnz
  4048  092D  2913               	goto	l593
  4049  092E  292F               	goto	l595
  4050  092F                     l595:
  4051  092F  0008               	return
  4052  0930                     __end_of_LED_Off:
  4053                           
  4054                           	psect	intentry
  4055  0004                     __pintentry:	
  4056 ;; *************** function _SYS_InterruptHigh *****************
  4057 ;; Defined at:
  4058 ;;		line 119 in file "system.c"
  4059 ;; Parameters:    Size  Location     Type
  4060 ;;		None
  4061 ;; Auto vars:     Size  Location     Type
  4062 ;;		None
  4063 ;; Return value:  Size  Location     Type
  4064 ;;                  1    wreg      void 
  4065 ;; Registers used:
  4066 ;;		wreg, fsr0l, fsr0h, fsr1l, fsr1h, status,2, status,0, pclath, cstack
  4067 ;; Tracked objects:
  4068 ;;		On entry : 0/0
  4069 ;;		On exit  : 0/0
  4070 ;;		Unchanged: 0/0
  4071 ;; Data sizes:     COMMON   BANK0   BANK1   BANK2   BANK3   BANK4   BANK5   BANK6   BANK7   BANK8   BANK9  BANK10  BANK1
      +1  BANK12
  4072 ;;      Params:         0       0       0       0       0       0       0       0       0       0       0       0       
      +0       0
  4073 ;;      Locals:         0       0       0       0       0       0       0       0       0       0       0       0       
      +0       0
  4074 ;;      Temps:          0       0       0       0       0       0       0       0       0       0       0       0       
      +0       0
  4075 ;;      Totals:         0       0       0       0       0       0       0       0       0       0       0       0       
      +0       0
  4076 ;;Total ram usage:        0 bytes
  4077 ;; Hardware stack levels used: 1
  4078 ;; Hardware stack levels required when called: 9
  4079 ;; This function calls:
  4080 ;;		_USBDeviceTasks
  4081 ;; This function is called by:
  4082 ;;		Interrupt level 1
  4083 ;; This function uses a non-reentrant model
  4084 ;;
  4085                           
  4086  0004                     _SYS_InterruptHigh:
  4087                           
  4088                           ;incstack = 0
  4089  0004  147E               	bsf	int$flags,0	;set compiler interrupt flag (level 1)
  4090                           
  4091                           ; Regs used in _SYS_InterruptHigh: [wreg-fsr1h+status,2+status,0+pclath+cstack]
  4092  0005  3180               	pagesel	$
  4093  0006                     i1l4792:
  4094                           
  4095                           ;system.c: 122:         USBDeviceTasks();
  4096  0006  3181  2183  3180   	fcall	_USBDeviceTasks
  4097  0009                     i1l96:
  4098  0009  107E               	bcf	int$flags,0	;clear compiler interrupt flag (level 1)
  4099  000A  0009               	retfie
  4100  000B                     __end_of_SYS_InterruptHigh:
  4101                           
  4102                           	psect	text13
  4103  0183                     __ptext13:	
  4104 ;; *************** function _USBDeviceTasks *****************
  4105 ;; Defined at:
  4106 ;;		line 481 in file "usb_device.c"
  4107 ;; Parameters:    Size  Location     Type
  4108 ;;		None
  4109 ;; Auto vars:     Size  Location     Type
  4110 ;;  i               1   20[BANK0 ] unsigned char 
  4111 ;; Return value:  Size  Location     Type
  4112 ;;                  1    wreg      void 
  4113 ;; Registers used:
  4114 ;;		wreg, fsr0l, fsr0h, fsr1l, fsr1h, status,2, status,0, pclath, cstack
  4115 ;; Tracked objects:
  4116 ;;		On entry : 0/0
  4117 ;;		On exit  : 0/0
  4118 ;;		Unchanged: 0/0
  4119 ;; Data sizes:     COMMON   BANK0   BANK1   BANK2   BANK3   BANK4   BANK5   BANK6   BANK7   BANK8   BANK9  BANK10  BANK1
      +1  BANK12
  4120 ;;      Params:         0       0       0       0       0       0       0       0       0       0       0       0       
      +0       0
  4121 ;;      Locals:         0       1       0       0       0       0       0       0       0       0       0       0       
      +0       0
  4122 ;;      Temps:          0       2       0       0       0       0       0       0       0       0       0       0       
      +0       0
  4123 ;;      Totals:         0       3       0       0       0       0       0       0       0       0       0       0       
      +0       0
  4124 ;;Total ram usage:        3 bytes
  4125 ;; Hardware stack levels used: 1
  4126 ;; Hardware stack levels required when called: 8
  4127 ;; This function calls:
  4128 ;;		_USBCtrlEPAllowStatusStage
  4129 ;;		_USBCtrlEPService
  4130 ;;		_USBIncrement1msInternalTimers
  4131 ;;		_USBStallHandler
  4132 ;;		_USBSuspend
  4133 ;;		_USBWakeFromSuspend
  4134 ;;		_USER_USB_CALLBACK_EVENT_HANDLER
  4135 ;;		i1_USBDeviceInit
  4136 ;; This function is called by:
  4137 ;;		_SYS_InterruptHigh
  4138 ;; This function uses a non-reentrant model
  4139 ;;
  4140                           
  4141  0183                     _USBDeviceTasks:	
  4142                           ;psect for function _USBDeviceTasks
  4143                           
  4144  0183                     i1l4690:	
  4145                           ;incstack = 0
  4146                           ; Regs used in _USBDeviceTasks: [wreg-fsr1h+status,2+status,0+pclath+cstack]
  4147                           
  4148                           
  4149                           ;usb_device.c: 483:     uint8_t i;;usb_device.c: 594:     if(USBDeviceState == ATTACHED_
      +                          STATE)
  4150  0183  0022               	movlb	2	; select bank2
  4151  0184  0368               	decf	_USBDeviceState^(0+256),w	;volatile
  4152  0185  1D03               	btfss	3,2
  4153  0186  2988               	goto	u308_21
  4154  0187  2989               	goto	u308_20
  4155  0188                     u308_21:
  4156  0188  2997               	goto	i1l4702
  4157  0189                     u308_20:
  4158  0189                     i1l4692:
  4159                           
  4160                           ;usb_device.c: 595:     {;usb_device.c: 605:         if(!UCONbits.SE0)
  4161  0189  003D               	movlb	29	; select bank29
  4162  018A  1A8E               	btfsc	14,5	;volatile
  4163  018B  298D               	goto	u309_21
  4164  018C  298E               	goto	u309_20
  4165  018D                     u309_21:
  4166  018D  2997               	goto	i1l4702
  4167  018E                     u309_20:
  4168  018E                     i1l4694:
  4169                           
  4170                           ;usb_device.c: 606:         {;usb_device.c: 612:                 {UIR = 0;};
  4171  018E  0190               	clrf	16	;volatile
  4172  018F                     i1l4696:
  4173                           
  4174                           ;usb_device.c: 618:             UIEbits.URSTIE = 1;
  4175  018F  1412               	bsf	18,0	;volatile
  4176  0190                     i1l4698:
  4177                           
  4178                           ;usb_device.c: 619:             UIEbits.IDLEIE = 1;
  4179  0190  1612               	bsf	18,4	;volatile
  4180  0191                     i1l4700:
  4181                           
  4182                           ;usb_device.c: 620:             USBDeviceState = POWERED_STATE;
  4183  0191  3002               	movlw	2
  4184  0192  0020               	movlb	0	; select bank0
  4185  0193  00E2               	movwf	??_USBDeviceTasks
  4186  0194  0862               	movf	??_USBDeviceTasks,w
  4187  0195  0022               	movlb	2	; select bank2
  4188  0196  00E8               	movwf	_USBDeviceState^(0+256)	;volatile
  4189  0197                     i1l4702:
  4190                           
  4191                           ;usb_device.c: 638:     if(UIRbits.ACTVIF && UIEbits.ACTVIE)
  4192  0197  003D               	movlb	29	; select bank29
  4193  0198  1D10               	btfss	16,2	;volatile
  4194  0199  299B               	goto	u310_21
  4195  019A  299C               	goto	u310_20
  4196  019B                     u310_21:
  4197  019B  29A9               	goto	i1l4710
  4198  019C                     u310_20:
  4199  019C                     i1l4704:
  4200  019C  1D12               	btfss	18,2	;volatile
  4201  019D  299F               	goto	u311_21
  4202  019E  29A0               	goto	u311_20
  4203  019F                     u311_21:
  4204  019F  29A9               	goto	i1l4710
  4205  01A0                     u311_20:
  4206  01A0                     i1l4706:
  4207                           
  4208                           ;usb_device.c: 639:     {;usb_device.c: 640:         (UIR &= 0xFB);
  4209  01A0  30FB               	movlw	251
  4210  01A1  0020               	movlb	0	; select bank0
  4211  01A2  00E2               	movwf	??_USBDeviceTasks
  4212  01A3  0862               	movf	??_USBDeviceTasks,w
  4213  01A4  003D               	movlb	29	; select bank29
  4214  01A5  0590               	andwf	16,f	;volatile
  4215  01A6                     i1l4708:
  4216                           
  4217                           ;usb_device.c: 644:             USBWakeFromSuspend();
  4218  01A6  3188  2070  3181   	fcall	_USBWakeFromSuspend
  4219  01A9                     i1l4710:
  4220                           
  4221                           ;usb_device.c: 651:     if(UCONbits.SUSPND==1)
  4222  01A9  003D               	movlb	29	; select bank29
  4223  01AA  1C8E               	btfss	14,1	;volatile
  4224  01AB  29AD               	goto	u312_21
  4225  01AC  29AE               	goto	u312_20
  4226  01AD                     u312_21:
  4227  01AD  29B1               	goto	i1l261
  4228  01AE                     u312_20:
  4229  01AE                     i1l4712:
  4230                           
  4231                           ;usb_device.c: 652:     {;usb_device.c: 653:         PIR2bits.USBIF = 0;;
  4232  01AE  0020               	movlb	0	; select bank0
  4233  01AF  1112               	bcf	18,2	;volatile
  4234                           
  4235                           ;usb_device.c: 654:         return;
  4236  01B0  2AA8               	goto	i1l262
  4237  01B1                     i1l261:	
  4238                           ;usb_device.c: 655:     }
  4239                           
  4240                           
  4241                           ;usb_device.c: 667:     if(UIRbits.URSTIF && UIEbits.URSTIE)
  4242  01B1  1C10               	btfss	16,0	;volatile
  4243  01B2  29B4               	goto	u313_21
  4244  01B3  29B5               	goto	u313_20
  4245  01B4                     u313_21:
  4246  01B4  29CA               	goto	i1l4724
  4247  01B5                     u313_20:
  4248  01B5                     i1l4714:
  4249  01B5  1C12               	btfss	18,0	;volatile
  4250  01B6  29B8               	goto	u314_21
  4251  01B7  29B9               	goto	u314_20
  4252  01B8                     u314_21:
  4253  01B8  29CA               	goto	i1l4724
  4254  01B9                     u314_20:
  4255  01B9                     i1l4716:
  4256                           
  4257                           ;usb_device.c: 668:     {;usb_device.c: 669:         USBDeviceInit();
  4258  01B9  3185  25B5  3181   	fcall	i1_USBDeviceInit
  4259  01BC                     i1l4718:
  4260                           
  4261                           ;usb_device.c: 673:         {PIE2bits.USBIE = 1;};
  4262  01BC  0021               	movlb	1	; select bank1
  4263  01BD  1512               	bsf	18,2	;volatile
  4264  01BE                     i1l4720:
  4265                           
  4266                           ;usb_device.c: 675:         USBDeviceState = DEFAULT_STATE;
  4267  01BE  3004               	movlw	4
  4268  01BF  0020               	movlb	0	; select bank0
  4269  01C0  00E2               	movwf	??_USBDeviceTasks
  4270  01C1  0862               	movf	??_USBDeviceTasks,w
  4271  01C2  0022               	movlb	2	; select bank2
  4272  01C3  00E8               	movwf	_USBDeviceState^(0+256)	;volatile
  4273  01C4                     i1l4722:
  4274                           
  4275                           ;usb_device.c: 685:         (UIR &= 0xFE);
  4276  01C4  30FE               	movlw	254
  4277  01C5  0020               	movlb	0	; select bank0
  4278  01C6  00E2               	movwf	??_USBDeviceTasks
  4279  01C7  0862               	movf	??_USBDeviceTasks,w
  4280  01C8  003D               	movlb	29	; select bank29
  4281  01C9  0590               	andwf	16,f	;volatile
  4282  01CA                     i1l4724:
  4283                           
  4284                           ;usb_device.c: 691:     if(UIRbits.IDLEIF && UIEbits.IDLEIE)
  4285  01CA  1E10               	btfss	16,4	;volatile
  4286  01CB  29CD               	goto	u315_21
  4287  01CC  29CE               	goto	u315_20
  4288  01CD                     u315_21:
  4289  01CD  29D5               	goto	i1l4730
  4290  01CE                     u315_20:
  4291  01CE                     i1l4726:
  4292  01CE  1E12               	btfss	18,4	;volatile
  4293  01CF  29D1               	goto	u316_21
  4294  01D0  29D2               	goto	u316_20
  4295  01D1                     u316_21:
  4296  01D1  29D5               	goto	i1l4730
  4297  01D2                     u316_20:
  4298  01D2                     i1l4728:
  4299                           
  4300                           ;usb_device.c: 692:     {;usb_device.c: 698:             USBSuspend();
  4301  01D2  3188  202F  3181   	fcall	_USBSuspend
  4302  01D5                     i1l4730:
  4303                           
  4304                           ;usb_device.c: 712:     if(UIRbits.SOFIF)
  4305  01D5  003D               	movlb	29	; select bank29
  4306  01D6  1F10               	btfss	16,6	;volatile
  4307  01D7  29D9               	goto	u317_21
  4308  01D8  29DA               	goto	u317_20
  4309  01D9                     u317_21:
  4310  01D9  2A07               	goto	i1l4746
  4311  01DA                     u317_20:
  4312  01DA                     i1l4732:
  4313                           
  4314                           ;usb_device.c: 713:     {;usb_device.c: 715:         if(UIEbits.SOFIE)
  4315  01DA  1F12               	btfss	18,6	;volatile
  4316  01DB  29DD               	goto	u318_21
  4317  01DC  29DE               	goto	u318_20
  4318  01DD                     u318_21:
  4319  01DD  29EE               	goto	i1l4736
  4320  01DE                     u318_20:
  4321  01DE                     i1l4734:
  4322                           
  4323                           ;usb_device.c: 716:         {;usb_device.c: 717:             USER_USB_CALLBACK_EVENT_HAN
      +                          DLER((USB_EVENT)EVENT_SOF,0,1);
  4324  01DE  3073               	movlw	115
  4325  01DF  0020               	movlb	0	; select bank0
  4326  01E0  00D0               	movwf	USER_USB_CALLBACK_EVENT_HANDLER@event
  4327  01E1  3000               	movlw	0
  4328  01E2  00D1               	movwf	USER_USB_CALLBACK_EVENT_HANDLER@event+1
  4329  01E3  3000               	movlw	0
  4330  01E4  00D2               	movwf	USER_USB_CALLBACK_EVENT_HANDLER@pdata
  4331  01E5  3000               	movlw	0
  4332  01E6  00D3               	movwf	USER_USB_CALLBACK_EVENT_HANDLER@pdata+1
  4333  01E7  3001               	movlw	1
  4334  01E8  00D4               	movwf	USER_USB_CALLBACK_EVENT_HANDLER@size
  4335  01E9  3000               	movlw	0
  4336  01EA  00D5               	movwf	USER_USB_CALLBACK_EVENT_HANDLER@size+1
  4337  01EB  318A  22D4  3181   	fcall	_USER_USB_CALLBACK_EVENT_HANDLER
  4338  01EE                     i1l4736:
  4339                           
  4340                           ;usb_device.c: 719:         (UIR &= 0xBF);
  4341  01EE  30BF               	movlw	191
  4342  01EF  0020               	movlb	0	; select bank0
  4343  01F0  00E2               	movwf	??_USBDeviceTasks
  4344  01F1  0862               	movf	??_USBDeviceTasks,w
  4345  01F2  003D               	movlb	29	; select bank29
  4346  01F3  0590               	andwf	16,f	;volatile
  4347  01F4                     i1l4738:
  4348                           
  4349                           ;usb_device.c: 722:             USBIncrement1msInternalTimers();
  4350  01F4  3197  27E4  3181   	fcall	_USBIncrement1msInternalTimers
  4351  01F7                     i1l4740:
  4352                           
  4353                           ;usb_device.c: 739:             if(USBStatusStageTimeoutCounter != 0u)
  4354  01F7  0022               	movlb	2	; select bank2
  4355  01F8  0865               	movf	_USBStatusStageTimeoutCounter^(0+256),w	;volatile
  4356  01F9  1903               	btfsc	3,2
  4357  01FA  29FC               	goto	u319_21
  4358  01FB  29FD               	goto	u319_20
  4359  01FC                     u319_21:
  4360  01FC  29FF               	goto	i1l267
  4361  01FD                     u319_20:
  4362  01FD                     i1l4742:
  4363                           
  4364                           ;usb_device.c: 740:             {;usb_device.c: 741:                 USBStatusStageTimeo
      +                          utCounter--;
  4365  01FD  3001               	movlw	1
  4366  01FE  02E5               	subwf	_USBStatusStageTimeoutCounter^(0+256),f	;volatile
  4367  01FF                     i1l267:	
  4368                           ;usb_device.c: 742:             }
  4369                           
  4370                           
  4371                           ;usb_device.c: 748:             if(USBStatusStageTimeoutCounter == 0)
  4372  01FF  0865               	movf	_USBStatusStageTimeoutCounter^(0+256),w	;volatile
  4373  0200  1D03               	btfss	3,2
  4374  0201  2A03               	goto	u320_21
  4375  0202  2A04               	goto	u320_20
  4376  0203                     u320_21:
  4377  0203  2A07               	goto	i1l4746
  4378  0204                     u320_20:
  4379  0204                     i1l4744:
  4380                           
  4381                           ;usb_device.c: 749:             {;usb_device.c: 750:                 USBCtrlEPAllowStatu
      +                          sStage();
  4382  0204  318B  23E9  3181   	fcall	_USBCtrlEPAllowStatusStage
  4383  0207                     i1l4746:
  4384                           
  4385                           ;usb_device.c: 755:     if(UIRbits.STALLIF && UIEbits.STALLIE)
  4386  0207  003D               	movlb	29	; select bank29
  4387  0208  1E90               	btfss	16,5	;volatile
  4388  0209  2A0B               	goto	u321_21
  4389  020A  2A0C               	goto	u321_20
  4390  020B                     u321_21:
  4391  020B  2A13               	goto	i1l4752
  4392  020C                     u321_20:
  4393  020C                     i1l4748:
  4394  020C  1E92               	btfss	18,5	;volatile
  4395  020D  2A0F               	goto	u322_21
  4396  020E  2A10               	goto	u322_20
  4397  020F                     u322_21:
  4398  020F  2A13               	goto	i1l4752
  4399  0210                     u322_20:
  4400  0210                     i1l4750:
  4401                           
  4402                           ;usb_device.c: 756:     {;usb_device.c: 757:         USBStallHandler();
  4403  0210  3189  21B1  3181   	fcall	_USBStallHandler
  4404  0213                     i1l4752:
  4405                           
  4406                           ;usb_device.c: 760:     if(UIRbits.UERRIF && UIEbits.UERRIE)
  4407  0213  003D               	movlb	29	; select bank29
  4408  0214  1C90               	btfss	16,1	;volatile
  4409  0215  2A17               	goto	u323_21
  4410  0216  2A18               	goto	u323_20
  4411  0217                     u323_21:
  4412  0217  2A2E               	goto	i1l4760
  4413  0218                     u323_20:
  4414  0218                     i1l4754:
  4415  0218  1C92               	btfss	18,1	;volatile
  4416  0219  2A1B               	goto	u324_21
  4417  021A  2A1C               	goto	u324_20
  4418  021B                     u324_21:
  4419  021B  2A2E               	goto	i1l4760
  4420  021C                     u324_20:
  4421  021C                     i1l4756:
  4422                           
  4423                           ;usb_device.c: 761:     {;usb_device.c: 762:         USER_USB_CALLBACK_EVENT_HANDLER((US
      +                          B_EVENT)EVENT_BUS_ERROR,0,1);
  4424  021C  30FF               	movlw	255
  4425  021D  0020               	movlb	0	; select bank0
  4426  021E  00D0               	movwf	USER_USB_CALLBACK_EVENT_HANDLER@event
  4427  021F  307F               	movlw	127
  4428  0220  00D1               	movwf	USER_USB_CALLBACK_EVENT_HANDLER@event+1
  4429  0221  3000               	movlw	0
  4430  0222  00D2               	movwf	USER_USB_CALLBACK_EVENT_HANDLER@pdata
  4431  0223  3000               	movlw	0
  4432  0224  00D3               	movwf	USER_USB_CALLBACK_EVENT_HANDLER@pdata+1
  4433  0225  3001               	movlw	1
  4434  0226  00D4               	movwf	USER_USB_CALLBACK_EVENT_HANDLER@size
  4435  0227  3000               	movlw	0
  4436  0228  00D5               	movwf	USER_USB_CALLBACK_EVENT_HANDLER@size+1
  4437  0229  318A  22D4  3181   	fcall	_USER_USB_CALLBACK_EVENT_HANDLER
  4438  022C                     i1l4758:
  4439                           
  4440                           ;usb_device.c: 763:         {UEIR = 0;};
  4441  022C  003D               	movlb	29	; select bank29
  4442  022D  0193               	clrf	19	;volatile
  4443  022E                     i1l4760:
  4444                           
  4445                           ;usb_device.c: 778:     if(USBDeviceState < DEFAULT_STATE)
  4446  022E  3004               	movlw	4
  4447  022F  0022               	movlb	2	; select bank2
  4448  0230  0268               	subwf	_USBDeviceState^(0+256),w	;volatile
  4449  0231  1803               	skipnc
  4450  0232  2A34               	goto	u325_21
  4451  0233  2A35               	goto	u325_20
  4452  0234                     u325_21:
  4453  0234  2A38               	goto	i1l271
  4454  0235                     u325_20:
  4455  0235                     i1l4762:
  4456                           
  4457                           ;usb_device.c: 779:     {;usb_device.c: 780:         PIR2bits.USBIF = 0;;
  4458  0235  0020               	movlb	0	; select bank0
  4459  0236  1112               	bcf	18,2	;volatile
  4460                           
  4461                           ;usb_device.c: 781:         return;
  4462  0237  2AA8               	goto	i1l262
  4463  0238                     i1l271:	
  4464                           ;usb_device.c: 782:     }
  4465                           
  4466                           
  4467                           ;usb_device.c: 787:     if(UIEbits.TRNIE)
  4468  0238  003D               	movlb	29	; select bank29
  4469  0239  1D92               	btfss	18,3	;volatile
  4470  023A  2A3C               	goto	u326_21
  4471  023B  2A3D               	goto	u326_20
  4472  023C                     u326_21:
  4473  023C  2AA6               	goto	i1l272
  4474  023D                     u326_20:
  4475  023D                     i1l4764:
  4476                           
  4477                           ;usb_device.c: 788:     {;usb_device.c: 789:         for(i = 0; i < 4u; i++)
  4478  023D  0020               	movlb	0	; select bank0
  4479  023E  01E4               	clrf	USBDeviceTasks@i
  4480  023F                     i1l273:
  4481                           
  4482                           ;usb_device.c: 790:         {;usb_device.c: 791:             if(UIRbits.TRNIF)
  4483  023F  003D               	movlb	29	; select bank29
  4484  0240  1D90               	btfss	16,3	;volatile
  4485  0241  2A43               	goto	u327_21
  4486  0242  2A44               	goto	u327_20
  4487  0243                     u327_21:
  4488  0243  2AA6               	goto	i1l272
  4489  0244                     u327_20:
  4490  0244                     i1l4770:
  4491                           
  4492                           ;usb_device.c: 792:             {;usb_device.c: 794:                 USTATcopy.Val = UST
      +                          AT;
  4493  0244  080F               	movf	15,w	;volatile
  4494  0245  0020               	movlb	0	; select bank0
  4495  0246  00E2               	movwf	??_USBDeviceTasks
  4496  0247  0862               	movf	??_USBDeviceTasks,w
  4497  0248  0021               	movlb	1	; select bank1
  4498  0249  00EF               	movwf	_USTATcopy^(0+128)	;volatile
  4499  024A                     i1l4772:
  4500                           
  4501                           ;usb_device.c: 795:                 endpoint_number = USTATcopy.endpoint_number;
  4502  024A  0C6F               	rrf	_USTATcopy^(0+128),w	;volatile
  4503  024B  0020               	movlb	0	; select bank0
  4504  024C  00E2               	movwf	??_USBDeviceTasks
  4505  024D  0CE2               	rrf	??_USBDeviceTasks,f
  4506  024E  0C62               	rrf	??_USBDeviceTasks,w
  4507  024F  390F               	andlw	15
  4508  0250  00E3               	movwf	??_USBDeviceTasks+1
  4509  0251  0863               	movf	??_USBDeviceTasks+1,w
  4510  0252  0022               	movlb	2	; select bank2
  4511  0253  00E6               	movwf	_endpoint_number^(0+256)	;volatile
  4512  0254                     i1l4774:
  4513                           
  4514                           ;usb_device.c: 797:                 (UIR &= 0xF7);
  4515  0254  30F7               	movlw	247
  4516  0255  0020               	movlb	0	; select bank0
  4517  0256  00E2               	movwf	??_USBDeviceTasks
  4518  0257  0862               	movf	??_USBDeviceTasks,w
  4519  0258  003D               	movlb	29	; select bank29
  4520  0259  0590               	andwf	16,f	;volatile
  4521  025A                     i1l4776:
  4522                           
  4523                           ;usb_device.c: 802:                 if(USTATcopy.direction == 0)
  4524  025A  0021               	movlb	1	; select bank1
  4525  025B  196F               	btfsc	_USTATcopy^(0+128),2	;volatile
  4526  025C  2A5E               	goto	u328_21
  4527  025D  2A5F               	goto	u328_20
  4528  025E                     u328_21:
  4529  025E  2A71               	goto	i1l4780
  4530  025F                     u328_20:
  4531  025F                     i1l4778:
  4532                           
  4533                           ;usb_device.c: 803:                 {;usb_device.c: 804:                     ep_data_out
      +                          [endpoint_number].bits.ping_pong_state ^= 1;
  4534  025F  0022               	movlb	2	; select bank2
  4535  0260  0866               	movf	_endpoint_number^(0+256),w	;volatile
  4536  0261  3E60               	addlw	(low (_ep_data_out| (0+256)))& (0+255)
  4537  0262  0086               	movwf	6
  4538  0263  3001               	movlw	1	; select bank2/3
  4539  0264  0087               	movwf	7
  4540  0265  0801               	movf	1,w
  4541  0266  3901               	andlw	1
  4542  0267  0020               	movlb	0	; select bank0
  4543  0268  00E2               	movwf	??_USBDeviceTasks
  4544  0269  3001               	movlw	1
  4545  026A  06E2               	xorwf	??_USBDeviceTasks,f
  4546  026B  0801               	movf	1,w
  4547  026C  0662               	xorwf	??_USBDeviceTasks,w
  4548  026D  39FE               	andlw	-2
  4549  026E  0662               	xorwf	??_USBDeviceTasks,w
  4550  026F  0081               	movwf	1
  4551                           
  4552                           ;usb_device.c: 805:                 }
  4553  0270  2A82               	goto	i1l4782
  4554  0271                     i1l4780:
  4555                           
  4556                           ;usb_device.c: 807:                 {;usb_device.c: 808:                     ep_data_in[
      +                          endpoint_number].bits.ping_pong_state ^= 1;
  4557  0271  0022               	movlb	2	; select bank2
  4558  0272  0866               	movf	_endpoint_number^(0+256),w	;volatile
  4559  0273  3E62               	addlw	(low (_ep_data_in| (0+256)))& (0+255)
  4560  0274  0086               	movwf	6
  4561  0275  3001               	movlw	1	; select bank2/3
  4562  0276  0087               	movwf	7
  4563  0277  0801               	movf	1,w
  4564  0278  3901               	andlw	1
  4565  0279  0020               	movlb	0	; select bank0
  4566  027A  00E2               	movwf	??_USBDeviceTasks
  4567  027B  3001               	movlw	1
  4568  027C  06E2               	xorwf	??_USBDeviceTasks,f
  4569  027D  0801               	movf	1,w
  4570  027E  0662               	xorwf	??_USBDeviceTasks,w
  4571  027F  39FE               	andlw	-2
  4572  0280  0662               	xorwf	??_USBDeviceTasks,w
  4573  0281  0081               	movwf	1
  4574  0282                     i1l4782:
  4575                           
  4576                           ;usb_device.c: 814:                 if(endpoint_number == 0)
  4577  0282  0022               	movlb	2	; select bank2
  4578  0283  0866               	movf	_endpoint_number^(0+256),w	;volatile
  4579  0284  1D03               	btfss	3,2
  4580  0285  2A87               	goto	u329_21
  4581  0286  2A88               	goto	u329_20
  4582  0287                     u329_21:
  4583  0287  2A8C               	goto	i1l4786
  4584  0288                     u329_20:
  4585  0288                     i1l4784:
  4586                           
  4587                           ;usb_device.c: 815:                 {;usb_device.c: 816:                     USBCtrlEPSe
      +                          rvice();
  4588  0288  318B  2324  3181   	fcall	_USBCtrlEPService
  4589                           
  4590                           ;usb_device.c: 817:                 }
  4591  028B  2A9B               	goto	i1l4788
  4592  028C                     i1l4786:
  4593                           
  4594                           ;usb_device.c: 819:                 {;usb_device.c: 820:                     USER_USB_CA
      +                          LLBACK_EVENT_HANDLER((USB_EVENT)EVENT_TRANSFER,(uint8_t*)&USTATcopy.Val,0);
  4595  028C  3072               	movlw	114
  4596  028D  0020               	movlb	0	; select bank0
  4597  028E  00D0               	movwf	USER_USB_CALLBACK_EVENT_HANDLER@event
  4598  028F  3000               	movlw	0
  4599  0290  00D1               	movwf	USER_USB_CALLBACK_EVENT_HANDLER@event+1
  4600  0291  30EF               	movlw	low _USTATcopy
  4601  0292  00D2               	movwf	USER_USB_CALLBACK_EVENT_HANDLER@pdata
  4602  0293  3000               	movlw	high _USTATcopy
  4603  0294  00D3               	movwf	USER_USB_CALLBACK_EVENT_HANDLER@pdata+1
  4604  0295  3000               	movlw	0
  4605  0296  00D4               	movwf	USER_USB_CALLBACK_EVENT_HANDLER@size
  4606  0297  00D5               	movwf	USER_USB_CALLBACK_EVENT_HANDLER@size+1
  4607  0298  318A  22D4  3181   	fcall	_USER_USB_CALLBACK_EVENT_HANDLER
  4608  029B                     i1l4788:
  4609                           
  4610                           ;usb_device.c: 827:         }
  4611  029B  3001               	movlw	1
  4612  029C  0020               	movlb	0	; select bank0
  4613  029D  00E2               	movwf	??_USBDeviceTasks
  4614  029E  0862               	movf	??_USBDeviceTasks,w
  4615  029F  07E4               	addwf	USBDeviceTasks@i,f
  4616  02A0                     i1l4790:
  4617  02A0  3004               	movlw	4
  4618  02A1  0264               	subwf	USBDeviceTasks@i,w
  4619  02A2  1C03               	skipc
  4620  02A3  2AA5               	goto	u330_21
  4621  02A4  2AA6               	goto	u330_20
  4622  02A5                     u330_21:
  4623  02A5  2A3F               	goto	i1l273
  4624  02A6                     u330_20:
  4625  02A6                     i1l272:	
  4626                           ;usb_device.c: 828:     }
  4627                           
  4628                           
  4629                           ;usb_device.c: 830:     PIR2bits.USBIF = 0;;
  4630  02A6  0020               	movlb	0	; select bank0
  4631  02A7  1112               	bcf	18,2	;volatile
  4632  02A8                     i1l262:
  4633  02A8  0008               	return
  4634  02A9                     __end_of_USBDeviceTasks:
  4635                           
  4636                           	psect	text14
  4637  05B5                     __ptext14:	
  4638 ;; *************** function i1_USBDeviceInit *****************
  4639 ;; Defined at:
  4640 ;;		line 281 in file "usb_device.c"
  4641 ;; Parameters:    Size  Location     Type
  4642 ;;		None
  4643 ;; Auto vars:     Size  Location     Type
  4644 ;;  p               2    1[COMMON] PTR unsigned char 
  4645 ;;		 -> UEP1(1), 
  4646 ;;  i               1    4[COMMON] unsigned char 
  4647 ;;  i               1    3[COMMON] unsigned char 
  4648 ;; Return value:  Size  Location     Type
  4649 ;;                  1    wreg      void 
  4650 ;; Registers used:
  4651 ;;		wreg, fsr1l, fsr1h, status,2, status,0
  4652 ;; Tracked objects:
  4653 ;;		On entry : 0/0
  4654 ;;		On exit  : 0/0
  4655 ;;		Unchanged: 0/0
  4656 ;; Data sizes:     COMMON   BANK0   BANK1   BANK2   BANK3   BANK4   BANK5   BANK6   BANK7   BANK8   BANK9  BANK10  BANK1
      +1  BANK12
  4657 ;;      Params:         0       0       0       0       0       0       0       0       0       0       0       0       
      +0       0
  4658 ;;      Locals:         4       0       0       0       0       0       0       0       0       0       0       0       
      +0       0
  4659 ;;      Temps:          1       0       0       0       0       0       0       0       0       0       0       0       
      +0       0
  4660 ;;      Totals:         5       0       0       0       0       0       0       0       0       0       0       0       
      +0       0
  4661 ;;Total ram usage:        5 bytes
  4662 ;; Hardware stack levels used: 1
  4663 ;; This function calls:
  4664 ;;		Nothing
  4665 ;; This function is called by:
  4666 ;;		_USBDeviceTasks
  4667 ;; This function uses a non-reentrant model
  4668 ;;
  4669                           
  4670  05B5                     i1_USBDeviceInit:	
  4671                           ;psect for function i1_USBDeviceInit
  4672                           
  4673  05B5                     i1l3780:	
  4674                           ;incstack = 0
  4675                           ; Regs used in i1_USBDeviceInit: [wreg+fsr1l+fsr1h+status,2+status,0]
  4676                           
  4677                           
  4678                           ;usb_device.c: 283:     uint8_t i;;usb_device.c: 285:     {PIE2bits.USBIE = 0;};
  4679  05B5  0021               	movlb	1	; select bank1
  4680  05B6  1112               	bcf	18,2	;volatile
  4681  05B7                     i1l3782:
  4682                           
  4683                           ;usb_device.c: 292:     {UEIR = 0;};
  4684  05B7  003D               	movlb	29	; select bank29
  4685  05B8  0193               	clrf	19	;volatile
  4686                           
  4687                           ;usb_device.c: 295:     {UIR = 0;};
  4688  05B9  0190               	clrf	16	;volatile
  4689                           
  4690                           ;usb_device.c: 298:     UEP0 = 0;
  4691  05BA  0198               	clrf	24	;volatile
  4692  05BB                     i1l3784:
  4693                           
  4694                           ;usb_device.c: 300:     { uint8_t i; uint8_t* p = (uint8_t*)&UEP1; for(i=0;i<1;i++) *p++
      +                           = 0; };
  4695  05BB  300E               	movlw	14
  4696  05BC  00F2               	movwf	i1USBDeviceInit@p+1
  4697  05BD  3099               	movlw	153
  4698  05BE  00F1               	movwf	i1USBDeviceInit@p
  4699  05BF  01F3               	clrf	i1USBDeviceInit@i_886
  4700  05C0                     i1l3790:
  4701  05C0  0871               	movf	i1USBDeviceInit@p,w
  4702  05C1  0086               	movwf	6
  4703  05C2  0872               	movf	i1USBDeviceInit@p+1,w
  4704  05C3  0087               	movwf	7
  4705  05C4  0181               	clrf	1
  4706  05C5                     i1l3792:
  4707  05C5  3001               	movlw	1
  4708  05C6  07F1               	addwf	i1USBDeviceInit@p,f
  4709  05C7  3000               	movlw	0
  4710  05C8  3DF2               	addwfc	i1USBDeviceInit@p+1,f
  4711  05C9                     i1l3794:
  4712  05C9  3001               	movlw	1
  4713  05CA  00F0               	movwf	??i1_USBDeviceInit
  4714  05CB  0870               	movf	??i1_USBDeviceInit,w
  4715  05CC  07F3               	addwf	i1USBDeviceInit@i_886,f
  4716  05CD                     i1l3796:
  4717  05CD  0873               	movf	i1USBDeviceInit@i_886,w
  4718  05CE  1903               	btfsc	3,2
  4719  05CF  2DD1               	goto	u242_21
  4720  05D0  2DD2               	goto	u242_20
  4721  05D1                     u242_21:
  4722  05D1  2DC0               	goto	i1l3790
  4723  05D2                     u242_20:
  4724  05D2                     i1l3798:
  4725                           
  4726                           ;usb_device.c: 302:     { UCFG = 0x10 | 0x00 | 0x04 | 0x02; UEIE = 0x9F; UIE = 0x39 | 0x
      +                          40 | 0x02; };
  4727  05D2  3016               	movlw	22
  4728  05D3  003D               	movlb	29	; select bank29
  4729  05D4  0091               	movwf	17	;volatile
  4730  05D5  309F               	movlw	159
  4731  05D6  0097               	movwf	23	;volatile
  4732  05D7  307B               	movlw	123
  4733  05D8  0092               	movwf	18	;volatile
  4734  05D9                     i1l3800:
  4735                           
  4736                           ;usb_device.c: 311:     for(i = 0; i < (sizeof(BDT)/sizeof(BDT_ENTRY)); i++)
  4737  05D9  01F4               	clrf	i1USBDeviceInit@i
  4738  05DA                     i1l3806:
  4739                           
  4740                           ;usb_device.c: 312:     {;usb_device.c: 313:         BDT[i].Val = 0x00;
  4741  05DA  0874               	movf	i1USBDeviceInit@i,w
  4742  05DB  00F0               	movwf	??i1_USBDeviceInit
  4743  05DC  3001               	movlw	1
  4744  05DD                     u243_25:
  4745  05DD  35F0               	lslf	??i1_USBDeviceInit,f
  4746  05DE  3EFF               	addlw	-1
  4747  05DF  1D03               	skipz
  4748  05E0  2DDD               	goto	u243_25
  4749  05E1  3570               	lslf	??i1_USBDeviceInit,w
  4750  05E2  3E20               	addlw	32
  4751  05E3  0086               	movwf	6
  4752  05E4  0187               	clrf	7
  4753  05E5  3000               	movlw	0
  4754  05E6  3FC0               	movwi [0]fsr1
  4755  05E7  3000               	movlw	0
  4756  05E8  3FC1               	movwi [1]fsr1
  4757  05E9  3FC2               	movwi [2]fsr1
  4758  05EA  3FC3               	movwi [3]fsr1
  4759  05EB                     i1l3808:
  4760                           
  4761                           ;usb_device.c: 314:     }
  4762  05EB  3001               	movlw	1
  4763  05EC  00F0               	movwf	??i1_USBDeviceInit
  4764  05ED  0870               	movf	??i1_USBDeviceInit,w
  4765  05EE  07F4               	addwf	i1USBDeviceInit@i,f
  4766  05EF                     i1l3810:
  4767  05EF  3008               	movlw	8
  4768  05F0  0274               	subwf	i1USBDeviceInit@i,w
  4769  05F1  1C03               	skipc
  4770  05F2  2DF4               	goto	u244_21
  4771  05F3  2DF5               	goto	u244_20
  4772  05F4                     u244_21:
  4773  05F4  2DDA               	goto	i1l3806
  4774  05F5                     u244_20:
  4775  05F5                     i1l250:
  4776                           
  4777                           ;usb_device.c: 317:     UCONbits.PPBRST = 1;
  4778  05F5  003D               	movlb	29	; select bank29
  4779  05F6  170E               	bsf	14,6	;volatile
  4780  05F7                     i1l3812:
  4781                           
  4782                           ;usb_device.c: 320:     UADDR = 0x00;
  4783  05F7  0196               	clrf	22	;volatile
  4784  05F8                     i1l3814:
  4785                           
  4786                           ;usb_device.c: 323:     UCONbits.PKTDIS = 0;
  4787  05F8  120E               	bcf	14,4	;volatile
  4788  05F9                     i1l3816:
  4789                           
  4790                           ;usb_device.c: 326:     UCONbits.PPBRST = 0;
  4791  05F9  130E               	bcf	14,6	;volatile
  4792  05FA                     i1l3818:
  4793                           
  4794                           ;usb_device.c: 330:     {;usb_device.c: 331:         (UIR &= 0xF7);
  4795  05FA  30F7               	movlw	247
  4796  05FB  00F0               	movwf	??i1_USBDeviceInit
  4797  05FC  0870               	movf	??i1_USBDeviceInit,w
  4798  05FD  0590               	andwf	16,f	;volatile
  4799  05FE                     i1l3820:
  4800                           
  4801                           ;usb_device.c: 333:         inPipes[0].info.Val = 0;
  4802  05FE  0020               	movlb	0	; select bank0
  4803  05FF  01E7               	clrf	_inPipes+2	;volatile
  4804  0600                     i1l3822:
  4805                           
  4806                           ;usb_device.c: 334:         outPipes[0].info.Val = 0;
  4807  0600  0023               	movlb	3	; select bank3
  4808  0601  01A2               	clrf	(_outPipes^(0+384)+2)	;volatile
  4809  0602                     i1l3824:
  4810                           
  4811                           ;usb_device.c: 335:         outPipes[0].wCount.Val = 0;
  4812  0602  01A3               	clrf	(_outPipes^(0+384)+3)	;volatile
  4813  0603  01A4               	clrf	((_outPipes+1)^(0+384)+3)	;volatile
  4814  0604                     i1l3826:
  4815                           
  4816                           ;usb_device.c: 336:     }while(UIRbits.TRNIF == 1);
  4817  0604  003D               	movlb	29	; select bank29
  4818  0605  1990               	btfsc	16,3	;volatile
  4819  0606  2E08               	goto	u245_21
  4820  0607  2E09               	goto	u245_20
  4821  0608                     u245_21:
  4822  0608  2DFA               	goto	i1l3818
  4823  0609                     u245_20:
  4824  0609                     i1l3828:
  4825                           
  4826                           ;usb_device.c: 340:     USBStatusStageEnabledFlag1 = 1;
  4827  0609  3001               	movlw	1
  4828  060A  00F0               	movwf	??i1_USBDeviceInit
  4829  060B  0870               	movf	??i1_USBDeviceInit,w
  4830  060C  0023               	movlb	3	; select bank3
  4831  060D  00B7               	movwf	_USBStatusStageEnabledFlag1^(0+384)	;volatile
  4832                           
  4833                           ;usb_device.c: 341:     USBStatusStageEnabledFlag2 = 1;
  4834  060E  3001               	movlw	1
  4835  060F  00F0               	movwf	??i1_USBDeviceInit
  4836  0610  0870               	movf	??i1_USBDeviceInit,w
  4837  0611  00B6               	movwf	_USBStatusStageEnabledFlag2^(0+384)	;volatile
  4838  0612                     i1l3830:
  4839                           
  4840                           ;usb_device.c: 343:     USBDeferINDataStagePackets = 0;
  4841  0612  01B5               	clrf	_USBDeferINDataStagePackets^(0+384)	;volatile
  4842  0613                     i1l3832:
  4843                           
  4844                           ;usb_device.c: 344:     USBDeferOUTDataStagePackets = 0;
  4845  0613  01B4               	clrf	_USBDeferOUTDataStagePackets^(0+384)	;volatile
  4846  0614                     i1l3834:
  4847                           
  4848                           ;usb_device.c: 345:     USBBusIsSuspended = 0;
  4849  0614  01B9               	clrf	_USBBusIsSuspended^(0+384)	;volatile
  4850  0615                     i1l3836:
  4851                           
  4852                           ;usb_device.c: 349:     for(i = 0; i < (uint8_t)(1 +1u); i++)
  4853  0615  01F4               	clrf	i1USBDeviceInit@i
  4854  0616                     i1l3840:
  4855                           
  4856                           ;usb_device.c: 350:     {;usb_device.c: 351:         pBDTEntryIn[i] = 0u;
  4857  0616  3574               	lslf	i1USBDeviceInit@i,w
  4858  0617  3E6A               	addlw	(low (_pBDTEntryIn| 0))& (0+255)
  4859  0618  0086               	movwf	6
  4860  0619  0187               	clrf	7
  4861  061A  3000               	movlw	0
  4862  061B  3FC0               	movwi [0]fsr1
  4863  061C  3FC1               	movwi [1]fsr1
  4864                           
  4865                           ;usb_device.c: 352:         pBDTEntryOut[i] = 0u;
  4866  061D  3574               	lslf	i1USBDeviceInit@i,w
  4867  061E  3EAB               	addlw	(low (_pBDTEntryOut| (0+256)))& (0+255)
  4868  061F  0086               	movwf	6
  4869  0620  3001               	movlw	1	; select bank3/4
  4870  0621  0087               	movwf	7
  4871  0622  3000               	movlw	0
  4872  0623  3FC0               	movwi [0]fsr1
  4873  0624  3FC1               	movwi [1]fsr1
  4874                           
  4875                           ;usb_device.c: 353:         ep_data_in[i].Val = 0u;
  4876  0625  0874               	movf	i1USBDeviceInit@i,w
  4877  0626  3E62               	addlw	(low (_ep_data_in| (0+256)))& (0+255)
  4878  0627  0086               	movwf	6
  4879  0628  3001               	movlw	1	; select bank2/3
  4880  0629  0087               	movwf	7
  4881  062A  0181               	clrf	1
  4882                           
  4883                           ;usb_device.c: 354:         ep_data_out[i].Val = 0u;
  4884  062B  0874               	movf	i1USBDeviceInit@i,w
  4885  062C  3E60               	addlw	(low (_ep_data_out| (0+256)))& (0+255)
  4886  062D  0086               	movwf	6
  4887  062E  3001               	movlw	1	; select bank2/3
  4888  062F  0087               	movwf	7
  4889  0630  0181               	clrf	1
  4890  0631                     i1l3842:
  4891                           
  4892                           ;usb_device.c: 355:     }
  4893  0631  3001               	movlw	1
  4894  0632  00F0               	movwf	??i1_USBDeviceInit
  4895  0633  0870               	movf	??i1_USBDeviceInit,w
  4896  0634  07F4               	addwf	i1USBDeviceInit@i,f
  4897  0635                     i1l3844:
  4898  0635  3002               	movlw	2
  4899  0636  0274               	subwf	i1USBDeviceInit@i,w
  4900  0637  1C03               	skipc
  4901  0638  2E3A               	goto	u246_21
  4902  0639  2E3B               	goto	u246_20
  4903  063A                     u246_21:
  4904  063A  2E16               	goto	i1l3840
  4905  063B                     u246_20:
  4906  063B                     i1l3846:
  4907                           
  4908                           ;usb_device.c: 358:     pBDTEntryIn[0] = (volatile BDT_ENTRY*)&BDT[2];
  4909  063B  3028               	movlw	40
  4910  063C  0020               	movlb	0	; select bank0
  4911  063D  00EA               	movwf	_pBDTEntryIn
  4912  063E  3000               	movlw	0
  4913  063F  00EB               	movwf	_pBDTEntryIn+1
  4914  0640                     i1l3848:
  4915                           
  4916                           ;usb_device.c: 360:     UEP0 = 0x06|0x10;
  4917  0640  3016               	movlw	22
  4918  0641  003D               	movlb	29	; select bank29
  4919  0642  0098               	movwf	24	;volatile
  4920  0643                     i1l3850:
  4921                           
  4922                           ;usb_device.c: 362:     BDT[0].ADR = (((uint16_t)(&SetupPkt)) & 0x7FFF);
  4923  0643  3000               	movlw	0
  4924  0644  0020               	movlb	0	; select bank0
  4925  0645  00A3               	movwf	35	;volatile
  4926  0646  3040               	movlw	64
  4927  0647  00A2               	movwf	34	;volatile
  4928  0648                     i1l3852:
  4929                           
  4930                           ;usb_device.c: 363:     BDT[0].CNT = 8;
  4931  0648  3008               	movlw	8
  4932  0649  00A1               	movwf	33	;volatile
  4933  064A                     i1l3854:
  4934                           
  4935                           ;usb_device.c: 364:     BDT[0].STAT.Val = 0x00|0x04;
  4936  064A  3004               	movlw	4
  4937  064B  00F0               	movwf	??i1_USBDeviceInit
  4938  064C  0870               	movf	??i1_USBDeviceInit,w
  4939  064D  00A0               	movwf	32	;volatile
  4940  064E                     i1l3856:
  4941                           
  4942                           ;usb_device.c: 365:     BDT[0].STAT.Val |= 0x80;
  4943  064E  17A0               	bsf	32,7	;volatile
  4944  064F                     i1l3858:
  4945                           
  4946                           ;usb_device.c: 368:     USBActiveConfiguration = 0;
  4947  064F  0022               	movlb	2	; select bank2
  4948  0650  01EA               	clrf	_USBActiveConfiguration^(0+256)	;volatile
  4949  0651                     i1l3860:
  4950                           
  4951                           ;usb_device.c: 370:     USB1msTickCount = 0;
  4952  0651  3000               	movlw	0
  4953  0652  0023               	movlb	3	; select bank3
  4954  0653  00AA               	movwf	(_USB1msTickCount+3)^(0+384)	;volatile
  4955  0654  3000               	movlw	0
  4956  0655  00A9               	movwf	(_USB1msTickCount+2)^(0+384)	;volatile
  4957  0656  3000               	movlw	0
  4958  0657  00A8               	movwf	(_USB1msTickCount+1)^(0+384)	;volatile
  4959  0658  3000               	movlw	0
  4960  0659  00A7               	movwf	_USB1msTickCount^(0+384)	;volatile
  4961  065A                     i1l3862:
  4962                           
  4963                           ;usb_device.c: 371:     USBTicksSinceSuspendEnd = 0;
  4964  065A  01B3               	clrf	_USBTicksSinceSuspendEnd^(0+384)	;volatile
  4965  065B                     i1l3864:
  4966                           
  4967                           ;usb_device.c: 374:     USBDeviceState = DETACHED_STATE;
  4968  065B  0022               	movlb	2	; select bank2
  4969  065C  01E8               	clrf	_USBDeviceState^(0+256)	;volatile
  4970  065D                     i1l255:
  4971  065D  0008               	return
  4972  065E                     __end_ofi1_USBDeviceInit:
  4973                           
  4974                           	psect	text15
  4975  0870                     __ptext15:	
  4976 ;; *************** function _USBWakeFromSuspend *****************
  4977 ;; Defined at:
  4978 ;;		line 2310 in file "usb_device.c"
  4979 ;; Parameters:    Size  Location     Type
  4980 ;;		None
  4981 ;; Auto vars:     Size  Location     Type
  4982 ;;		None
  4983 ;; Return value:  Size  Location     Type
  4984 ;;                  1    wreg      void 
  4985 ;; Registers used:
  4986 ;;		wreg, fsr0l, fsr0h, fsr1l, fsr1h, status,2, status,0, pclath, cstack
  4987 ;; Tracked objects:
  4988 ;;		On entry : 0/0
  4989 ;;		On exit  : 0/0
  4990 ;;		Unchanged: 0/0
  4991 ;; Data sizes:     COMMON   BANK0   BANK1   BANK2   BANK3   BANK4   BANK5   BANK6   BANK7   BANK8   BANK9  BANK10  BANK1
      +1  BANK12
  4992 ;;      Params:         0       0       0       0       0       0       0       0       0       0       0       0       
      +0       0
  4993 ;;      Locals:         0       0       0       0       0       0       0       0       0       0       0       0       
      +0       0
  4994 ;;      Temps:          0       1       0       0       0       0       0       0       0       0       0       0       
      +0       0
  4995 ;;      Totals:         0       1       0       0       0       0       0       0       0       0       0       0       
      +0       0
  4996 ;;Total ram usage:        1 bytes
  4997 ;; Hardware stack levels used: 1
  4998 ;; Hardware stack levels required when called: 4
  4999 ;; This function calls:
  5000 ;;		_USER_USB_CALLBACK_EVENT_HANDLER
  5001 ;; This function is called by:
  5002 ;;		_USBDeviceTasks
  5003 ;; This function uses a non-reentrant model
  5004 ;;
  5005                           
  5006  0870                     _USBWakeFromSuspend:	
  5007                           ;psect for function _USBWakeFromSuspend
  5008                           
  5009  0870                     i1l3712:	
  5010                           ;incstack = 0
  5011                           ; Regs used in _USBWakeFromSuspend: [wreg-fsr1h+status,2+status,0+pclath+cstack]
  5012                           
  5013                           
  5014                           ;usb_device.c: 2312:     USBBusIsSuspended = 0;
  5015  0870  0023               	movlb	3	; select bank3
  5016  0871  01B9               	clrf	_USBBusIsSuspended^(0+384)	;volatile
  5017  0872                     i1l3714:
  5018                           
  5019                           ;usb_device.c: 2318:     USER_USB_CALLBACK_EVENT_HANDLER((USB_EVENT)EVENT_RESUME,0,0);
  5020  0872  3074               	movlw	116
  5021  0873  0020               	movlb	0	; select bank0
  5022  0874  00D0               	movwf	USER_USB_CALLBACK_EVENT_HANDLER@event
  5023  0875  3000               	movlw	0
  5024  0876  00D1               	movwf	USER_USB_CALLBACK_EVENT_HANDLER@event+1
  5025  0877  3000               	movlw	0
  5026  0878  00D2               	movwf	USER_USB_CALLBACK_EVENT_HANDLER@pdata
  5027  0879  3000               	movlw	0
  5028  087A  00D3               	movwf	USER_USB_CALLBACK_EVENT_HANDLER@pdata+1
  5029  087B  3000               	movlw	0
  5030  087C  00D4               	movwf	USER_USB_CALLBACK_EVENT_HANDLER@size
  5031  087D  00D5               	movwf	USER_USB_CALLBACK_EVENT_HANDLER@size+1
  5032  087E  318A  22D4  3188   	fcall	_USER_USB_CALLBACK_EVENT_HANDLER
  5033  0881                     i1l3716:
  5034                           
  5035                           ;usb_device.c: 2325:         UCONbits.SUSPND = 0;
  5036  0881  003D               	movlb	29	; select bank29
  5037  0882  108E               	bcf	14,1	;volatile
  5038  0883                     i1l3718:
  5039                           
  5040                           ;usb_device.c: 2330:     UIEbits.ACTVIE = 0;
  5041  0883  1112               	bcf	18,2	;volatile
  5042                           
  5043                           ;usb_device.c: 2348:     while(UIRbits.ACTVIF)
  5044  0884  288B               	goto	i1l3722
  5045  0885                     i1l3720:
  5046                           
  5047                           ;usb_device.c: 2350:     {;usb_device.c: 2351:         (UIR &= 0xFB);
  5048  0885  30FB               	movlw	251
  5049  0886  0020               	movlb	0	; select bank0
  5050  0887  00D6               	movwf	??_USBWakeFromSuspend
  5051  0888  0856               	movf	??_USBWakeFromSuspend,w
  5052  0889  003D               	movlb	29	; select bank29
  5053  088A  0590               	andwf	16,f	;volatile
  5054  088B                     i1l3722:
  5055                           
  5056                           ;usb_device.c: 2348:     while(UIRbits.ACTVIF)
  5057  088B  1910               	btfsc	16,2	;volatile
  5058  088C  288E               	goto	u232_21
  5059  088D  288F               	goto	u232_20
  5060  088E                     u232_21:
  5061  088E  2885               	goto	i1l3720
  5062  088F                     u232_20:
  5063  088F                     i1l3724:
  5064                           
  5065                           ;usb_device.c: 2354:     USBTicksSinceSuspendEnd = 0;
  5066  088F  0023               	movlb	3	; select bank3
  5067  0890  01B3               	clrf	_USBTicksSinceSuspendEnd^(0+384)	;volatile
  5068  0891                     i1l425:
  5069  0891  0008               	return
  5070  0892                     __end_of_USBWakeFromSuspend:
  5071                           
  5072                           	psect	text16
  5073  082F                     __ptext16:	
  5074 ;; *************** function _USBSuspend *****************
  5075 ;; Defined at:
  5076 ;;		line 2252 in file "usb_device.c"
  5077 ;; Parameters:    Size  Location     Type
  5078 ;;		None
  5079 ;; Auto vars:     Size  Location     Type
  5080 ;;		None
  5081 ;; Return value:  Size  Location     Type
  5082 ;;                  1    wreg      void 
  5083 ;; Registers used:
  5084 ;;		wreg, fsr0l, fsr0h, fsr1l, fsr1h, status,2, status,0, pclath, cstack
  5085 ;; Tracked objects:
  5086 ;;		On entry : 0/0
  5087 ;;		On exit  : 0/0
  5088 ;;		Unchanged: 0/0
  5089 ;; Data sizes:     COMMON   BANK0   BANK1   BANK2   BANK3   BANK4   BANK5   BANK6   BANK7   BANK8   BANK9  BANK10  BANK1
      +1  BANK12
  5090 ;;      Params:         0       0       0       0       0       0       0       0       0       0       0       0       
      +0       0
  5091 ;;      Locals:         0       0       0       0       0       0       0       0       0       0       0       0       
      +0       0
  5092 ;;      Temps:          0       1       0       0       0       0       0       0       0       0       0       0       
      +0       0
  5093 ;;      Totals:         0       1       0       0       0       0       0       0       0       0       0       0       
      +0       0
  5094 ;;Total ram usage:        1 bytes
  5095 ;; Hardware stack levels used: 1
  5096 ;; Hardware stack levels required when called: 4
  5097 ;; This function calls:
  5098 ;;		_USER_USB_CALLBACK_EVENT_HANDLER
  5099 ;; This function is called by:
  5100 ;;		_USBDeviceTasks
  5101 ;; This function uses a non-reentrant model
  5102 ;;
  5103                           
  5104  082F                     _USBSuspend:	
  5105                           ;psect for function _USBSuspend
  5106                           
  5107  082F                     i1l3726:	
  5108                           ;incstack = 0
  5109                           ; Regs used in _USBSuspend: [wreg-fsr1h+status,2+status,0+pclath+cstack]
  5110                           
  5111                           
  5112                           ;usb_device.c: 2277:     UIEbits.ACTVIE = 1;
  5113  082F  003D               	movlb	29	; select bank29
  5114  0830  1512               	bsf	18,2	;volatile
  5115  0831                     i1l3728:
  5116                           
  5117                           ;usb_device.c: 2278:     (UIR &= 0xEF);
  5118  0831  30EF               	movlw	239
  5119  0832  0020               	movlb	0	; select bank0
  5120  0833  00D6               	movwf	??_USBSuspend
  5121  0834  0856               	movf	??_USBSuspend,w
  5122  0835  003D               	movlb	29	; select bank29
  5123  0836  0590               	andwf	16,f	;volatile
  5124  0837                     i1l3730:
  5125                           
  5126                           ;usb_device.c: 2281:         UCONbits.SUSPND = 1;
  5127  0837  148E               	bsf	14,1	;volatile
  5128  0838                     i1l3732:
  5129                           
  5130                           ;usb_device.c: 2284:     USBBusIsSuspended = 1;
  5131  0838  3001               	movlw	1
  5132  0839  0020               	movlb	0	; select bank0
  5133  083A  00D6               	movwf	??_USBSuspend
  5134  083B  0856               	movf	??_USBSuspend,w
  5135  083C  0023               	movlb	3	; select bank3
  5136  083D  00B9               	movwf	_USBBusIsSuspended^(0+384)	;volatile
  5137  083E                     i1l3734:
  5138                           
  5139                           ;usb_device.c: 2285:     USBTicksSinceSuspendEnd = 0;
  5140  083E  01B3               	clrf	_USBTicksSinceSuspendEnd^(0+384)	;volatile
  5141  083F                     i1l3736:
  5142                           
  5143                           ;usb_device.c: 2292:     USER_USB_CALLBACK_EVENT_HANDLER((USB_EVENT)EVENT_SUSPEND,0,0);
  5144  083F  3075               	movlw	117
  5145  0840  0020               	movlb	0	; select bank0
  5146  0841  00D0               	movwf	USER_USB_CALLBACK_EVENT_HANDLER@event
  5147  0842  3000               	movlw	0
  5148  0843  00D1               	movwf	USER_USB_CALLBACK_EVENT_HANDLER@event+1
  5149  0844  3000               	movlw	0
  5150  0845  00D2               	movwf	USER_USB_CALLBACK_EVENT_HANDLER@pdata
  5151  0846  3000               	movlw	0
  5152  0847  00D3               	movwf	USER_USB_CALLBACK_EVENT_HANDLER@pdata+1
  5153  0848  3000               	movlw	0
  5154  0849  00D4               	movwf	USER_USB_CALLBACK_EVENT_HANDLER@size
  5155  084A  00D5               	movwf	USER_USB_CALLBACK_EVENT_HANDLER@size+1
  5156  084B  318A  22D4  3188   	fcall	_USER_USB_CALLBACK_EVENT_HANDLER
  5157  084E                     i1l419:
  5158  084E  0008               	return
  5159  084F                     __end_of_USBSuspend:
  5160                           
  5161                           	psect	text17
  5162  09B1                     __ptext17:	
  5163 ;; *************** function _USBStallHandler *****************
  5164 ;; Defined at:
  5165 ;;		line 2209 in file "usb_device.c"
  5166 ;; Parameters:    Size  Location     Type
  5167 ;;		None
  5168 ;; Auto vars:     Size  Location     Type
  5169 ;;		None
  5170 ;; Return value:  Size  Location     Type
  5171 ;;                  1    wreg      void 
  5172 ;; Registers used:
  5173 ;;		wreg, fsr1l, fsr1h, status,2, status,0
  5174 ;; Tracked objects:
  5175 ;;		On entry : 0/0
  5176 ;;		On exit  : 0/0
  5177 ;;		Unchanged: 0/0
  5178 ;; Data sizes:     COMMON   BANK0   BANK1   BANK2   BANK3   BANK4   BANK5   BANK6   BANK7   BANK8   BANK9  BANK10  BANK1
      +1  BANK12
  5179 ;;      Params:         0       0       0       0       0       0       0       0       0       0       0       0       
      +0       0
  5180 ;;      Locals:         0       0       0       0       0       0       0       0       0       0       0       0       
      +0       0
  5181 ;;      Temps:          1       0       0       0       0       0       0       0       0       0       0       0       
      +0       0
  5182 ;;      Totals:         1       0       0       0       0       0       0       0       0       0       0       0       
      +0       0
  5183 ;;Total ram usage:        1 bytes
  5184 ;; Hardware stack levels used: 1
  5185 ;; This function calls:
  5186 ;;		Nothing
  5187 ;; This function is called by:
  5188 ;;		_USBDeviceTasks
  5189 ;; This function uses a non-reentrant model
  5190 ;;
  5191                           
  5192  09B1                     _USBStallHandler:	
  5193                           ;psect for function _USBStallHandler
  5194                           
  5195  09B1                     i1l3746:	
  5196                           ;incstack = 0
  5197                           ; Regs used in _USBStallHandler: [wreg+fsr1l+fsr1h+status,2+status,0]
  5198                           
  5199                           
  5200                           ;usb_device.c: 2221:     if(UEP0bits.EPSTALL == 1)
  5201  09B1  003D               	movlb	29	; select bank29
  5202  09B2  1C18               	btfss	24,0	;volatile
  5203  09B3  29B5               	goto	u235_21
  5204  09B4  29B6               	goto	u235_20
  5205  09B5                     u235_21:
  5206  09B5  29D9               	goto	i1l3756
  5207  09B6                     u235_20:
  5208  09B6                     i1l3748:
  5209                           
  5210                           ;usb_device.c: 2222:     {;usb_device.c: 2224:         if((pBDTEntryEP0OutCurrent->STAT.
      +                          Val == 0x80) && (pBDTEntryIn[0]->STAT.Val == (0x80|0x04)))
  5211  09B6  0021               	movlb	1	; select bank1
  5212  09B7  086E               	movf	_pBDTEntryEP0OutCurrent^(0+128),w
  5213  09B8  0086               	movwf	6
  5214  09B9  0187               	clrf	7
  5215  09BA  3080               	movlw	128
  5216  09BB  0601               	xorwf	1,w
  5217  09BC  1D03               	btfss	3,2
  5218  09BD  29BF               	goto	u236_21
  5219  09BE  29C0               	goto	u236_20
  5220  09BF                     u236_21:
  5221  09BF  29D7               	goto	i1l3754
  5222  09C0                     u236_20:
  5223  09C0                     i1l3750:
  5224  09C0  0020               	movlb	0	; select bank0
  5225  09C1  086A               	movf	_pBDTEntryIn,w
  5226  09C2  0086               	movwf	6
  5227  09C3  086B               	movf	_pBDTEntryIn+1,w
  5228  09C4  0087               	movwf	7
  5229  09C5  3084               	movlw	132
  5230  09C6  0601               	xorwf	1,w
  5231  09C7  1D03               	btfss	3,2
  5232  09C8  29CA               	goto	u237_21
  5233  09C9  29CB               	goto	u237_20
  5234  09CA                     u237_21:
  5235  09CA  29D7               	goto	i1l3754
  5236  09CB                     u237_20:
  5237  09CB                     i1l3752:
  5238                           
  5239                           ;usb_device.c: 2225:         {;usb_device.c: 2227:             pBDTEntryEP0OutCurrent->S
      +                          TAT.Val = 0x00|(0x08 & 0x08)|0x04;
  5240  09CB  300C               	movlw	12
  5241  09CC  00F0               	movwf	??_USBStallHandler
  5242  09CD  0021               	movlb	1	; select bank1
  5243  09CE  086E               	movf	_pBDTEntryEP0OutCurrent^(0+128),w
  5244  09CF  0086               	movwf	6
  5245  09D0  0187               	clrf	7
  5246  09D1  0870               	movf	??_USBStallHandler,w
  5247  09D2  0081               	movwf	1
  5248                           
  5249                           ;usb_device.c: 2228:             pBDTEntryEP0OutCurrent->STAT.Val |= 0x80;
  5250  09D3  086E               	movf	_pBDTEntryEP0OutCurrent^(0+128),w
  5251  09D4  0086               	movwf	6
  5252  09D5  0187               	clrf	7
  5253  09D6  1781               	bsf	1,7
  5254  09D7                     i1l3754:
  5255                           
  5256                           ;usb_device.c: 2230:         UEP0bits.EPSTALL = 0;
  5257  09D7  003D               	movlb	29	; select bank29
  5258  09D8  1018               	bcf	24,0	;volatile
  5259  09D9                     i1l3756:
  5260                           
  5261                           ;usb_device.c: 2233:     (UIR &= 0xDF);
  5262  09D9  30DF               	movlw	223
  5263  09DA  00F0               	movwf	??_USBStallHandler
  5264  09DB  0870               	movf	??_USBStallHandler,w
  5265  09DC  0590               	andwf	16,f	;volatile
  5266  09DD                     i1l416:
  5267  09DD  0008               	return
  5268  09DE                     __end_of_USBStallHandler:
  5269                           
  5270                           	psect	text18
  5271  17E4                     __ptext18:	
  5272 ;; *************** function _USBIncrement1msInternalTimers *****************
  5273 ;; Defined at:
  5274 ;;		line 2998 in file "usb_device.c"
  5275 ;; Parameters:    Size  Location     Type
  5276 ;;		None
  5277 ;; Auto vars:     Size  Location     Type
  5278 ;;		None
  5279 ;; Return value:  Size  Location     Type
  5280 ;;                  1    wreg      void 
  5281 ;; Registers used:
  5282 ;;		wreg, status,2, status,0
  5283 ;; Tracked objects:
  5284 ;;		On entry : 0/0
  5285 ;;		On exit  : 0/0
  5286 ;;		Unchanged: 0/0
  5287 ;; Data sizes:     COMMON   BANK0   BANK1   BANK2   BANK3   BANK4   BANK5   BANK6   BANK7   BANK8   BANK9  BANK10  BANK1
      +1  BANK12
  5288 ;;      Params:         0       0       0       0       0       0       0       0       0       0       0       0       
      +0       0
  5289 ;;      Locals:         0       0       0       0       0       0       0       0       0       0       0       0       
      +0       0
  5290 ;;      Temps:          1       0       0       0       0       0       0       0       0       0       0       0       
      +0       0
  5291 ;;      Totals:         1       0       0       0       0       0       0       0       0       0       0       0       
      +0       0
  5292 ;;Total ram usage:        1 bytes
  5293 ;; Hardware stack levels used: 1
  5294 ;; This function calls:
  5295 ;;		Nothing
  5296 ;; This function is called by:
  5297 ;;		_USBDeviceTasks
  5298 ;; This function uses a non-reentrant model
  5299 ;;
  5300                           
  5301  17E4                     _USBIncrement1msInternalTimers:	
  5302                           ;psect for function _USBIncrement1msInternalTimers
  5303                           
  5304  17E4                     i1l3738:	
  5305                           ;incstack = 0
  5306                           ; Regs used in _USBIncrement1msInternalTimers: [wreg+status,2+status,0]
  5307                           
  5308                           
  5309                           ;usb_device.c: 3006:     USB1msTickCount++;
  5310  17E4  3001               	movlw	1
  5311  17E5  0023               	movlb	3	; select bank3
  5312  17E6  07A7               	addwf	_USB1msTickCount^(0+384),f	;volatile
  5313  17E7  3000               	movlw	0
  5314  17E8  3DA8               	addwfc	(_USB1msTickCount+1)^(0+384),f	;volatile
  5315  17E9  3000               	movlw	0
  5316  17EA  3DA9               	addwfc	(_USB1msTickCount+2)^(0+384),f	;volatile
  5317  17EB  3000               	movlw	0
  5318  17EC  3DAA               	addwfc	(_USB1msTickCount+3)^(0+384),f	;volatile
  5319  17ED                     i1l3740:
  5320                           
  5321                           ;usb_device.c: 3007:     if(USBBusIsSuspended == 0)
  5322  17ED  0839               	movf	_USBBusIsSuspended^(0+384),w	;volatile
  5323  17EE  1D03               	btfss	3,2
  5324  17EF  2FF1               	goto	u233_21
  5325  17F0  2FF2               	goto	u233_20
  5326  17F1                     u233_21:
  5327  17F1  2FFF               	goto	i1l506
  5328  17F2                     u233_20:
  5329  17F2                     i1l3742:
  5330                           
  5331                           ;usb_device.c: 3008:     {;usb_device.c: 3009:         USBTicksSinceSuspendEnd++;
  5332  17F2  3001               	movlw	1
  5333  17F3  00F0               	movwf	??_USBIncrement1msInternalTimers
  5334  17F4  0870               	movf	??_USBIncrement1msInternalTimers,w
  5335  17F5  07B3               	addwf	_USBTicksSinceSuspendEnd^(0+384),f	;volatile
  5336                           
  5337                           ;usb_device.c: 3011:         if(USBTicksSinceSuspendEnd == 0)
  5338  17F6  0833               	movf	_USBTicksSinceSuspendEnd^(0+384),w	;volatile
  5339  17F7  1D03               	btfss	3,2
  5340  17F8  2FFA               	goto	u234_21
  5341  17F9  2FFB               	goto	u234_20
  5342  17FA                     u234_21:
  5343  17FA  2FFF               	goto	i1l506
  5344  17FB                     u234_20:
  5345  17FB                     i1l3744:
  5346                           
  5347                           ;usb_device.c: 3012:         {;usb_device.c: 3013:             USBTicksSinceSuspendEnd =
      +                           255;
  5348  17FB  30FF               	movlw	255
  5349  17FC  00F0               	movwf	??_USBIncrement1msInternalTimers
  5350  17FD  0870               	movf	??_USBIncrement1msInternalTimers,w
  5351  17FE  00B3               	movwf	_USBTicksSinceSuspendEnd^(0+384)	;volatile
  5352  17FF                     i1l506:
  5353  17FF  0008               	return
  5354  1800                     __end_of_USBIncrement1msInternalTimers:
  5355                           
  5356                           	psect	text19
  5357  0B24                     __ptext19:	
  5358 ;; *************** function _USBCtrlEPService *****************
  5359 ;; Defined at:
  5360 ;;		line 2379 in file "usb_device.c"
  5361 ;; Parameters:    Size  Location     Type
  5362 ;;		None
  5363 ;; Auto vars:     Size  Location     Type
  5364 ;;		None
  5365 ;; Return value:  Size  Location     Type
  5366 ;;                  1    wreg      void 
  5367 ;; Registers used:
  5368 ;;		wreg, fsr0l, fsr0h, fsr1l, fsr1h, status,2, status,0, pclath, cstack
  5369 ;; Tracked objects:
  5370 ;;		On entry : 0/0
  5371 ;;		On exit  : 0/0
  5372 ;;		Unchanged: 0/0
  5373 ;; Data sizes:     COMMON   BANK0   BANK1   BANK2   BANK3   BANK4   BANK5   BANK6   BANK7   BANK8   BANK9  BANK10  BANK1
      +1  BANK12
  5374 ;;      Params:         0       0       0       0       0       0       0       0       0       0       0       0       
      +0       0
  5375 ;;      Locals:         0       0       0       0       0       0       0       0       0       0       0       0       
      +0       0
  5376 ;;      Temps:          0       2       0       0       0       0       0       0       0       0       0       0       
      +0       0
  5377 ;;      Totals:         0       2       0       0       0       0       0       0       0       0       0       0       
      +0       0
  5378 ;;Total ram usage:        2 bytes
  5379 ;; Hardware stack levels used: 1
  5380 ;; Hardware stack levels required when called: 7
  5381 ;; This function calls:
  5382 ;;		_USBCtrlTrfInHandler
  5383 ;;		_USBCtrlTrfOutHandler
  5384 ;;		_USBCtrlTrfSetupHandler
  5385 ;;		_memcpy
  5386 ;; This function is called by:
  5387 ;;		_USBDeviceTasks
  5388 ;; This function uses a non-reentrant model
  5389 ;;
  5390                           
  5391  0B24                     _USBCtrlEPService:	
  5392                           ;psect for function _USBCtrlEPService
  5393                           
  5394  0B24                     i1l4668:	
  5395                           ;incstack = 0
  5396                           ; Regs used in _USBCtrlEPService: [wreg-fsr1h+status,2+status,0+pclath+cstack]
  5397                           
  5398                           
  5399                           ;usb_device.c: 2385:         USBStatusStageTimeoutCounter = (uint8_t)45;
  5400  0B24  302D               	movlw	45
  5401  0B25  0020               	movlb	0	; select bank0
  5402  0B26  00E0               	movwf	??_USBCtrlEPService
  5403  0B27  0860               	movf	??_USBCtrlEPService,w
  5404  0B28  0022               	movlb	2	; select bank2
  5405  0B29  00E5               	movwf	_USBStatusStageTimeoutCounter^(0+256)	;volatile
  5406  0B2A                     i1l4670:
  5407                           
  5408                           ;usb_device.c: 2389:     if((USTATcopy.Val & ~0x02) == 0x00)
  5409  0B2A  0021               	movlb	1	; select bank1
  5410  0B2B  086F               	movf	_USTATcopy^(0+128),w	;volatile
  5411  0B2C  39FD               	andlw	253
  5412  0B2D  1D03               	btfss	3,2
  5413  0B2E  2B30               	goto	u304_21
  5414  0B2F  2B31               	goto	u304_20
  5415  0B30                     u304_21:
  5416  0B30  2B71               	goto	i1l4686
  5417  0B31                     u304_20:
  5418  0B31                     i1l4672:
  5419                           
  5420                           ;usb_device.c: 2390:     {;usb_device.c: 2393:             pBDTEntryEP0OutCurrent = (vol
      +                          atile BDT_ENTRY*)&BDT[(USTATcopy.Val & 0x7E)>>1];
  5421  0B31  366F               	lsrf	_USTATcopy^(0+128),w	;volatile
  5422  0B32  393F               	andlw	63
  5423  0B33  0020               	movlb	0	; select bank0
  5424  0B34  00E0               	movwf	??_USBCtrlEPService
  5425  0B35  3001               	movlw	1
  5426  0B36                     u305_25:
  5427  0B36  35E0               	lslf	??_USBCtrlEPService,f
  5428  0B37  3EFF               	addlw	-1
  5429  0B38  1D03               	skipz
  5430  0B39  2B36               	goto	u305_25
  5431  0B3A  3560               	lslf	??_USBCtrlEPService,w
  5432  0B3B  3E20               	addlw	32
  5433  0B3C  00E1               	movwf	??_USBCtrlEPService+1
  5434  0B3D  0861               	movf	??_USBCtrlEPService+1,w
  5435  0B3E  0021               	movlb	1	; select bank1
  5436  0B3F  00EE               	movwf	_pBDTEntryEP0OutCurrent^(0+128)
  5437  0B40                     i1l4674:
  5438                           
  5439                           ;usb_device.c: 2401:         pBDTEntryEP0OutNext = pBDTEntryEP0OutCurrent;
  5440  0B40  086E               	movf	_pBDTEntryEP0OutCurrent^(0+128),w
  5441  0B41  0020               	movlb	0	; select bank0
  5442  0B42  00EE               	movwf	_pBDTEntryEP0OutNext
  5443  0B43  39FF               	andlw	255
  5444  0B44  1D03               	skipz
  5445  0B45  3000               	movlw	0
  5446  0B46  00EF               	movwf	_pBDTEntryEP0OutNext+1
  5447  0B47                     i1l4676:
  5448                           
  5449                           ;usb_device.c: 2403:         pBDTEntryEP0OutNext = (volatile BDT_ENTRY*)(((uint16_t)pBDT
      +                          EntryEP0OutNext) ^ 0x0004);
  5450  0B47  3004               	movlw	4
  5451  0B48  066E               	xorwf	_pBDTEntryEP0OutNext,w
  5452  0B49  00EE               	movwf	_pBDTEntryEP0OutNext
  5453  0B4A  3000               	movlw	0
  5454  0B4B  066F               	xorwf	_pBDTEntryEP0OutNext+1,w
  5455  0B4C  00EF               	movwf	_pBDTEntryEP0OutNext+1
  5456  0B4D                     i1l4678:
  5457                           
  5458                           ;usb_device.c: 2406:         if(pBDTEntryEP0OutCurrent->STAT.PID == 0xD)
  5459  0B4D  0021               	movlb	1	; select bank1
  5460  0B4E  086E               	movf	_pBDTEntryEP0OutCurrent^(0+128),w
  5461  0B4F  0086               	movwf	6
  5462  0B50  0187               	clrf	7
  5463  0B51  0C01               	rrf	1,w
  5464  0B52  0C89               	rrf	9,f
  5465  0B53  390F               	andlw	15
  5466  0B54  3A0D               	xorlw	13
  5467  0B55  1D03               	skipz
  5468  0B56  2B58               	goto	u306_21
  5469  0B57  2B59               	goto	u306_20
  5470  0B58                     u306_21:
  5471  0B58  2B6D               	goto	i1l4684
  5472  0B59                     u306_20:
  5473  0B59                     i1l4680:
  5474                           
  5475                           ;usb_device.c: 2407:         {;usb_device.c: 2412:             memcpy((uint8_t*)&SetupPk
      +                          t, (uint8_t*)((void *)(pBDTEntryEP0OutCurrent->ADR)), 8);
  5476  0B59  086E               	movf	_pBDTEntryEP0OutCurrent^(0+128),w
  5477  0B5A  3E02               	addlw	2
  5478  0B5B  0086               	movwf	6
  5479  0B5C  0187               	clrf	7
  5480  0B5D  3F40               	moviw [0]fsr1
  5481  0B5E  00F0               	movwf	memcpy@s1
  5482  0B5F  3F41               	moviw [1]fsr1
  5483  0B60  00F1               	movwf	memcpy@s1+1
  5484  0B61  3008               	movlw	8
  5485  0B62  00F2               	movwf	memcpy@n
  5486  0B63  3000               	movlw	0
  5487  0B64  00F3               	movwf	memcpy@n+1
  5488  0B65  3040               	movlw	64
  5489  0B66  3189  21DE  318B   	fcall	_memcpy
  5490  0B69                     i1l4682:
  5491                           
  5492                           ;usb_device.c: 2415:             USBCtrlTrfSetupHandler();
  5493  0B69  318A  2289  318B   	fcall	_USBCtrlTrfSetupHandler
  5494                           
  5495                           ;usb_device.c: 2416:         }
  5496  0B6C  2B7E               	goto	i1l433
  5497  0B6D                     i1l4684:
  5498                           
  5499                           ;usb_device.c: 2418:         {;usb_device.c: 2420:             USBCtrlTrfOutHandler();
  5500  0B6D  318A  220C  318B   	fcall	_USBCtrlTrfOutHandler
  5501  0B70  2B7E               	goto	i1l433
  5502  0B71                     i1l4686:
  5503  0B71  30FD               	movlw	253
  5504  0B72  056F               	andwf	_USTATcopy^(0+128),w	;volatile
  5505  0B73  0020               	movlb	0	; select bank0
  5506  0B74  00E0               	movwf	??_USBCtrlEPService
  5507  0B75  3004               	movlw	4
  5508  0B76  0660               	xorwf	??_USBCtrlEPService,w
  5509  0B77  1D03               	btfss	3,2
  5510  0B78  2B7A               	goto	u307_21
  5511  0B79  2B7B               	goto	u307_20
  5512  0B7A                     u307_21:
  5513  0B7A  2B7E               	goto	i1l433
  5514  0B7B                     u307_20:
  5515  0B7B                     i1l4688:
  5516                           
  5517                           ;usb_device.c: 2424:     {;usb_device.c: 2427:         USBCtrlTrfInHandler();
  5518  0B7B  318C  24E1  318B   	fcall	_USBCtrlTrfInHandler
  5519  0B7E                     i1l433:
  5520  0B7E  0008               	return
  5521  0B7F                     __end_of_USBCtrlEPService:
  5522                           
  5523                           	psect	text20
  5524  09DE                     __ptext20:	
  5525 ;; *************** function _memcpy *****************
  5526 ;; Defined at:
  5527 ;;		line 4 in file "C:\Program Files\Microchip\xc8\v2.35\pic\sources\c99\common\memcpy.c"
  5528 ;; Parameters:    Size  Location     Type
  5529 ;;  d1              1    wreg     PTR void 
  5530 ;;		 -> SetupPkt(8), 
  5531 ;;  s1              2    0[COMMON] PTR const void 
  5532 ;;		 -> CtrlTrfData(8), RAM(4096), SetupPkt(8), 
  5533 ;;  n               2    2[COMMON] unsigned int 
  5534 ;; Auto vars:     Size  Location     Type
  5535 ;;  d1              1    8[COMMON] PTR void 
  5536 ;;		 -> SetupPkt(8), 
  5537 ;;  s               2    5[COMMON] PTR const unsigned char 
  5538 ;;		 -> CtrlTrfData(8), RAM(4096), SetupPkt(8), 
  5539 ;;  d               1    9[COMMON] PTR unsigned char 
  5540 ;;		 -> SetupPkt(8), 
  5541 ;;  tmp             1    7[COMMON] unsigned char 
  5542 ;; Return value:  Size  Location     Type
  5543 ;;                  1    wreg      PTR void 
  5544 ;; Registers used:
  5545 ;;		wreg, fsr1l, fsr1h, status,2, status,0
  5546 ;; Tracked objects:
  5547 ;;		On entry : 0/0
  5548 ;;		On exit  : 0/0
  5549 ;;		Unchanged: 0/0
  5550 ;; Data sizes:     COMMON   BANK0   BANK1   BANK2   BANK3   BANK4   BANK5   BANK6   BANK7   BANK8   BANK9  BANK10  BANK1
      +1  BANK12
  5551 ;;      Params:         4       0       0       0       0       0       0       0       0       0       0       0       
      +0       0
  5552 ;;      Locals:         5       0       0       0       0       0       0       0       0       0       0       0       
      +0       0
  5553 ;;      Temps:          1       0       0       0       0       0       0       0       0       0       0       0       
      +0       0
  5554 ;;      Totals:        10       0       0       0       0       0       0       0       0       0       0       0       
      +0       0
  5555 ;;Total ram usage:       10 bytes
  5556 ;; Hardware stack levels used: 1
  5557 ;; This function calls:
  5558 ;;		Nothing
  5559 ;; This function is called by:
  5560 ;;		_USBCtrlEPService
  5561 ;; This function uses a non-reentrant model
  5562 ;;
  5563                           
  5564  09DE                     _memcpy:	
  5565                           ;psect for function _memcpy
  5566                           
  5567                           
  5568                           ;incstack = 0
  5569                           ; Regs used in _memcpy: [wreg+fsr1l+fsr1h+status,2+status,0]
  5570                           ;memcpy@d1 stored from wreg
  5571  09DE  00F8               	movwf	memcpy@d1
  5572  09DF                     i1l3554:
  5573  09DF  0871               	movf	memcpy@s1+1,w
  5574  09E0  00F6               	movwf	memcpy@s+1
  5575  09E1  0870               	movf	memcpy@s1,w
  5576  09E2  00F5               	movwf	memcpy@s
  5577  09E3  0878               	movf	memcpy@d1,w
  5578  09E4  00F4               	movwf	??_memcpy
  5579  09E5  0874               	movf	??_memcpy,w
  5580  09E6  00F9               	movwf	memcpy@d
  5581  09E7  29FF               	goto	i1l3564
  5582  09E8                     i1l3556:
  5583  09E8  0875               	movf	memcpy@s,w
  5584  09E9  0086               	movwf	6
  5585  09EA  0876               	movf	memcpy@s+1,w
  5586  09EB  0087               	movwf	7
  5587  09EC  0801               	movf	1,w
  5588  09ED  00F4               	movwf	??_memcpy
  5589  09EE  0874               	movf	??_memcpy,w
  5590  09EF  00F7               	movwf	memcpy@tmp
  5591  09F0                     i1l3558:
  5592  09F0  3001               	movlw	1
  5593  09F1  07F5               	addwf	memcpy@s,f
  5594  09F2  3000               	movlw	0
  5595  09F3  3DF6               	addwfc	memcpy@s+1,f
  5596  09F4                     i1l3560:
  5597  09F4  0877               	movf	memcpy@tmp,w
  5598  09F5  00F4               	movwf	??_memcpy
  5599  09F6  0879               	movf	memcpy@d,w
  5600  09F7  0086               	movwf	6
  5601  09F8  0187               	clrf	7
  5602  09F9  0874               	movf	??_memcpy,w
  5603  09FA  0081               	movwf	1
  5604  09FB                     i1l3562:
  5605  09FB  3001               	movlw	1
  5606  09FC  00F4               	movwf	??_memcpy
  5607  09FD  0874               	movf	??_memcpy,w
  5608  09FE  07F9               	addwf	memcpy@d,f
  5609  09FF                     i1l3564:
  5610  09FF  3001               	movlw	1
  5611  0A00  02F2               	subwf	memcpy@n,f
  5612  0A01  3000               	movlw	0
  5613  0A02  3BF3               	subwfb	memcpy@n+1,f
  5614  0A03  0A72               	incf	memcpy@n,w
  5615  0A04  1D03               	skipz
  5616  0A05  2A0A               	goto	u219_21
  5617  0A06  0A73               	incf	memcpy@n+1,w
  5618  0A07  1D03               	btfss	3,2
  5619  0A08  2A0A               	goto	u219_21
  5620  0A09  2A0B               	goto	u219_20
  5621  0A0A                     u219_21:
  5622  0A0A  29E8               	goto	i1l3556
  5623  0A0B                     u219_20:
  5624  0A0B                     i1l1154:
  5625  0A0B  0008               	return
  5626  0A0C                     __end_of_memcpy:
  5627                           
  5628                           	psect	text21
  5629  0A89                     __ptext21:	
  5630 ;; *************** function _USBCtrlTrfSetupHandler *****************
  5631 ;; Defined at:
  5632 ;;		line 2472 in file "usb_device.c"
  5633 ;; Parameters:    Size  Location     Type
  5634 ;;		None
  5635 ;; Auto vars:     Size  Location     Type
  5636 ;;		None
  5637 ;; Return value:  Size  Location     Type
  5638 ;;                  1    wreg      void 
  5639 ;; Registers used:
  5640 ;;		wreg, fsr0l, fsr0h, fsr1l, fsr1h, status,2, status,0, pclath, cstack
  5641 ;; Tracked objects:
  5642 ;;		On entry : 0/0
  5643 ;;		On exit  : 0/0
  5644 ;;		Unchanged: 0/0
  5645 ;; Data sizes:     COMMON   BANK0   BANK1   BANK2   BANK3   BANK4   BANK5   BANK6   BANK7   BANK8   BANK9  BANK10  BANK1
      +1  BANK12
  5646 ;;      Params:         0       0       0       0       0       0       0       0       0       0       0       0       
      +0       0
  5647 ;;      Locals:         0       0       0       0       0       0       0       0       0       0       0       0       
      +0       0
  5648 ;;      Temps:          0       1       0       0       0       0       0       0       0       0       0       0       
      +0       0
  5649 ;;      Totals:         0       1       0       0       0       0       0       0       0       0       0       0       
      +0       0
  5650 ;;Total ram usage:        1 bytes
  5651 ;; Hardware stack levels used: 1
  5652 ;; Hardware stack levels required when called: 6
  5653 ;; This function calls:
  5654 ;;		_USBCheckStdRequest
  5655 ;;		_USBCtrlEPServiceComplete
  5656 ;;		_USER_USB_CALLBACK_EVENT_HANDLER
  5657 ;; This function is called by:
  5658 ;;		_USBCtrlEPService
  5659 ;; This function uses a non-reentrant model
  5660 ;;
  5661                           
  5662  0A89                     _USBCtrlTrfSetupHandler:	
  5663                           ;psect for function _USBCtrlTrfSetupHandler
  5664                           
  5665  0A89                     i1l4642:	
  5666                           ;incstack = 0
  5667                           ; Regs used in _USBCtrlTrfSetupHandler: [wreg-fsr1h+status,2+status,0+pclath+cstack]
  5668                           
  5669                           
  5670                           ;usb_device.c: 2477:     shortPacketStatus = 0;
  5671  0A89  0022               	movlb	2	; select bank2
  5672  0A8A  01E7               	clrf	_shortPacketStatus^(0+256)	;volatile
  5673                           
  5674                           ;usb_device.c: 2478:     USBDeferStatusStagePacket = 0;
  5675  0A8B  01E4               	clrf	_USBDeferStatusStagePacket^(0+256)	;volatile
  5676                           
  5677                           ;usb_device.c: 2479:     USBDeferINDataStagePackets = 0;
  5678  0A8C  0023               	movlb	3	; select bank3
  5679  0A8D  01B5               	clrf	_USBDeferINDataStagePackets^(0+384)	;volatile
  5680                           
  5681                           ;usb_device.c: 2480:     USBDeferOUTDataStagePackets = 0;
  5682  0A8E  01B4               	clrf	_USBDeferOUTDataStagePackets^(0+384)	;volatile
  5683                           
  5684                           ;usb_device.c: 2481:     BothEP0OutUOWNsSet = 0;
  5685  0A8F  01B8               	clrf	_BothEP0OutUOWNsSet^(0+384)	;volatile
  5686                           
  5687                           ;usb_device.c: 2482:     controlTransferState = 0;
  5688  0A90  0021               	movlb	1	; select bank1
  5689  0A91  01ED               	clrf	_controlTransferState^(0+128)	;volatile
  5690  0A92                     i1l4644:
  5691                           
  5692                           ;usb_device.c: 2491:     pBDTEntryIn[0]->STAT.Val &= ~(0x80);
  5693  0A92  307F               	movlw	127
  5694  0A93  0020               	movlb	0	; select bank0
  5695  0A94  00DF               	movwf	??_USBCtrlTrfSetupHandler
  5696  0A95  086A               	movf	_pBDTEntryIn,w
  5697  0A96  0086               	movwf	6
  5698  0A97  086B               	movf	_pBDTEntryIn+1,w
  5699  0A98  0087               	movwf	7
  5700  0A99  085F               	movf	??_USBCtrlTrfSetupHandler,w
  5701  0A9A  0581               	andwf	1,f
  5702  0A9B                     i1l4646:
  5703                           
  5704                           ;usb_device.c: 2493:     pBDTEntryIn[0] = (volatile BDT_ENTRY*)(((uint16_t)pBDTEntryIn[0
      +                          ]) ^ 0x0004);
  5705  0A9B  3004               	movlw	4
  5706  0A9C  066A               	xorwf	_pBDTEntryIn,w
  5707  0A9D  00EA               	movwf	_pBDTEntryIn
  5708  0A9E  3000               	movlw	0
  5709  0A9F  066B               	xorwf	_pBDTEntryIn+1,w
  5710  0AA0  00EB               	movwf	_pBDTEntryIn+1
  5711  0AA1                     i1l4648:
  5712                           
  5713                           ;usb_device.c: 2494:     pBDTEntryIn[0]->STAT.Val &= ~(0x80);
  5714  0AA1  307F               	movlw	127
  5715  0AA2  00DF               	movwf	??_USBCtrlTrfSetupHandler
  5716  0AA3  086A               	movf	_pBDTEntryIn,w
  5717  0AA4  0086               	movwf	6
  5718  0AA5  086B               	movf	_pBDTEntryIn+1,w
  5719  0AA6  0087               	movwf	7
  5720  0AA7  085F               	movf	??_USBCtrlTrfSetupHandler,w
  5721  0AA8  0581               	andwf	1,f
  5722  0AA9                     i1l4650:
  5723                           
  5724                           ;usb_device.c: 2495:     pBDTEntryIn[0] = (volatile BDT_ENTRY*)(((uint16_t)pBDTEntryIn[0
      +                          ]) ^ 0x0004);
  5725  0AA9  3004               	movlw	4
  5726  0AAA  066A               	xorwf	_pBDTEntryIn,w
  5727  0AAB  00EA               	movwf	_pBDTEntryIn
  5728  0AAC  3000               	movlw	0
  5729  0AAD  066B               	xorwf	_pBDTEntryIn+1,w
  5730  0AAE  00EB               	movwf	_pBDTEntryIn+1
  5731  0AAF                     i1l4652:
  5732                           
  5733                           ;usb_device.c: 2496:     pBDTEntryEP0OutNext->STAT.Val &= ~(0x80);
  5734  0AAF  307F               	movlw	127
  5735  0AB0  00DF               	movwf	??_USBCtrlTrfSetupHandler
  5736  0AB1  086E               	movf	_pBDTEntryEP0OutNext,w
  5737  0AB2  0086               	movwf	6
  5738  0AB3  086F               	movf	_pBDTEntryEP0OutNext+1,w
  5739  0AB4  0087               	movwf	7
  5740  0AB5  085F               	movf	??_USBCtrlTrfSetupHandler,w
  5741  0AB6  0581               	andwf	1,f
  5742  0AB7                     i1l4654:
  5743                           
  5744                           ;usb_device.c: 2498:     inPipes[0].info.Val = 0;
  5745  0AB7  01E7               	clrf	_inPipes+2	;volatile
  5746  0AB8                     i1l4656:
  5747                           
  5748                           ;usb_device.c: 2499:     inPipes[0].wCount.Val = 0;
  5749  0AB8  01E8               	clrf	_inPipes+3	;volatile
  5750  0AB9  01E9               	clrf	_inPipes+4	;volatile
  5751  0ABA                     i1l4658:
  5752                           
  5753                           ;usb_device.c: 2500:     outPipes[0].info.Val = 0;
  5754  0ABA  0023               	movlb	3	; select bank3
  5755  0ABB  01A2               	clrf	(_outPipes^(0+384)+2)	;volatile
  5756  0ABC                     i1l4660:
  5757                           
  5758                           ;usb_device.c: 2501:     outPipes[0].wCount.Val = 0;
  5759  0ABC  01A3               	clrf	(_outPipes^(0+384)+3)	;volatile
  5760  0ABD  01A4               	clrf	((_outPipes+1)^(0+384)+3)	;volatile
  5761  0ABE                     i1l4662:
  5762                           
  5763                           ;usb_device.c: 2507:     USBCheckStdRequest();
  5764  0ABE  318C  2463  318A   	fcall	_USBCheckStdRequest
  5765  0AC1                     i1l4664:
  5766                           
  5767                           ;usb_device.c: 2508:     USER_USB_CALLBACK_EVENT_HANDLER((USB_EVENT)EVENT_EP0_REQUEST,0,
      +                          0);
  5768  0AC1  3003               	movlw	3
  5769  0AC2  0020               	movlb	0	; select bank0
  5770  0AC3  00D0               	movwf	USER_USB_CALLBACK_EVENT_HANDLER@event
  5771  0AC4  3000               	movlw	0
  5772  0AC5  00D1               	movwf	USER_USB_CALLBACK_EVENT_HANDLER@event+1
  5773  0AC6  3000               	movlw	0
  5774  0AC7  00D2               	movwf	USER_USB_CALLBACK_EVENT_HANDLER@pdata
  5775  0AC8  3000               	movlw	0
  5776  0AC9  00D3               	movwf	USER_USB_CALLBACK_EVENT_HANDLER@pdata+1
  5777  0ACA  3000               	movlw	0
  5778  0ACB  00D4               	movwf	USER_USB_CALLBACK_EVENT_HANDLER@size
  5779  0ACC  00D5               	movwf	USER_USB_CALLBACK_EVENT_HANDLER@size+1
  5780  0ACD  318A  22D4  318A   	fcall	_USER_USB_CALLBACK_EVENT_HANDLER
  5781  0AD0                     i1l4666:
  5782                           
  5783                           ;usb_device.c: 2521:     USBCtrlEPServiceComplete();
  5784  0AD0  3186  265E  318A   	fcall	_USBCtrlEPServiceComplete
  5785  0AD3                     i1l436:
  5786  0AD3  0008               	return
  5787  0AD4                     __end_of_USBCtrlTrfSetupHandler:
  5788                           
  5789                           	psect	text22
  5790  065E                     __ptext22:	
  5791 ;; *************** function _USBCtrlEPServiceComplete *****************
  5792 ;; Defined at:
  5793 ;;		line 1620 in file "usb_device.c"
  5794 ;; Parameters:    Size  Location     Type
  5795 ;;		None
  5796 ;; Auto vars:     Size  Location     Type
  5797 ;;		None
  5798 ;; Return value:  Size  Location     Type
  5799 ;;                  1    wreg      void 
  5800 ;; Registers used:
  5801 ;;		wreg, fsr0l, fsr0h, fsr1l, fsr1h, status,2, status,0, pclath, cstack
  5802 ;; Tracked objects:
  5803 ;;		On entry : 0/0
  5804 ;;		On exit  : 0/0
  5805 ;;		Unchanged: 0/0
  5806 ;; Data sizes:     COMMON   BANK0   BANK1   BANK2   BANK3   BANK4   BANK5   BANK6   BANK7   BANK8   BANK9  BANK10  BANK1
      +1  BANK12
  5807 ;;      Params:         0       0       0       0       0       0       0       0       0       0       0       0       
      +0       0
  5808 ;;      Locals:         0       0       0       0       0       0       0       0       0       0       0       0       
      +0       0
  5809 ;;      Temps:          2       0       0       0       0       0       0       0       0       0       0       0       
      +0       0
  5810 ;;      Totals:         2       0       0       0       0       0       0       0       0       0       0       0       
      +0       0
  5811 ;;Total ram usage:        2 bytes
  5812 ;; Hardware stack levels used: 1
  5813 ;; Hardware stack levels required when called: 2
  5814 ;; This function calls:
  5815 ;;		_USBCtrlEPAllowDataStage
  5816 ;;		_USBCtrlEPAllowStatusStage
  5817 ;; This function is called by:
  5818 ;;		_USBCtrlTrfSetupHandler
  5819 ;; This function uses a non-reentrant model
  5820 ;;
  5821                           
  5822  065E                     _USBCtrlEPServiceComplete:	
  5823                           ;psect for function _USBCtrlEPServiceComplete
  5824                           
  5825  065E                     i1l3414:	
  5826                           ;incstack = 0
  5827                           ; Regs used in _USBCtrlEPServiceComplete: [wreg-fsr1h+status,2+status,0+pclath+cstack]
  5828                           
  5829                           
  5830                           ;usb_device.c: 1626:     UCONbits.PKTDIS = 0;
  5831  065E  003D               	movlb	29	; select bank29
  5832  065F  120E               	bcf	14,4	;volatile
  5833                           
  5834                           ;usb_device.c: 1632:     if(inPipes[0].info.bits.busy == 0)
  5835  0660  0020               	movlb	0	; select bank0
  5836  0661  1BE7               	btfsc	_inPipes+2,7	;volatile
  5837  0662  2E64               	goto	u206_21
  5838  0663  2E65               	goto	u206_20
  5839  0664                     u206_21:
  5840  0664  2EAD               	goto	i1l335
  5841  0665                     u206_20:
  5842  0665                     i1l3416:
  5843                           
  5844                           ;usb_device.c: 1633:     {;usb_device.c: 1634:         if(outPipes[0].info.bits.busy == 
      +                          1)
  5845  0665  0023               	movlb	3	; select bank3
  5846  0666  1FA2               	btfss	(_outPipes^(0+384)+2),7	;volatile
  5847  0667  2E69               	goto	u207_21
  5848  0668  2E6A               	goto	u207_20
  5849  0669                     u207_21:
  5850  0669  2E7C               	goto	i1l3428
  5851  066A                     u207_20:
  5852  066A                     i1l3418:
  5853                           
  5854                           ;usb_device.c: 1635:         {;usb_device.c: 1636:             controlTransferState = 2;
  5855  066A  3002               	movlw	2
  5856  066B  00F5               	movwf	??_USBCtrlEPServiceComplete
  5857  066C  0875               	movf	??_USBCtrlEPServiceComplete,w
  5858  066D  0021               	movlb	1	; select bank1
  5859  066E  00ED               	movwf	_controlTransferState^(0+128)	;volatile
  5860  066F                     i1l3420:
  5861                           
  5862                           ;usb_device.c: 1647:             if(USBDeferOUTDataStagePackets == 0)
  5863  066F  0023               	movlb	3	; select bank3
  5864  0670  0834               	movf	_USBDeferOUTDataStagePackets^(0+384),w	;volatile
  5865  0671  1D03               	btfss	3,2
  5866  0672  2E74               	goto	u208_21
  5867  0673  2E75               	goto	u208_20
  5868  0674                     u208_21:
  5869  0674  2E78               	goto	i1l3424
  5870  0675                     u208_20:
  5871  0675                     i1l3422:
  5872                           
  5873                           ;usb_device.c: 1648:             {;usb_device.c: 1649:                 USBCtrlEPAllowDat
      +                          aStage();
  5874  0675  3187  27A0  3186   	fcall	_USBCtrlEPAllowDataStage
  5875  0678                     i1l3424:
  5876                           
  5877                           ;usb_device.c: 1654:             USBStatusStageEnabledFlag2 = 0;
  5878  0678  0023               	movlb	3	; select bank3
  5879  0679  01B6               	clrf	_USBStatusStageEnabledFlag2^(0+384)	;volatile
  5880  067A                     i1l3426:
  5881                           
  5882                           ;usb_device.c: 1655:             USBStatusStageEnabledFlag1 = 0;
  5883  067A  01B7               	clrf	_USBStatusStageEnabledFlag1^(0+384)	;volatile
  5884                           
  5885                           ;usb_device.c: 1656:         }
  5886  067B  2F00               	goto	i1l345
  5887  067C                     i1l3428:
  5888                           
  5889                           ;usb_device.c: 1658:         {;usb_device.c: 1663:             pBDTEntryEP0OutNext->CNT 
      +                          = 8;
  5890  067C  0020               	movlb	0	; select bank0
  5891  067D  086E               	movf	_pBDTEntryEP0OutNext,w
  5892  067E  3E01               	addlw	1
  5893  067F  00F5               	movwf	??_USBCtrlEPServiceComplete
  5894  0680  3000               	movlw	0
  5895  0681  3D6F               	addwfc	_pBDTEntryEP0OutNext+1,w
  5896  0682  00F6               	movwf	??_USBCtrlEPServiceComplete+1
  5897  0683  0875               	movf	??_USBCtrlEPServiceComplete,w
  5898  0684  0086               	movwf	6
  5899  0685  0876               	movf	??_USBCtrlEPServiceComplete+1,w
  5900  0686  0087               	movwf	7
  5901  0687  3008               	movlw	8
  5902  0688  0081               	movwf	1
  5903  0689                     i1l3430:
  5904                           
  5905                           ;usb_device.c: 1664:             pBDTEntryEP0OutNext->ADR = (((uint16_t)(&SetupPkt)) & 0
      +                          x7FFF);
  5906  0689  3040               	movlw	64
  5907  068A  00F5               	movwf	??_USBCtrlEPServiceComplete
  5908  068B  3000               	movlw	0
  5909  068C  00F6               	movwf	??_USBCtrlEPServiceComplete+1
  5910  068D  086E               	movf	_pBDTEntryEP0OutNext,w
  5911  068E  0086               	movwf	6
  5912  068F  086F               	movf	_pBDTEntryEP0OutNext+1,w
  5913  0690  0087               	movwf	7
  5914  0691  3142               	addfsr 1,2
  5915  0692  0875               	movf	??_USBCtrlEPServiceComplete,w
  5916  0693  3FC0               	movwi [0]fsr1
  5917  0694  0876               	movf	??_USBCtrlEPServiceComplete+1,w
  5918  0695  3FC1               	movwi [1]fsr1
  5919  0696                     i1l3432:
  5920                           
  5921                           ;usb_device.c: 1665:             pBDTEntryEP0OutNext->STAT.Val = 0x00|(0x08 & 0x08)|0x04
      +                          ;
  5922  0696  086E               	movf	_pBDTEntryEP0OutNext,w
  5923  0697  0086               	movwf	6
  5924  0698  086F               	movf	_pBDTEntryEP0OutNext+1,w
  5925  0699  0087               	movwf	7
  5926  069A  300C               	movlw	12
  5927  069B  0081               	movwf	1
  5928  069C                     i1l3434:
  5929                           
  5930                           ;usb_device.c: 1666:             pBDTEntryEP0OutNext->STAT.Val |= 0x80;
  5931  069C  086E               	movf	_pBDTEntryEP0OutNext,w
  5932  069D  0086               	movwf	6
  5933  069E  086F               	movf	_pBDTEntryEP0OutNext+1,w
  5934  069F  0087               	movwf	7
  5935  06A0  1781               	bsf	1,7
  5936  06A1                     i1l3436:
  5937                           
  5938                           ;usb_device.c: 1667:             pBDTEntryIn[0]->STAT.Val = 0x04;
  5939  06A1  086A               	movf	_pBDTEntryIn,w
  5940  06A2  0086               	movwf	6
  5941  06A3  086B               	movf	_pBDTEntryIn+1,w
  5942  06A4  0087               	movwf	7
  5943  06A5  3004               	movlw	4
  5944  06A6  0081               	movwf	1
  5945  06A7                     i1l3438:
  5946                           
  5947                           ;usb_device.c: 1668:             pBDTEntryIn[0]->STAT.Val |= 0x80;
  5948  06A7  086A               	movf	_pBDTEntryIn,w
  5949  06A8  0086               	movwf	6
  5950  06A9  086B               	movf	_pBDTEntryIn+1,w
  5951  06AA  0087               	movwf	7
  5952  06AB  1781               	bsf	1,7
  5953  06AC  2F00               	goto	i1l345
  5954  06AD                     i1l335:	
  5955                           ;usb_device.c: 1671:     else
  5956                           
  5957                           
  5958                           ;usb_device.c: 1672:     {;usb_device.c: 1673:   if(SetupPkt.DataDir == (0x80>>7))
  5959  06AD  1FC0               	btfss	64,7	;volatile
  5960  06AE  2EB0               	goto	u209_21
  5961  06AF  2EB1               	goto	u209_20
  5962  06B0                     u209_21:
  5963  06B0  2ECC               	goto	i1l3454
  5964  06B1                     u209_20:
  5965  06B1                     i1l3440:
  5966                           
  5967                           ;usb_device.c: 1674:   {;usb_device.c: 1675:    controlTransferState = 1;
  5968  06B1  3001               	movlw	1
  5969  06B2  00F5               	movwf	??_USBCtrlEPServiceComplete
  5970  06B3  0875               	movf	??_USBCtrlEPServiceComplete,w
  5971  06B4  0021               	movlb	1	; select bank1
  5972  06B5  00ED               	movwf	_controlTransferState^(0+128)	;volatile
  5973  06B6                     i1l3442:
  5974                           
  5975                           ;usb_device.c: 1689:    if(USBDeferINDataStagePackets == 0)
  5976  06B6  0023               	movlb	3	; select bank3
  5977  06B7  0835               	movf	_USBDeferINDataStagePackets^(0+384),w	;volatile
  5978  06B8  1D03               	btfss	3,2
  5979  06B9  2EBB               	goto	u210_21
  5980  06BA  2EBC               	goto	u210_20
  5981  06BB                     u210_21:
  5982  06BB  2EBF               	goto	i1l3446
  5983  06BC                     u210_20:
  5984  06BC                     i1l3444:
  5985                           
  5986                           ;usb_device.c: 1690:             {;usb_device.c: 1691:                 USBCtrlEPAllowDat
      +                          aStage();
  5987  06BC  3187  27A0  3186   	fcall	_USBCtrlEPAllowDataStage
  5988  06BF                     i1l3446:
  5989                           
  5990                           ;usb_device.c: 1714:             USBStatusStageEnabledFlag2 = 0;
  5991  06BF  0023               	movlb	3	; select bank3
  5992  06C0  01B6               	clrf	_USBStatusStageEnabledFlag2^(0+384)	;volatile
  5993  06C1                     i1l3448:
  5994                           
  5995                           ;usb_device.c: 1715:             USBStatusStageEnabledFlag1 = 0;
  5996  06C1  01B7               	clrf	_USBStatusStageEnabledFlag1^(0+384)	;volatile
  5997  06C2                     i1l3450:
  5998                           
  5999                           ;usb_device.c: 1716:             if(USBDeferStatusStagePacket == 0)
  6000  06C2  0022               	movlb	2	; select bank2
  6001  06C3  0864               	movf	_USBDeferStatusStagePacket^(0+256),w	;volatile
  6002  06C4  1D03               	btfss	3,2
  6003  06C5  2EC7               	goto	u211_21
  6004  06C6  2EC8               	goto	u211_20
  6005  06C7                     u211_21:
  6006  06C7  2F00               	goto	i1l345
  6007  06C8                     u211_20:
  6008  06C8                     i1l3452:
  6009                           
  6010                           ;usb_device.c: 1717:             {;usb_device.c: 1718:                 USBCtrlEPAllowSta
      +                          tusStage();
  6011  06C8  318B  23E9  3186   	fcall	_USBCtrlEPAllowStatusStage
  6012  06CB  2F00               	goto	i1l345
  6013  06CC                     i1l3454:
  6014                           
  6015                           ;usb_device.c: 1722:   {;usb_device.c: 1733:    controlTransferState = 2;
  6016  06CC  3002               	movlw	2
  6017  06CD  00F5               	movwf	??_USBCtrlEPServiceComplete
  6018  06CE  0875               	movf	??_USBCtrlEPServiceComplete,w
  6019  06CF  0021               	movlb	1	; select bank1
  6020  06D0  00ED               	movwf	_controlTransferState^(0+128)	;volatile
  6021  06D1                     i1l3456:
  6022                           
  6023                           ;usb_device.c: 1736:    pBDTEntryEP0OutNext->CNT = 8;
  6024  06D1  0020               	movlb	0	; select bank0
  6025  06D2  086E               	movf	_pBDTEntryEP0OutNext,w
  6026  06D3  3E01               	addlw	1
  6027  06D4  00F5               	movwf	??_USBCtrlEPServiceComplete
  6028  06D5  3000               	movlw	0
  6029  06D6  3D6F               	addwfc	_pBDTEntryEP0OutNext+1,w
  6030  06D7  00F6               	movwf	??_USBCtrlEPServiceComplete+1
  6031  06D8  0875               	movf	??_USBCtrlEPServiceComplete,w
  6032  06D9  0086               	movwf	6
  6033  06DA  0876               	movf	??_USBCtrlEPServiceComplete+1,w
  6034  06DB  0087               	movwf	7
  6035  06DC  3008               	movlw	8
  6036  06DD  0081               	movwf	1
  6037  06DE                     i1l3458:
  6038                           
  6039                           ;usb_device.c: 1737:    pBDTEntryEP0OutNext->ADR = (((uint16_t)(&SetupPkt)) & 0x7FFF);
  6040  06DE  3040               	movlw	64
  6041  06DF  00F5               	movwf	??_USBCtrlEPServiceComplete
  6042  06E0  3000               	movlw	0
  6043  06E1  00F6               	movwf	??_USBCtrlEPServiceComplete+1
  6044  06E2  086E               	movf	_pBDTEntryEP0OutNext,w
  6045  06E3  0086               	movwf	6
  6046  06E4  086F               	movf	_pBDTEntryEP0OutNext+1,w
  6047  06E5  0087               	movwf	7
  6048  06E6  3142               	addfsr 1,2
  6049  06E7  0875               	movf	??_USBCtrlEPServiceComplete,w
  6050  06E8  3FC0               	movwi [0]fsr1
  6051  06E9  0876               	movf	??_USBCtrlEPServiceComplete+1,w
  6052  06EA  3FC1               	movwi [1]fsr1
  6053  06EB                     i1l3460:
  6054                           
  6055                           ;usb_device.c: 1738:    pBDTEntryEP0OutNext->STAT.Val = 0x04;
  6056  06EB  086E               	movf	_pBDTEntryEP0OutNext,w
  6057  06EC  0086               	movwf	6
  6058  06ED  086F               	movf	_pBDTEntryEP0OutNext+1,w
  6059  06EE  0087               	movwf	7
  6060  06EF  3004               	movlw	4
  6061  06F0  0081               	movwf	1
  6062  06F1                     i1l3462:
  6063                           
  6064                           ;usb_device.c: 1739:             pBDTEntryEP0OutNext->STAT.Val |= 0x80;
  6065  06F1  086E               	movf	_pBDTEntryEP0OutNext,w
  6066  06F2  0086               	movwf	6
  6067  06F3  086F               	movf	_pBDTEntryEP0OutNext+1,w
  6068  06F4  0087               	movwf	7
  6069  06F5  1781               	bsf	1,7
  6070  06F6                     i1l3464:
  6071                           
  6072                           ;usb_device.c: 1742:             USBStatusStageEnabledFlag2 = 0;
  6073  06F6  0023               	movlb	3	; select bank3
  6074  06F7  01B6               	clrf	_USBStatusStageEnabledFlag2^(0+384)	;volatile
  6075  06F8                     i1l3466:
  6076                           
  6077                           ;usb_device.c: 1743:             USBStatusStageEnabledFlag1 = 0;
  6078  06F8  01B7               	clrf	_USBStatusStageEnabledFlag1^(0+384)	;volatile
  6079                           
  6080                           ;usb_device.c: 1744:    if(USBDeferStatusStagePacket == 0)
  6081  06F9  0022               	movlb	2	; select bank2
  6082  06FA  0864               	movf	_USBDeferStatusStagePacket^(0+256),w	;volatile
  6083  06FB  1D03               	btfss	3,2
  6084  06FC  2EFE               	goto	u212_21
  6085  06FD  2EFF               	goto	u212_20
  6086  06FE                     u212_21:
  6087  06FE  2F00               	goto	i1l345
  6088  06FF                     u212_20:
  6089  06FF  2EC8               	goto	i1l3452
  6090  0700                     i1l345:
  6091  0700  0008               	return
  6092  0701                     __end_of_USBCtrlEPServiceComplete:
  6093                           
  6094                           	psect	text23
  6095  07A0                     __ptext23:	
  6096 ;; *************** function _USBCtrlEPAllowDataStage *****************
  6097 ;; Defined at:
  6098 ;;		line 1492 in file "usb_device.c"
  6099 ;; Parameters:    Size  Location     Type
  6100 ;;		None
  6101 ;; Auto vars:     Size  Location     Type
  6102 ;;		None
  6103 ;; Return value:  Size  Location     Type
  6104 ;;                  1    wreg      void 
  6105 ;; Registers used:
  6106 ;;		wreg, fsr0l, fsr0h, fsr1l, fsr1h, status,2, status,0, pclath, cstack
  6107 ;; Tracked objects:
  6108 ;;		On entry : 0/0
  6109 ;;		On exit  : 0/0
  6110 ;;		Unchanged: 0/0
  6111 ;; Data sizes:     COMMON   BANK0   BANK1   BANK2   BANK3   BANK4   BANK5   BANK6   BANK7   BANK8   BANK9  BANK10  BANK1
      +1  BANK12
  6112 ;;      Params:         0       0       0       0       0       0       0       0       0       0       0       0       
      +0       0
  6113 ;;      Locals:         0       0       0       0       0       0       0       0       0       0       0       0       
      +0       0
  6114 ;;      Temps:          2       0       0       0       0       0       0       0       0       0       0       0       
      +0       0
  6115 ;;      Totals:         2       0       0       0       0       0       0       0       0       0       0       0       
      +0       0
  6116 ;;Total ram usage:        2 bytes
  6117 ;; Hardware stack levels used: 1
  6118 ;; Hardware stack levels required when called: 1
  6119 ;; This function calls:
  6120 ;;		_USBCtrlTrfTxService
  6121 ;; This function is called by:
  6122 ;;		_USBCtrlEPServiceComplete
  6123 ;; This function uses a non-reentrant model
  6124 ;;
  6125                           
  6126  07A0                     _USBCtrlEPAllowDataStage:	
  6127                           ;psect for function _USBCtrlEPAllowDataStage
  6128                           
  6129  07A0                     i1l3182:	
  6130                           ;incstack = 0
  6131                           ; Regs used in _USBCtrlEPAllowDataStage: [wreg-fsr1h+status,2+status,0+pclath+cstack]
  6132                           
  6133                           
  6134                           ;usb_device.c: 1494:     USBDeferINDataStagePackets = 0;
  6135  07A0  0023               	movlb	3	; select bank3
  6136  07A1  01B5               	clrf	_USBDeferINDataStagePackets^(0+384)	;volatile
  6137                           
  6138                           ;usb_device.c: 1495:     USBDeferOUTDataStagePackets = 0;
  6139  07A2  01B4               	clrf	_USBDeferOUTDataStagePackets^(0+384)	;volatile
  6140  07A3                     i1l3184:
  6141                           
  6142                           ;usb_device.c: 1497:     if(controlTransferState == 2)
  6143  07A3  3002               	movlw	2
  6144  07A4  0021               	movlb	1	; select bank1
  6145  07A5  066D               	xorwf	_controlTransferState^(0+128),w	;volatile
  6146  07A6  1D03               	btfss	3,2
  6147  07A7  2FA9               	goto	u174_21
  6148  07A8  2FAA               	goto	u174_20
  6149  07A9                     u174_21:
  6150  07A9  2FD0               	goto	i1l3194
  6151  07AA                     u174_20:
  6152  07AA                     i1l3186:
  6153                           
  6154                           ;usb_device.c: 1498:     {;usb_device.c: 1500:         pBDTEntryEP0OutNext->CNT = 8;
  6155  07AA  0020               	movlb	0	; select bank0
  6156  07AB  086E               	movf	_pBDTEntryEP0OutNext,w
  6157  07AC  3E01               	addlw	1
  6158  07AD  00F3               	movwf	??_USBCtrlEPAllowDataStage
  6159  07AE  3000               	movlw	0
  6160  07AF  3D6F               	addwfc	_pBDTEntryEP0OutNext+1,w
  6161  07B0  00F4               	movwf	??_USBCtrlEPAllowDataStage+1
  6162  07B1  0873               	movf	??_USBCtrlEPAllowDataStage,w
  6163  07B2  0086               	movwf	6
  6164  07B3  0874               	movf	??_USBCtrlEPAllowDataStage+1,w
  6165  07B4  0087               	movwf	7
  6166  07B5  3008               	movlw	8
  6167  07B6  0081               	movwf	1
  6168  07B7                     i1l3188:
  6169                           
  6170                           ;usb_device.c: 1501:         pBDTEntryEP0OutNext->ADR = (((uint16_t)(&CtrlTrfData)) & 0x
      +                          7FFF);
  6171  07B7  3048               	movlw	72
  6172  07B8  00F3               	movwf	??_USBCtrlEPAllowDataStage
  6173  07B9  3000               	movlw	0
  6174  07BA  00F4               	movwf	??_USBCtrlEPAllowDataStage+1
  6175  07BB  086E               	movf	_pBDTEntryEP0OutNext,w
  6176  07BC  0086               	movwf	6
  6177  07BD  086F               	movf	_pBDTEntryEP0OutNext+1,w
  6178  07BE  0087               	movwf	7
  6179  07BF  3142               	addfsr 1,2
  6180  07C0  0873               	movf	??_USBCtrlEPAllowDataStage,w
  6181  07C1  3FC0               	movwi [0]fsr1
  6182  07C2  0874               	movf	??_USBCtrlEPAllowDataStage+1,w
  6183  07C3  3FC1               	movwi [1]fsr1
  6184  07C4                     i1l3190:
  6185                           
  6186                           ;usb_device.c: 1502:         pBDTEntryEP0OutNext->STAT.Val = 0x40|(0x08 & 0x08);
  6187  07C4  086E               	movf	_pBDTEntryEP0OutNext,w
  6188  07C5  0086               	movwf	6
  6189  07C6  086F               	movf	_pBDTEntryEP0OutNext+1,w
  6190  07C7  0087               	movwf	7
  6191  07C8  3048               	movlw	72
  6192  07C9  0081               	movwf	1
  6193  07CA                     i1l3192:
  6194                           
  6195                           ;usb_device.c: 1503:         pBDTEntryEP0OutNext->STAT.Val |= 0x80;
  6196  07CA  086E               	movf	_pBDTEntryEP0OutNext,w
  6197  07CB  0086               	movwf	6
  6198  07CC  086F               	movf	_pBDTEntryEP0OutNext+1,w
  6199  07CD  0087               	movwf	7
  6200  07CE  1781               	bsf	1,7
  6201                           
  6202                           ;usb_device.c: 1504:     }
  6203  07CF  2FFB               	goto	i1l327
  6204  07D0                     i1l3194:
  6205                           
  6206                           ;usb_device.c: 1506:     {;usb_device.c: 1509:   if(SetupPkt.wLength < inPipes[0].wCount
      +                          .Val)
  6207  07D0  0020               	movlb	0	; select bank0
  6208  07D1  0869               	movf	_inPipes+4,w	;volatile
  6209  07D2  0247               	subwf	71,w	;volatile
  6210  07D3  1D03               	skipz
  6211  07D4  2FD7               	goto	u175_25
  6212  07D5  0868               	movf	_inPipes+3,w	;volatile
  6213  07D6  0246               	subwf	70,w	;volatile
  6214  07D7                     u175_25:
  6215  07D7  1803               	skipnc
  6216  07D8  2FDA               	goto	u175_21
  6217  07D9  2FDB               	goto	u175_20
  6218  07DA                     u175_21:
  6219  07DA  2FDF               	goto	i1l3198
  6220  07DB                     u175_20:
  6221  07DB                     i1l3196:
  6222                           
  6223                           ;usb_device.c: 1510:   {;usb_device.c: 1511:    inPipes[0].wCount.Val = SetupPkt.wLength
      +                          ;
  6224  07DB  0847               	movf	71,w	;volatile
  6225  07DC  00E9               	movwf	_inPipes+4	;volatile
  6226  07DD  0846               	movf	70,w	;volatile
  6227  07DE  00E8               	movwf	_inPipes+3	;volatile
  6228  07DF                     i1l3198:
  6229                           
  6230                           ;usb_device.c: 1513:   USBCtrlTrfTxService();
  6231  07DF  318D  2561  3187   	fcall	_USBCtrlTrfTxService
  6232  07E2                     i1l3200:
  6233                           
  6234                           ;usb_device.c: 1518:   pBDTEntryIn[0]->ADR = (((uint16_t)(&CtrlTrfData)) & 0x7FFF);
  6235  07E2  3048               	movlw	72
  6236  07E3  00F3               	movwf	??_USBCtrlEPAllowDataStage
  6237  07E4  3000               	movlw	0
  6238  07E5  00F4               	movwf	??_USBCtrlEPAllowDataStage+1
  6239  07E6  0020               	movlb	0	; select bank0
  6240  07E7  086A               	movf	_pBDTEntryIn,w
  6241  07E8  0086               	movwf	6
  6242  07E9  086B               	movf	_pBDTEntryIn+1,w
  6243  07EA  0087               	movwf	7
  6244  07EB  3142               	addfsr 1,2
  6245  07EC  0873               	movf	??_USBCtrlEPAllowDataStage,w
  6246  07ED  3FC0               	movwi [0]fsr1
  6247  07EE  0874               	movf	??_USBCtrlEPAllowDataStage+1,w
  6248  07EF  3FC1               	movwi [1]fsr1
  6249  07F0                     i1l3202:
  6250                           
  6251                           ;usb_device.c: 1519:   pBDTEntryIn[0]->STAT.Val = 0x40|(0x08 & 0x08);
  6252  07F0  086A               	movf	_pBDTEntryIn,w
  6253  07F1  0086               	movwf	6
  6254  07F2  086B               	movf	_pBDTEntryIn+1,w
  6255  07F3  0087               	movwf	7
  6256  07F4  3048               	movlw	72
  6257  07F5  0081               	movwf	1
  6258  07F6                     i1l3204:
  6259                           
  6260                           ;usb_device.c: 1520:         pBDTEntryIn[0]->STAT.Val |= 0x80;
  6261  07F6  086A               	movf	_pBDTEntryIn,w
  6262  07F7  0086               	movwf	6
  6263  07F8  086B               	movf	_pBDTEntryIn+1,w
  6264  07F9  0087               	movwf	7
  6265  07FA  1781               	bsf	1,7
  6266  07FB                     i1l327:
  6267  07FB  0008               	return
  6268  07FC                     __end_of_USBCtrlEPAllowDataStage:
  6269                           
  6270                           	psect	text24
  6271  0C63                     __ptext24:	
  6272 ;; *************** function _USBCheckStdRequest *****************
  6273 ;; Defined at:
  6274 ;;		line 2693 in file "usb_device.c"
  6275 ;; Parameters:    Size  Location     Type
  6276 ;;		None
  6277 ;; Auto vars:     Size  Location     Type
  6278 ;;		None
  6279 ;; Return value:  Size  Location     Type
  6280 ;;                  1    wreg      void 
  6281 ;; Registers used:
  6282 ;;		wreg, fsr0l, fsr0h, fsr1l, fsr1h, status,2, status,0, pclath, cstack
  6283 ;; Tracked objects:
  6284 ;;		On entry : 0/0
  6285 ;;		On exit  : 0/0
  6286 ;;		Unchanged: 0/0
  6287 ;; Data sizes:     COMMON   BANK0   BANK1   BANK2   BANK3   BANK4   BANK5   BANK6   BANK7   BANK8   BANK9  BANK10  BANK1
      +1  BANK12
  6288 ;;      Params:         0       0       0       0       0       0       0       0       0       0       0       0       
      +0       0
  6289 ;;      Locals:         0       0       0       0       0       0       0       0       0       0       0       0       
      +0       0
  6290 ;;      Temps:          0       2       0       0       0       0       0       0       0       0       0       0       
      +0       0
  6291 ;;      Totals:         0       2       0       0       0       0       0       0       0       0       0       0       
      +0       0
  6292 ;;Total ram usage:        2 bytes
  6293 ;; Hardware stack levels used: 1
  6294 ;; Hardware stack levels required when called: 5
  6295 ;; This function calls:
  6296 ;;		_USBStdFeatureReqHandler
  6297 ;;		_USBStdGetDscHandler
  6298 ;;		_USBStdGetStatusHandler
  6299 ;;		_USBStdSetCfgHandler
  6300 ;;		_USER_USB_CALLBACK_EVENT_HANDLER
  6301 ;; This function is called by:
  6302 ;;		_USBCtrlTrfSetupHandler
  6303 ;; This function uses a non-reentrant model
  6304 ;;
  6305                           
  6306  0C63                     _USBCheckStdRequest:	
  6307                           ;psect for function _USBCheckStdRequest
  6308                           
  6309  0C63                     i1l4600:	
  6310                           ;incstack = 0
  6311                           ; Regs used in _USBCheckStdRequest: [wreg-fsr1h+status,2+status,0+pclath+cstack]
  6312                           
  6313                           
  6314                           ;usb_device.c: 2695:     if(SetupPkt.RequestType != (0x00>>5)) return;
  6315  0C63  0020               	movlb	0	; select bank0
  6316  0C64  0E40               	swapf	64,w	;volatile
  6317  0C65  0C89               	rrf	9,f
  6318  0C66  3903               	andlw	3
  6319  0C67  3A00               	xorlw	0
  6320  0C68  1903               	skipnz
  6321  0C69  2C6B               	goto	u303_21
  6322  0C6A  2C6C               	goto	u303_20
  6323  0C6B                     u303_21:
  6324  0C6B  2CB5               	goto	i1l4636
  6325  0C6C                     u303_20:
  6326  0C6C  2CE0               	goto	i1l461
  6327  0C6D                     i1l463:	
  6328                           ;usb_device.c: 2698:     {;usb_device.c: 2699:         case 5:
  6329                           
  6330                           
  6331                           ;usb_device.c: 2700:             inPipes[0].info.bits.busy = 1;
  6332  0C6D  17E7               	bsf	_inPipes+2,7	;volatile
  6333  0C6E                     i1l4604:
  6334                           
  6335                           ;usb_device.c: 2701:             USBDeviceState = ADR_PENDING_STATE;
  6336  0C6E  3008               	movlw	8
  6337  0C6F  00DD               	movwf	??_USBCheckStdRequest
  6338  0C70  085D               	movf	??_USBCheckStdRequest,w
  6339  0C71  0022               	movlb	2	; select bank2
  6340  0C72  00E8               	movwf	_USBDeviceState^(0+256)	;volatile
  6341                           
  6342                           ;usb_device.c: 2703:             break;
  6343  0C73  2CE0               	goto	i1l461
  6344  0C74                     i1l4606:
  6345                           
  6346                           ;usb_device.c: 2705:             USBStdGetDscHandler();
  6347  0C74  318D  25E4  318C   	fcall	_USBStdGetDscHandler
  6348                           
  6349                           ;usb_device.c: 2706:             break;
  6350  0C77  2CE0               	goto	i1l461
  6351  0C78                     i1l4608:
  6352                           
  6353                           ;usb_device.c: 2708:             USBStdSetCfgHandler();
  6354  0C78  318F  2776  318C   	fcall	_USBStdSetCfgHandler
  6355                           
  6356                           ;usb_device.c: 2709:             break;
  6357  0C7B  2CE0               	goto	i1l461
  6358  0C7C                     i1l4610:
  6359                           
  6360                           ;usb_device.c: 2711:             inPipes[0].pSrc.bRam = (uint8_t*)&USBActiveConfiguratio
      +                          n;
  6361  0C7C  306A               	movlw	low _USBActiveConfiguration
  6362  0C7D  00E5               	movwf	_inPipes	;volatile
  6363  0C7E  3001               	movlw	high _USBActiveConfiguration
  6364  0C7F  00E6               	movwf	_inPipes+1	;volatile
  6365  0C80                     i1l4612:
  6366                           
  6367                           ;usb_device.c: 2712:             inPipes[0].info.bits.ctrl_trf_mem = 0x01;
  6368  0C80  1467               	bsf	_inPipes+2,0	;volatile
  6369  0C81                     i1l4614:
  6370                           
  6371                           ;usb_device.c: 2713:             inPipes[0].wCount.v[0] = 1;
  6372  0C81  3001               	movlw	1
  6373  0C82  00DD               	movwf	??_USBCheckStdRequest
  6374  0C83  085D               	movf	??_USBCheckStdRequest,w
  6375  0C84  00E8               	movwf	_inPipes+3	;volatile
  6376  0C85                     i1l4616:
  6377                           
  6378                           ;usb_device.c: 2714:             inPipes[0].info.bits.busy = 1;
  6379  0C85  17E7               	bsf	_inPipes+2,7	;volatile
  6380                           
  6381                           ;usb_device.c: 2715:             break;
  6382  0C86  2CE0               	goto	i1l461
  6383  0C87                     i1l4618:
  6384                           
  6385                           ;usb_device.c: 2717:             USBStdGetStatusHandler();
  6386  0C87  318B  237F  318C   	fcall	_USBStdGetStatusHandler
  6387                           
  6388                           ;usb_device.c: 2718:             break;
  6389  0C8A  2CE0               	goto	i1l461
  6390  0C8B                     i1l4620:
  6391                           
  6392                           ;usb_device.c: 2721:             USBStdFeatureReqHandler();
  6393  0C8B  3180  202D  318C   	fcall	_USBStdFeatureReqHandler
  6394                           
  6395                           ;usb_device.c: 2722:             break;
  6396  0C8E  2CE0               	goto	i1l461
  6397  0C8F                     i1l4622:
  6398                           
  6399                           ;usb_device.c: 2724:             inPipes[0].pSrc.bRam = (uint8_t*)&USBAlternateInterface
      +                          [SetupPkt.bIntfID];
  6400  0C8F  0844               	movf	68,w	;volatile
  6401  0C90  3E69               	addlw	(low (_USBAlternateInterface| (0+256)))& (0+255)
  6402  0C91  00E5               	movwf	_inPipes	;volatile
  6403  0C92  3001               	movlw	1
  6404  0C93  00E6               	movwf	_inPipes+1	;volatile
  6405  0C94                     i1l4624:
  6406                           
  6407                           ;usb_device.c: 2725:             inPipes[0].info.bits.ctrl_trf_mem = 0x01;
  6408  0C94  1467               	bsf	_inPipes+2,0	;volatile
  6409  0C95                     i1l4626:
  6410                           
  6411                           ;usb_device.c: 2726:             inPipes[0].wCount.v[0] = 1;
  6412  0C95  3001               	movlw	1
  6413  0C96  00DD               	movwf	??_USBCheckStdRequest
  6414  0C97  085D               	movf	??_USBCheckStdRequest,w
  6415  0C98  00E8               	movwf	_inPipes+3	;volatile
  6416  0C99                     i1l4628:
  6417                           
  6418                           ;usb_device.c: 2727:             inPipes[0].info.bits.busy = 1;
  6419  0C99  17E7               	bsf	_inPipes+2,7	;volatile
  6420                           
  6421                           ;usb_device.c: 2728:             break;
  6422  0C9A  2CE0               	goto	i1l461
  6423  0C9B                     i1l472:	
  6424                           ;usb_device.c: 2729:         case 11:
  6425                           
  6426                           
  6427                           ;usb_device.c: 2730:             inPipes[0].info.bits.busy = 1;
  6428  0C9B  17E7               	bsf	_inPipes+2,7	;volatile
  6429  0C9C                     i1l4630:
  6430                           
  6431                           ;usb_device.c: 2731:             USBAlternateInterface[SetupPkt.bIntfID] = SetupPkt.bAlt
      +                          ID;
  6432  0C9C  0842               	movf	66,w	;volatile
  6433  0C9D  00DD               	movwf	??_USBCheckStdRequest
  6434  0C9E  0844               	movf	68,w	;volatile
  6435  0C9F  3E69               	addlw	(low (_USBAlternateInterface| (0+256)))& (0+255)
  6436  0CA0  0086               	movwf	6
  6437  0CA1  3001               	movlw	1	; select bank2/3
  6438  0CA2  0087               	movwf	7
  6439  0CA3  085D               	movf	??_USBCheckStdRequest,w
  6440  0CA4  0081               	movwf	1
  6441                           
  6442                           ;usb_device.c: 2732:             break;
  6443  0CA5  2CE0               	goto	i1l461
  6444  0CA6                     i1l4632:
  6445                           
  6446                           ;usb_device.c: 2734:             USER_USB_CALLBACK_EVENT_HANDLER((USB_EVENT)EVENT_SET_DE
      +                          SCRIPTOR,0,0);
  6447  0CA6  3002               	movlw	2
  6448  0CA7  00D0               	movwf	USER_USB_CALLBACK_EVENT_HANDLER@event
  6449  0CA8  3000               	movlw	0
  6450  0CA9  00D1               	movwf	USER_USB_CALLBACK_EVENT_HANDLER@event+1
  6451  0CAA  3000               	movlw	0
  6452  0CAB  00D2               	movwf	USER_USB_CALLBACK_EVENT_HANDLER@pdata
  6453  0CAC  3000               	movlw	0
  6454  0CAD  00D3               	movwf	USER_USB_CALLBACK_EVENT_HANDLER@pdata+1
  6455  0CAE  3000               	movlw	0
  6456  0CAF  00D4               	movwf	USER_USB_CALLBACK_EVENT_HANDLER@size
  6457  0CB0  00D5               	movwf	USER_USB_CALLBACK_EVENT_HANDLER@size+1
  6458  0CB1  318A  22D4  318C   	fcall	_USER_USB_CALLBACK_EVENT_HANDLER
  6459                           
  6460                           ;usb_device.c: 2735:             break;
  6461  0CB4  2CE0               	goto	i1l461
  6462  0CB5                     i1l4636:
  6463  0CB5  0841               	movf	65,w	;volatile
  6464  0CB6  00DD               	movwf	??_USBCheckStdRequest
  6465  0CB7  01DE               	clrf	??_USBCheckStdRequest+1
  6466                           
  6467                           ; Switch on 2 bytes has been partitioned into a top level switch of size 1, and 1 sub-sw
      +                          itches
  6468                           ; Switch size 1, requested type "simple"
  6469                           ; Number of cases is 1, Range of values is 0 to 0
  6470                           ; switch strategies available:
  6471                           ; Name         Instructions Cycles
  6472                           ; simple_byte            4     3 (average)
  6473                           ; direct_byte            8     6 (fixed)
  6474                           ; jumptable            260     6 (fixed)
  6475                           ;	Chosen strategy is simple_byte
  6476  0CB8  085E               	movf	??_USBCheckStdRequest+1,w
  6477  0CB9  3A00               	xorlw	0	; case 0
  6478  0CBA  1903               	skipnz
  6479  0CBB  2CBD               	goto	i1l5112
  6480  0CBC  2CE0               	goto	i1l461
  6481  0CBD                     i1l5112:
  6482                           
  6483                           ; Switch size 1, requested type "simple"
  6484                           ; Number of cases is 11, Range of values is 0 to 12
  6485                           ; switch strategies available:
  6486                           ; Name         Instructions Cycles
  6487                           ; direct_byte           32     6 (fixed)
  6488                           ; simple_byte           34    18 (average)
  6489                           ; jumptable            260     6 (fixed)
  6490                           ;	Chosen strategy is simple_byte
  6491  0CBD  085D               	movf	??_USBCheckStdRequest,w
  6492  0CBE  3A00               	xorlw	0	; case 0
  6493  0CBF  1903               	skipnz
  6494  0CC0  2C87               	goto	i1l4618
  6495  0CC1  3A01               	xorlw	1	; case 1
  6496  0CC2  1903               	skipnz
  6497  0CC3  2C8B               	goto	i1l4620
  6498  0CC4  3A02               	xorlw	2	; case 3
  6499  0CC5  1903               	skipnz
  6500  0CC6  2C8B               	goto	i1l4620
  6501  0CC7  3A06               	xorlw	6	; case 5
  6502  0CC8  1903               	skipnz
  6503  0CC9  2C6D               	goto	i1l463
  6504  0CCA  3A03               	xorlw	3	; case 6
  6505  0CCB  1903               	skipnz
  6506  0CCC  2C74               	goto	i1l4606
  6507  0CCD  3A01               	xorlw	1	; case 7
  6508  0CCE  1903               	skipnz
  6509  0CCF  2CA6               	goto	i1l4632
  6510  0CD0  3A0F               	xorlw	15	; case 8
  6511  0CD1  1903               	skipnz
  6512  0CD2  2C7C               	goto	i1l4610
  6513  0CD3  3A01               	xorlw	1	; case 9
  6514  0CD4  1903               	skipnz
  6515  0CD5  2C78               	goto	i1l4608
  6516  0CD6  3A03               	xorlw	3	; case 10
  6517  0CD7  1903               	skipnz
  6518  0CD8  2C8F               	goto	i1l4622
  6519  0CD9  3A01               	xorlw	1	; case 11
  6520  0CDA  1903               	skipnz
  6521  0CDB  2C9B               	goto	i1l472
  6522  0CDC  3A07               	xorlw	7	; case 12
  6523  0CDD  1903               	skipnz
  6524  0CDE  2CE0               	goto	i1l461
  6525  0CDF  2CE0               	goto	i1l461
  6526  0CE0                     i1l461:
  6527  0CE0  0008               	return
  6528  0CE1                     __end_of_USBCheckStdRequest:
  6529                           
  6530                           	psect	text25
  6531  0F76                     __ptext25:	
  6532 ;; *************** function _USBStdSetCfgHandler *****************
  6533 ;; Defined at:
  6534 ;;		line 1972 in file "usb_device.c"
  6535 ;; Parameters:    Size  Location     Type
  6536 ;;		None
  6537 ;; Auto vars:     Size  Location     Type
  6538 ;;  p               2    7[BANK0 ] PTR unsigned char 
  6539 ;;		 -> UEP1(1), 
  6540 ;;  i               1    9[BANK0 ] unsigned char 
  6541 ;;  i               1   10[BANK0 ] unsigned char 
  6542 ;; Return value:  Size  Location     Type
  6543 ;;                  1    wreg      void 
  6544 ;; Registers used:
  6545 ;;		wreg, fsr0l, fsr0h, fsr1l, fsr1h, status,2, status,0, pclath, cstack
  6546 ;; Tracked objects:
  6547 ;;		On entry : 0/0
  6548 ;;		On exit  : 0/0
  6549 ;;		Unchanged: 0/0
  6550 ;; Data sizes:     COMMON   BANK0   BANK1   BANK2   BANK3   BANK4   BANK5   BANK6   BANK7   BANK8   BANK9  BANK10  BANK1
      +1  BANK12
  6551 ;;      Params:         0       0       0       0       0       0       0       0       0       0       0       0       
      +0       0
  6552 ;;      Locals:         0       4       0       0       0       0       0       0       0       0       0       0       
      +0       0
  6553 ;;      Temps:          0       1       0       0       0       0       0       0       0       0       0       0       
      +0       0
  6554 ;;      Totals:         0       5       0       0       0       0       0       0       0       0       0       0       
      +0       0
  6555 ;;Total ram usage:        5 bytes
  6556 ;; Hardware stack levels used: 1
  6557 ;; Hardware stack levels required when called: 4
  6558 ;; This function calls:
  6559 ;;		_USER_USB_CALLBACK_EVENT_HANDLER
  6560 ;;		_memset
  6561 ;; This function is called by:
  6562 ;;		_USBCheckStdRequest
  6563 ;; This function uses a non-reentrant model
  6564 ;;
  6565                           
  6566  0F76                     _USBStdSetCfgHandler:	
  6567                           ;psect for function _USBStdSetCfgHandler
  6568                           
  6569  0F76                     i1l4548:	
  6570                           ;incstack = 0
  6571                           ; Regs used in _USBStdSetCfgHandler: [wreg-fsr1h+status,2+status,0+pclath+cstack]
  6572                           
  6573                           
  6574                           ;usb_device.c: 1974:     uint8_t i;;usb_device.c: 1977:     inPipes[0].info.bits.busy = 
      +                          1;
  6575  0F76  0020               	movlb	0	; select bank0
  6576  0F77  17E7               	bsf	_inPipes+2,7	;volatile
  6577                           
  6578                           ;usb_device.c: 1980:     { uint8_t i; uint8_t* p = (uint8_t*)&UEP1; for(i=0;i<1;i++) *p+
      +                          + = 0; };
  6579  0F78  300E               	movlw	14
  6580  0F79  00D8               	movwf	USBStdSetCfgHandler@p+1
  6581  0F7A  3099               	movlw	153
  6582  0F7B  00D7               	movwf	USBStdSetCfgHandler@p
  6583  0F7C                     i1l4550:
  6584  0F7C  01D9               	clrf	USBStdSetCfgHandler@i_1619
  6585  0F7D                     i1l4556:
  6586  0F7D  0857               	movf	USBStdSetCfgHandler@p,w
  6587  0F7E  0086               	movwf	6
  6588  0F7F  0858               	movf	USBStdSetCfgHandler@p+1,w
  6589  0F80  0087               	movwf	7
  6590  0F81  0181               	clrf	1
  6591  0F82                     i1l4558:
  6592  0F82  3001               	movlw	1
  6593  0F83  07D7               	addwf	USBStdSetCfgHandler@p,f
  6594  0F84  3000               	movlw	0
  6595  0F85  3DD8               	addwfc	USBStdSetCfgHandler@p+1,f
  6596  0F86                     i1l4560:
  6597  0F86  3001               	movlw	1
  6598  0F87  00D6               	movwf	??_USBStdSetCfgHandler
  6599  0F88  0856               	movf	??_USBStdSetCfgHandler,w
  6600  0F89  07D9               	addwf	USBStdSetCfgHandler@i_1619,f
  6601  0F8A                     i1l4562:
  6602  0F8A  0859               	movf	USBStdSetCfgHandler@i_1619,w
  6603  0F8B  1903               	btfsc	3,2
  6604  0F8C  2F8E               	goto	u300_21
  6605  0F8D  2F8F               	goto	u300_20
  6606  0F8E                     u300_21:
  6607  0F8E  2F7D               	goto	i1l4556
  6608  0F8F                     u300_20:
  6609  0F8F                     i1l4564:
  6610                           
  6611                           ;usb_device.c: 1983:     memset((void*)&BDT[0], 0x00, sizeof(BDT));
  6612  0F8F  3020               	movlw	32
  6613  0F90  00F0               	movwf	memset@dest
  6614  0F91  3000               	movlw	0
  6615  0F92  00F1               	movwf	memset@dest+1
  6616  0F93  3000               	movlw	0
  6617  0F94  00F2               	movwf	memset@c
  6618  0F95  00F3               	movwf	memset@c+1
  6619  0F96  3020               	movlw	32
  6620  0F97  00F4               	movwf	memset@n
  6621  0F98  3000               	movlw	0
  6622  0F99  00F5               	movwf	memset@n+1
  6623  0F9A  3183  2389  318F   	fcall	_memset
  6624  0F9D                     i1l4566:
  6625                           
  6626                           ;usb_device.c: 1986:     UCONbits.PPBRST = 1;
  6627  0F9D  003D               	movlb	29	; select bank29
  6628  0F9E  170E               	bsf	14,6	;volatile
  6629  0F9F                     i1l4568:
  6630                           
  6631                           ;usb_device.c: 1991:  for(i = 0; i < (uint8_t)(1 +1u); i++)
  6632  0F9F  0020               	movlb	0	; select bank0
  6633  0FA0  01DA               	clrf	USBStdSetCfgHandler@i
  6634  0FA1                     i1l4574:
  6635                           
  6636                           ;usb_device.c: 1992:  {;usb_device.c: 1993:   ep_data_in[i].Val = 0u;
  6637  0FA1  085A               	movf	USBStdSetCfgHandler@i,w
  6638  0FA2  3E62               	addlw	(low (_ep_data_in| (0+256)))& (0+255)
  6639  0FA3  0086               	movwf	6
  6640  0FA4  3001               	movlw	1	; select bank2/3
  6641  0FA5  0087               	movwf	7
  6642  0FA6  0181               	clrf	1
  6643                           
  6644                           ;usb_device.c: 1994:         ep_data_out[i].Val = 0u;
  6645  0FA7  085A               	movf	USBStdSetCfgHandler@i,w
  6646  0FA8  3E60               	addlw	(low (_ep_data_out| (0+256)))& (0+255)
  6647  0FA9  0086               	movwf	6
  6648  0FAA  3001               	movlw	1	; select bank2/3
  6649  0FAB  0087               	movwf	7
  6650  0FAC  0181               	clrf	1
  6651  0FAD                     i1l4576:
  6652                           
  6653                           ;usb_device.c: 1995:  }
  6654  0FAD  3001               	movlw	1
  6655  0FAE  00D6               	movwf	??_USBStdSetCfgHandler
  6656  0FAF  0856               	movf	??_USBStdSetCfgHandler,w
  6657  0FB0  07DA               	addwf	USBStdSetCfgHandler@i,f
  6658  0FB1                     i1l4578:
  6659  0FB1  3002               	movlw	2
  6660  0FB2  025A               	subwf	USBStdSetCfgHandler@i,w
  6661  0FB3  1C03               	skipc
  6662  0FB4  2FB6               	goto	u301_21
  6663  0FB5  2FB7               	goto	u301_20
  6664  0FB6                     u301_21:
  6665  0FB6  2FA1               	goto	i1l4574
  6666  0FB7                     u301_20:
  6667  0FB7                     i1l4580:
  6668                           
  6669                           ;usb_device.c: 1998:     memset((void*)&USBAlternateInterface,0x00,1);
  6670  0FB7  3069               	movlw	low _USBAlternateInterface
  6671  0FB8  00F0               	movwf	memset@dest
  6672  0FB9  3001               	movlw	high _USBAlternateInterface
  6673  0FBA  00F1               	movwf	memset@dest+1
  6674  0FBB  3000               	movlw	0
  6675  0FBC  00F2               	movwf	memset@c
  6676  0FBD  00F3               	movwf	memset@c+1
  6677  0FBE  3001               	movlw	1
  6678  0FBF  00F4               	movwf	memset@n
  6679  0FC0  3000               	movlw	0
  6680  0FC1  00F5               	movwf	memset@n+1
  6681  0FC2  3183  2389  318F   	fcall	_memset
  6682  0FC5                     i1l4582:
  6683                           
  6684                           ;usb_device.c: 2001:     UCONbits.PPBRST = 0;
  6685  0FC5  003D               	movlb	29	; select bank29
  6686  0FC6  130E               	bcf	14,6	;volatile
  6687  0FC7                     i1l4584:
  6688                           
  6689                           ;usb_device.c: 2003:     pBDTEntryIn[0] = (volatile BDT_ENTRY*)&BDT[2];
  6690  0FC7  3028               	movlw	40
  6691  0FC8  0020               	movlb	0	; select bank0
  6692  0FC9  00EA               	movwf	_pBDTEntryIn
  6693  0FCA  3000               	movlw	0
  6694  0FCB  00EB               	movwf	_pBDTEntryIn+1
  6695  0FCC                     i1l4586:
  6696                           
  6697                           ;usb_device.c: 2006:     pBDTEntryEP0OutCurrent = (volatile BDT_ENTRY*)&BDT[0];
  6698  0FCC  3020               	movlw	32
  6699  0FCD  00D6               	movwf	??_USBStdSetCfgHandler
  6700  0FCE  0856               	movf	??_USBStdSetCfgHandler,w
  6701  0FCF  0021               	movlb	1	; select bank1
  6702  0FD0  00EE               	movwf	_pBDTEntryEP0OutCurrent^(0+128)
  6703  0FD1                     i1l4588:
  6704                           
  6705                           ;usb_device.c: 2007:     pBDTEntryEP0OutNext = pBDTEntryEP0OutCurrent;
  6706  0FD1  086E               	movf	_pBDTEntryEP0OutCurrent^(0+128),w
  6707  0FD2  0020               	movlb	0	; select bank0
  6708  0FD3  00EE               	movwf	_pBDTEntryEP0OutNext
  6709  0FD4  39FF               	andlw	255
  6710  0FD5  1D03               	skipz
  6711  0FD6  3000               	movlw	0
  6712  0FD7  00EF               	movwf	_pBDTEntryEP0OutNext+1
  6713  0FD8                     i1l4590:
  6714                           
  6715                           ;usb_device.c: 2010:     USBActiveConfiguration = SetupPkt.bConfigurationValue;
  6716  0FD8  0842               	movf	66,w	;volatile
  6717  0FD9  00D6               	movwf	??_USBStdSetCfgHandler
  6718  0FDA  0856               	movf	??_USBStdSetCfgHandler,w
  6719  0FDB  0022               	movlb	2	; select bank2
  6720  0FDC  00EA               	movwf	_USBActiveConfiguration^(0+256)	;volatile
  6721  0FDD                     i1l4592:
  6722                           
  6723                           ;usb_device.c: 2013:     if(USBActiveConfiguration == 0)
  6724  0FDD  086A               	movf	_USBActiveConfiguration^(0+256),w	;volatile
  6725  0FDE  1D03               	btfss	3,2
  6726  0FDF  2FE1               	goto	u302_21
  6727  0FE0  2FE2               	goto	u302_20
  6728  0FE1                     u302_21:
  6729  0FE1  2FE9               	goto	i1l4596
  6730  0FE2                     u302_20:
  6731  0FE2                     i1l4594:
  6732                           
  6733                           ;usb_device.c: 2014:     {;usb_device.c: 2016:         USBDeviceState = ADDRESS_STATE;
  6734  0FE2  3010               	movlw	16
  6735  0FE3  0020               	movlb	0	; select bank0
  6736  0FE4  00D6               	movwf	??_USBStdSetCfgHandler
  6737  0FE5  0856               	movf	??_USBStdSetCfgHandler,w
  6738  0FE6  0022               	movlb	2	; select bank2
  6739  0FE7  00E8               	movwf	_USBDeviceState^(0+256)	;volatile
  6740                           
  6741                           ;usb_device.c: 2017:     }
  6742  0FE8  2FFF               	goto	i1l382
  6743  0FE9                     i1l4596:
  6744                           
  6745                           ;usb_device.c: 2019:     {;usb_device.c: 2021:         USER_USB_CALLBACK_EVENT_HANDLER((
      +                          USB_EVENT)EVENT_CONFIGURED,(void*)&USBActiveConfiguration,1);
  6746  0FE9  3001               	movlw	1
  6747  0FEA  0020               	movlb	0	; select bank0
  6748  0FEB  00D0               	movwf	USER_USB_CALLBACK_EVENT_HANDLER@event
  6749  0FEC  3000               	movlw	0
  6750  0FED  00D1               	movwf	USER_USB_CALLBACK_EVENT_HANDLER@event+1
  6751  0FEE  306A               	movlw	low _USBActiveConfiguration
  6752  0FEF  00D2               	movwf	USER_USB_CALLBACK_EVENT_HANDLER@pdata
  6753  0FF0  3001               	movlw	high _USBActiveConfiguration
  6754  0FF1  00D3               	movwf	USER_USB_CALLBACK_EVENT_HANDLER@pdata+1
  6755  0FF2  3001               	movlw	1
  6756  0FF3  00D4               	movwf	USER_USB_CALLBACK_EVENT_HANDLER@size
  6757  0FF4  3000               	movlw	0
  6758  0FF5  00D5               	movwf	USER_USB_CALLBACK_EVENT_HANDLER@size+1
  6759  0FF6  318A  22D4  318F   	fcall	_USER_USB_CALLBACK_EVENT_HANDLER
  6760  0FF9                     i1l4598:
  6761                           
  6762                           ;usb_device.c: 2026:         USBDeviceState = CONFIGURED_STATE;
  6763  0FF9  3020               	movlw	32
  6764  0FFA  0020               	movlb	0	; select bank0
  6765  0FFB  00D6               	movwf	??_USBStdSetCfgHandler
  6766  0FFC  0856               	movf	??_USBStdSetCfgHandler,w
  6767  0FFD  0022               	movlb	2	; select bank2
  6768  0FFE  00E8               	movwf	_USBDeviceState^(0+256)	;volatile
  6769  0FFF                     i1l382:
  6770  0FFF  0008               	return
  6771  1000                     __end_of_USBStdSetCfgHandler:
  6772                           
  6773                           	psect	text26
  6774  0389                     __ptext26:	
  6775 ;; *************** function _memset *****************
  6776 ;; Defined at:
  6777 ;;		line 4 in file "C:\Program Files\Microchip\xc8\v2.35\pic\sources\c99\common\memset.c"
  6778 ;; Parameters:    Size  Location     Type
  6779 ;;  dest            2    0[COMMON] PTR void 
  6780 ;;		 -> USBAlternateInterface(1), BDT(32), 
  6781 ;;  c               2    2[COMMON] int 
  6782 ;;  n               2    4[COMMON] unsigned int 
  6783 ;; Auto vars:     Size  Location     Type
  6784 ;;  s               2   12[COMMON] PTR unsigned char 
  6785 ;;		 -> USBAlternateInterface(1), BDT(32), 
  6786 ;;  k               2   10[COMMON] unsigned int 
  6787 ;; Return value:  Size  Location     Type
  6788 ;;                  2    0[COMMON] PTR void 
  6789 ;; Registers used:
  6790 ;;		wreg, fsr1l, fsr1h, status,2, status,0
  6791 ;; Tracked objects:
  6792 ;;		On entry : 0/0
  6793 ;;		On exit  : 0/0
  6794 ;;		Unchanged: 0/0
  6795 ;; Data sizes:     COMMON   BANK0   BANK1   BANK2   BANK3   BANK4   BANK5   BANK6   BANK7   BANK8   BANK9  BANK10  BANK1
      +1  BANK12
  6796 ;;      Params:         6       0       0       0       0       0       0       0       0       0       0       0       
      +0       0
  6797 ;;      Locals:         4       0       0       0       0       0       0       0       0       0       0       0       
      +0       0
  6798 ;;      Temps:          4       0       0       0       0       0       0       0       0       0       0       0       
      +0       0
  6799 ;;      Totals:        14       0       0       0       0       0       0       0       0       0       0       0       
      +0       0
  6800 ;;Total ram usage:       14 bytes
  6801 ;; Hardware stack levels used: 1
  6802 ;; This function calls:
  6803 ;;		Nothing
  6804 ;; This function is called by:
  6805 ;;		_USBStdSetCfgHandler
  6806 ;; This function uses a non-reentrant model
  6807 ;;
  6808                           
  6809  0389                     _memset:	
  6810                           ;psect for function _memset
  6811                           
  6812  0389                     i1l4506:	
  6813                           ;incstack = 0
  6814                           ; Regs used in _memset: [wreg+fsr1l+fsr1h+status,2+status,0]
  6815                           
  6816  0389  0871               	movf	memset@dest+1,w
  6817  038A  00FD               	movwf	memset@s+1
  6818  038B  0870               	movf	memset@dest,w
  6819  038C  00FC               	movwf	memset@s
  6820  038D                     i1l4508:
  6821  038D  0874               	movf	memset@n,w
  6822  038E  0475               	iorwf	memset@n+1,w
  6823  038F  1D03               	btfss	3,2
  6824  0390  2B92               	goto	u295_21
  6825  0391  2B93               	goto	u295_20
  6826  0392                     u295_21:
  6827  0392  2B94               	goto	i1l4512
  6828  0393                     u295_20:
  6829  0393  2C52               	goto	i1l1158
  6830  0394                     i1l4512:
  6831  0394  087C               	movf	memset@s,w
  6832  0395  0086               	movwf	6
  6833  0396  087D               	movf	memset@s+1,w
  6834  0397  0087               	movwf	7
  6835  0398  0872               	movf	memset@c,w
  6836  0399  0081               	movwf	1
  6837  039A                     i1l4514:
  6838  039A  0874               	movf	memset@n,w
  6839  039B  077C               	addwf	memset@s,w
  6840  039C  00F6               	movwf	??_memset
  6841  039D  0875               	movf	memset@n+1,w
  6842  039E  3D7D               	addwfc	memset@s+1,w
  6843  039F  00F7               	movwf	??_memset+1
  6844  03A0  0876               	movf	??_memset,w
  6845  03A1  3EFF               	addlw	255
  6846  03A2  00F8               	movwf	??_memset+2
  6847  03A3  30FF               	movlw	255
  6848  03A4  3D77               	addwfc	??_memset+1,w
  6849  03A5  00F9               	movwf	??_memset+3
  6850  03A6  0878               	movf	??_memset+2,w
  6851  03A7  0086               	movwf	6
  6852  03A8  0879               	movf	??_memset+3,w
  6853  03A9  0087               	movwf	7
  6854  03AA  0872               	movf	memset@c,w
  6855  03AB  0081               	movwf	1
  6856  03AC                     i1l4516:
  6857  03AC  3000               	movlw	0
  6858  03AD  0275               	subwf	memset@n+1,w
  6859  03AE  3003               	movlw	3
  6860  03AF  1903               	skipnz
  6861  03B0  0274               	subwf	memset@n,w
  6862  03B1  1803               	skipnc
  6863  03B2  2BB4               	goto	u296_21
  6864  03B3  2BB5               	goto	u296_20
  6865  03B4                     u296_21:
  6866  03B4  2BB6               	goto	i1l4520
  6867  03B5                     u296_20:
  6868  03B5  2C52               	goto	i1l1158
  6869  03B6                     i1l4520:
  6870  03B6  087C               	movf	memset@s,w
  6871  03B7  3E01               	addlw	1
  6872  03B8  00F6               	movwf	??_memset
  6873  03B9  3000               	movlw	0
  6874  03BA  3D7D               	addwfc	memset@s+1,w
  6875  03BB  00F7               	movwf	??_memset+1
  6876  03BC  0876               	movf	??_memset,w
  6877  03BD  0086               	movwf	6
  6878  03BE  0877               	movf	??_memset+1,w
  6879  03BF  0087               	movwf	7
  6880  03C0  0872               	movf	memset@c,w
  6881  03C1  0081               	movwf	1
  6882  03C2  087C               	movf	memset@s,w
  6883  03C3  3E02               	addlw	2
  6884  03C4  00F6               	movwf	??_memset
  6885  03C5  3000               	movlw	0
  6886  03C6  3D7D               	addwfc	memset@s+1,w
  6887  03C7  00F7               	movwf	??_memset+1
  6888  03C8  0876               	movf	??_memset,w
  6889  03C9  0086               	movwf	6
  6890  03CA  0877               	movf	??_memset+1,w
  6891  03CB  0087               	movwf	7
  6892  03CC  0872               	movf	memset@c,w
  6893  03CD  0081               	movwf	1
  6894  03CE  0874               	movf	memset@n,w
  6895  03CF  077C               	addwf	memset@s,w
  6896  03D0  00F6               	movwf	??_memset
  6897  03D1  0875               	movf	memset@n+1,w
  6898  03D2  3D7D               	addwfc	memset@s+1,w
  6899  03D3  00F7               	movwf	??_memset+1
  6900  03D4  0876               	movf	??_memset,w
  6901  03D5  3EFE               	addlw	254
  6902  03D6  00F8               	movwf	??_memset+2
  6903  03D7  30FF               	movlw	255
  6904  03D8  3D77               	addwfc	??_memset+1,w
  6905  03D9  00F9               	movwf	??_memset+3
  6906  03DA  0878               	movf	??_memset+2,w
  6907  03DB  0086               	movwf	6
  6908  03DC  0879               	movf	??_memset+3,w
  6909  03DD  0087               	movwf	7
  6910  03DE  0872               	movf	memset@c,w
  6911  03DF  0081               	movwf	1
  6912  03E0  0874               	movf	memset@n,w
  6913  03E1  077C               	addwf	memset@s,w
  6914  03E2  00F6               	movwf	??_memset
  6915  03E3  0875               	movf	memset@n+1,w
  6916  03E4  3D7D               	addwfc	memset@s+1,w
  6917  03E5  00F7               	movwf	??_memset+1
  6918  03E6  0876               	movf	??_memset,w
  6919  03E7  3EFD               	addlw	253
  6920  03E8  00F8               	movwf	??_memset+2
  6921  03E9  30FF               	movlw	255
  6922  03EA  3D77               	addwfc	??_memset+1,w
  6923  03EB  00F9               	movwf	??_memset+3
  6924  03EC  0878               	movf	??_memset+2,w
  6925  03ED  0086               	movwf	6
  6926  03EE  0879               	movf	??_memset+3,w
  6927  03EF  0087               	movwf	7
  6928  03F0  0872               	movf	memset@c,w
  6929  03F1  0081               	movwf	1
  6930  03F2                     i1l4522:
  6931  03F2  3000               	movlw	0
  6932  03F3  0275               	subwf	memset@n+1,w
  6933  03F4  3007               	movlw	7
  6934  03F5  1903               	skipnz
  6935  03F6  0274               	subwf	memset@n,w
  6936  03F7  1803               	skipnc
  6937  03F8  2BFA               	goto	u297_21
  6938  03F9  2BFB               	goto	u297_20
  6939  03FA                     u297_21:
  6940  03FA  2BFC               	goto	i1l4526
  6941  03FB                     u297_20:
  6942  03FB  2C52               	goto	i1l1158
  6943  03FC                     i1l4526:
  6944  03FC  087C               	movf	memset@s,w
  6945  03FD  3E03               	addlw	3
  6946  03FE  00F6               	movwf	??_memset
  6947  03FF  3000               	movlw	0
  6948  0400  3D7D               	addwfc	memset@s+1,w
  6949  0401  00F7               	movwf	??_memset+1
  6950  0402  0876               	movf	??_memset,w
  6951  0403  0086               	movwf	6
  6952  0404  0877               	movf	??_memset+1,w
  6953  0405  0087               	movwf	7
  6954  0406  0872               	movf	memset@c,w
  6955  0407  0081               	movwf	1
  6956  0408  0874               	movf	memset@n,w
  6957  0409  077C               	addwf	memset@s,w
  6958  040A  00F6               	movwf	??_memset
  6959  040B  0875               	movf	memset@n+1,w
  6960  040C  3D7D               	addwfc	memset@s+1,w
  6961  040D  00F7               	movwf	??_memset+1
  6962  040E  0876               	movf	??_memset,w
  6963  040F  3EFC               	addlw	252
  6964  0410  00F8               	movwf	??_memset+2
  6965  0411  30FF               	movlw	255
  6966  0412  3D77               	addwfc	??_memset+1,w
  6967  0413  00F9               	movwf	??_memset+3
  6968  0414  0878               	movf	??_memset+2,w
  6969  0415  0086               	movwf	6
  6970  0416  0879               	movf	??_memset+3,w
  6971  0417  0087               	movwf	7
  6972  0418  0872               	movf	memset@c,w
  6973  0419  0081               	movwf	1
  6974  041A                     i1l4528:
  6975  041A  3000               	movlw	0
  6976  041B  0275               	subwf	memset@n+1,w
  6977  041C  3009               	movlw	9
  6978  041D  1903               	skipnz
  6979  041E  0274               	subwf	memset@n,w
  6980  041F  1803               	skipnc
  6981  0420  2C22               	goto	u298_21
  6982  0421  2C23               	goto	u298_20
  6983  0422                     u298_21:
  6984  0422  2C24               	goto	i1l4532
  6985  0423                     u298_20:
  6986  0423  2C52               	goto	i1l1158
  6987  0424                     i1l4532:
  6988  0424  097C               	comf	memset@s,w
  6989  0425  00F6               	movwf	??_memset
  6990  0426  097D               	comf	memset@s+1,w
  6991  0427  00F7               	movwf	??_memset+1
  6992  0428  0AF6               	incf	??_memset,f
  6993  0429  1903               	skipnz
  6994  042A  0AF7               	incf	??_memset+1,f
  6995  042B  3003               	movlw	3
  6996  042C  0576               	andwf	??_memset,w
  6997  042D  00FA               	movwf	memset@k
  6998  042E  3000               	movlw	0
  6999  042F  0577               	andwf	??_memset+1,w
  7000  0430  00FB               	movwf	memset@k+1
  7001  0431                     i1l4534:
  7002  0431  087A               	movf	memset@k,w
  7003  0432  07FC               	addwf	memset@s,f
  7004  0433  087B               	movf	memset@k+1,w
  7005  0434  3DFD               	addwfc	memset@s+1,f
  7006  0435                     i1l4536:
  7007  0435  087A               	movf	memset@k,w
  7008  0436  02F4               	subwf	memset@n,f
  7009  0437  087B               	movf	memset@k+1,w
  7010  0438  3BF5               	subwfb	memset@n+1,f
  7011  0439                     i1l4538:
  7012  0439  30FC               	movlw	252
  7013  043A  05F4               	andwf	memset@n,f
  7014  043B  30FF               	movlw	255
  7015  043C  05F5               	andwf	memset@n+1,f
  7016  043D  2C4C               	goto	i1l4546
  7017  043E                     i1l4540:
  7018  043E  087C               	movf	memset@s,w
  7019  043F  0086               	movwf	6
  7020  0440  087D               	movf	memset@s+1,w
  7021  0441  0087               	movwf	7
  7022  0442  0872               	movf	memset@c,w
  7023  0443  0081               	movwf	1
  7024  0444                     i1l4542:
  7025  0444  3001               	movlw	1
  7026  0445  02F4               	subwf	memset@n,f
  7027  0446  3000               	movlw	0
  7028  0447  3BF5               	subwfb	memset@n+1,f
  7029  0448                     i1l4544:
  7030  0448  3001               	movlw	1
  7031  0449  07FC               	addwf	memset@s,f
  7032  044A  3000               	movlw	0
  7033  044B  3DFD               	addwfc	memset@s+1,f
  7034  044C                     i1l4546:
  7035  044C  0874               	movf	memset@n,w
  7036  044D  0475               	iorwf	memset@n+1,w
  7037  044E  1D03               	btfss	3,2
  7038  044F  2C51               	goto	u299_21
  7039  0450  2C52               	goto	u299_20
  7040  0451                     u299_21:
  7041  0451  2C3E               	goto	i1l4540
  7042  0452                     u299_20:
  7043  0452                     i1l1158:
  7044  0452  0008               	return
  7045  0453                     __end_of_memset:
  7046                           
  7047                           	psect	text27
  7048  0B7F                     __ptext27:	
  7049 ;; *************** function _USBStdGetStatusHandler *****************
  7050 ;; Defined at:
  7051 ;;		line 2133 in file "usb_device.c"
  7052 ;; Parameters:    Size  Location     Type
  7053 ;;		None
  7054 ;; Auto vars:     Size  Location     Type
  7055 ;;  p               2    2[COMMON] PTR struct __BDT
  7056 ;;		 -> RAM(4096), BDT(32), NULL(0), 
  7057 ;; Return value:  Size  Location     Type
  7058 ;;                  1    wreg      void 
  7059 ;; Registers used:
  7060 ;;		wreg, fsr0l, fsr0h, fsr1l, fsr1h, status,2, status,0
  7061 ;; Tracked objects:
  7062 ;;		On entry : 0/0
  7063 ;;		On exit  : 0/0
  7064 ;;		Unchanged: 0/0
  7065 ;; Data sizes:     COMMON   BANK0   BANK1   BANK2   BANK3   BANK4   BANK5   BANK6   BANK7   BANK8   BANK9  BANK10  BANK1
      +1  BANK12
  7066 ;;      Params:         0       0       0       0       0       0       0       0       0       0       0       0       
      +0       0
  7067 ;;      Locals:         2       0       0       0       0       0       0       0       0       0       0       0       
      +0       0
  7068 ;;      Temps:          2       0       0       0       0       0       0       0       0       0       0       0       
      +0       0
  7069 ;;      Totals:         4       0       0       0       0       0       0       0       0       0       0       0       
      +0       0
  7070 ;;Total ram usage:        4 bytes
  7071 ;; Hardware stack levels used: 1
  7072 ;; This function calls:
  7073 ;;		Nothing
  7074 ;; This function is called by:
  7075 ;;		_USBCheckStdRequest
  7076 ;; This function uses a non-reentrant model
  7077 ;;
  7078                           
  7079  0B7F                     _USBStdGetStatusHandler:	
  7080                           ;psect for function _USBStdGetStatusHandler
  7081                           
  7082  0B7F                     i1l3294:	
  7083                           ;incstack = 0
  7084                           ; Regs used in _USBStdGetStatusHandler: [wreg-fsr1h+status,2+status,0]
  7085                           
  7086                           
  7087                           ;usb_device.c: 2135:     CtrlTrfData[0] = 0;
  7088  0B7F  0020               	movlb	0	; select bank0
  7089  0B80  01C8               	clrf	72	;volatile
  7090                           
  7091                           ;usb_device.c: 2136:     CtrlTrfData[1] = 0;
  7092  0B81  01C9               	clrf	73	;volatile
  7093                           
  7094                           ;usb_device.c: 2138:     switch(SetupPkt.Recipient)
  7095  0B82  2BC6               	goto	i1l3318
  7096  0B83                     i1l400:	
  7097                           ;usb_device.c: 2139:     {;usb_device.c: 2140:         case (0x00):
  7098                           
  7099                           
  7100                           ;usb_device.c: 2141:             inPipes[0].info.bits.busy = 1;
  7101  0B83  17E7               	bsf	_inPipes+2,7	;volatile
  7102  0B84                     i1l3298:	
  7103                           ;usb_device.c: 2146:             if(0 == 1)
  7104                           
  7105                           
  7106                           ;usb_device.c: 2151:             if(RemoteWakeup == 1)
  7107  0B84  0023               	movlb	3	; select bank3
  7108  0B85  033A               	decf	_RemoteWakeup^(0+384),w	;volatile
  7109  0B86  1D03               	btfss	3,2
  7110  0B87  2B89               	goto	u182_21
  7111  0B88  2B8A               	goto	u182_20
  7112  0B89                     u182_21:
  7113  0B89  2BDA               	goto	i1l403
  7114  0B8A                     u182_20:
  7115  0B8A                     i1l3300:
  7116                           
  7117                           ;usb_device.c: 2152:             {;usb_device.c: 2153:                 CtrlTrfData[0]|=0
      +                          x02;
  7118  0B8A  0020               	movlb	0	; select bank0
  7119  0B8B  14C8               	bsf	72,1	;volatile
  7120  0B8C  2BDA               	goto	i1l403
  7121  0B8D                     i1l404:	
  7122                           ;usb_device.c: 2156:         case (0x01):
  7123                           
  7124                           
  7125                           ;usb_device.c: 2157:             inPipes[0].info.bits.busy = 1;
  7126  0B8D  17E7               	bsf	_inPipes+2,7	;volatile
  7127                           
  7128                           ;usb_device.c: 2158:             break;
  7129  0B8E  2BDA               	goto	i1l403
  7130  0B8F                     i1l405:	
  7131                           ;usb_device.c: 2159:         case (0x02):
  7132                           
  7133                           
  7134                           ;usb_device.c: 2160:             inPipes[0].info.bits.busy = 1;
  7135  0B8F  17E7               	bsf	_inPipes+2,7	;volatile
  7136  0B90                     i1l3302:
  7137                           
  7138                           ;usb_device.c: 2164:             if(SetupPkt.EPNum != 0)
  7139  0B90  0844               	movf	68,w	;volatile
  7140  0B91  390F               	andlw	15
  7141  0B92  3A00               	xorlw	0
  7142  0B93  1903               	skipnz
  7143  0B94  2B96               	goto	u183_21
  7144  0B95  2B97               	goto	u183_20
  7145  0B96                     u183_21:
  7146  0B96  2BDA               	goto	i1l403
  7147  0B97                     u183_20:
  7148  0B97                     i1l3304:
  7149                           
  7150                           ;usb_device.c: 2165:             {;usb_device.c: 2166:                 BDT_ENTRY *p;;usb
      +                          _device.c: 2168:                 if(SetupPkt.EPDir == 0)
  7151  0B97  1BC4               	btfsc	68,7	;volatile
  7152  0B98  2B9A               	goto	u184_21
  7153  0B99  2B9B               	goto	u184_20
  7154  0B9A                     u184_21:
  7155  0B9A  2BA7               	goto	i1l3308
  7156  0B9B                     u184_20:
  7157  0B9B                     i1l3306:
  7158                           
  7159                           ;usb_device.c: 2169:                 {;usb_device.c: 2170:                     p = (BDT_
      +                          ENTRY*)pBDTEntryOut[SetupPkt.EPNum];
  7160  0B9B  0844               	movf	68,w	;volatile
  7161  0B9C  390F               	andlw	15
  7162  0B9D  0709               	addwf	9,w
  7163  0B9E  3EAB               	addlw	(low (_pBDTEntryOut| (0+256)))& (0+255)
  7164  0B9F  0086               	movwf	6
  7165  0BA0  3001               	movlw	1	; select bank3/4
  7166  0BA1  0087               	movwf	7
  7167  0BA2  3F40               	moviw [0]fsr1
  7168  0BA3  00F2               	movwf	USBStdGetStatusHandler@p
  7169  0BA4  3F41               	moviw [1]fsr1
  7170  0BA5  00F3               	movwf	USBStdGetStatusHandler@p+1
  7171                           
  7172                           ;usb_device.c: 2171:                 }
  7173  0BA6  2BB1               	goto	i1l3310
  7174  0BA7                     i1l3308:
  7175                           
  7176                           ;usb_device.c: 2173:                 {;usb_device.c: 2174:                     p = (BDT_
      +                          ENTRY*)pBDTEntryIn[SetupPkt.EPNum];
  7177  0BA7  0844               	movf	68,w	;volatile
  7178  0BA8  390F               	andlw	15
  7179  0BA9  0709               	addwf	9,w
  7180  0BAA  3E6A               	addlw	(low (_pBDTEntryIn| 0))& (0+255)
  7181  0BAB  0086               	movwf	6
  7182  0BAC  0187               	clrf	7
  7183  0BAD  3F40               	moviw [0]fsr1
  7184  0BAE  00F2               	movwf	USBStdGetStatusHandler@p
  7185  0BAF  3F41               	moviw [1]fsr1
  7186  0BB0  00F3               	movwf	USBStdGetStatusHandler@p+1
  7187  0BB1                     i1l3310:
  7188                           
  7189                           ;usb_device.c: 2177:                 if((p->STAT.UOWN == 1) && (p->STAT.BSTALL == 1))
  7190  0BB1  0872               	movf	USBStdGetStatusHandler@p,w
  7191  0BB2  0086               	movwf	6
  7192  0BB3  0873               	movf	USBStdGetStatusHandler@p+1,w
  7193  0BB4  0087               	movwf	7
  7194  0BB5  1F81               	btfss	1,7
  7195  0BB6  2BB8               	goto	u185_21
  7196  0BB7  2BB9               	goto	u185_20
  7197  0BB8                     u185_21:
  7198  0BB8  2BDA               	goto	i1l403
  7199  0BB9                     u185_20:
  7200  0BB9                     i1l3312:
  7201  0BB9  0872               	movf	USBStdGetStatusHandler@p,w
  7202  0BBA  0086               	movwf	6
  7203  0BBB  0873               	movf	USBStdGetStatusHandler@p+1,w
  7204  0BBC  0087               	movwf	7
  7205  0BBD  1D01               	btfss	1,2
  7206  0BBE  2BC0               	goto	u186_21
  7207  0BBF  2BC1               	goto	u186_20
  7208  0BC0                     u186_21:
  7209  0BC0  2BDA               	goto	i1l403
  7210  0BC1                     u186_20:
  7211  0BC1                     i1l3314:
  7212                           
  7213                           ;usb_device.c: 2178:                 {;usb_device.c: 2179:                     CtrlTrfDa
      +                          ta[0]=0x01;
  7214  0BC1  3001               	movlw	1
  7215  0BC2  00F0               	movwf	??_USBStdGetStatusHandler
  7216  0BC3  0870               	movf	??_USBStdGetStatusHandler,w
  7217  0BC4  00C8               	movwf	72	;volatile
  7218  0BC5  2BDA               	goto	i1l403
  7219  0BC6                     i1l3318:
  7220  0BC6  0840               	movf	64,w	;volatile
  7221  0BC7  391F               	andlw	31
  7222  0BC8  00F0               	movwf	??_USBStdGetStatusHandler
  7223  0BC9  01F1               	clrf	??_USBStdGetStatusHandler+1
  7224                           
  7225                           ; Switch on 2 bytes has been partitioned into a top level switch of size 1, and 1 sub-sw
      +                          itches
  7226                           ; Switch size 1, requested type "simple"
  7227                           ; Number of cases is 1, Range of values is 0 to 0
  7228                           ; switch strategies available:
  7229                           ; Name         Instructions Cycles
  7230                           ; simple_byte            4     3 (average)
  7231                           ; direct_byte            8     6 (fixed)
  7232                           ; jumptable            260     6 (fixed)
  7233                           ;	Chosen strategy is simple_byte
  7234  0BCA  0871               	movf	??_USBStdGetStatusHandler+1,w
  7235  0BCB  3A00               	xorlw	0	; case 0
  7236  0BCC  1903               	skipnz
  7237  0BCD  2BCF               	goto	i1l5114
  7238  0BCE  2BDA               	goto	i1l403
  7239  0BCF                     i1l5114:
  7240                           
  7241                           ; Switch size 1, requested type "simple"
  7242                           ; Number of cases is 3, Range of values is 0 to 2
  7243                           ; switch strategies available:
  7244                           ; Name         Instructions Cycles
  7245                           ; simple_byte           10     6 (average)
  7246                           ; direct_byte           12     6 (fixed)
  7247                           ; jumptable            260     6 (fixed)
  7248                           ;	Chosen strategy is simple_byte
  7249  0BCF  0870               	movf	??_USBStdGetStatusHandler,w
  7250  0BD0  3A00               	xorlw	0	; case 0
  7251  0BD1  1903               	skipnz
  7252  0BD2  2B83               	goto	i1l400
  7253  0BD3  3A01               	xorlw	1	; case 1
  7254  0BD4  1903               	skipnz
  7255  0BD5  2B8D               	goto	i1l404
  7256  0BD6  3A03               	xorlw	3	; case 2
  7257  0BD7  1903               	skipnz
  7258  0BD8  2B8F               	goto	i1l405
  7259  0BD9  2BDA               	goto	i1l403
  7260  0BDA                     i1l403:
  7261                           
  7262                           ;usb_device.c: 2185:     if(inPipes[0].info.bits.busy == 1)
  7263  0BDA  0020               	movlb	0	; select bank0
  7264  0BDB  1FE7               	btfss	_inPipes+2,7	;volatile
  7265  0BDC  2BDE               	goto	u187_21
  7266  0BDD  2BDF               	goto	u187_20
  7267  0BDE                     u187_21:
  7268  0BDE  2BE8               	goto	i1l411
  7269  0BDF                     u187_20:
  7270  0BDF                     i1l3320:
  7271                           
  7272                           ;usb_device.c: 2186:     {;usb_device.c: 2187:         inPipes[0].pSrc.bRam = (uint8_t*)
      +                          &CtrlTrfData;
  7273  0BDF  3048               	movlw	72
  7274  0BE0  00E5               	movwf	_inPipes	;volatile
  7275  0BE1  3000               	movlw	0
  7276  0BE2  00E6               	movwf	_inPipes+1	;volatile
  7277  0BE3                     i1l3322:
  7278                           
  7279                           ;usb_device.c: 2188:         inPipes[0].info.bits.ctrl_trf_mem = 0x01;
  7280  0BE3  1467               	bsf	_inPipes+2,0	;volatile
  7281  0BE4                     i1l3324:
  7282                           
  7283                           ;usb_device.c: 2189:         inPipes[0].wCount.v[0] = 2;
  7284  0BE4  3002               	movlw	2
  7285  0BE5  00F0               	movwf	??_USBStdGetStatusHandler
  7286  0BE6  0870               	movf	??_USBStdGetStatusHandler,w
  7287  0BE7  00E8               	movwf	_inPipes+3	;volatile
  7288  0BE8                     i1l411:
  7289  0BE8  0008               	return
  7290  0BE9                     __end_of_USBStdGetStatusHandler:
  7291                           
  7292                           	psect	text28
  7293  0DE4                     __ptext28:	
  7294 ;; *************** function _USBStdGetDscHandler *****************
  7295 ;; Defined at:
  7296 ;;		line 2047 in file "usb_device.c"
  7297 ;; Parameters:    Size  Location     Type
  7298 ;;		None
  7299 ;; Auto vars:     Size  Location     Type
  7300 ;;		None
  7301 ;; Return value:  Size  Location     Type
  7302 ;;                  1    wreg      void 
  7303 ;; Registers used:
  7304 ;;		wreg, fsr0l, fsr0h, status,2, status,0, pclath
  7305 ;; Tracked objects:
  7306 ;;		On entry : 0/0
  7307 ;;		On exit  : 0/0
  7308 ;;		Unchanged: 0/0
  7309 ;; Data sizes:     COMMON   BANK0   BANK1   BANK2   BANK3   BANK4   BANK5   BANK6   BANK7   BANK8   BANK9  BANK10  BANK1
      +1  BANK12
  7310 ;;      Params:         0       0       0       0       0       0       0       0       0       0       0       0       
      +0       0
  7311 ;;      Locals:         0       0       0       0       0       0       0       0       0       0       0       0       
      +0       0
  7312 ;;      Temps:          3       0       0       0       0       0       0       0       0       0       0       0       
      +0       0
  7313 ;;      Totals:         3       0       0       0       0       0       0       0       0       0       0       0       
      +0       0
  7314 ;;Total ram usage:        3 bytes
  7315 ;; Hardware stack levels used: 1
  7316 ;; This function calls:
  7317 ;;		Nothing
  7318 ;; This function is called by:
  7319 ;;		_USBCheckStdRequest
  7320 ;; This function uses a non-reentrant model
  7321 ;;
  7322                           
  7323  0DE4                     _USBStdGetDscHandler:	
  7324                           ;psect for function _USBStdGetDscHandler
  7325                           
  7326  0DE4                     i1l3258:	
  7327                           ;incstack = 0
  7328                           ; Regs used in _USBStdGetDscHandler: [wreg-fsr0h+status,2+status,0+pclath]
  7329                           
  7330                           
  7331                           ;usb_device.c: 2049:     if(SetupPkt.bmRequestType == 0x80)
  7332  0DE4  3080               	movlw	128
  7333  0DE5  0020               	movlb	0	; select bank0
  7334  0DE6  0640               	xorwf	64,w	;volatile
  7335  0DE7  1D03               	btfss	3,2
  7336  0DE8  2DEA               	goto	u179_21
  7337  0DE9  2DEB               	goto	u179_20
  7338  0DEA                     u179_21:
  7339  0DEA  2E66               	goto	i1l396
  7340  0DEB                     u179_20:
  7341  0DEB                     i1l3260:
  7342                           
  7343                           ;usb_device.c: 2050:     {;usb_device.c: 2051:         inPipes[0].info.Val = 0x00 | 0x80
      +                           | 0x40;
  7344  0DEB  30C0               	movlw	192
  7345  0DEC  00F0               	movwf	??_USBStdGetDscHandler
  7346  0DED  0870               	movf	??_USBStdGetDscHandler,w
  7347  0DEE  00E7               	movwf	_inPipes+2	;volatile
  7348                           
  7349                           ;usb_device.c: 2053:         switch(SetupPkt.bDescriptorType)
  7350  0DEF  2E53               	goto	i1l3288
  7351  0DF0                     i1l3262:
  7352                           
  7353                           ;usb_device.c: 2059:                     inPipes[0].pSrc.bRom = (const uint8_t*)&device_
      +                          dsc;
  7354  0DF0  3000               	movlw	low (_device_dsc| (0+32768))
  7355  0DF1  00E5               	movwf	_inPipes	;volatile
  7356  0DF2  3098               	movlw	high (_device_dsc| (0+32768))
  7357  0DF3  00E6               	movwf	_inPipes+1	;volatile
  7358  0DF4                     i1l3264:
  7359                           
  7360                           ;usb_device.c: 2061:                 inPipes[0].wCount.Val = sizeof(device_dsc);
  7361  0DF4  3000               	movlw	0
  7362  0DF5  00E9               	movwf	_inPipes+4	;volatile
  7363  0DF6  3012               	movlw	18
  7364  0DF7  00E8               	movwf	_inPipes+3	;volatile
  7365                           
  7366                           ;usb_device.c: 2062:                 break;
  7367  0DF8  2E66               	goto	i1l396
  7368  0DF9                     i1l3266:
  7369                           
  7370                           ;usb_device.c: 2067:                 if(SetupPkt.bDscIndex < 1)
  7371  0DF9  0842               	movf	66,w	;volatile
  7372  0DFA  1D03               	btfss	3,2
  7373  0DFB  2DFD               	goto	u180_21
  7374  0DFC  2DFE               	goto	u180_20
  7375  0DFD                     u180_21:
  7376  0DFD  2E2C               	goto	i1l3274
  7377  0DFE                     u180_20:
  7378  0DFE                     i1l3268:
  7379                           
  7380                           ;usb_device.c: 2068:                 {;usb_device.c: 2072:                         inPip
      +                          es[0].pSrc.bRom = *(USB_CD_Ptr+SetupPkt.bDscIndex);
  7381  0DFE  0842               	movf	66,w	;volatile
  7382  0DFF  00F0               	movwf	??_USBStdGetDscHandler
  7383  0E00  01F1               	clrf	??_USBStdGetDscHandler+1
  7384  0E01  35F0               	lslf	??_USBStdGetDscHandler,f
  7385  0E02  0DF1               	rlf	??_USBStdGetDscHandler+1,f
  7386  0E03  301C               	movlw	low (_USB_CD_Ptr| (0+32768))
  7387  0E04  0770               	addwf	??_USBStdGetDscHandler,w
  7388  0E05  0084               	movwf	4
  7389  0E06  3098               	movlw	high (_USB_CD_Ptr| (0+32768))
  7390  0E07  3D71               	addwfc	??_USBStdGetDscHandler+1,w
  7391  0E08  0085               	movwf	5
  7392  0E09  3F00               	moviw [0]fsr0
  7393  0E0A  00E5               	movwf	_inPipes	;volatile
  7394  0E0B  3F01               	moviw [1]fsr0
  7395  0E0C  00E6               	movwf	_inPipes+1	;volatile
  7396  0E0D                     i1l3270:
  7397                           
  7398                           ;usb_device.c: 2078:                     inPipes[0].wCount.byte.LB = *(inPipes[0].pSrc.b
      +                          Rom+2);
  7399  0E0D  0866               	movf	_inPipes+1,w	;volatile
  7400  0E0E  00F1               	movwf	??_USBStdGetDscHandler+1
  7401  0E0F  0865               	movf	_inPipes,w	;volatile
  7402  0E10  00F0               	movwf	??_USBStdGetDscHandler
  7403  0E11  3002               	movlw	2
  7404  0E12  0770               	addwf	??_USBStdGetDscHandler,w
  7405  0E13  0084               	movwf	4
  7406  0E14  0871               	movf	??_USBStdGetDscHandler+1,w
  7407  0E15  1803               	skipnc
  7408  0E16  0A71               	incf	??_USBStdGetDscHandler+1,w
  7409  0E17  0085               	movwf	5
  7410  0E18  0800               	movf	0,w	;code access
  7411  0E19  00F2               	movwf	??_USBStdGetDscHandler+2
  7412  0E1A  0872               	movf	??_USBStdGetDscHandler+2,w
  7413  0E1B  00E8               	movwf	_inPipes+3	;volatile
  7414  0E1C                     i1l3272:
  7415                           
  7416                           ;usb_device.c: 2079:                     inPipes[0].wCount.byte.HB = *(inPipes[0].pSrc.b
      +                          Rom+3);
  7417  0E1C  0866               	movf	_inPipes+1,w	;volatile
  7418  0E1D  00F1               	movwf	??_USBStdGetDscHandler+1
  7419  0E1E  0865               	movf	_inPipes,w	;volatile
  7420  0E1F  00F0               	movwf	??_USBStdGetDscHandler
  7421  0E20  3003               	movlw	3
  7422  0E21  0770               	addwf	??_USBStdGetDscHandler,w
  7423  0E22  0084               	movwf	4
  7424  0E23  0871               	movf	??_USBStdGetDscHandler+1,w
  7425  0E24  1803               	skipnc
  7426  0E25  0A71               	incf	??_USBStdGetDscHandler+1,w
  7427  0E26  0085               	movwf	5
  7428  0E27  0800               	movf	0,w	;code access
  7429  0E28  00F2               	movwf	??_USBStdGetDscHandler+2
  7430  0E29  0872               	movf	??_USBStdGetDscHandler+2,w
  7431  0E2A  00E9               	movwf	_inPipes+4	;volatile
  7432                           
  7433                           ;usb_device.c: 2080:                 }
  7434  0E2B  2E66               	goto	i1l396
  7435  0E2C                     i1l3274:
  7436                           
  7437                           ;usb_device.c: 2082:     {;usb_device.c: 2083:      inPipes[0].info.Val = 0;
  7438  0E2C  01E7               	clrf	_inPipes+2	;volatile
  7439  0E2D  2E66               	goto	i1l396
  7440  0E2E                     i1l3276:
  7441                           
  7442                           ;usb_device.c: 2090:                 if(SetupPkt.bDscIndex<3)
  7443  0E2E  3003               	movlw	3
  7444  0E2F  0242               	subwf	66,w	;volatile
  7445  0E30  1803               	skipnc
  7446  0E31  2E33               	goto	u181_21
  7447  0E32  2E34               	goto	u181_20
  7448  0E33                     u181_21:
  7449  0E33  2E4F               	goto	i1l3282
  7450  0E34                     u181_20:
  7451  0E34                     i1l3278:
  7452                           
  7453                           ;usb_device.c: 2091:                 {;usb_device.c: 2093:                     inPipes[0
      +                          ].pSrc.bRom = *(USB_SD_Ptr+SetupPkt.bDscIndex);
  7454  0E34  0842               	movf	66,w	;volatile
  7455  0E35  00F0               	movwf	??_USBStdGetDscHandler
  7456  0E36  01F1               	clrf	??_USBStdGetDscHandler+1
  7457  0E37  35F0               	lslf	??_USBStdGetDscHandler,f
  7458  0E38  0DF1               	rlf	??_USBStdGetDscHandler+1,f
  7459  0E39  3012               	movlw	low (_USB_SD_Ptr| (0+32768))
  7460  0E3A  0770               	addwf	??_USBStdGetDscHandler,w
  7461  0E3B  0084               	movwf	4
  7462  0E3C  3098               	movlw	high (_USB_SD_Ptr| (0+32768))
  7463  0E3D  3D71               	addwfc	??_USBStdGetDscHandler+1,w
  7464  0E3E  0085               	movwf	5
  7465  0E3F  3F00               	moviw [0]fsr0
  7466  0E40  00E5               	movwf	_inPipes	;volatile
  7467  0E41  3F01               	moviw [1]fsr0
  7468  0E42  00E6               	movwf	_inPipes+1	;volatile
  7469  0E43                     i1l3280:
  7470                           
  7471                           ;usb_device.c: 2095:                     inPipes[0].wCount.Val = *inPipes[0].pSrc.bRom;
  7472  0E43  0865               	movf	_inPipes,w	;volatile
  7473  0E44  0084               	movwf	4
  7474  0E45  0866               	movf	_inPipes+1,w	;volatile
  7475  0E46  0085               	movwf	5
  7476  0E47  0800               	movf	0,w	;code access
  7477  0E48  00F0               	movwf	??_USBStdGetDscHandler
  7478  0E49  01F1               	clrf	??_USBStdGetDscHandler+1
  7479  0E4A  0870               	movf	??_USBStdGetDscHandler,w
  7480  0E4B  00E8               	movwf	_inPipes+3	;volatile
  7481  0E4C  0871               	movf	??_USBStdGetDscHandler+1,w
  7482  0E4D  00E9               	movwf	_inPipes+4	;volatile
  7483                           
  7484                           ;usb_device.c: 2096:                 }
  7485  0E4E  2E66               	goto	i1l396
  7486  0E4F                     i1l3282:
  7487                           
  7488                           ;usb_device.c: 2107:                 {;usb_device.c: 2108:                     inPipes[0
      +                          ].info.Val = 0;
  7489  0E4F  01E7               	clrf	_inPipes+2	;volatile
  7490  0E50  2E66               	goto	i1l396
  7491  0E51                     i1l3284:
  7492                           
  7493                           ;usb_device.c: 2112:                 inPipes[0].info.Val = 0;
  7494  0E51  01E7               	clrf	_inPipes+2	;volatile
  7495                           
  7496                           ;usb_device.c: 2113:                 break;
  7497  0E52  2E66               	goto	i1l396
  7498  0E53                     i1l3288:
  7499  0E53  0843               	movf	67,w	;volatile
  7500  0E54  00F0               	movwf	??_USBStdGetDscHandler
  7501  0E55  01F1               	clrf	??_USBStdGetDscHandler+1
  7502                           
  7503                           ; Switch on 2 bytes has been partitioned into a top level switch of size 1, and 1 sub-sw
      +                          itches
  7504                           ; Switch size 1, requested type "simple"
  7505                           ; Number of cases is 1, Range of values is 0 to 0
  7506                           ; switch strategies available:
  7507                           ; Name         Instructions Cycles
  7508                           ; simple_byte            4     3 (average)
  7509                           ; direct_byte            8     6 (fixed)
  7510                           ; jumptable            260     6 (fixed)
  7511                           ;	Chosen strategy is simple_byte
  7512  0E56  0871               	movf	??_USBStdGetDscHandler+1,w
  7513  0E57  3A00               	xorlw	0	; case 0
  7514  0E58  1903               	skipnz
  7515  0E59  2E5B               	goto	i1l5116
  7516  0E5A  2E51               	goto	i1l3284
  7517  0E5B                     i1l5116:
  7518                           
  7519                           ; Switch size 1, requested type "simple"
  7520                           ; Number of cases is 3, Range of values is 1 to 3
  7521                           ; switch strategies available:
  7522                           ; Name         Instructions Cycles
  7523                           ; simple_byte           10     6 (average)
  7524                           ; direct_byte           15     9 (fixed)
  7525                           ; jumptable            263     9 (fixed)
  7526                           ;	Chosen strategy is simple_byte
  7527  0E5B  0870               	movf	??_USBStdGetDscHandler,w
  7528  0E5C  3A01               	xorlw	1	; case 1
  7529  0E5D  1903               	skipnz
  7530  0E5E  2DF0               	goto	i1l3262
  7531  0E5F  3A03               	xorlw	3	; case 2
  7532  0E60  1903               	skipnz
  7533  0E61  2DF9               	goto	i1l3266
  7534  0E62  3A01               	xorlw	1	; case 3
  7535  0E63  1903               	skipnz
  7536  0E64  2E2E               	goto	i1l3276
  7537  0E65  2E51               	goto	i1l3284
  7538  0E66                     i1l396:
  7539  0E66  0008               	return
  7540  0E67                     __end_of_USBStdGetDscHandler:
  7541                           
  7542                           	psect	text29
  7543  002D                     __ptext29:	
  7544 ;; *************** function _USBStdFeatureReqHandler *****************
  7545 ;; Defined at:
  7546 ;;		line 2761 in file "usb_device.c"
  7547 ;; Parameters:    Size  Location     Type
  7548 ;;		None
  7549 ;; Auto vars:     Size  Location     Type
  7550 ;;  p               2   11[BANK0 ] PTR struct __BDT
  7551 ;;		 -> RAM(4096), BDT(32), NULL(0), 
  7552 ;;  pUEP            2    8[BANK0 ] PTR unsigned char 
  7553 ;;		 -> UEP0(1), 
  7554 ;;  current_ep_d    1   10[BANK0 ] struct .
  7555 ;; Return value:  Size  Location     Type
  7556 ;;                  1    wreg      void 
  7557 ;; Registers used:
  7558 ;;		wreg, fsr0l, fsr0h, fsr1l, fsr1h, status,2, status,0, pclath, cstack
  7559 ;; Tracked objects:
  7560 ;;		On entry : 0/0
  7561 ;;		On exit  : 0/0
  7562 ;;		Unchanged: 0/0
  7563 ;; Data sizes:     COMMON   BANK0   BANK1   BANK2   BANK3   BANK4   BANK5   BANK6   BANK7   BANK8   BANK9  BANK10  BANK1
      +1  BANK12
  7564 ;;      Params:         0       0       0       0       0       0       0       0       0       0       0       0       
      +0       0
  7565 ;;      Locals:         0       5       0       0       0       0       0       0       0       0       0       0       
      +0       0
  7566 ;;      Temps:          0       2       0       0       0       0       0       0       0       0       0       0       
      +0       0
  7567 ;;      Totals:         0       7       0       0       0       0       0       0       0       0       0       0       
      +0       0
  7568 ;;Total ram usage:        7 bytes
  7569 ;; Hardware stack levels used: 1
  7570 ;; Hardware stack levels required when called: 4
  7571 ;; This function calls:
  7572 ;;		_USER_USB_CALLBACK_EVENT_HANDLER
  7573 ;; This function is called by:
  7574 ;;		_USBCheckStdRequest
  7575 ;; This function uses a non-reentrant model
  7576 ;;
  7577                           
  7578  002D                     _USBStdFeatureReqHandler:	
  7579                           ;psect for function _USBStdFeatureReqHandler
  7580                           
  7581  002D                     i1l3330:	
  7582                           ;incstack = 0
  7583                           ; Regs used in _USBStdFeatureReqHandler: [wreg-fsr1h+status,2+status,0+pclath+cstack]
  7584                           
  7585                           
  7586                           ;usb_device.c: 2763:     BDT_ENTRY *p;;usb_device.c: 2764:     EP_STATUS current_ep_data
      +                          ;;usb_device.c: 2768:         unsigned char* pUEP;;usb_device.c: 2772:     if((SetupPkt.
      +                          bFeature == 1)&&
  7587  002D  0020               	movlb	0	; select bank0
  7588  002E  0342               	decf	66,w	;volatile
  7589  002F  1D03               	btfss	3,2
  7590  0030  2832               	goto	u188_21
  7591  0031  2833               	goto	u188_20
  7592  0032                     u188_21:
  7593  0032  2849               	goto	i1l3342
  7594  0033                     u188_20:
  7595  0033                     i1l3332:
  7596  0033  0840               	movf	64,w	;volatile
  7597  0034  391F               	andlw	31
  7598  0035  3A00               	xorlw	0
  7599  0036  1D03               	skipz
  7600  0037  2839               	goto	u189_21
  7601  0038  283A               	goto	u189_20
  7602  0039                     u189_21:
  7603  0039  2849               	goto	i1l3342
  7604  003A                     u189_20:
  7605  003A                     i1l3334:
  7606                           
  7607                           ;usb_device.c: 2774:     {;usb_device.c: 2775:         inPipes[0].info.bits.busy = 1;
  7608  003A  17E7               	bsf	_inPipes+2,7	;volatile
  7609  003B                     i1l3336:
  7610                           
  7611                           ;usb_device.c: 2776:         if(SetupPkt.bRequest == 3)
  7612  003B  3003               	movlw	3
  7613  003C  0641               	xorwf	65,w	;volatile
  7614  003D  1D03               	btfss	3,2
  7615  003E  2840               	goto	u190_21
  7616  003F  2841               	goto	u190_20
  7617  0040                     u190_21:
  7618  0040  2847               	goto	i1l3340
  7619  0041                     u190_20:
  7620  0041                     i1l3338:
  7621                           
  7622                           ;usb_device.c: 2777:             RemoteWakeup = 1;
  7623  0041  3001               	movlw	1
  7624  0042  00D6               	movwf	??_USBStdFeatureReqHandler
  7625  0043  0856               	movf	??_USBStdFeatureReqHandler,w
  7626  0044  0023               	movlb	3	; select bank3
  7627  0045  00BA               	movwf	_RemoteWakeup^(0+384)	;volatile
  7628  0046  2849               	goto	i1l3342
  7629  0047                     i1l3340:
  7630                           
  7631                           ;usb_device.c: 2779:             RemoteWakeup = 0;
  7632  0047  0023               	movlb	3	; select bank3
  7633  0048  01BA               	clrf	_RemoteWakeup^(0+384)	;volatile
  7634  0049                     i1l3342:
  7635                           
  7636                           ;usb_device.c: 2783:     if((SetupPkt.bFeature == 0)&&
  7637  0049  0020               	movlb	0	; select bank0
  7638  004A  0842               	movf	66,w	;volatile
  7639  004B  1D03               	btfss	3,2
  7640  004C  284E               	goto	u191_21
  7641  004D  284F               	goto	u191_20
  7642  004E                     u191_21:
  7643  004E  2982               	goto	i1l501
  7644  004F                     u191_20:
  7645  004F                     i1l3344:
  7646  004F  0840               	movf	64,w	;volatile
  7647  0050  391F               	andlw	31
  7648  0051  3A02               	xorlw	2
  7649  0052  1D03               	skipz
  7650  0053  2855               	goto	u192_21
  7651  0054  2856               	goto	u192_20
  7652  0055                     u192_21:
  7653  0055  2982               	goto	i1l501
  7654  0056                     u192_20:
  7655  0056                     i1l3346:
  7656  0056  0844               	movf	68,w	;volatile
  7657  0057  390F               	andlw	15
  7658  0058  3A00               	xorlw	0
  7659  0059  1903               	skipnz
  7660  005A  285C               	goto	u193_21
  7661  005B  285D               	goto	u193_20
  7662  005C                     u193_21:
  7663  005C  2982               	goto	i1l501
  7664  005D                     u193_20:
  7665  005D                     i1l3348:
  7666  005D  0844               	movf	68,w	;volatile
  7667  005E  390F               	andlw	15
  7668  005F  00D6               	movwf	??_USBStdFeatureReqHandler
  7669  0060  3002               	movlw	2
  7670  0061  0256               	subwf	??_USBStdFeatureReqHandler,w
  7671  0062  1803               	skipnc
  7672  0063  2865               	goto	u194_21
  7673  0064  2866               	goto	u194_20
  7674  0065                     u194_21:
  7675  0065  2982               	goto	i1l501
  7676  0066                     u194_20:
  7677  0066                     i1l3350:
  7678  0066  3020               	movlw	32
  7679  0067  0022               	movlb	2	; select bank2
  7680  0068  0668               	xorwf	_USBDeviceState^(0+256),w	;volatile
  7681  0069  1D03               	btfss	3,2
  7682  006A  286C               	goto	u195_21
  7683  006B  286D               	goto	u195_20
  7684  006C                     u195_21:
  7685  006C  2982               	goto	i1l501
  7686  006D                     u195_20:
  7687  006D                     i1l3352:
  7688                           
  7689                           ;usb_device.c: 2787:     {;usb_device.c: 2790:   inPipes[0].info.bits.busy = 1;
  7690  006D  0020               	movlb	0	; select bank0
  7691  006E  17E7               	bsf	_inPipes+2,7	;volatile
  7692                           
  7693                           ;usb_device.c: 2793:         if(SetupPkt.EPDir == 0)
  7694  006F  1BC4               	btfsc	68,7	;volatile
  7695  0070  2872               	goto	u196_21
  7696  0071  2873               	goto	u196_20
  7697  0072                     u196_21:
  7698  0072  2889               	goto	i1l3356
  7699  0073                     u196_20:
  7700  0073                     i1l3354:
  7701                           
  7702                           ;usb_device.c: 2794:         {;usb_device.c: 2795:             p = (BDT_ENTRY*)pBDTEntry
      +                          Out[SetupPkt.EPNum];
  7703  0073  0844               	movf	68,w	;volatile
  7704  0074  390F               	andlw	15
  7705  0075  0709               	addwf	9,w
  7706  0076  3EAB               	addlw	(low (_pBDTEntryOut| (0+256)))& (0+255)
  7707  0077  0086               	movwf	6
  7708  0078  3001               	movlw	1	; select bank3/4
  7709  0079  0087               	movwf	7
  7710  007A  3F40               	moviw [0]fsr1
  7711  007B  00DB               	movwf	USBStdFeatureReqHandler@p
  7712  007C  3F41               	moviw [1]fsr1
  7713  007D  00DC               	movwf	USBStdFeatureReqHandler@p+1
  7714                           
  7715                           ;usb_device.c: 2796:             current_ep_data.Val = ep_data_out[SetupPkt.EPNum].Val;
  7716  007E  0844               	movf	68,w	;volatile
  7717  007F  390F               	andlw	15
  7718  0080  3E60               	addlw	(low (_ep_data_out| (0+256)))& (0+255)
  7719  0081  0086               	movwf	6
  7720  0082  3001               	movlw	1	; select bank2/3
  7721  0083  0087               	movwf	7
  7722  0084  0801               	movf	1,w
  7723  0085  00D6               	movwf	??_USBStdFeatureReqHandler
  7724  0086  0856               	movf	??_USBStdFeatureReqHandler,w
  7725  0087  00DA               	movwf	USBStdFeatureReqHandler@current_ep_data
  7726                           
  7727                           ;usb_device.c: 2797:         }
  7728  0088  289D               	goto	i1l3358
  7729  0089                     i1l3356:
  7730                           
  7731                           ;usb_device.c: 2799:         {;usb_device.c: 2800:             p = (BDT_ENTRY*)pBDTEntry
      +                          In[SetupPkt.EPNum];
  7732  0089  0844               	movf	68,w	;volatile
  7733  008A  390F               	andlw	15
  7734  008B  0709               	addwf	9,w
  7735  008C  3E6A               	addlw	(low (_pBDTEntryIn| 0))& (0+255)
  7736  008D  0086               	movwf	6
  7737  008E  0187               	clrf	7
  7738  008F  3F40               	moviw [0]fsr1
  7739  0090  00DB               	movwf	USBStdFeatureReqHandler@p
  7740  0091  3F41               	moviw [1]fsr1
  7741  0092  00DC               	movwf	USBStdFeatureReqHandler@p+1
  7742                           
  7743                           ;usb_device.c: 2801:             current_ep_data.Val = ep_data_in[SetupPkt.EPNum].Val;
  7744  0093  0844               	movf	68,w	;volatile
  7745  0094  390F               	andlw	15
  7746  0095  3E62               	addlw	(low (_ep_data_in| (0+256)))& (0+255)
  7747  0096  0086               	movwf	6
  7748  0097  3001               	movlw	1	; select bank2/3
  7749  0098  0087               	movwf	7
  7750  0099  0801               	movf	1,w
  7751  009A  00D6               	movwf	??_USBStdFeatureReqHandler
  7752  009B  0856               	movf	??_USBStdFeatureReqHandler,w
  7753  009C  00DA               	movwf	USBStdFeatureReqHandler@current_ep_data
  7754  009D                     i1l3358:
  7755                           
  7756                           ;usb_device.c: 2808:             if(current_ep_data.bits.ping_pong_state == 0)
  7757  009D  185A               	btfsc	USBStdFeatureReqHandler@current_ep_data,0
  7758  009E  28A0               	goto	u197_21
  7759  009F  28A1               	goto	u197_20
  7760  00A0                     u197_21:
  7761  00A0  28AC               	goto	i1l3362
  7762  00A1                     u197_20:
  7763  00A1                     i1l3360:
  7764                           
  7765                           ;usb_device.c: 2809:             {;usb_device.c: 2810:                 p = (BDT_ENTRY*)(
      +                          ((uint16_t)p) & (~0x0004));
  7766  00A1  30FB               	movlw	251
  7767  00A2  00D6               	movwf	??_USBStdFeatureReqHandler
  7768  00A3  30FF               	movlw	255
  7769  00A4  00D7               	movwf	??_USBStdFeatureReqHandler+1
  7770  00A5  085B               	movf	USBStdFeatureReqHandler@p,w
  7771  00A6  0556               	andwf	??_USBStdFeatureReqHandler,w
  7772  00A7  00DB               	movwf	USBStdFeatureReqHandler@p
  7773  00A8  085C               	movf	USBStdFeatureReqHandler@p+1,w
  7774  00A9  0557               	andwf	??_USBStdFeatureReqHandler+1,w
  7775  00AA  00DC               	movwf	USBStdFeatureReqHandler@p+1
  7776                           
  7777                           ;usb_device.c: 2811:             }
  7778  00AB  28B2               	goto	i1l3364
  7779  00AC                     i1l3362:
  7780                           
  7781                           ;usb_device.c: 2813:             {;usb_device.c: 2814:                 p = (BDT_ENTRY*)(
      +                          ((uint16_t)p) | 0x0004);
  7782  00AC  3004               	movlw	4
  7783  00AD  045B               	iorwf	USBStdFeatureReqHandler@p,w
  7784  00AE  00DB               	movwf	USBStdFeatureReqHandler@p
  7785  00AF  3000               	movlw	0
  7786  00B0  045C               	iorwf	USBStdFeatureReqHandler@p+1,w
  7787  00B1  00DC               	movwf	USBStdFeatureReqHandler@p+1
  7788  00B2                     i1l3364:
  7789                           
  7790                           ;usb_device.c: 2820:         if(SetupPkt.EPDir == 0)
  7791  00B2  1BC4               	btfsc	68,7	;volatile
  7792  00B3  28B5               	goto	u198_21
  7793  00B4  28B6               	goto	u198_20
  7794  00B5                     u198_21:
  7795  00B5  28C2               	goto	i1l3368
  7796  00B6                     u198_20:
  7797  00B6                     i1l3366:
  7798                           
  7799                           ;usb_device.c: 2821:         {;usb_device.c: 2822:             pBDTEntryOut[SetupPkt.EPN
      +                          um] = (volatile BDT_ENTRY *)p;
  7800  00B6  0844               	movf	68,w	;volatile
  7801  00B7  390F               	andlw	15
  7802  00B8  0709               	addwf	9,w
  7803  00B9  3EAB               	addlw	(low (_pBDTEntryOut| (0+256)))& (0+255)
  7804  00BA  0086               	movwf	6
  7805  00BB  3001               	movlw	1	; select bank3/4
  7806  00BC  0087               	movwf	7
  7807  00BD  085B               	movf	USBStdFeatureReqHandler@p,w
  7808  00BE  3FC0               	movwi [0]fsr1
  7809  00BF  085C               	movf	USBStdFeatureReqHandler@p+1,w
  7810  00C0  3FC1               	movwi [1]fsr1
  7811                           
  7812                           ;usb_device.c: 2823:         }
  7813  00C1  28CC               	goto	i1l3370
  7814  00C2                     i1l3368:
  7815                           
  7816                           ;usb_device.c: 2825:         {;usb_device.c: 2826:             pBDTEntryIn[SetupPkt.EPNu
      +                          m] = (volatile BDT_ENTRY *)p;
  7817  00C2  0844               	movf	68,w	;volatile
  7818  00C3  390F               	andlw	15
  7819  00C4  0709               	addwf	9,w
  7820  00C5  3E6A               	addlw	(low (_pBDTEntryIn| 0))& (0+255)
  7821  00C6  0086               	movwf	6
  7822  00C7  0187               	clrf	7
  7823  00C8  085B               	movf	USBStdFeatureReqHandler@p,w
  7824  00C9  3FC0               	movwi [0]fsr1
  7825  00CA  085C               	movf	USBStdFeatureReqHandler@p+1,w
  7826  00CB  3FC1               	movwi [1]fsr1
  7827  00CC                     i1l3370:
  7828                           
  7829                           ;usb_device.c: 2830:         if(SetupPkt.bRequest == 3)
  7830  00CC  3003               	movlw	3
  7831  00CD  0641               	xorwf	65,w	;volatile
  7832  00CE  1D03               	btfss	3,2
  7833  00CF  28D1               	goto	u199_21
  7834  00D0  28D2               	goto	u199_20
  7835  00D1                     u199_21:
  7836  00D1  28F8               	goto	i1l3384
  7837  00D2                     u199_20:
  7838  00D2                     i1l3372:
  7839                           
  7840                           ;usb_device.c: 2831:         {;usb_device.c: 2832:             if(p->STAT.UOWN == 1)
  7841  00D2  085B               	movf	USBStdFeatureReqHandler@p,w
  7842  00D3  0086               	movwf	6
  7843  00D4  085C               	movf	USBStdFeatureReqHandler@p+1,w
  7844  00D5  0087               	movwf	7
  7845  00D6  1F81               	btfss	1,7
  7846  00D7  28D9               	goto	u200_21
  7847  00D8  28DA               	goto	u200_20
  7848  00D9                     u200_21:
  7849  00D9  28ED               	goto	i1l3380
  7850  00DA                     u200_20:
  7851  00DA                     i1l3374:
  7852                           
  7853                           ;usb_device.c: 2833:             {;usb_device.c: 2836:                 if(SetupPkt.EPDir
      +                           == 0)
  7854  00DA  1BC4               	btfsc	68,7	;volatile
  7855  00DB  28DD               	goto	u201_21
  7856  00DC  28DE               	goto	u201_20
  7857  00DD                     u201_21:
  7858  00DD  28E6               	goto	i1l3378
  7859  00DE                     u201_20:
  7860  00DE                     i1l3376:
  7861                           
  7862                           ;usb_device.c: 2837:                 {;usb_device.c: 2838:                     ep_data_o
      +                          ut[SetupPkt.EPNum].bits.transfer_terminated = 1;
  7863  00DE  0844               	movf	68,w	;volatile
  7864  00DF  390F               	andlw	15
  7865  00E0  3E60               	addlw	(low (_ep_data_out| (0+256)))& (0+255)
  7866  00E1  0086               	movwf	6
  7867  00E2  3001               	movlw	1	; select bank2/3
  7868  00E3  0087               	movwf	7
  7869  00E4  1481               	bsf	1,1
  7870                           
  7871                           ;usb_device.c: 2839:                 }
  7872  00E5  28ED               	goto	i1l3380
  7873  00E6                     i1l3378:
  7874                           
  7875                           ;usb_device.c: 2841:                 {;usb_device.c: 2842:                     ep_data_i
      +                          n[SetupPkt.EPNum].bits.transfer_terminated = 1;
  7876  00E6  0844               	movf	68,w	;volatile
  7877  00E7  390F               	andlw	15
  7878  00E8  3E62               	addlw	(low (_ep_data_in| (0+256)))& (0+255)
  7879  00E9  0086               	movwf	6
  7880  00EA  3001               	movlw	1	; select bank2/3
  7881  00EB  0087               	movwf	7
  7882  00EC  1481               	bsf	1,1
  7883  00ED                     i1l3380:
  7884                           
  7885                           ;usb_device.c: 2847:             p->STAT.Val |= 0x04;
  7886  00ED  085B               	movf	USBStdFeatureReqHandler@p,w
  7887  00EE  0086               	movwf	6
  7888  00EF  085C               	movf	USBStdFeatureReqHandler@p+1,w
  7889  00F0  0087               	movwf	7
  7890  00F1  1501               	bsf	1,2
  7891  00F2                     i1l3382:
  7892                           
  7893                           ;usb_device.c: 2848:             p->STAT.Val |= 0x80;
  7894  00F2  085B               	movf	USBStdFeatureReqHandler@p,w
  7895  00F3  0086               	movwf	6
  7896  00F4  085C               	movf	USBStdFeatureReqHandler@p+1,w
  7897  00F5  0087               	movwf	7
  7898  00F6  1781               	bsf	1,7
  7899                           
  7900                           ;usb_device.c: 2849:         }
  7901  00F7  2982               	goto	i1l501
  7902  00F8                     i1l3384:
  7903                           
  7904                           ;usb_device.c: 2851:         {;usb_device.c: 2855:                 p = (BDT_ENTRY*)(((ui
      +                          nt16_t)p) ^ 0x0004);
  7905  00F8  3004               	movlw	4
  7906  00F9  065B               	xorwf	USBStdFeatureReqHandler@p,w
  7907  00FA  00DB               	movwf	USBStdFeatureReqHandler@p
  7908  00FB  3000               	movlw	0
  7909  00FC  065C               	xorwf	USBStdFeatureReqHandler@p+1,w
  7910  00FD  00DC               	movwf	USBStdFeatureReqHandler@p+1
  7911  00FE                     i1l3386:
  7912                           
  7913                           ;usb_device.c: 2857:                 if(p->STAT.UOWN == 1)
  7914  00FE  085B               	movf	USBStdFeatureReqHandler@p,w
  7915  00FF  0086               	movwf	6
  7916  0100  085C               	movf	USBStdFeatureReqHandler@p+1,w
  7917  0101  0087               	movwf	7
  7918  0102  1F81               	btfss	1,7
  7919  0103  2905               	goto	u202_21
  7920  0104  2906               	goto	u202_20
  7921  0105                     u202_21:
  7922  0105  2923               	goto	i1l3394
  7923  0106                     u202_20:
  7924  0106                     i1l3388:
  7925                           
  7926                           ;usb_device.c: 2858:                 {;usb_device.c: 2861:                     p->STAT.V
      +                          al &= (~0x80);
  7927  0106  307F               	movlw	127
  7928  0107  00D6               	movwf	??_USBStdFeatureReqHandler
  7929  0108  085B               	movf	USBStdFeatureReqHandler@p,w
  7930  0109  0086               	movwf	6
  7931  010A  085C               	movf	USBStdFeatureReqHandler@p+1,w
  7932  010B  0087               	movwf	7
  7933  010C  0856               	movf	??_USBStdFeatureReqHandler,w
  7934  010D  0581               	andwf	1,f
  7935  010E                     i1l3390:
  7936                           
  7937                           ;usb_device.c: 2862:                     p->STAT.Val |= 0x40;
  7938  010E  085B               	movf	USBStdFeatureReqHandler@p,w
  7939  010F  0086               	movwf	6
  7940  0110  085C               	movf	USBStdFeatureReqHandler@p+1,w
  7941  0111  0087               	movwf	7
  7942  0112  1701               	bsf	1,6
  7943  0113                     i1l3392:
  7944                           
  7945                           ;usb_device.c: 2863:                     USER_USB_CALLBACK_EVENT_HANDLER((USB_EVENT)EVEN
      +                          T_TRANSFER_TERMINATED,p,sizeof(p));
  7946  0113  3005               	movlw	5
  7947  0114  00D0               	movwf	USER_USB_CALLBACK_EVENT_HANDLER@event
  7948  0115  3000               	movlw	0
  7949  0116  00D1               	movwf	USER_USB_CALLBACK_EVENT_HANDLER@event+1
  7950  0117  085C               	movf	USBStdFeatureReqHandler@p+1,w
  7951  0118  00D3               	movwf	USER_USB_CALLBACK_EVENT_HANDLER@pdata+1
  7952  0119  085B               	movf	USBStdFeatureReqHandler@p,w
  7953  011A  00D2               	movwf	USER_USB_CALLBACK_EVENT_HANDLER@pdata
  7954  011B  3002               	movlw	2
  7955  011C  00D4               	movwf	USER_USB_CALLBACK_EVENT_HANDLER@size
  7956  011D  3000               	movlw	0
  7957  011E  00D5               	movwf	USER_USB_CALLBACK_EVENT_HANDLER@size+1
  7958  011F  318A  22D4  3180   	fcall	_USER_USB_CALLBACK_EVENT_HANDLER
  7959                           
  7960                           ;usb_device.c: 2864:                 }
  7961  0122  2928               	goto	i1l3396
  7962  0123                     i1l3394:
  7963                           
  7964                           ;usb_device.c: 2866:                 {;usb_device.c: 2868:      p->STAT.Val |= 0x40;
  7965  0123  085B               	movf	USBStdFeatureReqHandler@p,w
  7966  0124  0086               	movwf	6
  7967  0125  085C               	movf	USBStdFeatureReqHandler@p+1,w
  7968  0126  0087               	movwf	7
  7969  0127  1701               	bsf	1,6
  7970  0128                     i1l3396:
  7971                           
  7972                           ;usb_device.c: 2873:                 p = (BDT_ENTRY*)(((uint16_t)p) ^ 0x0004);
  7973  0128  3004               	movlw	4
  7974  0129  0020               	movlb	0	; select bank0
  7975  012A  065B               	xorwf	USBStdFeatureReqHandler@p,w
  7976  012B  00DB               	movwf	USBStdFeatureReqHandler@p
  7977  012C  3000               	movlw	0
  7978  012D  065C               	xorwf	USBStdFeatureReqHandler@p+1,w
  7979  012E  00DC               	movwf	USBStdFeatureReqHandler@p+1
  7980  012F                     i1l3398:
  7981                           
  7982                           ;usb_device.c: 2879:                 if((current_ep_data.bits.transfer_terminated != 0) 
      +                          || (p->STAT.UOWN == 1))
  7983  012F  18DA               	btfsc	USBStdFeatureReqHandler@current_ep_data,1
  7984  0130  2932               	goto	u203_21
  7985  0131  2933               	goto	u203_20
  7986  0132                     u203_21:
  7987  0132  293B               	goto	i1l497
  7988  0133                     u203_20:
  7989  0133                     i1l3400:
  7990  0133  085B               	movf	USBStdFeatureReqHandler@p,w
  7991  0134  0086               	movwf	6
  7992  0135  085C               	movf	USBStdFeatureReqHandler@p+1,w
  7993  0136  0087               	movwf	7
  7994  0137  1F81               	btfss	1,7
  7995  0138  293A               	goto	u204_21
  7996  0139  293B               	goto	u204_20
  7997  013A                     u204_21:
  7998  013A  2966               	goto	i1l3408
  7999  013B                     u204_20:
  8000  013B                     i1l497:
  8001                           
  8002                           ;usb_device.c: 2880:                 {;usb_device.c: 2881:                     if(SetupP
      +                          kt.EPDir == 0)
  8003  013B  1BC4               	btfsc	68,7	;volatile
  8004  013C  293E               	goto	u205_21
  8005  013D  293F               	goto	u205_20
  8006  013E                     u205_21:
  8007  013E  2947               	goto	i1l3404
  8008  013F                     u205_20:
  8009  013F                     i1l3402:
  8010                           
  8011                           ;usb_device.c: 2882:                     {;usb_device.c: 2883:                         e
      +                          p_data_out[SetupPkt.EPNum].bits.transfer_terminated = 0;
  8012  013F  0844               	movf	68,w	;volatile
  8013  0140  390F               	andlw	15
  8014  0141  3E60               	addlw	(low (_ep_data_out| (0+256)))& (0+255)
  8015  0142  0086               	movwf	6
  8016  0143  3001               	movlw	1	; select bank2/3
  8017  0144  0087               	movwf	7
  8018  0145  1081               	bcf	1,1
  8019                           
  8020                           ;usb_device.c: 2884:                     }
  8021  0146  294E               	goto	i1l499
  8022  0147                     i1l3404:
  8023                           
  8024                           ;usb_device.c: 2886:                     {;usb_device.c: 2887:                         e
      +                          p_data_in[SetupPkt.EPNum].bits.transfer_terminated = 0;
  8025  0147  0844               	movf	68,w	;volatile
  8026  0148  390F               	andlw	15
  8027  0149  3E62               	addlw	(low (_ep_data_in| (0+256)))& (0+255)
  8028  014A  0086               	movwf	6
  8029  014B  3001               	movlw	1	; select bank2/3
  8030  014C  0087               	movwf	7
  8031  014D  1081               	bcf	1,1
  8032  014E                     i1l499:	
  8033                           ;usb_device.c: 2888:                     }
  8034                           
  8035                           
  8036                           ;usb_device.c: 2890:                     p->STAT.Val &= ~(0x80 | 0x40 | 0x04);
  8037  014E  303B               	movlw	59
  8038  014F  00D6               	movwf	??_USBStdFeatureReqHandler
  8039  0150  085B               	movf	USBStdFeatureReqHandler@p,w
  8040  0151  0086               	movwf	6
  8041  0152  085C               	movf	USBStdFeatureReqHandler@p+1,w
  8042  0153  0087               	movwf	7
  8043  0154  0856               	movf	??_USBStdFeatureReqHandler,w
  8044  0155  0581               	andwf	1,f
  8045  0156                     i1l3406:
  8046                           
  8047                           ;usb_device.c: 2893:                     USER_USB_CALLBACK_EVENT_HANDLER((USB_EVENT)EVEN
      +                          T_TRANSFER_TERMINATED,p,sizeof(p));
  8048  0156  3005               	movlw	5
  8049  0157  00D0               	movwf	USER_USB_CALLBACK_EVENT_HANDLER@event
  8050  0158  3000               	movlw	0
  8051  0159  00D1               	movwf	USER_USB_CALLBACK_EVENT_HANDLER@event+1
  8052  015A  085C               	movf	USBStdFeatureReqHandler@p+1,w
  8053  015B  00D3               	movwf	USER_USB_CALLBACK_EVENT_HANDLER@pdata+1
  8054  015C  085B               	movf	USBStdFeatureReqHandler@p,w
  8055  015D  00D2               	movwf	USER_USB_CALLBACK_EVENT_HANDLER@pdata
  8056  015E  3002               	movlw	2
  8057  015F  00D4               	movwf	USER_USB_CALLBACK_EVENT_HANDLER@size
  8058  0160  3000               	movlw	0
  8059  0161  00D5               	movwf	USER_USB_CALLBACK_EVENT_HANDLER@size+1
  8060  0162  318A  22D4  3180   	fcall	_USER_USB_CALLBACK_EVENT_HANDLER
  8061                           
  8062                           ;usb_device.c: 2894:                 }
  8063  0165  296E               	goto	i1l3410
  8064  0166                     i1l3408:
  8065                           
  8066                           ;usb_device.c: 2896:                 {;usb_device.c: 2898:                     p->STAT.V
      +                          al &= ~(0x80 | 0x40 | 0x04);
  8067  0166  303B               	movlw	59
  8068  0167  00D6               	movwf	??_USBStdFeatureReqHandler
  8069  0168  085B               	movf	USBStdFeatureReqHandler@p,w
  8070  0169  0086               	movwf	6
  8071  016A  085C               	movf	USBStdFeatureReqHandler@p+1,w
  8072  016B  0087               	movwf	7
  8073  016C  0856               	movf	??_USBStdFeatureReqHandler,w
  8074  016D  0581               	andwf	1,f
  8075  016E                     i1l3410:
  8076                           
  8077                           ;usb_device.c: 2946:                 pUEP = (unsigned char*)(&UEP0+SetupPkt.EPNum);
  8078  016E  0020               	movlb	0	; select bank0
  8079  016F  0844               	movf	68,w	;volatile
  8080  0170  390F               	andlw	15
  8081  0171  3E98               	addlw	152
  8082  0172  00D6               	movwf	??_USBStdFeatureReqHandler
  8083  0173  01D7               	clrf	??_USBStdFeatureReqHandler+1
  8084  0174  300E               	movlw	14
  8085  0175  3DD7               	addwfc	??_USBStdFeatureReqHandler+1,f
  8086  0176  0856               	movf	??_USBStdFeatureReqHandler,w
  8087  0177  00D8               	movwf	USBStdFeatureReqHandler@pUEP
  8088  0178  0857               	movf	??_USBStdFeatureReqHandler+1,w
  8089  0179  00D9               	movwf	USBStdFeatureReqHandler@pUEP+1
  8090  017A                     i1l3412:
  8091                           
  8092                           ;usb_device.c: 2950:             *pUEP &= ~0x0001;
  8093  017A  30FE               	movlw	254
  8094  017B  00D6               	movwf	??_USBStdFeatureReqHandler
  8095  017C  0858               	movf	USBStdFeatureReqHandler@pUEP,w
  8096  017D  0086               	movwf	6
  8097  017E  0859               	movf	USBStdFeatureReqHandler@pUEP+1,w
  8098  017F  0087               	movwf	7
  8099  0180  0856               	movf	??_USBStdFeatureReqHandler,w
  8100  0181  0581               	andwf	1,f
  8101  0182                     i1l501:
  8102  0182  0008               	return
  8103  0183                     __end_of_USBStdFeatureReqHandler:
  8104                           
  8105                           	psect	text30
  8106  0AD4                     __ptext30:	
  8107 ;; *************** function _USER_USB_CALLBACK_EVENT_HANDLER *****************
  8108 ;; Defined at:
  8109 ;;		line 51 in file "usb_events.c"
  8110 ;; Parameters:    Size  Location     Type
  8111 ;;  event           2    0[BANK0 ] enum E2550
  8112 ;;  pdata           2    2[BANK0 ] PTR void 
  8113 ;;		 -> RAM(4096), USTATcopy(1), USBActiveConfiguration(1), BDT(32), 
  8114 ;;		 -> NULL(0), 
  8115 ;;  size            2    4[BANK0 ] unsigned short 
  8116 ;; Auto vars:     Size  Location     Type
  8117 ;;		None
  8118 ;; Return value:  Size  Location     Type
  8119 ;;                  1    wreg      _Bool 
  8120 ;; Registers used:
  8121 ;;		wreg, fsr0l, fsr0h, fsr1l, fsr1h, status,2, status,0, pclath, cstack
  8122 ;; Tracked objects:
  8123 ;;		On entry : 0/0
  8124 ;;		On exit  : 0/0
  8125 ;;		Unchanged: 0/0
  8126 ;; Data sizes:     COMMON   BANK0   BANK1   BANK2   BANK3   BANK4   BANK5   BANK6   BANK7   BANK8   BANK9  BANK10  BANK1
      +1  BANK12
  8127 ;;      Params:         0       6       0       0       0       0       0       0       0       0       0       0       
      +0       0
  8128 ;;      Locals:         0       0       0       0       0       0       0       0       0       0       0       0       
      +0       0
  8129 ;;      Temps:          0       0       0       0       0       0       0       0       0       0       0       0       
      +0       0
  8130 ;;      Totals:         0       6       0       0       0       0       0       0       0       0       0       0       
      +0       0
  8131 ;;Total ram usage:        6 bytes
  8132 ;; Hardware stack levels used: 1
  8133 ;; Hardware stack levels required when called: 3
  8134 ;; This function calls:
  8135 ;;		_APP_DeviceCustomHIDInitialize
  8136 ;;		_USBCheckHIDRequest
  8137 ;;		i1_LED_Off
  8138 ;;		i1_LED_On
  8139 ;;		i1_SYSTEM_Initialize
  8140 ;; This function is called by:
  8141 ;;		_USBDeviceTasks
  8142 ;;		_USBStdSetCfgHandler
  8143 ;;		_USBSuspend
  8144 ;;		_USBWakeFromSuspend
  8145 ;;		_USBCtrlTrfSetupHandler
  8146 ;;		_USBCheckStdRequest
  8147 ;;		_USBStdFeatureReqHandler
  8148 ;; This function uses a non-reentrant model
  8149 ;;
  8150                           
  8151  0AD4                     _USER_USB_CALLBACK_EVENT_HANDLER:	
  8152                           ;psect for function _USER_USB_CALLBACK_EVENT_HANDLER
  8153                           
  8154  0AD4                     i1l3040:	
  8155                           ;incstack = 0
  8156                           ; Regs used in _USER_USB_CALLBACK_EVENT_HANDLER: [wreg-fsr1h+status,2+status,0+pclath+cs
      +                          tack]
  8157                           
  8158                           
  8159                           ;usb_events.c: 51: _Bool USER_USB_CALLBACK_EVENT_HANDLER(USB_EVENT event, void *pdata, u
      +                          int16_t size);usb_events.c: 52: {;usb_events.c: 53:     switch((int)event)
  8160  0AD4  2AFB               	goto	i1l3054
  8161  0AD5                     i1l3042:
  8162                           
  8163                           ;usb_events.c: 74:             SYSTEM_Initialize(SYSTEM_STATE_USB_SUSPEND);
  8164  0AD5  3001               	movlw	1
  8165  0AD6  3189  2159  318A   	fcall	i1_SYSTEM_Initialize
  8166                           
  8167                           ;usb_events.c: 75:             LED_Off(LED_CONNECT);
  8168  0AD9  3001               	movlw	1
  8169  0ADA  3188  20DF  318A   	fcall	i1_LED_Off
  8170                           
  8171                           ;usb_events.c: 76:             LED_Off(LED_SCANNING);
  8172  0ADD  3002               	movlw	2
  8173  0ADE  3188  20DF  318A   	fcall	i1_LED_Off
  8174                           
  8175                           ;usb_events.c: 77:             LED_Off(LED_OK);
  8176  0AE1  3003               	movlw	3
  8177  0AE2  3188  20DF  318A   	fcall	i1_LED_Off
  8178                           
  8179                           ;usb_events.c: 78:             LED_Off(LED_NG);
  8180  0AE5  3004               	movlw	4
  8181  0AE6  3188  20DF  318A   	fcall	i1_LED_Off
  8182                           
  8183                           ;usb_events.c: 79:             break;
  8184  0AE9  2B23               	goto	i1l571
  8185  0AEA                     i1l3044:
  8186                           
  8187                           ;usb_events.c: 89:             SYSTEM_Initialize(SYSTEM_STATE_USB_RESUME);
  8188  0AEA  3002               	movlw	2
  8189  0AEB  3189  2159  318A   	fcall	i1_SYSTEM_Initialize
  8190                           
  8191                           ;usb_events.c: 90:             break;
  8192  0AEE  2B23               	goto	i1l571
  8193  0AEF                     i1l3046:
  8194                           
  8195                           ;usb_events.c: 95:             APP_DeviceCustomHIDInitialize();
  8196  0AEF  3188  2011  318A   	fcall	_APP_DeviceCustomHIDInitialize
  8197  0AF2                     i1l3048:
  8198                           
  8199                           ;usb_events.c: 96:             LED_On(LED_CONNECT);
  8200  0AF2  3001               	movlw	1
  8201  0AF3  3188  20B7  318A   	fcall	i1_LED_On
  8202                           
  8203                           ;usb_events.c: 97:             break;
  8204  0AF6  2B23               	goto	i1l571
  8205  0AF7                     i1l3050:
  8206                           
  8207                           ;usb_events.c: 105:             USBCheckHIDRequest();
  8208  0AF7  3187  2701  318A   	fcall	_USBCheckHIDRequest
  8209                           
  8210                           ;usb_events.c: 106:             break;
  8211  0AFA  2B23               	goto	i1l571
  8212  0AFB                     i1l3054:
  8213                           
  8214                           ; Switch on 2 bytes has been partitioned into a top level switch of size 1, and 2 sub-sw
      +                          itches
  8215                           ; Switch size 1, requested type "simple"
  8216                           ; Number of cases is 2, Range of values is 0 to 127
  8217                           ; switch strategies available:
  8218                           ; Name         Instructions Cycles
  8219                           ; simple_byte            7     4 (average)
  8220                           ; direct_byte          262     6 (fixed)
  8221                           ; jumptable            260     6 (fixed)
  8222                           ;	Chosen strategy is simple_byte
  8223  0AFB  0020               	movlb	0	; select bank0
  8224  0AFC  0851               	movf	USER_USB_CALLBACK_EVENT_HANDLER@event+1,w
  8225  0AFD  3A00               	xorlw	0	; case 0
  8226  0AFE  1903               	skipnz
  8227  0AFF  2B04               	goto	i1l5118
  8228  0B00  3A7F               	xorlw	127	; case 127
  8229  0B01  1903               	skipnz
  8230  0B02  2B1E               	goto	i1l5120
  8231  0B03  2B23               	goto	i1l571
  8232  0B04                     i1l5118:
  8233                           
  8234                           ; Switch size 1, requested type "simple"
  8235                           ; Number of cases is 8, Range of values is 1 to 117
  8236                           ; switch strategies available:
  8237                           ; Name         Instructions Cycles
  8238                           ; simple_byte           25    13 (average)
  8239                           ; direct_byte          243     9 (fixed)
  8240                           ; jumptable            263     9 (fixed)
  8241                           ;	Chosen strategy is simple_byte
  8242  0B04  0850               	movf	USER_USB_CALLBACK_EVENT_HANDLER@event,w
  8243  0B05  3A01               	xorlw	1	; case 1
  8244  0B06  1903               	skipnz
  8245  0B07  2AEF               	goto	i1l3046
  8246  0B08  3A03               	xorlw	3	; case 2
  8247  0B09  1903               	skipnz
  8248  0B0A  2B23               	goto	i1l571
  8249  0B0B  3A01               	xorlw	1	; case 3
  8250  0B0C  1903               	skipnz
  8251  0B0D  2AF7               	goto	i1l3050
  8252  0B0E  3A06               	xorlw	6	; case 5
  8253  0B0F  1903               	skipnz
  8254  0B10  2B23               	goto	i1l571
  8255  0B11  3A77               	xorlw	119	; case 114
  8256  0B12  1903               	skipnz
  8257  0B13  2B23               	goto	i1l571
  8258  0B14  3A01               	xorlw	1	; case 115
  8259  0B15  1903               	skipnz
  8260  0B16  2B23               	goto	i1l571
  8261  0B17  3A07               	xorlw	7	; case 116
  8262  0B18  1903               	skipnz
  8263  0B19  2AEA               	goto	i1l3044
  8264  0B1A  3A01               	xorlw	1	; case 117
  8265  0B1B  1903               	skipnz
  8266  0B1C  2AD5               	goto	i1l3042
  8267  0B1D  2B23               	goto	i1l571
  8268  0B1E                     i1l5120:
  8269                           
  8270                           ; Switch size 1, requested type "simple"
  8271                           ; Number of cases is 1, Range of values is 255 to 255
  8272                           ; switch strategies available:
  8273                           ; Name         Instructions Cycles
  8274                           ; simple_byte            4     3 (average)
  8275                           ; direct_byte            7     5 (fixed)
  8276                           ; jumptable            263     9 (fixed)
  8277                           ;	Chosen strategy is simple_byte
  8278  0B1E  0850               	movf	USER_USB_CALLBACK_EVENT_HANDLER@event,w
  8279  0B1F  3AFF               	xorlw	255	; case 255
  8280  0B20  1903               	skipnz
  8281  0B21  2B23               	goto	i1l571
  8282  0B22  2B23               	goto	i1l571
  8283  0B23                     i1l571:
  8284  0B23  0008               	return
  8285  0B24                     __end_of_USER_USB_CALLBACK_EVENT_HANDLER:
  8286                           
  8287                           	psect	text31
  8288  0959                     __ptext31:	
  8289 ;; *************** function i1_SYSTEM_Initialize *****************
  8290 ;; Defined at:
  8291 ;;		line 85 in file "system.c"
  8292 ;; Parameters:    Size  Location     Type
  8293 ;;  state           1    wreg     enum E2309
  8294 ;; Auto vars:     Size  Location     Type
  8295 ;;  state           1    5[COMMON] enum E2309
  8296 ;; Return value:  Size  Location     Type
  8297 ;;                  1    wreg      void 
  8298 ;; Registers used:
  8299 ;;		wreg, fsr0l, fsr0h, status,2, status,0, pclath, cstack
  8300 ;; Tracked objects:
  8301 ;;		On entry : 0/0
  8302 ;;		On exit  : 0/0
  8303 ;;		Unchanged: 0/0
  8304 ;; Data sizes:     COMMON   BANK0   BANK1   BANK2   BANK3   BANK4   BANK5   BANK6   BANK7   BANK8   BANK9  BANK10  BANK1
      +1  BANK12
  8305 ;;      Params:         0       0       0       0       0       0       0       0       0       0       0       0       
      +0       0
  8306 ;;      Locals:         1       0       0       0       0       0       0       0       0       0       0       0       
      +0       0
  8307 ;;      Temps:          2       0       0       0       0       0       0       0       0       0       0       0       
      +0       0
  8308 ;;      Totals:         3       0       0       0       0       0       0       0       0       0       0       0       
      +0       0
  8309 ;;Total ram usage:        3 bytes
  8310 ;; Hardware stack levels used: 1
  8311 ;; Hardware stack levels required when called: 1
  8312 ;; This function calls:
  8313 ;;		i1_LED_Init
  8314 ;;		i1_LED_Off
  8315 ;;		i1_init_alcohol
  8316 ;; This function is called by:
  8317 ;;		_USER_USB_CALLBACK_EVENT_HANDLER
  8318 ;; This function uses a non-reentrant model
  8319 ;;
  8320                           
  8321  0959                     i1_SYSTEM_Initialize:	
  8322                           ;psect for function i1_SYSTEM_Initialize
  8323                           
  8324                           
  8325                           ;incstack = 0
  8326                           ; Regs used in i1_SYSTEM_Initialize: [wreg-fsr0h+status,2+status,0+pclath+cstack]
  8327                           ;i1SYSTEM_Initialize@state stored from wreg
  8328  0959  00F5               	movwf	i1SYSTEM_Initialize@state
  8329  095A                     i1l3010:
  8330                           
  8331                           ;system.c: 85: void SYSTEM_Initialize( SYSTEM_STATE state );system.c: 86: {;system.c: 87
      +                          :     switch(state)
  8332  095A  2971               	goto	i1l3024
  8333  095B                     i1l3012:
  8334                           
  8335                           ;system.c: 93:                 OSCCON = 0xFC;
  8336  095B  30FC               	movlw	252
  8337  095C  0021               	movlb	1	; select bank1
  8338  095D  0099               	movwf	25	;volatile
  8339                           
  8340                           ;system.c: 94:                 ACTCON = 0x90;
  8341  095E  3090               	movlw	144
  8342  095F  0027               	movlb	7	; select bank7
  8343  0960  009B               	movwf	27	;volatile
  8344                           
  8345                           ;system.c: 96:             ANSELA = 0x10;
  8346  0961  3010               	movlw	16
  8347  0962  0023               	movlb	3	; select bank3
  8348  0963  008C               	movwf	12	;volatile
  8349  0964                     i1l3014:
  8350                           
  8351                           ;system.c: 97:             ANSELC = 0x00;
  8352  0964  018E               	clrf	14	;volatile
  8353  0965                     i1l3016:
  8354                           
  8355                           ;system.c: 99:             LED_Init();
  8356  0965  3197  27BF  3189   	fcall	i1_LED_Init
  8357  0968                     i1l3018:
  8358                           
  8359                           ;system.c: 101:             init_alcohol();
  8360  0968  3197  27AA  3189   	fcall	i1_init_alcohol
  8361                           
  8362                           ;system.c: 102:             break;
  8363  096B  2984               	goto	i1l91
  8364  096C                     i1l3020:
  8365                           
  8366                           ;system.c: 105:             LED_Off(LED_CONNECT);
  8367  096C  3001               	movlw	1
  8368  096D  3188  20DF  3189   	fcall	i1_LED_Off
  8369                           
  8370                           ;system.c: 106:             break;
  8371  0970  2984               	goto	i1l91
  8372  0971                     i1l3024:
  8373  0971  0875               	movf	i1SYSTEM_Initialize@state,w
  8374  0972  00F3               	movwf	??i1_SYSTEM_Initialize
  8375  0973  01F4               	clrf	??i1_SYSTEM_Initialize+1
  8376                           
  8377                           ; Switch on 2 bytes has been partitioned into a top level switch of size 1, and 1 sub-sw
      +                          itches
  8378                           ; Switch size 1, requested type "simple"
  8379                           ; Number of cases is 1, Range of values is 0 to 0
  8380                           ; switch strategies available:
  8381                           ; Name         Instructions Cycles
  8382                           ; simple_byte            4     3 (average)
  8383                           ; direct_byte            8     6 (fixed)
  8384                           ; jumptable            260     6 (fixed)
  8385                           ;	Chosen strategy is simple_byte
  8386  0974  0874               	movf	??i1_SYSTEM_Initialize+1,w
  8387  0975  3A00               	xorlw	0	; case 0
  8388  0976  1903               	skipnz
  8389  0977  2979               	goto	i1l5122
  8390  0978  2984               	goto	i1l91
  8391  0979                     i1l5122:
  8392                           
  8393                           ; Switch size 1, requested type "simple"
  8394                           ; Number of cases is 3, Range of values is 0 to 2
  8395                           ; switch strategies available:
  8396                           ; Name         Instructions Cycles
  8397                           ; simple_byte           10     6 (average)
  8398                           ; direct_byte           12     6 (fixed)
  8399                           ; jumptable            260     6 (fixed)
  8400                           ;	Chosen strategy is simple_byte
  8401  0979  0873               	movf	??i1_SYSTEM_Initialize,w
  8402  097A  3A00               	xorlw	0	; case 0
  8403  097B  1903               	skipnz
  8404  097C  295B               	goto	i1l3012
  8405  097D  3A01               	xorlw	1	; case 1
  8406  097E  1903               	skipnz
  8407  097F  296C               	goto	i1l3020
  8408  0980  3A03               	xorlw	3	; case 2
  8409  0981  1903               	skipnz
  8410  0982  2984               	goto	i1l91
  8411  0983  2984               	goto	i1l91
  8412  0984                     i1l91:
  8413  0984  0008               	return
  8414  0985                     __end_ofi1_SYSTEM_Initialize:
  8415                           
  8416                           	psect	text32
  8417  17AA                     __ptext32:	
  8418 ;; *************** function i1_init_alcohol *****************
  8419 ;; Defined at:
  8420 ;;		line 10 in file "alcohol_drive.c"
  8421 ;; Parameters:    Size  Location     Type
  8422 ;;		None
  8423 ;; Auto vars:     Size  Location     Type
  8424 ;;		None
  8425 ;; Return value:  Size  Location     Type
  8426 ;;                  1    wreg      void 
  8427 ;; Registers used:
  8428 ;;		wreg, status,2
  8429 ;; Tracked objects:
  8430 ;;		On entry : 0/0
  8431 ;;		On exit  : 0/0
  8432 ;;		Unchanged: 0/0
  8433 ;; Data sizes:     COMMON   BANK0   BANK1   BANK2   BANK3   BANK4   BANK5   BANK6   BANK7   BANK8   BANK9  BANK10  BANK1
      +1  BANK12
  8434 ;;      Params:         0       0       0       0       0       0       0       0       0       0       0       0       
      +0       0
  8435 ;;      Locals:         0       0       0       0       0       0       0       0       0       0       0       0       
      +0       0
  8436 ;;      Temps:          0       0       0       0       0       0       0       0       0       0       0       0       
      +0       0
  8437 ;;      Totals:         0       0       0       0       0       0       0       0       0       0       0       0       
      +0       0
  8438 ;;Total ram usage:        0 bytes
  8439 ;; Hardware stack levels used: 1
  8440 ;; This function calls:
  8441 ;;		Nothing
  8442 ;; This function is called by:
  8443 ;;		i1_SYSTEM_Initialize
  8444 ;; This function uses a non-reentrant model
  8445 ;;
  8446                           
  8447  17AA                     i1_init_alcohol:	
  8448                           ;psect for function i1_init_alcohol
  8449                           
  8450  17AA                     i1l2940:	
  8451                           ;incstack = 0
  8452                           ; Regs used in i1_init_alcohol: [wreg+status,2]
  8453                           
  8454                           
  8455                           ;alcohol_drive.c: 11:     TRISAbits.TRISA5 = 1;
  8456  17AA  0021               	movlb	1	; select bank1
  8457  17AB  168C               	bsf	12,5	;volatile
  8458                           
  8459                           ;alcohol_drive.c: 12:     TRISAbits.TRISA4 = 1;
  8460  17AC  160C               	bsf	12,4	;volatile
  8461  17AD                     i1l2942:
  8462                           
  8463                           ;alcohol_drive.c: 14:     ADCON0 = 0x00;
  8464  17AD  019D               	clrf	29	;volatile
  8465  17AE                     i1l2944:
  8466                           
  8467                           ;alcohol_drive.c: 15:     ADCON1 = 0x80;
  8468  17AE  3080               	movlw	128
  8469  17AF  009E               	movwf	30	;volatile
  8470  17B0                     i1l615:
  8471  17B0  0008               	return
  8472  17B1                     __end_ofi1_init_alcohol:
  8473                           
  8474                           	psect	text33
  8475  08DF                     __ptext33:	
  8476 ;; *************** function i1_LED_Off *****************
  8477 ;; Defined at:
  8478 ;;		line 51 in file "leds.c"
  8479 ;; Parameters:    Size  Location     Type
  8480 ;;  led             1    wreg     enum E2
  8481 ;; Auto vars:     Size  Location     Type
  8482 ;;  led             1    2[COMMON] enum E2
  8483 ;; Return value:  Size  Location     Type
  8484 ;;                  1    wreg      void 
  8485 ;; Registers used:
  8486 ;;		wreg, fsr0l, fsr0h, status,2, status,0
  8487 ;; Tracked objects:
  8488 ;;		On entry : 0/0
  8489 ;;		On exit  : 0/0
  8490 ;;		Unchanged: 0/0
  8491 ;; Data sizes:     COMMON   BANK0   BANK1   BANK2   BANK3   BANK4   BANK5   BANK6   BANK7   BANK8   BANK9  BANK10  BANK1
      +1  BANK12
  8492 ;;      Params:         0       0       0       0       0       0       0       0       0       0       0       0       
      +0       0
  8493 ;;      Locals:         1       0       0       0       0       0       0       0       0       0       0       0       
      +0       0
  8494 ;;      Temps:          2       0       0       0       0       0       0       0       0       0       0       0       
      +0       0
  8495 ;;      Totals:         3       0       0       0       0       0       0       0       0       0       0       0       
      +0       0
  8496 ;;Total ram usage:        3 bytes
  8497 ;; Hardware stack levels used: 1
  8498 ;; This function calls:
  8499 ;;		Nothing
  8500 ;; This function is called by:
  8501 ;;		_USER_USB_CALLBACK_EVENT_HANDLER
  8502 ;;		i1_SYSTEM_Initialize
  8503 ;; This function uses a non-reentrant model
  8504 ;;
  8505                           
  8506  08DF                     i1_LED_Off:	
  8507                           ;psect for function i1_LED_Off
  8508                           
  8509                           
  8510                           ;incstack = 0
  8511                           ; Regs used in i1_LED_Off: [wreg-fsr0h+status,2+status,0]
  8512                           ;i1LED_Off@led stored from wreg
  8513  08DF  00F2               	movwf	i1LED_Off@led
  8514  08E0                     i1l2928:
  8515                           
  8516                           ;leds.c: 51: void LED_Off(LED led);leds.c: 52: {;leds.c: 53:     switch(led)
  8517  08E0  28ED               	goto	i1l2932
  8518  08E1                     i1l589:	
  8519                           ;leds.c: 54:     {;leds.c: 55:         case LED_CONNECT:
  8520                           
  8521                           
  8522                           ;leds.c: 56:             LATCbits.LATC5 = 0;
  8523  08E1  0022               	movlb	2	; select bank2
  8524  08E2  128E               	bcf	14,5	;volatile
  8525                           
  8526                           ;leds.c: 57:             break;
  8527  08E3  2906               	goto	i1l595
  8528  08E4                     i1l591:	
  8529                           ;leds.c: 58:         case LED_SCANNING:
  8530                           
  8531                           
  8532                           ;leds.c: 59:             LATCbits.LATC4 = 0;
  8533  08E4  0022               	movlb	2	; select bank2
  8534  08E5  120E               	bcf	14,4	;volatile
  8535                           
  8536                           ;leds.c: 60:             break;
  8537  08E6  2906               	goto	i1l595
  8538  08E7                     i1l592:	
  8539                           ;leds.c: 61:         case LED_OK:
  8540                           
  8541                           
  8542                           ;leds.c: 62:             LATCbits.LATC3 = 0;
  8543  08E7  0022               	movlb	2	; select bank2
  8544  08E8  118E               	bcf	14,3	;volatile
  8545                           
  8546                           ;leds.c: 63:             break;
  8547  08E9  2906               	goto	i1l595
  8548  08EA                     i1l593:	
  8549                           ;leds.c: 64:         case LED_NG:
  8550                           
  8551                           
  8552                           ;leds.c: 65:             LATCbits.LATC6 = 0;
  8553  08EA  0022               	movlb	2	; select bank2
  8554  08EB  130E               	bcf	14,6	;volatile
  8555                           
  8556                           ;leds.c: 66:             break;
  8557  08EC  2906               	goto	i1l595
  8558  08ED                     i1l2932:
  8559  08ED  0872               	movf	i1LED_Off@led,w
  8560  08EE  00F0               	movwf	??i1_LED_Off
  8561  08EF  01F1               	clrf	??i1_LED_Off+1
  8562                           
  8563                           ; Switch on 2 bytes has been partitioned into a top level switch of size 1, and 1 sub-sw
      +                          itches
  8564                           ; Switch size 1, requested type "simple"
  8565                           ; Number of cases is 1, Range of values is 0 to 0
  8566                           ; switch strategies available:
  8567                           ; Name         Instructions Cycles
  8568                           ; simple_byte            4     3 (average)
  8569                           ; direct_byte            8     6 (fixed)
  8570                           ; jumptable            260     6 (fixed)
  8571                           ;	Chosen strategy is simple_byte
  8572  08F0  0871               	movf	??i1_LED_Off+1,w
  8573  08F1  3A00               	xorlw	0	; case 0
  8574  08F2  1903               	skipnz
  8575  08F3  28F5               	goto	i1l5124
  8576  08F4  2906               	goto	i1l595
  8577  08F5                     i1l5124:
  8578                           
  8579                           ; Switch size 1, requested type "simple"
  8580                           ; Number of cases is 5, Range of values is 0 to 4
  8581                           ; switch strategies available:
  8582                           ; Name         Instructions Cycles
  8583                           ; direct_byte           16     6 (fixed)
  8584                           ; simple_byte           16     9 (average)
  8585                           ; jumptable            260     6 (fixed)
  8586                           ;	Chosen strategy is simple_byte
  8587  08F5  0870               	movf	??i1_LED_Off,w
  8588  08F6  3A00               	xorlw	0	; case 0
  8589  08F7  1903               	skipnz
  8590  08F8  2906               	goto	i1l595
  8591  08F9  3A01               	xorlw	1	; case 1
  8592  08FA  1903               	skipnz
  8593  08FB  28E1               	goto	i1l589
  8594  08FC  3A03               	xorlw	3	; case 2
  8595  08FD  1903               	skipnz
  8596  08FE  28E4               	goto	i1l591
  8597  08FF  3A01               	xorlw	1	; case 3
  8598  0900  1903               	skipnz
  8599  0901  28E7               	goto	i1l592
  8600  0902  3A07               	xorlw	7	; case 4
  8601  0903  1903               	skipnz
  8602  0904  28EA               	goto	i1l593
  8603  0905  2906               	goto	i1l595
  8604  0906                     i1l595:
  8605  0906  0008               	return
  8606  0907                     __end_ofi1_LED_Off:
  8607                           
  8608                           	psect	text34
  8609  17BF                     __ptext34:	
  8610 ;; *************** function i1_LED_Init *****************
  8611 ;; Defined at:
  8612 ;;		line 75 in file "leds.c"
  8613 ;; Parameters:    Size  Location     Type
  8614 ;;		None
  8615 ;; Auto vars:     Size  Location     Type
  8616 ;;		None
  8617 ;; Return value:  Size  Location     Type
  8618 ;;                  1    wreg      void 
  8619 ;; Registers used:
  8620 ;;		None
  8621 ;; Tracked objects:
  8622 ;;		On entry : 0/0
  8623 ;;		On exit  : 0/0
  8624 ;;		Unchanged: 0/0
  8625 ;; Data sizes:     COMMON   BANK0   BANK1   BANK2   BANK3   BANK4   BANK5   BANK6   BANK7   BANK8   BANK9  BANK10  BANK1
      +1  BANK12
  8626 ;;      Params:         0       0       0       0       0       0       0       0       0       0       0       0       
      +0       0
  8627 ;;      Locals:         0       0       0       0       0       0       0       0       0       0       0       0       
      +0       0
  8628 ;;      Temps:          0       0       0       0       0       0       0       0       0       0       0       0       
      +0       0
  8629 ;;      Totals:         0       0       0       0       0       0       0       0       0       0       0       0       
      +0       0
  8630 ;;Total ram usage:        0 bytes
  8631 ;; Hardware stack levels used: 1
  8632 ;; This function calls:
  8633 ;;		Nothing
  8634 ;; This function is called by:
  8635 ;;		i1_SYSTEM_Initialize
  8636 ;; This function uses a non-reentrant model
  8637 ;;
  8638                           
  8639  17BF                     i1_LED_Init:	
  8640                           ;psect for function i1_LED_Init
  8641                           
  8642  17BF                     i1l2938:	
  8643                           ;incstack = 0
  8644                           ; Regs used in i1_LED_Init: []
  8645                           
  8646                           
  8647                           ;leds.c: 77:     TRISCbits.TRISC5 = 0;
  8648  17BF  0021               	movlb	1	; select bank1
  8649  17C0  128E               	bcf	14,5	;volatile
  8650                           
  8651                           ;leds.c: 78:     TRISCbits.TRISC4 = 0;
  8652  17C1  120E               	bcf	14,4	;volatile
  8653                           
  8654                           ;leds.c: 79:     TRISCbits.TRISC3 = 0;
  8655  17C2  118E               	bcf	14,3	;volatile
  8656                           
  8657                           ;leds.c: 80:     TRISCbits.TRISC6 = 0;
  8658  17C3  130E               	bcf	14,6	;volatile
  8659                           
  8660                           ;leds.c: 82:     LATCbits.LATC5 = 0;
  8661  17C4  0022               	movlb	2	; select bank2
  8662  17C5  128E               	bcf	14,5	;volatile
  8663                           
  8664                           ;leds.c: 83:     LATCbits.LATC4 = 0;
  8665  17C6  120E               	bcf	14,4	;volatile
  8666                           
  8667                           ;leds.c: 84:     LATCbits.LATC3 = 0;
  8668  17C7  118E               	bcf	14,3	;volatile
  8669                           
  8670                           ;leds.c: 85:     LATCbits.LATC6 = 0;
  8671  17C8  130E               	bcf	14,6	;volatile
  8672  17C9                     i1l598:
  8673  17C9  0008               	return
  8674  17CA                     __end_ofi1_LED_Init:
  8675                           
  8676                           	psect	text35
  8677  08B7                     __ptext35:	
  8678 ;; *************** function i1_LED_On *****************
  8679 ;; Defined at:
  8680 ;;		line 26 in file "leds.c"
  8681 ;; Parameters:    Size  Location     Type
  8682 ;;  led             1    wreg     enum E2
  8683 ;; Auto vars:     Size  Location     Type
  8684 ;;  led             1    2[COMMON] enum E2
  8685 ;; Return value:  Size  Location     Type
  8686 ;;                  1    wreg      void 
  8687 ;; Registers used:
  8688 ;;		wreg, fsr0l, fsr0h, status,2, status,0
  8689 ;; Tracked objects:
  8690 ;;		On entry : 0/0
  8691 ;;		On exit  : 0/0
  8692 ;;		Unchanged: 0/0
  8693 ;; Data sizes:     COMMON   BANK0   BANK1   BANK2   BANK3   BANK4   BANK5   BANK6   BANK7   BANK8   BANK9  BANK10  BANK1
      +1  BANK12
  8694 ;;      Params:         0       0       0       0       0       0       0       0       0       0       0       0       
      +0       0
  8695 ;;      Locals:         1       0       0       0       0       0       0       0       0       0       0       0       
      +0       0
  8696 ;;      Temps:          2       0       0       0       0       0       0       0       0       0       0       0       
      +0       0
  8697 ;;      Totals:         3       0       0       0       0       0       0       0       0       0       0       0       
      +0       0
  8698 ;;Total ram usage:        3 bytes
  8699 ;; Hardware stack levels used: 1
  8700 ;; This function calls:
  8701 ;;		Nothing
  8702 ;; This function is called by:
  8703 ;;		_USER_USB_CALLBACK_EVENT_HANDLER
  8704 ;; This function uses a non-reentrant model
  8705 ;;
  8706                           
  8707  08B7                     i1_LED_On:	
  8708                           ;psect for function i1_LED_On
  8709                           
  8710                           
  8711                           ;incstack = 0
  8712                           ; Regs used in i1_LED_On: [wreg-fsr0h+status,2+status,0]
  8713                           ;i1LED_On@led stored from wreg
  8714  08B7  00F2               	movwf	i1LED_On@led
  8715  08B8                     i1l3030:
  8716                           
  8717                           ;leds.c: 26: void LED_On(LED led);leds.c: 27: {;leds.c: 28:     switch(led)
  8718  08B8  28C5               	goto	i1l3034
  8719  08B9                     i1l579:	
  8720                           ;leds.c: 29:     {;leds.c: 30:         case LED_CONNECT:
  8721                           
  8722                           
  8723                           ;leds.c: 31:             LATCbits.LATC5 = 1;
  8724  08B9  0022               	movlb	2	; select bank2
  8725  08BA  168E               	bsf	14,5	;volatile
  8726                           
  8727                           ;leds.c: 32:             break;
  8728  08BB  28DE               	goto	i1l585
  8729  08BC                     i1l581:	
  8730                           ;leds.c: 33:         case LED_SCANNING:
  8731                           
  8732                           
  8733                           ;leds.c: 34:             LATCbits.LATC4 = 1;
  8734  08BC  0022               	movlb	2	; select bank2
  8735  08BD  160E               	bsf	14,4	;volatile
  8736                           
  8737                           ;leds.c: 35:             break;
  8738  08BE  28DE               	goto	i1l585
  8739  08BF                     i1l582:	
  8740                           ;leds.c: 36:         case LED_OK:
  8741                           
  8742                           
  8743                           ;leds.c: 37:             LATCbits.LATC3 = 1;
  8744  08BF  0022               	movlb	2	; select bank2
  8745  08C0  158E               	bsf	14,3	;volatile
  8746                           
  8747                           ;leds.c: 38:             break;
  8748  08C1  28DE               	goto	i1l585
  8749  08C2                     i1l583:	
  8750                           ;leds.c: 39:         case LED_NG:
  8751                           
  8752                           
  8753                           ;leds.c: 40:             LATCbits.LATC6 = 1;
  8754  08C2  0022               	movlb	2	; select bank2
  8755  08C3  170E               	bsf	14,6	;volatile
  8756                           
  8757                           ;leds.c: 41:             break;
  8758  08C4  28DE               	goto	i1l585
  8759  08C5                     i1l3034:
  8760  08C5  0872               	movf	i1LED_On@led,w
  8761  08C6  00F0               	movwf	??i1_LED_On
  8762  08C7  01F1               	clrf	??i1_LED_On+1
  8763                           
  8764                           ; Switch on 2 bytes has been partitioned into a top level switch of size 1, and 1 sub-sw
      +                          itches
  8765                           ; Switch size 1, requested type "simple"
  8766                           ; Number of cases is 1, Range of values is 0 to 0
  8767                           ; switch strategies available:
  8768                           ; Name         Instructions Cycles
  8769                           ; simple_byte            4     3 (average)
  8770                           ; direct_byte            8     6 (fixed)
  8771                           ; jumptable            260     6 (fixed)
  8772                           ;	Chosen strategy is simple_byte
  8773  08C8  0871               	movf	??i1_LED_On+1,w
  8774  08C9  3A00               	xorlw	0	; case 0
  8775  08CA  1903               	skipnz
  8776  08CB  28CD               	goto	i1l5126
  8777  08CC  28DE               	goto	i1l585
  8778  08CD                     i1l5126:
  8779                           
  8780                           ; Switch size 1, requested type "simple"
  8781                           ; Number of cases is 5, Range of values is 0 to 4
  8782                           ; switch strategies available:
  8783                           ; Name         Instructions Cycles
  8784                           ; direct_byte           16     6 (fixed)
  8785                           ; simple_byte           16     9 (average)
  8786                           ; jumptable            260     6 (fixed)
  8787                           ;	Chosen strategy is simple_byte
  8788  08CD  0870               	movf	??i1_LED_On,w
  8789  08CE  3A00               	xorlw	0	; case 0
  8790  08CF  1903               	skipnz
  8791  08D0  28DE               	goto	i1l585
  8792  08D1  3A01               	xorlw	1	; case 1
  8793  08D2  1903               	skipnz
  8794  08D3  28B9               	goto	i1l579
  8795  08D4  3A03               	xorlw	3	; case 2
  8796  08D5  1903               	skipnz
  8797  08D6  28BC               	goto	i1l581
  8798  08D7  3A01               	xorlw	1	; case 3
  8799  08D8  1903               	skipnz
  8800  08D9  28BF               	goto	i1l582
  8801  08DA  3A07               	xorlw	7	; case 4
  8802  08DB  1903               	skipnz
  8803  08DC  28C2               	goto	i1l583
  8804  08DD  28DE               	goto	i1l585
  8805  08DE                     i1l585:
  8806  08DE  0008               	return
  8807  08DF                     __end_ofi1_LED_On:
  8808                           
  8809                           	psect	text36
  8810  0701                     __ptext36:	
  8811 ;; *************** function _USBCheckHIDRequest *****************
  8812 ;; Defined at:
  8813 ;;		line 161 in file "usb_device_hid.c"
  8814 ;; Parameters:    Size  Location     Type
  8815 ;;		None
  8816 ;; Auto vars:     Size  Location     Type
  8817 ;;		None
  8818 ;; Return value:  Size  Location     Type
  8819 ;;                  1    wreg      void 
  8820 ;; Registers used:
  8821 ;;		wreg, fsr0l, fsr0h, status,2, status,0
  8822 ;; Tracked objects:
  8823 ;;		On entry : 0/0
  8824 ;;		On exit  : 0/0
  8825 ;;		Unchanged: 0/0
  8826 ;; Data sizes:     COMMON   BANK0   BANK1   BANK2   BANK3   BANK4   BANK5   BANK6   BANK7   BANK8   BANK9  BANK10  BANK1
      +1  BANK12
  8827 ;;      Params:         0       0       0       0       0       0       0       0       0       0       0       0       
      +0       0
  8828 ;;      Locals:         0       0       0       0       0       0       0       0       0       0       0       0       
      +0       0
  8829 ;;      Temps:          2       0       0       0       0       0       0       0       0       0       0       0       
      +0       0
  8830 ;;      Totals:         2       0       0       0       0       0       0       0       0       0       0       0       
      +0       0
  8831 ;;Total ram usage:        2 bytes
  8832 ;; Hardware stack levels used: 1
  8833 ;; This function calls:
  8834 ;;		Nothing
  8835 ;; This function is called by:
  8836 ;;		_USER_USB_CALLBACK_EVENT_HANDLER
  8837 ;; This function uses a non-reentrant model
  8838 ;;
  8839                           
  8840  0701                     _USBCheckHIDRequest:	
  8841                           ;psect for function _USBCheckHIDRequest
  8842                           
  8843  0701                     i1l2952:	
  8844                           ;incstack = 0
  8845                           ; Regs used in _USBCheckHIDRequest: [wreg-fsr0h+status,2+status,0]
  8846                           
  8847                           
  8848                           ;usb_device_hid.c: 163:     if(SetupPkt.Recipient != (0x01)) return;
  8849  0701  0020               	movlb	0	; select bank0
  8850  0702  0840               	movf	64,w	;volatile
  8851  0703  391F               	andlw	31
  8852  0704  3A01               	xorlw	1
  8853  0705  1903               	skipnz
  8854  0706  2F08               	goto	u154_21
  8855  0707  2F09               	goto	u154_20
  8856  0708                     u154_21:
  8857  0708  2F0A               	goto	i1l2956
  8858  0709                     u154_20:
  8859  0709  2F9F               	goto	i1l529
  8860  070A                     i1l2956:
  8861                           
  8862                           ;usb_device_hid.c: 164:     if(SetupPkt.bIntfID != 0x00) return;
  8863  070A  0844               	movf	68,w	;volatile
  8864  070B  1903               	btfsc	3,2
  8865  070C  2F0E               	goto	u155_21
  8866  070D  2F0F               	goto	u155_20
  8867  070E                     u155_21:
  8868  070E  2F10               	goto	i1l2960
  8869  070F                     u155_20:
  8870  070F  2F9F               	goto	i1l529
  8871  0710                     i1l2960:
  8872                           
  8873                           ;usb_device_hid.c: 171:     if(SetupPkt.bRequest == 6)
  8874  0710  3006               	movlw	6
  8875  0711  0641               	xorwf	65,w	;volatile
  8876  0712  1D03               	btfss	3,2
  8877  0713  2F15               	goto	u156_21
  8878  0714  2F16               	goto	u156_20
  8879  0715                     u156_21:
  8880  0715  2F4B               	goto	i1l2978
  8881  0716                     u156_20:
  8882  0716  2F38               	goto	i1l2976
  8883  0717                     i1l2964:
  8884                           
  8885                           ;usb_device_hid.c: 176:                 if(USBActiveConfiguration == 1)
  8886  0717  0022               	movlb	2	; select bank2
  8887  0718  036A               	decf	_USBActiveConfiguration^(0+256),w	;volatile
  8888  0719  1D03               	btfss	3,2
  8889  071A  2F1C               	goto	u157_21
  8890  071B  2F1D               	goto	u157_20
  8891  071C                     u157_21:
  8892  071C  2F4B               	goto	i1l2978
  8893  071D                     u157_20:
  8894  071D                     i1l2966:
  8895                           
  8896                           ;usb_device_hid.c: 177:                 {;usb_device_hid.c: 178:                     { i
      +                          nPipes[0].pSrc.bRom = (const uint8_t*)&configDescriptor1 + 18; inPipes[0].wCount.Val = s
      +                          izeof(USB_HID_DSC)+3; inPipes[0].info.Val = 0x40 | 0x80 | 0x00; };
  8897  071D  303C               	movlw	low ((_configDescriptor1| (0+32768)+18))
  8898  071E  0020               	movlb	0	; select bank0
  8899  071F  00E5               	movwf	_inPipes	;volatile
  8900  0720  3090               	movlw	high ((_configDescriptor1| (0+32768)+18))
  8901  0721  00E6               	movwf	_inPipes+1	;volatile
  8902  0722                     i1l2968:
  8903  0722  3000               	movlw	0
  8904  0723  00E9               	movwf	_inPipes+4	;volatile
  8905  0724  3009               	movlw	9
  8906  0725  00E8               	movwf	_inPipes+3	;volatile
  8907  0726  30C0               	movlw	192
  8908  0727  00F0               	movwf	??_USBCheckHIDRequest
  8909  0728  0870               	movf	??_USBCheckHIDRequest,w
  8910  0729  00E7               	movwf	_inPipes+2	;volatile
  8911  072A  2F4B               	goto	i1l2978
  8912  072B                     i1l2970:
  8913                           
  8914                           ;usb_device_hid.c: 186:                 {;usb_device_hid.c: 187:                     { i
      +                          nPipes[0].pSrc.bRom = (const uint8_t*)&hid_rpt01; inPipes[0].wCount.Val = 29; inPipes[0]
      +                          .info.Val = 0x40 | 0x80 | 0x00; };
  8915  072B  3075               	movlw	low (_hid_rpt01| (0+32768))
  8916  072C  00E5               	movwf	_inPipes	;volatile
  8917  072D  3090               	movlw	high (_hid_rpt01| (0+32768))
  8918  072E  00E6               	movwf	_inPipes+1	;volatile
  8919  072F                     i1l2972:
  8920  072F  3000               	movlw	0
  8921  0730  00E9               	movwf	_inPipes+4	;volatile
  8922  0731  301D               	movlw	29
  8923  0732  00E8               	movwf	_inPipes+3	;volatile
  8924  0733  30C0               	movlw	192
  8925  0734  00F0               	movwf	??_USBCheckHIDRequest
  8926  0735  0870               	movf	??_USBCheckHIDRequest,w
  8927  0736  00E7               	movwf	_inPipes+2	;volatile
  8928                           
  8929                           ;usb_device_hid.c: 191:                 };usb_device_hid.c: 192:                 break;
  8930  0737  2F4B               	goto	i1l2978
  8931  0738                     i1l2976:
  8932  0738  0843               	movf	67,w	;volatile
  8933  0739  00F0               	movwf	??_USBCheckHIDRequest
  8934  073A  01F1               	clrf	??_USBCheckHIDRequest+1
  8935                           
  8936                           ; Switch on 2 bytes has been partitioned into a top level switch of size 1, and 1 sub-sw
      +                          itches
  8937                           ; Switch size 1, requested type "simple"
  8938                           ; Number of cases is 1, Range of values is 0 to 0
  8939                           ; switch strategies available:
  8940                           ; Name         Instructions Cycles
  8941                           ; simple_byte            4     3 (average)
  8942                           ; direct_byte            8     6 (fixed)
  8943                           ; jumptable            260     6 (fixed)
  8944                           ;	Chosen strategy is simple_byte
  8945  073B  0871               	movf	??_USBCheckHIDRequest+1,w
  8946  073C  3A00               	xorlw	0	; case 0
  8947  073D  1903               	skipnz
  8948  073E  2F40               	goto	i1l5128
  8949  073F  2F4B               	goto	i1l2978
  8950  0740                     i1l5128:
  8951                           
  8952                           ; Switch size 1, requested type "simple"
  8953                           ; Number of cases is 3, Range of values is 33 to 35
  8954                           ; switch strategies available:
  8955                           ; Name         Instructions Cycles
  8956                           ; simple_byte           10     6 (average)
  8957                           ; direct_byte           15     9 (fixed)
  8958                           ; jumptable            263     9 (fixed)
  8959                           ;	Chosen strategy is simple_byte
  8960  0740  0870               	movf	??_USBCheckHIDRequest,w
  8961  0741  3A21               	xorlw	33	; case 33
  8962  0742  1903               	skipnz
  8963  0743  2F17               	goto	i1l2964
  8964  0744  3A03               	xorlw	3	; case 34
  8965  0745  1903               	skipnz
  8966  0746  2F2B               	goto	i1l2970
  8967  0747  3A01               	xorlw	1	; case 35
  8968  0748  1903               	skipnz
  8969  0749  2F4B               	goto	i1l2978
  8970  074A  2F4B               	goto	i1l2978
  8971  074B                     i1l2978:
  8972                           
  8973                           ;usb_device_hid.c: 209:     if(SetupPkt.RequestType != (0x20>>5))
  8974  074B  0020               	movlb	0	; select bank0
  8975  074C  0E40               	swapf	64,w	;volatile
  8976  074D  0C89               	rrf	9,f
  8977  074E  3903               	andlw	3
  8978  074F  3A01               	xorlw	1
  8979  0750  1903               	skipnz
  8980  0751  2F53               	goto	u158_21
  8981  0752  2F54               	goto	u158_20
  8982  0753                     u158_21:
  8983  0753  2F83               	goto	i1l3000
  8984  0754                     u158_20:
  8985  0754  2F9F               	goto	i1l529
  8986  0755                     i1l2982:
  8987                           
  8988                           ;usb_device_hid.c: 227:             { inPipes[0].pSrc.bRam = (uint8_t*)&idle_rate; inPip
      +                          es[0].wCount.Val = 1; inPipes[0].info.Val = 0x40 | 0x80 | 0x01; };
  8989  0755  30BD               	movlw	low _idle_rate
  8990  0756  00E5               	movwf	_inPipes	;volatile
  8991  0757  3001               	movlw	high _idle_rate
  8992  0758  00E6               	movwf	_inPipes+1	;volatile
  8993  0759                     i1l2984:
  8994  0759  3000               	movlw	0
  8995  075A  00E9               	movwf	_inPipes+4	;volatile
  8996  075B  3001               	movlw	1
  8997  075C  00E8               	movwf	_inPipes+3	;volatile
  8998  075D                     i1l2986:
  8999  075D  30C1               	movlw	193
  9000  075E  00F0               	movwf	??_USBCheckHIDRequest
  9001  075F  0870               	movf	??_USBCheckHIDRequest,w
  9002  0760  00E7               	movwf	_inPipes+2	;volatile
  9003                           
  9004                           ;usb_device_hid.c: 231:             break;
  9005  0761  2F9F               	goto	i1l529
  9006  0762                     i1l2988:
  9007                           
  9008                           ;usb_device_hid.c: 233:             inPipes[0].info.Val = 0x00 | 0x80;
  9009  0762  3080               	movlw	128
  9010  0763  00F0               	movwf	??_USBCheckHIDRequest
  9011  0764  0870               	movf	??_USBCheckHIDRequest,w
  9012  0765  00E7               	movwf	_inPipes+2	;volatile
  9013                           
  9014                           ;usb_device_hid.c: 234:             idle_rate = SetupPkt.W_Value.byte.HB;
  9015  0766  0843               	movf	67,w	;volatile
  9016  0767  00F0               	movwf	??_USBCheckHIDRequest
  9017  0768  0870               	movf	??_USBCheckHIDRequest,w
  9018  0769  0023               	movlb	3	; select bank3
  9019  076A  00BD               	movwf	_idle_rate^(0+384)
  9020                           
  9021                           ;usb_device_hid.c: 236:             break;
  9022  076B  2F9F               	goto	i1l529
  9023  076C                     i1l2990:
  9024                           
  9025                           ;usb_device_hid.c: 238:             { inPipes[0].pSrc.bRam = (uint8_t*)&active_protocol;
      +                           inPipes[0].wCount.Val = 1; inPipes[0].info.Val = 0x00 | 0x80 | 0x01; };
  9026  076C  30BC               	movlw	low _active_protocol
  9027  076D  00E5               	movwf	_inPipes	;volatile
  9028  076E  3001               	movlw	high _active_protocol
  9029  076F  00E6               	movwf	_inPipes+1	;volatile
  9030  0770                     i1l2992:
  9031  0770  3000               	movlw	0
  9032  0771  00E9               	movwf	_inPipes+4	;volatile
  9033  0772  3001               	movlw	1
  9034  0773  00E8               	movwf	_inPipes+3	;volatile
  9035  0774                     i1l2994:
  9036  0774  3081               	movlw	129
  9037  0775  00F0               	movwf	??_USBCheckHIDRequest
  9038  0776  0870               	movf	??_USBCheckHIDRequest,w
  9039  0777  00E7               	movwf	_inPipes+2	;volatile
  9040                           
  9041                           ;usb_device_hid.c: 242:             break;
  9042  0778  2F9F               	goto	i1l529
  9043  0779                     i1l2996:
  9044                           
  9045                           ;usb_device_hid.c: 244:             inPipes[0].info.Val = 0x00 | 0x80;
  9046  0779  3080               	movlw	128
  9047  077A  00F0               	movwf	??_USBCheckHIDRequest
  9048  077B  0870               	movf	??_USBCheckHIDRequest,w
  9049  077C  00E7               	movwf	_inPipes+2	;volatile
  9050                           
  9051                           ;usb_device_hid.c: 245:             active_protocol = SetupPkt.W_Value.byte.LB;
  9052  077D  0842               	movf	66,w	;volatile
  9053  077E  00F0               	movwf	??_USBCheckHIDRequest
  9054  077F  0870               	movf	??_USBCheckHIDRequest,w
  9055  0780  0023               	movlb	3	; select bank3
  9056  0781  00BC               	movwf	_active_protocol^(0+384)
  9057                           
  9058                           ;usb_device_hid.c: 246:             break;
  9059  0782  2F9F               	goto	i1l529
  9060  0783                     i1l3000:
  9061  0783  0841               	movf	65,w	;volatile
  9062  0784  00F0               	movwf	??_USBCheckHIDRequest
  9063  0785  01F1               	clrf	??_USBCheckHIDRequest+1
  9064                           
  9065                           ; Switch on 2 bytes has been partitioned into a top level switch of size 1, and 1 sub-sw
      +                          itches
  9066                           ; Switch size 1, requested type "simple"
  9067                           ; Number of cases is 1, Range of values is 0 to 0
  9068                           ; switch strategies available:
  9069                           ; Name         Instructions Cycles
  9070                           ; simple_byte            4     3 (average)
  9071                           ; direct_byte            8     6 (fixed)
  9072                           ; jumptable            260     6 (fixed)
  9073                           ;	Chosen strategy is simple_byte
  9074  0786  0871               	movf	??_USBCheckHIDRequest+1,w
  9075  0787  3A00               	xorlw	0	; case 0
  9076  0788  1903               	skipnz
  9077  0789  2F8B               	goto	i1l5130
  9078  078A  2F9F               	goto	i1l529
  9079  078B                     i1l5130:
  9080                           
  9081                           ; Switch size 1, requested type "simple"
  9082                           ; Number of cases is 6, Range of values is 1 to 11
  9083                           ; switch strategies available:
  9084                           ; Name         Instructions Cycles
  9085                           ; simple_byte           19    10 (average)
  9086                           ; direct_byte           31     9 (fixed)
  9087                           ; jumptable            263     9 (fixed)
  9088                           ;	Chosen strategy is simple_byte
  9089  078B  0870               	movf	??_USBCheckHIDRequest,w
  9090  078C  3A01               	xorlw	1	; case 1
  9091  078D  1903               	skipnz
  9092  078E  2F9F               	goto	i1l529
  9093  078F  3A03               	xorlw	3	; case 2
  9094  0790  1903               	skipnz
  9095  0791  2F55               	goto	i1l2982
  9096  0792  3A01               	xorlw	1	; case 3
  9097  0793  1903               	skipnz
  9098  0794  2F6C               	goto	i1l2990
  9099  0795  3A0A               	xorlw	10	; case 9
  9100  0796  1903               	skipnz
  9101  0797  2F9F               	goto	i1l529
  9102  0798  3A03               	xorlw	3	; case 10
  9103  0799  1903               	skipnz
  9104  079A  2F62               	goto	i1l2988
  9105  079B  3A01               	xorlw	1	; case 11
  9106  079C  1903               	skipnz
  9107  079D  2F79               	goto	i1l2996
  9108  079E  2F9F               	goto	i1l529
  9109  079F                     i1l529:
  9110  079F  0008               	return
  9111  07A0                     __end_of_USBCheckHIDRequest:
  9112                           
  9113                           	psect	text37
  9114  0811                     __ptext37:	
  9115 ;; *************** function _APP_DeviceCustomHIDInitialize *****************
  9116 ;; Defined at:
  9117 ;;		line 40 in file "app_device_custom_hid.c"
  9118 ;; Parameters:    Size  Location     Type
  9119 ;;		None
  9120 ;; Auto vars:     Size  Location     Type
  9121 ;;		None
  9122 ;; Return value:  Size  Location     Type
  9123 ;;                  1    wreg      void 
  9124 ;; Registers used:
  9125 ;;		wreg, fsr1l, fsr1h, status,2, status,0, pclath, cstack
  9126 ;; Tracked objects:
  9127 ;;		On entry : 0/0
  9128 ;;		On exit  : 0/0
  9129 ;;		Unchanged: 0/0
  9130 ;; Data sizes:     COMMON   BANK0   BANK1   BANK2   BANK3   BANK4   BANK5   BANK6   BANK7   BANK8   BANK9  BANK10  BANK1
      +1  BANK12
  9131 ;;      Params:         0       0       0       0       0       0       0       0       0       0       0       0       
      +0       0
  9132 ;;      Locals:         0       0       0       0       0       0       0       0       0       0       0       0       
      +0       0
  9133 ;;      Temps:          1       0       0       0       0       0       0       0       0       0       0       0       
      +0       0
  9134 ;;      Totals:         1       0       0       0       0       0       0       0       0       0       0       0       
      +0       0
  9135 ;;Total ram usage:        1 bytes
  9136 ;; Hardware stack levels used: 1
  9137 ;; Hardware stack levels required when called: 2
  9138 ;; This function calls:
  9139 ;;		_USBEnableEndpoint
  9140 ;;		i1_USBTransferOnePacket
  9141 ;; This function is called by:
  9142 ;;		_USER_USB_CALLBACK_EVENT_HANDLER
  9143 ;; This function uses a non-reentrant model
  9144 ;;
  9145                           
  9146  0811                     _APP_DeviceCustomHIDInitialize:	
  9147                           ;psect for function _APP_DeviceCustomHIDInitialize
  9148                           
  9149  0811                     i1l2946:	
  9150                           ;incstack = 0
  9151                           ; Regs used in _APP_DeviceCustomHIDInitialize: [wreg+fsr1l+fsr1h+status,2+status,0+pclat
      +                          h+cstack]
  9152                           
  9153                           
  9154                           ;app_device_custom_hid.c: 44:     USBInHandle = 0;
  9155  0811  0023               	movlb	3	; select bank3
  9156  0812  01AF               	clrf	_USBInHandle^(0+384)
  9157  0813  01B0               	clrf	(_USBInHandle+1)^(0+384)
  9158  0814                     i1l2948:
  9159                           
  9160                           ;app_device_custom_hid.c: 47:     USBEnableEndpoint(1, 0x02|0x04|0x10|0x08);
  9161  0814  301E               	movlw	30
  9162  0815  00FD               	movwf	??_APP_DeviceCustomHIDInitialize
  9163  0816  087D               	movf	??_APP_DeviceCustomHIDInitialize,w
  9164  0817  00F7               	movwf	USBEnableEndpoint@options
  9165  0818  3001               	movlw	1
  9166  0819  3188  2092  3188   	fcall	_USBEnableEndpoint
  9167  081C                     i1l2950:
  9168                           
  9169                           ;app_device_custom_hid.c: 50:     USBOutHandle = (volatile void*)USBTransferOnePacket(1,
      +                          0,(uint8_t*)&ReceivedDataBuffer[0],64);
  9170  081C  01F0               	clrf	i1USBTransferOnePacket@dir
  9171  081D  30A0               	movlw	160
  9172  081E  00F1               	movwf	i1USBTransferOnePacket@data
  9173  081F  3000               	movlw	0
  9174  0820  00F2               	movwf	i1USBTransferOnePacket@data+1
  9175  0821  3040               	movlw	64
  9176  0822  00FD               	movwf	??_APP_DeviceCustomHIDInitialize
  9177  0823  087D               	movf	??_APP_DeviceCustomHIDInitialize,w
  9178  0824  00F3               	movwf	i1USBTransferOnePacket@len
  9179  0825  3001               	movlw	1
  9180  0826  318E  2667  3188   	fcall	i1_USBTransferOnePacket
  9181  0829  0871               	movf	?i1_USBTransferOnePacket+1,w
  9182  082A  0023               	movlb	3	; select bank3
  9183  082B  00B2               	movwf	(_USBOutHandle+1)^(0+384)
  9184  082C  0870               	movf	?i1_USBTransferOnePacket,w
  9185  082D  00B1               	movwf	_USBOutHandle^(0+384)
  9186  082E                     i1l27:
  9187  082E  0008               	return
  9188  082F                     __end_of_APP_DeviceCustomHIDInitialize:
  9189                           
  9190                           	psect	text38
  9191  0E67                     __ptext38:	
  9192 ;; *************** function i1_USBTransferOnePacket *****************
  9193 ;; Defined at:
  9194 ;;		line 999 in file "usb_device.c"
  9195 ;; Parameters:    Size  Location     Type
  9196 ;;  ep              1    wreg     unsigned char 
  9197 ;;  dir             1    0[COMMON] unsigned char 
  9198 ;;  data            2    1[COMMON] PTR unsigned char 
  9199 ;;		 -> ToSendDataBuffer(64), ReceivedDataBuffer(64), 
  9200 ;;  len             1    3[COMMON] unsigned char 
  9201 ;; Auto vars:     Size  Location     Type
  9202 ;;  ep              1    8[COMMON] unsigned char 
  9203 ;;  handle          2    9[COMMON] PTR volatile struct __BD
  9204 ;;		 -> RAM(4096), BDT(32), NULL(0), 
  9205 ;; Return value:  Size  Location     Type
  9206 ;;                  2    0[COMMON] PTR void 
  9207 ;; Registers used:
  9208 ;;		wreg, fsr1l, fsr1h, status,2, status,0
  9209 ;; Tracked objects:
  9210 ;;		On entry : 0/0
  9211 ;;		On exit  : 0/0
  9212 ;;		Unchanged: 0/0
  9213 ;; Data sizes:     COMMON   BANK0   BANK1   BANK2   BANK3   BANK4   BANK5   BANK6   BANK7   BANK8   BANK9  BANK10  BANK1
      +1  BANK12
  9214 ;;      Params:         4       0       0       0       0       0       0       0       0       0       0       0       
      +0       0
  9215 ;;      Locals:         3       0       0       0       0       0       0       0       0       0       0       0       
      +0       0
  9216 ;;      Temps:          4       0       0       0       0       0       0       0       0       0       0       0       
      +0       0
  9217 ;;      Totals:        11       0       0       0       0       0       0       0       0       0       0       0       
      +0       0
  9218 ;;Total ram usage:       11 bytes
  9219 ;; Hardware stack levels used: 1
  9220 ;; This function calls:
  9221 ;;		Nothing
  9222 ;; This function is called by:
  9223 ;;		_APP_DeviceCustomHIDInitialize
  9224 ;; This function uses a non-reentrant model
  9225 ;;
  9226                           
  9227  0E67                     i1_USBTransferOnePacket:	
  9228                           ;psect for function i1_USBTransferOnePacket
  9229                           
  9230                           
  9231                           ;incstack = 0
  9232                           ; Regs used in i1_USBTransferOnePacket: [wreg+fsr1l+fsr1h+status,2+status,0]
  9233                           ;i1USBTransferOnePacket@ep stored from wreg
  9234  0E67  00F8               	movwf	i1USBTransferOnePacket@ep
  9235  0E68                     i1l2900:
  9236                           
  9237                           ;usb_device.c: 999: void* USBTransferOnePacket(uint8_t ep,uint8_t dir,uint8_t* data,uint
      +                          8_t len);usb_device.c: 1000: {;usb_device.c: 1001:     volatile BDT_ENTRY* handle;;usb_d
      +                          evice.c: 1004:     if(dir != 0)
  9238  0E68  0870               	movf	i1USBTransferOnePacket@dir,w
  9239  0E69  1903               	btfsc	3,2
  9240  0E6A  2E6C               	goto	u151_21
  9241  0E6B  2E6D               	goto	u151_20
  9242  0E6C                     u151_21:
  9243  0E6C  2E76               	goto	i1l2904
  9244  0E6D                     u151_20:
  9245  0E6D                     i1l2902:
  9246                           
  9247                           ;usb_device.c: 1005:     {;usb_device.c: 1007:         handle = pBDTEntryIn[ep];
  9248  0E6D  3578               	lslf	i1USBTransferOnePacket@ep,w
  9249  0E6E  3E6A               	addlw	(low (_pBDTEntryIn| 0))& (0+255)
  9250  0E6F  0086               	movwf	6
  9251  0E70  0187               	clrf	7
  9252  0E71  3F40               	moviw [0]fsr1
  9253  0E72  00F9               	movwf	i1USBTransferOnePacket@handle
  9254  0E73  3F41               	moviw [1]fsr1
  9255  0E74  00FA               	movwf	i1USBTransferOnePacket@handle+1
  9256                           
  9257                           ;usb_device.c: 1008:     }
  9258  0E75  2E7F               	goto	i1l2906
  9259  0E76                     i1l2904:
  9260                           
  9261                           ;usb_device.c: 1010:     {;usb_device.c: 1012:         handle = pBDTEntryOut[ep];
  9262  0E76  3578               	lslf	i1USBTransferOnePacket@ep,w
  9263  0E77  3EAB               	addlw	(low (_pBDTEntryOut| (0+256)))& (0+255)
  9264  0E78  0086               	movwf	6
  9265  0E79  3001               	movlw	1	; select bank3/4
  9266  0E7A  0087               	movwf	7
  9267  0E7B  3F40               	moviw [0]fsr1
  9268  0E7C  00F9               	movwf	i1USBTransferOnePacket@handle
  9269  0E7D  3F41               	moviw [1]fsr1
  9270  0E7E  00FA               	movwf	i1USBTransferOnePacket@handle+1
  9271  0E7F                     i1l2906:
  9272                           
  9273                           ;usb_device.c: 1017:     if(handle == 0)
  9274  0E7F  0879               	movf	i1USBTransferOnePacket@handle,w
  9275  0E80  047A               	iorwf	i1USBTransferOnePacket@handle+1,w
  9276  0E81  1D03               	btfss	3,2
  9277  0E82  2E84               	goto	u152_21
  9278  0E83  2E85               	goto	u152_20
  9279  0E84                     u152_21:
  9280  0E84  2E88               	goto	i1l2912
  9281  0E85                     u152_20:
  9282  0E85                     i1l2908:
  9283                           
  9284                           ;usb_device.c: 1018:     {;usb_device.c: 1019:         return 0;
  9285  0E85  01F0               	clrf	?i1_USBTransferOnePacket
  9286  0E86  01F1               	clrf	?i1_USBTransferOnePacket+1
  9287  0E87  2EED               	goto	i1l291
  9288  0E88                     i1l2912:
  9289                           
  9290                           ;usb_device.c: 1033:     handle->ADR = (((uint16_t)(data)) & 0x7FFF);
  9291  0E88  30FF               	movlw	255
  9292  0E89  0571               	andwf	i1USBTransferOnePacket@data,w
  9293  0E8A  00F4               	movwf	??i1_USBTransferOnePacket
  9294  0E8B  307F               	movlw	127
  9295  0E8C  0572               	andwf	i1USBTransferOnePacket@data+1,w
  9296  0E8D  00F5               	movwf	??i1_USBTransferOnePacket+1
  9297  0E8E  0879               	movf	i1USBTransferOnePacket@handle,w
  9298  0E8F  0086               	movwf	6
  9299  0E90  087A               	movf	i1USBTransferOnePacket@handle+1,w
  9300  0E91  0087               	movwf	7
  9301  0E92  3142               	addfsr 1,2
  9302  0E93  0874               	movf	??i1_USBTransferOnePacket,w
  9303  0E94  3FC0               	movwi [0]fsr1
  9304  0E95  0875               	movf	??i1_USBTransferOnePacket+1,w
  9305  0E96  3FC1               	movwi [1]fsr1
  9306  0E97                     i1l2914:
  9307                           
  9308                           ;usb_device.c: 1034:     handle->CNT = len;
  9309  0E97  0879               	movf	i1USBTransferOnePacket@handle,w
  9310  0E98  3E01               	addlw	1
  9311  0E99  00F4               	movwf	??i1_USBTransferOnePacket
  9312  0E9A  3000               	movlw	0
  9313  0E9B  3D7A               	addwfc	i1USBTransferOnePacket@handle+1,w
  9314  0E9C  00F5               	movwf	??i1_USBTransferOnePacket+1
  9315  0E9D  0874               	movf	??i1_USBTransferOnePacket,w
  9316  0E9E  0086               	movwf	6
  9317  0E9F  0875               	movf	??i1_USBTransferOnePacket+1,w
  9318  0EA0  0087               	movwf	7
  9319  0EA1  0873               	movf	i1USBTransferOnePacket@len,w
  9320  0EA2  0081               	movwf	1
  9321  0EA3                     i1l2916:
  9322                           
  9323                           ;usb_device.c: 1035:     handle->STAT.Val &= 0x40;
  9324  0EA3  3040               	movlw	64
  9325  0EA4  00F4               	movwf	??i1_USBTransferOnePacket
  9326  0EA5  0879               	movf	i1USBTransferOnePacket@handle,w
  9327  0EA6  0086               	movwf	6
  9328  0EA7  087A               	movf	i1USBTransferOnePacket@handle+1,w
  9329  0EA8  0087               	movwf	7
  9330  0EA9  0874               	movf	??i1_USBTransferOnePacket,w
  9331  0EAA  0581               	andwf	1,f
  9332                           
  9333                           ;usb_device.c: 1036:     handle->STAT.Val |= (0x08 & 0x08);
  9334  0EAB  0879               	movf	i1USBTransferOnePacket@handle,w
  9335  0EAC  0086               	movwf	6
  9336  0EAD  087A               	movf	i1USBTransferOnePacket@handle+1,w
  9337  0EAE  0087               	movwf	7
  9338  0EAF  1581               	bsf	1,3
  9339                           
  9340                           ;usb_device.c: 1037:     handle->STAT.Val |= 0x80;
  9341  0EB0  0879               	movf	i1USBTransferOnePacket@handle,w
  9342  0EB1  0086               	movwf	6
  9343  0EB2  087A               	movf	i1USBTransferOnePacket@handle+1,w
  9344  0EB3  0087               	movwf	7
  9345  0EB4  1781               	bsf	1,7
  9346  0EB5                     i1l2918:
  9347                           
  9348                           ;usb_device.c: 1040:     if(dir != 0)
  9349  0EB5  0870               	movf	i1USBTransferOnePacket@dir,w
  9350  0EB6  1903               	btfsc	3,2
  9351  0EB7  2EB9               	goto	u153_21
  9352  0EB8  2EBA               	goto	u153_20
  9353  0EB9                     u153_21:
  9354  0EB9  2ED1               	goto	i1l2922
  9355  0EBA                     u153_20:
  9356  0EBA                     i1l2920:
  9357                           
  9358                           ;usb_device.c: 1041:     {;usb_device.c: 1043:         pBDTEntryIn[ep] = (BDT_ENTRY*)(((
      +                          uint16_t)pBDTEntryIn[ep]) ^ 0x0004);
  9359  0EBA  3578               	lslf	i1USBTransferOnePacket@ep,w
  9360  0EBB  3E6A               	addlw	(low (_pBDTEntryIn| 0))& (0+255)
  9361  0EBC  0086               	movwf	6
  9362  0EBD  0187               	clrf	7
  9363  0EBE  3F40               	moviw [0]fsr1
  9364  0EBF  00F4               	movwf	??i1_USBTransferOnePacket
  9365  0EC0  3F41               	moviw [1]fsr1
  9366  0EC1  00F5               	movwf	??i1_USBTransferOnePacket+1
  9367  0EC2  3004               	movlw	4
  9368  0EC3  0674               	xorwf	??i1_USBTransferOnePacket,w
  9369  0EC4  00F6               	movwf	??i1_USBTransferOnePacket+2
  9370  0EC5  3000               	movlw	0
  9371  0EC6  0675               	xorwf	??i1_USBTransferOnePacket+1,w
  9372  0EC7  00F7               	movwf	??i1_USBTransferOnePacket+3
  9373  0EC8  3578               	lslf	i1USBTransferOnePacket@ep,w
  9374  0EC9  3E6A               	addlw	(low (_pBDTEntryIn| 0))& (0+255)
  9375  0ECA  0086               	movwf	6
  9376  0ECB  0187               	clrf	7
  9377  0ECC  0876               	movf	??i1_USBTransferOnePacket+2,w
  9378  0ECD  3FC0               	movwi [0]fsr1
  9379  0ECE  0877               	movf	??i1_USBTransferOnePacket+3,w
  9380  0ECF  3FC1               	movwi [1]fsr1
  9381                           
  9382                           ;usb_device.c: 1044:     }
  9383  0ED0  2EE9               	goto	i1l2924
  9384  0ED1                     i1l2922:
  9385                           
  9386                           ;usb_device.c: 1046:     {;usb_device.c: 1048:         pBDTEntryOut[ep] = (BDT_ENTRY*)((
      +                          (uint16_t)pBDTEntryOut[ep]) ^ 0x0004);
  9387  0ED1  3578               	lslf	i1USBTransferOnePacket@ep,w
  9388  0ED2  3EAB               	addlw	(low (_pBDTEntryOut| (0+256)))& (0+255)
  9389  0ED3  0086               	movwf	6
  9390  0ED4  3001               	movlw	1	; select bank3/4
  9391  0ED5  0087               	movwf	7
  9392  0ED6  3F40               	moviw [0]fsr1
  9393  0ED7  00F4               	movwf	??i1_USBTransferOnePacket
  9394  0ED8  3F41               	moviw [1]fsr1
  9395  0ED9  00F5               	movwf	??i1_USBTransferOnePacket+1
  9396  0EDA  3004               	movlw	4
  9397  0EDB  0674               	xorwf	??i1_USBTransferOnePacket,w
  9398  0EDC  00F6               	movwf	??i1_USBTransferOnePacket+2
  9399  0EDD  3000               	movlw	0
  9400  0EDE  0675               	xorwf	??i1_USBTransferOnePacket+1,w
  9401  0EDF  00F7               	movwf	??i1_USBTransferOnePacket+3
  9402  0EE0  3578               	lslf	i1USBTransferOnePacket@ep,w
  9403  0EE1  3EAB               	addlw	(low (_pBDTEntryOut| (0+256)))& (0+255)
  9404  0EE2  0086               	movwf	6
  9405  0EE3  3001               	movlw	1	; select bank3/4
  9406  0EE4  0087               	movwf	7
  9407  0EE5  0876               	movf	??i1_USBTransferOnePacket+2,w
  9408  0EE6  3FC0               	movwi [0]fsr1
  9409  0EE7  0877               	movf	??i1_USBTransferOnePacket+3,w
  9410  0EE8  3FC1               	movwi [1]fsr1
  9411  0EE9                     i1l2924:
  9412                           
  9413                           ;usb_device.c: 1050:     return (void*)handle;
  9414  0EE9  087A               	movf	i1USBTransferOnePacket@handle+1,w
  9415  0EEA  00F1               	movwf	?i1_USBTransferOnePacket+1
  9416  0EEB  0879               	movf	i1USBTransferOnePacket@handle,w
  9417  0EEC  00F0               	movwf	?i1_USBTransferOnePacket
  9418  0EED                     i1l291:
  9419  0EED  0008               	return
  9420  0EEE                     __end_ofi1_USBTransferOnePacket:
  9421                           
  9422                           	psect	text39
  9423  0892                     __ptext39:	
  9424 ;; *************** function _USBEnableEndpoint *****************
  9425 ;; Defined at:
  9426 ;;		line 882 in file "usb_device.c"
  9427 ;; Parameters:    Size  Location     Type
  9428 ;;  ep              1    wreg     unsigned char 
  9429 ;;  options         1    7[COMMON] unsigned char 
  9430 ;; Auto vars:     Size  Location     Type
  9431 ;;  ep              1   12[COMMON] unsigned char 
  9432 ;;  p               2   10[COMMON] PTR unsigned char 
  9433 ;;		 -> UEP0(1), 
  9434 ;; Return value:  Size  Location     Type
  9435 ;;                  1    wreg      void 
  9436 ;; Registers used:
  9437 ;;		wreg, fsr1l, fsr1h, status,2, status,0, pclath, cstack
  9438 ;; Tracked objects:
  9439 ;;		On entry : 0/0
  9440 ;;		On exit  : 0/0
  9441 ;;		Unchanged: 0/0
  9442 ;; Data sizes:     COMMON   BANK0   BANK1   BANK2   BANK3   BANK4   BANK5   BANK6   BANK7   BANK8   BANK9  BANK10  BANK1
      +1  BANK12
  9443 ;;      Params:         1       0       0       0       0       0       0       0       0       0       0       0       
      +0       0
  9444 ;;      Locals:         3       0       0       0       0       0       0       0       0       0       0       0       
      +0       0
  9445 ;;      Temps:          2       0       0       0       0       0       0       0       0       0       0       0       
      +0       0
  9446 ;;      Totals:         6       0       0       0       0       0       0       0       0       0       0       0       
      +0       0
  9447 ;;Total ram usage:        6 bytes
  9448 ;; Hardware stack levels used: 1
  9449 ;; Hardware stack levels required when called: 1
  9450 ;; This function calls:
  9451 ;;		_USBConfigureEndpoint
  9452 ;; This function is called by:
  9453 ;;		_APP_DeviceCustomHIDInitialize
  9454 ;; This function uses a non-reentrant model
  9455 ;;
  9456                           
  9457  0892                     _USBEnableEndpoint:	
  9458                           ;psect for function _USBEnableEndpoint
  9459                           
  9460                           
  9461                           ;incstack = 0
  9462                           ; Regs used in _USBEnableEndpoint: [wreg+fsr1l+fsr1h+status,2+status,0+pclath+cstack]
  9463                           ;USBEnableEndpoint@ep stored from wreg
  9464  0892  00FC               	movwf	USBEnableEndpoint@ep
  9465  0893                     i1l2888:
  9466                           
  9467                           ;usb_device.c: 882: void USBEnableEndpoint(uint8_t ep, uint8_t options);usb_device.c: 88
      +                          3: {;usb_device.c: 884:     unsigned char* p;;usb_device.c: 888:     if(options & 0x04)
  9468  0893  1D77               	btfss	USBEnableEndpoint@options,2
  9469  0894  2896               	goto	u149_21
  9470  0895  2897               	goto	u149_20
  9471  0896                     u149_21:
  9472  0896  289C               	goto	i1l2892
  9473  0897                     u149_20:
  9474  0897                     i1l2890:
  9475                           
  9476                           ;usb_device.c: 889:     {;usb_device.c: 890:         USBConfigureEndpoint(ep, 0);
  9477  0897  01F0               	clrf	USBConfigureEndpoint@direction
  9478  0898  087C               	movf	USBEnableEndpoint@ep,w
  9479  0899  318A  2246  3188   	fcall	_USBConfigureEndpoint
  9480  089C                     i1l2892:
  9481                           
  9482                           ;usb_device.c: 892:     if(options & 0x02)
  9483  089C  1CF7               	btfss	USBEnableEndpoint@options,1
  9484  089D  289F               	goto	u150_21
  9485  089E  28A0               	goto	u150_20
  9486  089F                     u150_21:
  9487  089F  28A6               	goto	i1l2896
  9488  08A0                     u150_20:
  9489  08A0                     i1l2894:
  9490                           
  9491                           ;usb_device.c: 893:     {;usb_device.c: 894:         USBConfigureEndpoint(ep, 1);
  9492  08A0  01F0               	clrf	USBConfigureEndpoint@direction
  9493  08A1  0AF0               	incf	USBConfigureEndpoint@direction,f
  9494  08A2  087C               	movf	USBEnableEndpoint@ep,w
  9495  08A3  318A  2246  3188   	fcall	_USBConfigureEndpoint
  9496  08A6                     i1l2896:
  9497                           
  9498                           ;usb_device.c: 903:         p = (unsigned char*)(&UEP0+ep);
  9499  08A6  087C               	movf	USBEnableEndpoint@ep,w
  9500  08A7  3E98               	addlw	152
  9501  08A8  00F8               	movwf	??_USBEnableEndpoint
  9502  08A9  01F9               	clrf	??_USBEnableEndpoint+1
  9503  08AA  300E               	movlw	14
  9504  08AB  3DF9               	addwfc	??_USBEnableEndpoint+1,f
  9505  08AC  0878               	movf	??_USBEnableEndpoint,w
  9506  08AD  00FA               	movwf	USBEnableEndpoint@p
  9507  08AE  0879               	movf	??_USBEnableEndpoint+1,w
  9508  08AF  00FB               	movwf	USBEnableEndpoint@p+1
  9509  08B0                     i1l2898:
  9510                           
  9511                           ;usb_device.c: 905:     *p = options;
  9512  08B0  087A               	movf	USBEnableEndpoint@p,w
  9513  08B1  0086               	movwf	6
  9514  08B2  087B               	movf	USBEnableEndpoint@p+1,w
  9515  08B3  0087               	movwf	7
  9516  08B4  0877               	movf	USBEnableEndpoint@options,w
  9517  08B5  0081               	movwf	1
  9518  08B6                     i1l285:
  9519  08B6  0008               	return
  9520  08B7                     __end_of_USBEnableEndpoint:
  9521                           
  9522                           	psect	text40
  9523  0A46                     __ptext40:	
  9524 ;; *************** function _USBConfigureEndpoint *****************
  9525 ;; Defined at:
  9526 ;;		line 1547 in file "usb_device.c"
  9527 ;; Parameters:    Size  Location     Type
  9528 ;;  EPNum           1    wreg     unsigned char 
  9529 ;;  direction       1    0[COMMON] unsigned char 
  9530 ;; Auto vars:     Size  Location     Type
  9531 ;;  EPNum           1    5[COMMON] unsigned char 
  9532 ;;  handle          1    6[COMMON] PTR volatile struct __BD
  9533 ;;		 -> BDT(32), 
  9534 ;; Return value:  Size  Location     Type
  9535 ;;                  1    wreg      void 
  9536 ;; Registers used:
  9537 ;;		wreg, fsr1l, fsr1h, status,2, status,0
  9538 ;; Tracked objects:
  9539 ;;		On entry : 0/0
  9540 ;;		On exit  : 0/0
  9541 ;;		Unchanged: 0/0
  9542 ;; Data sizes:     COMMON   BANK0   BANK1   BANK2   BANK3   BANK4   BANK5   BANK6   BANK7   BANK8   BANK9  BANK10  BANK1
      +1  BANK12
  9543 ;;      Params:         1       0       0       0       0       0       0       0       0       0       0       0       
      +0       0
  9544 ;;      Locals:         2       0       0       0       0       0       0       0       0       0       0       0       
      +0       0
  9545 ;;      Temps:          4       0       0       0       0       0       0       0       0       0       0       0       
      +0       0
  9546 ;;      Totals:         7       0       0       0       0       0       0       0       0       0       0       0       
      +0       0
  9547 ;;Total ram usage:        7 bytes
  9548 ;; Hardware stack levels used: 1
  9549 ;; This function calls:
  9550 ;;		Nothing
  9551 ;; This function is called by:
  9552 ;;		_USBEnableEndpoint
  9553 ;; This function uses a non-reentrant model
  9554 ;;
  9555                           
  9556  0A46                     _USBConfigureEndpoint:	
  9557                           ;psect for function _USBConfigureEndpoint
  9558                           
  9559                           
  9560                           ;incstack = 0
  9561                           ; Regs used in _USBConfigureEndpoint: [wreg+fsr1l+fsr1h+status,2+status,0]
  9562                           ;USBConfigureEndpoint@EPNum stored from wreg
  9563  0A46  00F5               	movwf	USBConfigureEndpoint@EPNum
  9564  0A47                     i1l2872:
  9565                           
  9566                           ;usb_device.c: 1547: static void USBConfigureEndpoint(uint8_t EPNum, uint8_t direction);
      +                          usb_device.c: 1548: {;usb_device.c: 1549:     volatile BDT_ENTRY* handle;;usb_device.c: 
      +                          1553:     handle = (volatile BDT_ENTRY*)&BDT[0];
  9567  0A47  3020               	movlw	32
  9568  0A48  00F1               	movwf	??_USBConfigureEndpoint
  9569  0A49  0871               	movf	??_USBConfigureEndpoint,w
  9570  0A4A  00F6               	movwf	USBConfigureEndpoint@handle
  9571  0A4B                     i1l2874:
  9572                           
  9573                           ;usb_device.c: 1554:     handle += (4*EPNum+2*direction+0u);
  9574  0A4B  0870               	movf	USBConfigureEndpoint@direction,w
  9575  0A4C  00F1               	movwf	??_USBConfigureEndpoint
  9576  0A4D  3001               	movlw	1
  9577  0A4E                     u145_25:
  9578  0A4E  35F1               	lslf	??_USBConfigureEndpoint,f
  9579  0A4F  0B89               	decfsz	9,f
  9580  0A50  2A4E               	goto	u145_25
  9581  0A51  0875               	movf	USBConfigureEndpoint@EPNum,w
  9582  0A52  00F2               	movwf	??_USBConfigureEndpoint+1
  9583  0A53  3001               	movlw	1
  9584  0A54                     u146_25:
  9585  0A54  35F2               	lslf	??_USBConfigureEndpoint+1,f
  9586  0A55  3EFF               	addlw	-1
  9587  0A56  1D03               	skipz
  9588  0A57  2A54               	goto	u146_25
  9589  0A58  3572               	lslf	??_USBConfigureEndpoint+1,w
  9590  0A59  0771               	addwf	??_USBConfigureEndpoint,w
  9591  0A5A  00F3               	movwf	??_USBConfigureEndpoint+2
  9592  0A5B  3001               	movlw	1
  9593  0A5C                     u147_25:
  9594  0A5C  35F3               	lslf	??_USBConfigureEndpoint+2,f
  9595  0A5D  3EFF               	addlw	-1
  9596  0A5E  1D03               	skipz
  9597  0A5F  2A5C               	goto	u147_25
  9598  0A60  3573               	lslf	??_USBConfigureEndpoint+2,w
  9599  0A61  00F4               	movwf	??_USBConfigureEndpoint+3
  9600  0A62  0874               	movf	??_USBConfigureEndpoint+3,w
  9601  0A63  07F6               	addwf	USBConfigureEndpoint@handle,f
  9602  0A64                     i1l2876:
  9603                           
  9604                           ;usb_device.c: 1556:     handle->STAT.UOWN = 0;
  9605  0A64  0876               	movf	USBConfigureEndpoint@handle,w
  9606  0A65  0086               	movwf	6
  9607  0A66  0187               	clrf	7
  9608  0A67  1381               	bcf	1,7
  9609  0A68                     i1l2878:
  9610                           
  9611                           ;usb_device.c: 1561:     if(direction == 0)
  9612  0A68  0870               	movf	USBConfigureEndpoint@direction,w
  9613  0A69  1D03               	btfss	3,2
  9614  0A6A  2A6C               	goto	u148_21
  9615  0A6B  2A6D               	goto	u148_20
  9616  0A6C                     u148_21:
  9617  0A6C  2A77               	goto	i1l2882
  9618  0A6D                     u148_20:
  9619  0A6D                     i1l2880:
  9620                           
  9621                           ;usb_device.c: 1562:     {;usb_device.c: 1563:         pBDTEntryOut[EPNum] = handle;
  9622  0A6D  3575               	lslf	USBConfigureEndpoint@EPNum,w
  9623  0A6E  3EAB               	addlw	(low (_pBDTEntryOut| (0+256)))& (0+255)
  9624  0A6F  0086               	movwf	6
  9625  0A70  3001               	movlw	1	; select bank3/4
  9626  0A71  0087               	movwf	7
  9627  0A72  0876               	movf	USBConfigureEndpoint@handle,w
  9628  0A73  3FC0               	movwi [0]fsr1
  9629  0A74  3000               	movlw	0
  9630  0A75  3FC1               	movwi [1]fsr1
  9631                           
  9632                           ;usb_device.c: 1564:     }
  9633  0A76  2A7F               	goto	i1l2884
  9634  0A77                     i1l2882:
  9635                           
  9636                           ;usb_device.c: 1566:     {;usb_device.c: 1567:         pBDTEntryIn[EPNum] = handle;
  9637  0A77  3575               	lslf	USBConfigureEndpoint@EPNum,w
  9638  0A78  3E6A               	addlw	(low (_pBDTEntryIn| 0))& (0+255)
  9639  0A79  0086               	movwf	6
  9640  0A7A  0187               	clrf	7
  9641  0A7B  0876               	movf	USBConfigureEndpoint@handle,w
  9642  0A7C  3FC0               	movwi [0]fsr1
  9643  0A7D  3000               	movlw	0
  9644  0A7E  3FC1               	movwi [1]fsr1
  9645  0A7F                     i1l2884:
  9646                           
  9647                           ;usb_device.c: 1571:         handle->STAT.DTS = 0;
  9648  0A7F  0876               	movf	USBConfigureEndpoint@handle,w
  9649  0A80  0086               	movwf	6
  9650  0A81  0187               	clrf	7
  9651  0A82  1301               	bcf	1,6
  9652  0A83                     i1l2886:
  9653                           
  9654                           ;usb_device.c: 1572:         (handle+1)->STAT.DTS = 1;
  9655  0A83  0876               	movf	USBConfigureEndpoint@handle,w
  9656  0A84  3E04               	addlw	4
  9657  0A85  0086               	movwf	6
  9658  0A86  0187               	clrf	7
  9659  0A87  1701               	bsf	1,6
  9660  0A88                     i1l332:
  9661  0A88  0008               	return
  9662  0A89                     __end_of_USBConfigureEndpoint:
  9663                           
  9664                           	psect	text41
  9665  0A0C                     __ptext41:	
  9666 ;; *************** function _USBCtrlTrfOutHandler *****************
  9667 ;; Defined at:
  9668 ;;		line 2545 in file "usb_device.c"
  9669 ;; Parameters:    Size  Location     Type
  9670 ;;		None
  9671 ;; Auto vars:     Size  Location     Type
  9672 ;;		None
  9673 ;; Return value:  Size  Location     Type
  9674 ;;                  1    wreg      void 
  9675 ;; Registers used:
  9676 ;;		wreg, fsr1l, fsr1h, status,2, status,0, pclath, cstack
  9677 ;; Tracked objects:
  9678 ;;		On entry : 0/0
  9679 ;;		On exit  : 0/0
  9680 ;;		Unchanged: 0/0
  9681 ;; Data sizes:     COMMON   BANK0   BANK1   BANK2   BANK3   BANK4   BANK5   BANK6   BANK7   BANK8   BANK9  BANK10  BANK1
      +1  BANK12
  9682 ;;      Params:         0       0       0       0       0       0       0       0       0       0       0       0       
      +0       0
  9683 ;;      Locals:         0       0       0       0       0       0       0       0       0       0       0       0       
      +0       0
  9684 ;;      Temps:          2       0       0       0       0       0       0       0       0       0       0       0       
      +0       0
  9685 ;;      Totals:         2       0       0       0       0       0       0       0       0       0       0       0       
      +0       0
  9686 ;;Total ram usage:        2 bytes
  9687 ;; Hardware stack levels used: 1
  9688 ;; Hardware stack levels required when called: 2
  9689 ;; This function calls:
  9690 ;;		_USBCtrlTrfRxService
  9691 ;; This function is called by:
  9692 ;;		_USBCtrlEPService
  9693 ;; This function uses a non-reentrant model
  9694 ;;
  9695                           
  9696  0A0C                     _USBCtrlTrfOutHandler:	
  9697                           ;psect for function _USBCtrlTrfOutHandler
  9698                           
  9699  0A0C                     i1l3592:	
  9700                           ;incstack = 0
  9701                           ; Regs used in _USBCtrlTrfOutHandler: [wreg+fsr1l+fsr1h+status,2+status,0+pclath+cstack]
  9702                           
  9703                           
  9704                           ;usb_device.c: 2547:     if(controlTransferState == 2)
  9705  0A0C  3002               	movlw	2
  9706  0A0D  0021               	movlb	1	; select bank1
  9707  0A0E  066D               	xorwf	_controlTransferState^(0+128),w	;volatile
  9708  0A0F  1D03               	btfss	3,2
  9709  0A10  2A12               	goto	u220_21
  9710  0A11  2A13               	goto	u220_20
  9711  0A12                     u220_21:
  9712  0A12  2A17               	goto	i1l3596
  9713  0A13                     u220_20:
  9714  0A13                     i1l3594:
  9715                           
  9716                           ;usb_device.c: 2548:     {;usb_device.c: 2549:         USBCtrlTrfRxService();
  9717  0A13  3185  2506  318A   	fcall	_USBCtrlTrfRxService
  9718                           
  9719                           ;usb_device.c: 2550:     }
  9720  0A16  2A45               	goto	i1l443
  9721  0A17                     i1l3596:
  9722                           
  9723                           ;usb_device.c: 2552:     {;usb_device.c: 2555:         controlTransferState = 0;
  9724  0A17  01ED               	clrf	_controlTransferState^(0+128)	;volatile
  9725  0A18                     i1l3598:
  9726                           
  9727                           ;usb_device.c: 2562:         if(BothEP0OutUOWNsSet == 0)
  9728  0A18  0023               	movlb	3	; select bank3
  9729  0A19  0838               	movf	_BothEP0OutUOWNsSet^(0+384),w	;volatile
  9730  0A1A  1D03               	btfss	3,2
  9731  0A1B  2A1D               	goto	u221_21
  9732  0A1C  2A1E               	goto	u221_20
  9733  0A1D                     u221_21:
  9734  0A1D  2A44               	goto	i1l3608
  9735  0A1E                     u221_20:
  9736  0A1E                     i1l3600:
  9737                           
  9738                           ;usb_device.c: 2563:         {;usb_device.c: 2564:             pBDTEntryEP0OutNext->CNT 
      +                          = 8;
  9739  0A1E  0020               	movlb	0	; select bank0
  9740  0A1F  086E               	movf	_pBDTEntryEP0OutNext,w
  9741  0A20  3E01               	addlw	1
  9742  0A21  00F6               	movwf	??_USBCtrlTrfOutHandler
  9743  0A22  3000               	movlw	0
  9744  0A23  3D6F               	addwfc	_pBDTEntryEP0OutNext+1,w
  9745  0A24  00F7               	movwf	??_USBCtrlTrfOutHandler+1
  9746  0A25  0876               	movf	??_USBCtrlTrfOutHandler,w
  9747  0A26  0086               	movwf	6
  9748  0A27  0877               	movf	??_USBCtrlTrfOutHandler+1,w
  9749  0A28  0087               	movwf	7
  9750  0A29  3008               	movlw	8
  9751  0A2A  0081               	movwf	1
  9752  0A2B                     i1l3602:
  9753                           
  9754                           ;usb_device.c: 2565:             pBDTEntryEP0OutNext->ADR = (((uint16_t)(&SetupPkt)) & 0
      +                          x7FFF);
  9755  0A2B  3040               	movlw	64
  9756  0A2C  00F6               	movwf	??_USBCtrlTrfOutHandler
  9757  0A2D  3000               	movlw	0
  9758  0A2E  00F7               	movwf	??_USBCtrlTrfOutHandler+1
  9759  0A2F  086E               	movf	_pBDTEntryEP0OutNext,w
  9760  0A30  0086               	movwf	6
  9761  0A31  086F               	movf	_pBDTEntryEP0OutNext+1,w
  9762  0A32  0087               	movwf	7
  9763  0A33  3142               	addfsr 1,2
  9764  0A34  0876               	movf	??_USBCtrlTrfOutHandler,w
  9765  0A35  3FC0               	movwi [0]fsr1
  9766  0A36  0877               	movf	??_USBCtrlTrfOutHandler+1,w
  9767  0A37  3FC1               	movwi [1]fsr1
  9768  0A38                     i1l3604:
  9769                           
  9770                           ;usb_device.c: 2566:             pBDTEntryEP0OutNext->STAT.Val = 0x00|(0x08 & 0x08)|0x04
      +                          ;
  9771  0A38  086E               	movf	_pBDTEntryEP0OutNext,w
  9772  0A39  0086               	movwf	6
  9773  0A3A  086F               	movf	_pBDTEntryEP0OutNext+1,w
  9774  0A3B  0087               	movwf	7
  9775  0A3C  300C               	movlw	12
  9776  0A3D  0081               	movwf	1
  9777  0A3E                     i1l3606:
  9778                           
  9779                           ;usb_device.c: 2567:             pBDTEntryEP0OutNext->STAT.Val |= 0x80;
  9780  0A3E  086E               	movf	_pBDTEntryEP0OutNext,w
  9781  0A3F  0086               	movwf	6
  9782  0A40  086F               	movf	_pBDTEntryEP0OutNext+1,w
  9783  0A41  0087               	movwf	7
  9784  0A42  1781               	bsf	1,7
  9785                           
  9786                           ;usb_device.c: 2568:         }
  9787  0A43  2A45               	goto	i1l443
  9788  0A44                     i1l3608:
  9789                           
  9790                           ;usb_device.c: 2570:         {;usb_device.c: 2571:             BothEP0OutUOWNsSet = 0;
  9791  0A44  01B8               	clrf	_BothEP0OutUOWNsSet^(0+384)	;volatile
  9792  0A45                     i1l443:
  9793  0A45  0008               	return
  9794  0A46                     __end_of_USBCtrlTrfOutHandler:
  9795                           
  9796                           	psect	text42
  9797  0506                     __ptext42:	
  9798 ;; *************** function _USBCtrlTrfRxService *****************
  9799 ;; Defined at:
  9800 ;;		line 1856 in file "usb_device.c"
  9801 ;; Parameters:    Size  Location     Type
  9802 ;;		None
  9803 ;; Auto vars:     Size  Location     Type
  9804 ;;  byteToRead      1    5[COMMON] unsigned char 
  9805 ;;  i               1    4[COMMON] unsigned char 
  9806 ;; Return value:  Size  Location     Type
  9807 ;;                  1    wreg      void 
  9808 ;; Registers used:
  9809 ;;		wreg, fsr1l, fsr1h, status,2, status,0, pclath, cstack
  9810 ;; Tracked objects:
  9811 ;;		On entry : 0/0
  9812 ;;		On exit  : 0/0
  9813 ;;		Unchanged: 0/0
  9814 ;; Data sizes:     COMMON   BANK0   BANK1   BANK2   BANK3   BANK4   BANK5   BANK6   BANK7   BANK8   BANK9  BANK10  BANK1
      +1  BANK12
  9815 ;;      Params:         0       0       0       0       0       0       0       0       0       0       0       0       
      +0       0
  9816 ;;      Locals:         2       0       0       0       0       0       0       0       0       0       0       0       
      +0       0
  9817 ;;      Temps:          2       0       0       0       0       0       0       0       0       0       0       0       
      +0       0
  9818 ;;      Totals:         4       0       0       0       0       0       0       0       0       0       0       0       
      +0       0
  9819 ;;Total ram usage:        4 bytes
  9820 ;; Hardware stack levels used: 1
  9821 ;; Hardware stack levels required when called: 1
  9822 ;; This function calls:
  9823 ;;		_USBCtrlEPAllowStatusStage
  9824 ;; This function is called by:
  9825 ;;		_USBCtrlTrfOutHandler
  9826 ;; This function uses a non-reentrant model
  9827 ;;
  9828                           
  9829  0506                     _USBCtrlTrfRxService:	
  9830                           ;psect for function _USBCtrlTrfRxService
  9831                           
  9832  0506                     i1l3470:	
  9833                           ;incstack = 0
  9834                           ; Regs used in _USBCtrlTrfRxService: [wreg+fsr1l+fsr1h+status,2+status,0+pclath+cstack]
  9835                           
  9836                           
  9837                           ;usb_device.c: 1858:     uint8_t byteToRead;;usb_device.c: 1859:     uint8_t i;;usb_devi
      +                          ce.c: 1863:     byteToRead = pBDTEntryEP0OutCurrent->CNT;
  9838  0506  0021               	movlb	1	; select bank1
  9839  0507  086E               	movf	_pBDTEntryEP0OutCurrent^(0+128),w
  9840  0508  0086               	movwf	6
  9841  0509  0187               	clrf	7
  9842  050A  3F41               	moviw [1]fsr1
  9843  050B  00F5               	movwf	USBCtrlTrfRxService@byteToRead
  9844  050C                     i1l3472:
  9845                           
  9846                           ;usb_device.c: 1869:     if(byteToRead > outPipes[0].wCount.Val)
  9847  050C  0875               	movf	USBCtrlTrfRxService@byteToRead,w
  9848  050D  00F2               	movwf	??_USBCtrlTrfRxService
  9849  050E  01F3               	clrf	??_USBCtrlTrfRxService+1
  9850  050F  0873               	movf	??_USBCtrlTrfRxService+1,w
  9851  0510  0023               	movlb	3	; select bank3
  9852  0511  0224               	subwf	((_outPipes+1)^(0+384)+3),w	;volatile
  9853  0512  1D03               	skipz
  9854  0513  2D16               	goto	u213_25
  9855  0514  0872               	movf	??_USBCtrlTrfRxService,w
  9856  0515  0223               	subwf	(_outPipes^(0+384)+3),w	;volatile
  9857  0516                     u213_25:
  9858  0516  1803               	skipnc
  9859  0517  2D19               	goto	u213_21
  9860  0518  2D1A               	goto	u213_20
  9861  0519                     u213_21:
  9862  0519  2D1E               	goto	i1l363
  9863  051A                     u213_20:
  9864  051A                     i1l3474:
  9865                           
  9866                           ;usb_device.c: 1870:     {;usb_device.c: 1871:         byteToRead = outPipes[0].wCount.V
      +                          al;
  9867  051A  0823               	movf	(_outPipes^(0+384)+3),w	;volatile
  9868  051B  00F2               	movwf	??_USBCtrlTrfRxService
  9869  051C  0872               	movf	??_USBCtrlTrfRxService,w
  9870  051D  00F5               	movwf	USBCtrlTrfRxService@byteToRead
  9871  051E                     i1l363:	
  9872                           ;usb_device.c: 1872:     }
  9873                           
  9874                           
  9875                           ;usb_device.c: 1874:     outPipes[0].wCount.Val -= byteToRead;
  9876  051E  0875               	movf	USBCtrlTrfRxService@byteToRead,w
  9877  051F  00F2               	movwf	??_USBCtrlTrfRxService
  9878  0520  01F3               	clrf	??_USBCtrlTrfRxService+1
  9879  0521  0872               	movf	??_USBCtrlTrfRxService,w
  9880  0522  02A3               	subwf	(_outPipes^(0+384)+3),f	;volatile
  9881  0523  0873               	movf	??_USBCtrlTrfRxService+1,w
  9882  0524  3BA4               	subwfb	((_outPipes+1)^(0+384)+3),f	;volatile
  9883  0525                     i1l3476:
  9884                           
  9885                           ;usb_device.c: 1878:     for(i=0;i<byteToRead;i++)
  9886  0525  01F4               	clrf	USBCtrlTrfRxService@i
  9887  0526  2D3A               	goto	i1l3484
  9888  0527                     i1l3478:
  9889                           
  9890                           ;usb_device.c: 1879:     {;usb_device.c: 1880:         *outPipes[0].pDst.bRam++ = CtrlTr
      +                          fData[i];
  9891  0527  0874               	movf	USBCtrlTrfRxService@i,w
  9892  0528  3E48               	addlw	72
  9893  0529  0086               	movwf	6
  9894  052A  0187               	clrf	7
  9895  052B  0801               	movf	1,w
  9896  052C  00F2               	movwf	??_USBCtrlTrfRxService
  9897  052D  0820               	movf	_outPipes^(0+384),w	;volatile
  9898  052E  0086               	movwf	6
  9899  052F  0187               	clrf	7
  9900  0530  0872               	movf	??_USBCtrlTrfRxService,w
  9901  0531  0081               	movwf	1
  9902  0532                     i1l3480:
  9903  0532  3001               	movlw	1
  9904  0533  00F2               	movwf	??_USBCtrlTrfRxService
  9905  0534  0872               	movf	??_USBCtrlTrfRxService,w
  9906  0535  07A0               	addwf	_outPipes^(0+384),f	;volatile
  9907  0536                     i1l3482:
  9908                           
  9909                           ;usb_device.c: 1881:     }
  9910  0536  3001               	movlw	1
  9911  0537  00F2               	movwf	??_USBCtrlTrfRxService
  9912  0538  0872               	movf	??_USBCtrlTrfRxService,w
  9913  0539  07F4               	addwf	USBCtrlTrfRxService@i,f
  9914  053A                     i1l3484:
  9915  053A  0875               	movf	USBCtrlTrfRxService@byteToRead,w
  9916  053B  0274               	subwf	USBCtrlTrfRxService@i,w
  9917  053C  1C03               	skipc
  9918  053D  2D3F               	goto	u214_21
  9919  053E  2D40               	goto	u214_20
  9920  053F                     u214_21:
  9921  053F  2D27               	goto	i1l3478
  9922  0540                     u214_20:
  9923  0540                     i1l3486:
  9924                           
  9925                           ;usb_device.c: 1885:     if(outPipes[0].wCount.Val > 0)
  9926  0540  0823               	movf	(_outPipes^(0+384)+3),w	;volatile
  9927  0541  0424               	iorwf	((_outPipes+1)^(0+384)+3),w	;volatile
  9928  0542  1903               	btfsc	3,2
  9929  0543  2D45               	goto	u215_21
  9930  0544  2D46               	goto	u215_20
  9931  0545                     u215_21:
  9932  0545  2D82               	goto	i1l3498
  9933  0546                     u215_20:
  9934  0546                     i1l3488:
  9935                           
  9936                           ;usb_device.c: 1886:     {;usb_device.c: 1887:         pBDTEntryEP0OutNext->CNT = 8;
  9937  0546  0020               	movlb	0	; select bank0
  9938  0547  086E               	movf	_pBDTEntryEP0OutNext,w
  9939  0548  3E01               	addlw	1
  9940  0549  00F2               	movwf	??_USBCtrlTrfRxService
  9941  054A  3000               	movlw	0
  9942  054B  3D6F               	addwfc	_pBDTEntryEP0OutNext+1,w
  9943  054C  00F3               	movwf	??_USBCtrlTrfRxService+1
  9944  054D  0872               	movf	??_USBCtrlTrfRxService,w
  9945  054E  0086               	movwf	6
  9946  054F  0873               	movf	??_USBCtrlTrfRxService+1,w
  9947  0550  0087               	movwf	7
  9948  0551  3008               	movlw	8
  9949  0552  0081               	movwf	1
  9950  0553                     i1l3490:
  9951                           
  9952                           ;usb_device.c: 1888:         pBDTEntryEP0OutNext->ADR = (((uint16_t)(&CtrlTrfData)) & 0x
      +                          7FFF);
  9953  0553  3048               	movlw	72
  9954  0554  00F2               	movwf	??_USBCtrlTrfRxService
  9955  0555  3000               	movlw	0
  9956  0556  00F3               	movwf	??_USBCtrlTrfRxService+1
  9957  0557  086E               	movf	_pBDTEntryEP0OutNext,w
  9958  0558  0086               	movwf	6
  9959  0559  086F               	movf	_pBDTEntryEP0OutNext+1,w
  9960  055A  0087               	movwf	7
  9961  055B  3142               	addfsr 1,2
  9962  055C  0872               	movf	??_USBCtrlTrfRxService,w
  9963  055D  3FC0               	movwi [0]fsr1
  9964  055E  0873               	movf	??_USBCtrlTrfRxService+1,w
  9965  055F  3FC1               	movwi [1]fsr1
  9966  0560                     i1l3492:
  9967                           
  9968                           ;usb_device.c: 1889:         if(pBDTEntryEP0OutCurrent->STAT.DTS == 0)
  9969  0560  0021               	movlb	1	; select bank1
  9970  0561  086E               	movf	_pBDTEntryEP0OutCurrent^(0+128),w
  9971  0562  0086               	movwf	6
  9972  0563  0187               	clrf	7
  9973  0564  1B01               	btfsc	1,6
  9974  0565  2D67               	goto	u216_21
  9975  0566  2D68               	goto	u216_20
  9976  0567                     u216_21:
  9977  0567  2D75               	goto	i1l3496
  9978  0568                     u216_20:
  9979  0568                     i1l3494:
  9980                           
  9981                           ;usb_device.c: 1890:         {;usb_device.c: 1891:             pBDTEntryEP0OutNext->STAT
      +                          .Val = 0x40|(0x08 & 0x08);
  9982  0568  0020               	movlb	0	; select bank0
  9983  0569  086E               	movf	_pBDTEntryEP0OutNext,w
  9984  056A  0086               	movwf	6
  9985  056B  086F               	movf	_pBDTEntryEP0OutNext+1,w
  9986  056C  0087               	movwf	7
  9987  056D  3048               	movlw	72
  9988  056E  0081               	movwf	1
  9989                           
  9990                           ;usb_device.c: 1892:             pBDTEntryEP0OutNext->STAT.Val |= 0x80;
  9991  056F  086E               	movf	_pBDTEntryEP0OutNext,w
  9992  0570  0086               	movwf	6
  9993  0571  086F               	movf	_pBDTEntryEP0OutNext+1,w
  9994  0572  0087               	movwf	7
  9995  0573  1781               	bsf	1,7
  9996                           
  9997                           ;usb_device.c: 1893:         }
  9998  0574  2DB4               	goto	i1l373
  9999  0575                     i1l3496:
 10000                           
 10001                           ;usb_device.c: 1895:         {;usb_device.c: 1896:             pBDTEntryEP0OutNext->STAT
      +                          .Val = 0x00|(0x08 & 0x08);
 10002  0575  0020               	movlb	0	; select bank0
 10003  0576  086E               	movf	_pBDTEntryEP0OutNext,w
 10004  0577  0086               	movwf	6
 10005  0578  086F               	movf	_pBDTEntryEP0OutNext+1,w
 10006  0579  0087               	movwf	7
 10007  057A  3008               	movlw	8
 10008  057B  0081               	movwf	1
 10009                           
 10010                           ;usb_device.c: 1897:             pBDTEntryEP0OutNext->STAT.Val |= 0x80;
 10011  057C  086E               	movf	_pBDTEntryEP0OutNext,w
 10012  057D  0086               	movwf	6
 10013  057E  086F               	movf	_pBDTEntryEP0OutNext+1,w
 10014  057F  0087               	movwf	7
 10015  0580  1781               	bsf	1,7
 10016  0581  2DB4               	goto	i1l373
 10017  0582                     i1l3498:
 10018                           
 10019                           ;usb_device.c: 1901:     {;usb_device.c: 1905:         pBDTEntryEP0OutNext->CNT = 8;
 10020  0582  0020               	movlb	0	; select bank0
 10021  0583  086E               	movf	_pBDTEntryEP0OutNext,w
 10022  0584  3E01               	addlw	1
 10023  0585  00F2               	movwf	??_USBCtrlTrfRxService
 10024  0586  3000               	movlw	0
 10025  0587  3D6F               	addwfc	_pBDTEntryEP0OutNext+1,w
 10026  0588  00F3               	movwf	??_USBCtrlTrfRxService+1
 10027  0589  0872               	movf	??_USBCtrlTrfRxService,w
 10028  058A  0086               	movwf	6
 10029  058B  0873               	movf	??_USBCtrlTrfRxService+1,w
 10030  058C  0087               	movwf	7
 10031  058D  3008               	movlw	8
 10032  058E  0081               	movwf	1
 10033  058F                     i1l3500:
 10034                           
 10035                           ;usb_device.c: 1906:         pBDTEntryEP0OutNext->ADR = (((uint16_t)(&SetupPkt)) & 0x7FF
      +                          F);
 10036  058F  3040               	movlw	64
 10037  0590  00F2               	movwf	??_USBCtrlTrfRxService
 10038  0591  3000               	movlw	0
 10039  0592  00F3               	movwf	??_USBCtrlTrfRxService+1
 10040  0593  086E               	movf	_pBDTEntryEP0OutNext,w
 10041  0594  0086               	movwf	6
 10042  0595  086F               	movf	_pBDTEntryEP0OutNext+1,w
 10043  0596  0087               	movwf	7
 10044  0597  3142               	addfsr 1,2
 10045  0598  0872               	movf	??_USBCtrlTrfRxService,w
 10046  0599  3FC0               	movwi [0]fsr1
 10047  059A  0873               	movf	??_USBCtrlTrfRxService+1,w
 10048  059B  3FC1               	movwi [1]fsr1
 10049  059C                     i1l3502:
 10050                           
 10051                           ;usb_device.c: 1910:         pBDTEntryEP0OutNext->STAT.Val = 0x04;
 10052  059C  086E               	movf	_pBDTEntryEP0OutNext,w
 10053  059D  0086               	movwf	6
 10054  059E  086F               	movf	_pBDTEntryEP0OutNext+1,w
 10055  059F  0087               	movwf	7
 10056  05A0  3004               	movlw	4
 10057  05A1  0081               	movwf	1
 10058  05A2                     i1l3504:
 10059                           
 10060                           ;usb_device.c: 1911:         pBDTEntryEP0OutNext->STAT.Val |= 0x80;
 10061  05A2  086E               	movf	_pBDTEntryEP0OutNext,w
 10062  05A3  0086               	movwf	6
 10063  05A4  086F               	movf	_pBDTEntryEP0OutNext+1,w
 10064  05A5  0087               	movwf	7
 10065  05A6  1781               	bsf	1,7
 10066  05A7                     i1l3506:
 10067                           
 10068                           ;usb_device.c: 1919:         {
 10069  05A7  0023               	movlb	3	; select bank3
 10070  05A8  0825               	movf	(low ((_outPipes| (0+256)+5)))^(0+128),w	;volatile
 10071  05A9  0826               	movf	((low ((_outPipes| (0+256)+5))+1))^(0+128),w	;volatile
 10072  05AA                     i1l371:
 10073  05AA  13A2               	bcf	(_outPipes^(0+384)+2),7	;volatile
 10074  05AB                     i1l3508:
 10075                           
 10076                           ;usb_device.c: 1945:         if(USBDeferStatusStagePacket == 0)
 10077  05AB  0022               	movlb	2	; select bank2
 10078  05AC  0864               	movf	_USBDeferStatusStagePacket^(0+256),w	;volatile
 10079  05AD  1D03               	btfss	3,2
 10080  05AE  2DB0               	goto	u217_21
 10081  05AF  2DB1               	goto	u217_20
 10082  05B0                     u217_21:
 10083  05B0  2DB4               	goto	i1l373
 10084  05B1                     u217_20:
 10085  05B1                     i1l3510:
 10086                           
 10087                           ;usb_device.c: 1946:         {;usb_device.c: 1947:             USBCtrlEPAllowStatusStage
      +                          ();
 10088  05B1  318B  23E9  3185   	fcall	_USBCtrlEPAllowStatusStage
 10089  05B4                     i1l373:
 10090  05B4  0008               	return
 10091  05B5                     __end_of_USBCtrlTrfRxService:
 10092                           
 10093                           	psect	text43
 10094  0BE9                     __ptext43:	
 10095 ;; *************** function _USBCtrlEPAllowStatusStage *****************
 10096 ;; Defined at:
 10097 ;;		line 1420 in file "usb_device.c"
 10098 ;; Parameters:    Size  Location     Type
 10099 ;;		None
 10100 ;; Auto vars:     Size  Location     Type
 10101 ;;		None
 10102 ;; Return value:  Size  Location     Type
 10103 ;;                  1    wreg      void 
 10104 ;; Registers used:
 10105 ;;		wreg, fsr1l, fsr1h, status,2, status,0
 10106 ;; Tracked objects:
 10107 ;;		On entry : 0/0
 10108 ;;		On exit  : 0/0
 10109 ;;		Unchanged: 0/0
 10110 ;; Data sizes:     COMMON   BANK0   BANK1   BANK2   BANK3   BANK4   BANK5   BANK6   BANK7   BANK8   BANK9  BANK10  BANK1
      +1  BANK12
 10111 ;;      Params:         0       0       0       0       0       0       0       0       0       0       0       0       
      +0       0
 10112 ;;      Locals:         0       0       0       0       0       0       0       0       0       0       0       0       
      +0       0
 10113 ;;      Temps:          2       0       0       0       0       0       0       0       0       0       0       0       
      +0       0
 10114 ;;      Totals:         2       0       0       0       0       0       0       0       0       0       0       0       
      +0       0
 10115 ;;Total ram usage:        2 bytes
 10116 ;; Hardware stack levels used: 1
 10117 ;; This function calls:
 10118 ;;		Nothing
 10119 ;; This function is called by:
 10120 ;;		_USBDeviceTasks
 10121 ;;		_USBCtrlEPServiceComplete
 10122 ;;		_USBCtrlTrfRxService
 10123 ;; This function uses a non-reentrant model
 10124 ;;
 10125                           
 10126  0BE9                     _USBCtrlEPAllowStatusStage:	
 10127                           ;psect for function _USBCtrlEPAllowStatusStage
 10128                           
 10129  0BE9                     i1l3146:	
 10130                           ;incstack = 0
 10131                           ; Regs used in _USBCtrlEPAllowStatusStage: [wreg+fsr1l+fsr1h+status,2+status,0]
 10132                           
 10133                           
 10134                           ;usb_device.c: 1427:     if(USBStatusStageEnabledFlag1 == 0)
 10135  0BE9  0023               	movlb	3	; select bank3
 10136  0BEA  0837               	movf	_USBStatusStageEnabledFlag1^(0+384),w	;volatile
 10137  0BEB  1D03               	btfss	3,2
 10138  0BEC  2BEE               	goto	u170_21
 10139  0BED  2BEF               	goto	u170_20
 10140  0BEE                     u170_21:
 10141  0BEE  2C62               	goto	i1l321
 10142  0BEF                     u170_20:
 10143  0BEF                     i1l3148:
 10144                           
 10145                           ;usb_device.c: 1428:     {;usb_device.c: 1429:         USBStatusStageEnabledFlag1 = 1;
 10146  0BEF  3001               	movlw	1
 10147  0BF0  00F0               	movwf	??_USBCtrlEPAllowStatusStage
 10148  0BF1  0870               	movf	??_USBCtrlEPAllowStatusStage,w
 10149  0BF2  00B7               	movwf	_USBStatusStageEnabledFlag1^(0+384)	;volatile
 10150  0BF3                     i1l3150:
 10151                           
 10152                           ;usb_device.c: 1430:         if(USBStatusStageEnabledFlag2 == 0)
 10153  0BF3  0836               	movf	_USBStatusStageEnabledFlag2^(0+384),w	;volatile
 10154  0BF4  1D03               	btfss	3,2
 10155  0BF5  2BF7               	goto	u171_21
 10156  0BF6  2BF8               	goto	u171_20
 10157  0BF7                     u171_21:
 10158  0BF7  2C62               	goto	i1l321
 10159  0BF8                     u171_20:
 10160  0BF8                     i1l3152:
 10161                           
 10162                           ;usb_device.c: 1431:         {;usb_device.c: 1432:             USBStatusStageEnabledFlag
      +                          2 = 1;
 10163  0BF8  3001               	movlw	1
 10164  0BF9  00F0               	movwf	??_USBCtrlEPAllowStatusStage
 10165  0BFA  0870               	movf	??_USBCtrlEPAllowStatusStage,w
 10166  0BFB  00B6               	movwf	_USBStatusStageEnabledFlag2^(0+384)	;volatile
 10167  0BFC                     i1l3154:
 10168                           
 10169                           ;usb_device.c: 1436:             if(controlTransferState == 2)
 10170  0BFC  3002               	movlw	2
 10171  0BFD  0021               	movlb	1	; select bank1
 10172  0BFE  066D               	xorwf	_controlTransferState^(0+128),w	;volatile
 10173  0BFF  1D03               	btfss	3,2
 10174  0C00  2C02               	goto	u172_21
 10175  0C01  2C03               	goto	u172_20
 10176  0C02                     u172_21:
 10177  0C02  2C16               	goto	i1l3162
 10178  0C03                     u172_20:
 10179  0C03                     i1l3156:
 10180                           
 10181                           ;usb_device.c: 1437:             {;usb_device.c: 1438:                 pBDTEntryIn[0]->C
      +                          NT = 0;
 10182  0C03  0020               	movlb	0	; select bank0
 10183  0C04  086A               	movf	_pBDTEntryIn,w
 10184  0C05  0086               	movwf	6
 10185  0C06  086B               	movf	_pBDTEntryIn+1,w
 10186  0C07  0087               	movwf	7
 10187  0C08  3141               	addfsr 1,1
 10188  0C09  0181               	clrf	1
 10189  0C0A                     i1l3158:
 10190                           
 10191                           ;usb_device.c: 1439:                 pBDTEntryIn[0]->STAT.Val = 0x40|(0x08 & 0x08);
 10192  0C0A  086A               	movf	_pBDTEntryIn,w
 10193  0C0B  0086               	movwf	6
 10194  0C0C  086B               	movf	_pBDTEntryIn+1,w
 10195  0C0D  0087               	movwf	7
 10196  0C0E  3048               	movlw	72
 10197  0C0F  0081               	movwf	1
 10198  0C10                     i1l3160:
 10199                           
 10200                           ;usb_device.c: 1440:                 pBDTEntryIn[0]->STAT.Val |= 0x80;
 10201  0C10  086A               	movf	_pBDTEntryIn,w
 10202  0C11  0086               	movwf	6
 10203  0C12  086B               	movf	_pBDTEntryIn+1,w
 10204  0C13  0087               	movwf	7
 10205  0C14  1781               	bsf	1,7
 10206                           
 10207                           ;usb_device.c: 1441:             }
 10208  0C15  2C62               	goto	i1l321
 10209  0C16                     i1l3162:
 10210  0C16  036D               	decf	_controlTransferState^(0+128),w	;volatile
 10211  0C17  1D03               	btfss	3,2
 10212  0C18  2C1A               	goto	u173_21
 10213  0C19  2C1B               	goto	u173_20
 10214  0C1A                     u173_21:
 10215  0C1A  2C62               	goto	i1l317
 10216  0C1B                     u173_20:
 10217  0C1B                     i1l3164:
 10218                           
 10219                           ;usb_device.c: 1443:             {;usb_device.c: 1444:                 BothEP0OutUOWNsSe
      +                          t = 0;
 10220  0C1B  0023               	movlb	3	; select bank3
 10221  0C1C  01B8               	clrf	_BothEP0OutUOWNsSet^(0+384)	;volatile
 10222  0C1D                     i1l3166:
 10223                           
 10224                           ;usb_device.c: 1449:                     pBDTEntryEP0OutCurrent->CNT = 8;
 10225  0C1D  3008               	movlw	8
 10226  0C1E  00F0               	movwf	??_USBCtrlEPAllowStatusStage
 10227  0C1F  0021               	movlb	1	; select bank1
 10228  0C20  0A6E               	incf	_pBDTEntryEP0OutCurrent^(0+128),w
 10229  0C21  0086               	movwf	6
 10230  0C22  0187               	clrf	7
 10231  0C23  0870               	movf	??_USBCtrlEPAllowStatusStage,w
 10232  0C24  0081               	movwf	1
 10233  0C25                     i1l3168:
 10234                           
 10235                           ;usb_device.c: 1450:                     pBDTEntryEP0OutCurrent->ADR = (((uint16_t)(&Set
      +                          upPkt)) & 0x7FFF);
 10236  0C25  3040               	movlw	64
 10237  0C26  00F0               	movwf	??_USBCtrlEPAllowStatusStage
 10238  0C27  3000               	movlw	0
 10239  0C28  00F1               	movwf	??_USBCtrlEPAllowStatusStage+1
 10240  0C29  086E               	movf	_pBDTEntryEP0OutCurrent^(0+128),w
 10241  0C2A  3E02               	addlw	2
 10242  0C2B  0086               	movwf	6
 10243  0C2C  0187               	clrf	7
 10244  0C2D  0870               	movf	??_USBCtrlEPAllowStatusStage,w
 10245  0C2E  3FC0               	movwi [0]fsr1
 10246  0C2F  0871               	movf	??_USBCtrlEPAllowStatusStage+1,w
 10247  0C30  3FC1               	movwi [1]fsr1
 10248  0C31                     i1l3170:
 10249                           
 10250                           ;usb_device.c: 1451:                     pBDTEntryEP0OutCurrent->STAT.Val = 0x04;
 10251  0C31  3004               	movlw	4
 10252  0C32  00F0               	movwf	??_USBCtrlEPAllowStatusStage
 10253  0C33  086E               	movf	_pBDTEntryEP0OutCurrent^(0+128),w
 10254  0C34  0086               	movwf	6
 10255  0C35  0187               	clrf	7
 10256  0C36  0870               	movf	??_USBCtrlEPAllowStatusStage,w
 10257  0C37  0081               	movwf	1
 10258  0C38                     i1l3172:
 10259                           
 10260                           ;usb_device.c: 1452:                     pBDTEntryEP0OutCurrent->STAT.Val |= 0x80;
 10261  0C38  086E               	movf	_pBDTEntryEP0OutCurrent^(0+128),w
 10262  0C39  0086               	movwf	6
 10263  0C3A  0187               	clrf	7
 10264  0C3B  1781               	bsf	1,7
 10265  0C3C                     i1l3174:
 10266                           
 10267                           ;usb_device.c: 1453:                     BothEP0OutUOWNsSet = 1;
 10268  0C3C  3001               	movlw	1
 10269  0C3D  00F0               	movwf	??_USBCtrlEPAllowStatusStage
 10270  0C3E  0870               	movf	??_USBCtrlEPAllowStatusStage,w
 10271  0C3F  0023               	movlb	3	; select bank3
 10272  0C40  00B8               	movwf	_BothEP0OutUOWNsSet^(0+384)	;volatile
 10273  0C41                     i1l3176:
 10274                           
 10275                           ;usb_device.c: 1457:                 pBDTEntryEP0OutNext->CNT = 8;
 10276  0C41  0020               	movlb	0	; select bank0
 10277  0C42  086E               	movf	_pBDTEntryEP0OutNext,w
 10278  0C43  3E01               	addlw	1
 10279  0C44  00F0               	movwf	??_USBCtrlEPAllowStatusStage
 10280  0C45  3000               	movlw	0
 10281  0C46  3D6F               	addwfc	_pBDTEntryEP0OutNext+1,w
 10282  0C47  00F1               	movwf	??_USBCtrlEPAllowStatusStage+1
 10283  0C48  0870               	movf	??_USBCtrlEPAllowStatusStage,w
 10284  0C49  0086               	movwf	6
 10285  0C4A  0871               	movf	??_USBCtrlEPAllowStatusStage+1,w
 10286  0C4B  0087               	movwf	7
 10287  0C4C  3008               	movlw	8
 10288  0C4D  0081               	movwf	1
 10289  0C4E                     i1l3178:
 10290                           
 10291                           ;usb_device.c: 1458:                 pBDTEntryEP0OutNext->ADR = (((uint16_t)(&SetupPkt))
      +                           & 0x7FFF);
 10292  0C4E  3040               	movlw	64
 10293  0C4F  00F0               	movwf	??_USBCtrlEPAllowStatusStage
 10294  0C50  3000               	movlw	0
 10295  0C51  00F1               	movwf	??_USBCtrlEPAllowStatusStage+1
 10296  0C52  086E               	movf	_pBDTEntryEP0OutNext,w
 10297  0C53  0086               	movwf	6
 10298  0C54  086F               	movf	_pBDTEntryEP0OutNext+1,w
 10299  0C55  0087               	movwf	7
 10300  0C56  3142               	addfsr 1,2
 10301  0C57  0870               	movf	??_USBCtrlEPAllowStatusStage,w
 10302  0C58  3FC0               	movwi [0]fsr1
 10303  0C59  0871               	movf	??_USBCtrlEPAllowStatusStage+1,w
 10304  0C5A  3FC1               	movwi [1]fsr1
 10305  0C5B                     i1l3180:
 10306                           
 10307                           ;usb_device.c: 1459:                 pBDTEntryEP0OutNext->STAT.Val = 0x80;
 10308  0C5B  086E               	movf	_pBDTEntryEP0OutNext,w
 10309  0C5C  0086               	movwf	6
 10310  0C5D  086F               	movf	_pBDTEntryEP0OutNext+1,w
 10311  0C5E  0087               	movwf	7
 10312  0C5F  3080               	movlw	128
 10313  0C60  0081               	movwf	1
 10314  0C61  2C62               	goto	i1l321
 10315  0C62                     i1l317:	
 10316                           ;usb_device.c: 1461:         }
 10317                           
 10318  0C62                     i1l321:
 10319  0C62  0008               	return
 10320  0C63                     __end_of_USBCtrlEPAllowStatusStage:
 10321                           
 10322                           	psect	text44
 10323  0CE1                     __ptext44:	
 10324 ;; *************** function _USBCtrlTrfInHandler *****************
 10325 ;; Defined at:
 10326 ;;		line 2599 in file "usb_device.c"
 10327 ;; Parameters:    Size  Location     Type
 10328 ;;		None
 10329 ;; Auto vars:     Size  Location     Type
 10330 ;;  lastDTS         1    5[COMMON] unsigned char 
 10331 ;; Return value:  Size  Location     Type
 10332 ;;                  1    wreg      void 
 10333 ;; Registers used:
 10334 ;;		wreg, fsr0l, fsr0h, fsr1l, fsr1h, status,2, status,0, pclath, cstack
 10335 ;; Tracked objects:
 10336 ;;		On entry : 0/0
 10337 ;;		On exit  : 0/0
 10338 ;;		Unchanged: 0/0
 10339 ;; Data sizes:     COMMON   BANK0   BANK1   BANK2   BANK3   BANK4   BANK5   BANK6   BANK7   BANK8   BANK9  BANK10  BANK1
      +1  BANK12
 10340 ;;      Params:         0       0       0       0       0       0       0       0       0       0       0       0       
      +0       0
 10341 ;;      Locals:         1       0       0       0       0       0       0       0       0       0       0       0       
      +0       0
 10342 ;;      Temps:          2       0       0       0       0       0       0       0       0       0       0       0       
      +0       0
 10343 ;;      Totals:         3       0       0       0       0       0       0       0       0       0       0       0       
      +0       0
 10344 ;;Total ram usage:        3 bytes
 10345 ;; Hardware stack levels used: 1
 10346 ;; Hardware stack levels required when called: 1
 10347 ;; This function calls:
 10348 ;;		_USBCtrlTrfTxService
 10349 ;; This function is called by:
 10350 ;;		_USBCtrlEPService
 10351 ;; This function uses a non-reentrant model
 10352 ;;
 10353                           
 10354  0CE1                     _USBCtrlTrfInHandler:	
 10355                           ;psect for function _USBCtrlTrfInHandler
 10356                           
 10357  0CE1                     i1l3610:	
 10358                           ;incstack = 0
 10359                           ; Regs used in _USBCtrlTrfInHandler: [wreg-fsr1h+status,2+status,0+pclath+cstack]
 10360                           
 10361                           
 10362                           ;usb_device.c: 2601:     uint8_t lastDTS;;usb_device.c: 2603:     lastDTS = pBDTEntryIn[
      +                          0]->STAT.DTS;
 10363  0CE1  0020               	movlb	0	; select bank0
 10364  0CE2  086A               	movf	_pBDTEntryIn,w
 10365  0CE3  0086               	movwf	6
 10366  0CE4  086B               	movf	_pBDTEntryIn+1,w
 10367  0CE5  0087               	movwf	7
 10368  0CE6  3000               	movlw	0
 10369  0CE7  1B01               	btfsc	1,6
 10370  0CE8  3001               	movlw	1
 10371  0CE9  00F5               	movwf	USBCtrlTrfInHandler@lastDTS
 10372  0CEA                     i1l3612:
 10373                           
 10374                           ;usb_device.c: 2606:     pBDTEntryIn[0] = (volatile BDT_ENTRY*)(((uint16_t)pBDTEntryIn[0
      +                          ]) ^ 0x0004);
 10375  0CEA  3004               	movlw	4
 10376  0CEB  066A               	xorwf	_pBDTEntryIn,w
 10377  0CEC  00EA               	movwf	_pBDTEntryIn
 10378  0CED  3000               	movlw	0
 10379  0CEE  066B               	xorwf	_pBDTEntryIn+1,w
 10380  0CEF  00EB               	movwf	_pBDTEntryIn+1
 10381  0CF0                     i1l3614:
 10382                           
 10383                           ;usb_device.c: 2611:     if(USBDeviceState == ADR_PENDING_STATE)
 10384  0CF0  3008               	movlw	8
 10385  0CF1  0022               	movlb	2	; select bank2
 10386  0CF2  0668               	xorwf	_USBDeviceState^(0+256),w	;volatile
 10387  0CF3  1D03               	btfss	3,2
 10388  0CF4  2CF6               	goto	u222_21
 10389  0CF5  2CF7               	goto	u222_20
 10390  0CF6                     u222_21:
 10391  0CF6  2D0C               	goto	i1l3624
 10392  0CF7                     u222_20:
 10393  0CF7                     i1l3616:
 10394                           
 10395                           ;usb_device.c: 2612:     {;usb_device.c: 2613:         UADDR = (SetupPkt.bDevADR & 0x7F)
      +                          ;
 10396  0CF7  0020               	movlb	0	; select bank0
 10397  0CF8  0842               	movf	66,w	;volatile
 10398  0CF9  397F               	andlw	127
 10399  0CFA  003D               	movlb	29	; select bank29
 10400  0CFB  0096               	movwf	22	;volatile
 10401  0CFC                     i1l3618:
 10402                           
 10403                           ;usb_device.c: 2614:         if(UADDR != 0u)
 10404  0CFC  0816               	movf	22,w	;volatile
 10405  0CFD  1903               	btfsc	3,2
 10406  0CFE  2D00               	goto	u223_21
 10407  0CFF  2D01               	goto	u223_20
 10408  0D00                     u223_21:
 10409  0D00  2D07               	goto	i1l3622
 10410  0D01                     u223_20:
 10411  0D01                     i1l3620:
 10412                           
 10413                           ;usb_device.c: 2615:         {;usb_device.c: 2616:             USBDeviceState=ADDRESS_ST
      +                          ATE;
 10414  0D01  3010               	movlw	16
 10415  0D02  00F3               	movwf	??_USBCtrlTrfInHandler
 10416  0D03  0873               	movf	??_USBCtrlTrfInHandler,w
 10417  0D04  0022               	movlb	2	; select bank2
 10418  0D05  00E8               	movwf	_USBDeviceState^(0+256)	;volatile
 10419                           
 10420                           ;usb_device.c: 2617:         }
 10421  0D06  2D0C               	goto	i1l3624
 10422  0D07                     i1l3622:
 10423                           
 10424                           ;usb_device.c: 2619:         {;usb_device.c: 2620:             USBDeviceState=DEFAULT_ST
      +                          ATE;
 10425  0D07  3004               	movlw	4
 10426  0D08  00F3               	movwf	??_USBCtrlTrfInHandler
 10427  0D09  0873               	movf	??_USBCtrlTrfInHandler,w
 10428  0D0A  0022               	movlb	2	; select bank2
 10429  0D0B  00E8               	movwf	_USBDeviceState^(0+256)	;volatile
 10430  0D0C                     i1l3624:
 10431                           
 10432                           ;usb_device.c: 2625:     if(controlTransferState == 1)
 10433  0D0C  0021               	movlb	1	; select bank1
 10434  0D0D  036D               	decf	_controlTransferState^(0+128),w	;volatile
 10435  0D0E  1D03               	btfss	3,2
 10436  0D0F  2D11               	goto	u224_21
 10437  0D10  2D12               	goto	u224_20
 10438  0D11                     u224_21:
 10439  0D11  2D56               	goto	i1l449
 10440  0D12                     u224_20:
 10441  0D12                     i1l3626:
 10442                           
 10443                           ;usb_device.c: 2626:     {;usb_device.c: 2627:         pBDTEntryIn[0]->ADR = (((uint16_t
      +                          )(CtrlTrfData)) & 0x7FFF);
 10444  0D12  3048               	movlw	72
 10445  0D13  00F3               	movwf	??_USBCtrlTrfInHandler
 10446  0D14  3000               	movlw	0
 10447  0D15  00F4               	movwf	??_USBCtrlTrfInHandler+1
 10448  0D16  0020               	movlb	0	; select bank0
 10449  0D17  086A               	movf	_pBDTEntryIn,w
 10450  0D18  0086               	movwf	6
 10451  0D19  086B               	movf	_pBDTEntryIn+1,w
 10452  0D1A  0087               	movwf	7
 10453  0D1B  3142               	addfsr 1,2
 10454  0D1C  0873               	movf	??_USBCtrlTrfInHandler,w
 10455  0D1D  3FC0               	movwi [0]fsr1
 10456  0D1E  0874               	movf	??_USBCtrlTrfInHandler+1,w
 10457  0D1F  3FC1               	movwi [1]fsr1
 10458  0D20                     i1l3628:
 10459                           
 10460                           ;usb_device.c: 2628:         USBCtrlTrfTxService();
 10461  0D20  318D  2561  318C   	fcall	_USBCtrlTrfTxService
 10462  0D23                     i1l3630:
 10463                           
 10464                           ;usb_device.c: 2634:         if(shortPacketStatus == 2)
 10465  0D23  3002               	movlw	2
 10466  0D24  0022               	movlb	2	; select bank2
 10467  0D25  0667               	xorwf	_shortPacketStatus^(0+256),w	;volatile
 10468  0D26  1D03               	btfss	3,2
 10469  0D27  2D29               	goto	u225_21
 10470  0D28  2D2A               	goto	u225_20
 10471  0D29                     u225_21:
 10472  0D29  2D37               	goto	i1l3634
 10473  0D2A                     u225_20:
 10474  0D2A                     i1l3632:
 10475                           
 10476                           ;usb_device.c: 2635:         {;usb_device.c: 2638:             pBDTEntryIn[0]->STAT.Val 
      +                          = 0x04;
 10477  0D2A  0020               	movlb	0	; select bank0
 10478  0D2B  086A               	movf	_pBDTEntryIn,w
 10479  0D2C  0086               	movwf	6
 10480  0D2D  086B               	movf	_pBDTEntryIn+1,w
 10481  0D2E  0087               	movwf	7
 10482  0D2F  3004               	movlw	4
 10483  0D30  0081               	movwf	1
 10484                           
 10485                           ;usb_device.c: 2639:             pBDTEntryIn[0]->STAT.Val |= 0x80;
 10486  0D31  086A               	movf	_pBDTEntryIn,w
 10487  0D32  0086               	movwf	6
 10488  0D33  086B               	movf	_pBDTEntryIn+1,w
 10489  0D34  0087               	movwf	7
 10490  0D35  1781               	bsf	1,7
 10491                           
 10492                           ;usb_device.c: 2640:         }
 10493  0D36  2D60               	goto	i1l457
 10494  0D37                     i1l3634:
 10495                           
 10496                           ;usb_device.c: 2642:         {;usb_device.c: 2643:             if(lastDTS == 0)
 10497  0D37  0875               	movf	USBCtrlTrfInHandler@lastDTS,w
 10498  0D38  1D03               	btfss	3,2
 10499  0D39  2D3B               	goto	u226_21
 10500  0D3A  2D3C               	goto	u226_20
 10501  0D3B                     u226_21:
 10502  0D3B  2D49               	goto	i1l3638
 10503  0D3C                     u226_20:
 10504  0D3C                     i1l3636:
 10505                           
 10506                           ;usb_device.c: 2644:             {;usb_device.c: 2645:                 pBDTEntryIn[0]->S
      +                          TAT.Val = 0x40|(0x08 & 0x08);
 10507  0D3C  0020               	movlb	0	; select bank0
 10508  0D3D  086A               	movf	_pBDTEntryIn,w
 10509  0D3E  0086               	movwf	6
 10510  0D3F  086B               	movf	_pBDTEntryIn+1,w
 10511  0D40  0087               	movwf	7
 10512  0D41  3048               	movlw	72
 10513  0D42  0081               	movwf	1
 10514                           
 10515                           ;usb_device.c: 2646:                 pBDTEntryIn[0]->STAT.Val |= 0x80;
 10516  0D43  086A               	movf	_pBDTEntryIn,w
 10517  0D44  0086               	movwf	6
 10518  0D45  086B               	movf	_pBDTEntryIn+1,w
 10519  0D46  0087               	movwf	7
 10520  0D47  1781               	bsf	1,7
 10521                           
 10522                           ;usb_device.c: 2647:             }
 10523  0D48  2D60               	goto	i1l457
 10524  0D49                     i1l3638:
 10525                           
 10526                           ;usb_device.c: 2649:             {;usb_device.c: 2650:                 pBDTEntryIn[0]->S
      +                          TAT.Val = 0x00|(0x08 & 0x08);
 10527  0D49  0020               	movlb	0	; select bank0
 10528  0D4A  086A               	movf	_pBDTEntryIn,w
 10529  0D4B  0086               	movwf	6
 10530  0D4C  086B               	movf	_pBDTEntryIn+1,w
 10531  0D4D  0087               	movwf	7
 10532  0D4E  3008               	movlw	8
 10533  0D4F  0081               	movwf	1
 10534                           
 10535                           ;usb_device.c: 2651:                 pBDTEntryIn[0]->STAT.Val |= 0x80;
 10536  0D50  086A               	movf	_pBDTEntryIn,w
 10537  0D51  0086               	movwf	6
 10538  0D52  086B               	movf	_pBDTEntryIn+1,w
 10539  0D53  0087               	movwf	7
 10540  0D54  1781               	bsf	1,7
 10541  0D55  2D60               	goto	i1l457
 10542  0D56                     i1l449:	
 10543                           ;usb_device.c: 2655:  else
 10544                           
 10545                           
 10546                           ;usb_device.c: 2656:  {;usb_device.c: 2660:         if(outPipes[0].info.bits.busy == 1)
 10547  0D56  0023               	movlb	3	; select bank3
 10548  0D57  1FA2               	btfss	(_outPipes^(0+384)+2),7	;volatile
 10549  0D58  2D5A               	goto	u227_21
 10550  0D59  2D5B               	goto	u227_20
 10551  0D5A                     u227_21:
 10552  0D5A  2D5E               	goto	i1l3642
 10553  0D5B                     u227_20:
 10554  0D5B                     i1l3640:
 10555                           
 10556                           ;usb_device.c: 2663:             {;usb_device.c: 2664:                 outPipes[0].pFunc
      +                          ();
 10557  0D5B  0825               	movf	(low ((_outPipes| (0+256)+5)))^(0+128),w	;volatile
 10558  0D5C  0826               	movf	((low ((_outPipes| (0+256)+5))+1))^(0+128),w	;volatile
 10559  0D5D                     i1l456:	
 10560                           ;usb_device.c: 2665:             }
 10561                           
 10562                           
 10563                           ;usb_device.c: 2666:             outPipes[0].info.bits.busy = 0;
 10564  0D5D  13A2               	bcf	(_outPipes^(0+384)+2),7	;volatile
 10565  0D5E                     i1l3642:
 10566                           
 10567                           ;usb_device.c: 2669:         controlTransferState = 0;
 10568  0D5E  0021               	movlb	1	; select bank1
 10569  0D5F  01ED               	clrf	_controlTransferState^(0+128)	;volatile
 10570  0D60                     i1l457:
 10571  0D60  0008               	return
 10572  0D61                     __end_of_USBCtrlTrfInHandler:
 10573                           
 10574                           	psect	text45
 10575  0D61                     __ptext45:	
 10576 ;; *************** function _USBCtrlTrfTxService *****************
 10577 ;; Defined at:
 10578 ;;		line 1775 in file "usb_device.c"
 10579 ;; Parameters:    Size  Location     Type
 10580 ;;		None
 10581 ;; Auto vars:     Size  Location     Type
 10582 ;;  byteToSend      1    2[COMMON] unsigned char 
 10583 ;; Return value:  Size  Location     Type
 10584 ;;                  1    wreg      void 
 10585 ;; Registers used:
 10586 ;;		wreg, fsr0l, fsr0h, fsr1l, fsr1h, status,2, status,0, pclath
 10587 ;; Tracked objects:
 10588 ;;		On entry : 0/0
 10589 ;;		On exit  : 0/0
 10590 ;;		Unchanged: 0/0
 10591 ;; Data sizes:     COMMON   BANK0   BANK1   BANK2   BANK3   BANK4   BANK5   BANK6   BANK7   BANK8   BANK9  BANK10  BANK1
      +1  BANK12
 10592 ;;      Params:         0       0       0       0       0       0       0       0       0       0       0       0       
      +0       0
 10593 ;;      Locals:         1       0       0       0       0       0       0       0       0       0       0       0       
      +0       0
 10594 ;;      Temps:          2       0       0       0       0       0       0       0       0       0       0       0       
      +0       0
 10595 ;;      Totals:         3       0       0       0       0       0       0       0       0       0       0       0       
      +0       0
 10596 ;;Total ram usage:        3 bytes
 10597 ;; Hardware stack levels used: 1
 10598 ;; This function calls:
 10599 ;;		Nothing
 10600 ;; This function is called by:
 10601 ;;		_USBCtrlEPAllowDataStage
 10602 ;;		_USBCtrlTrfInHandler
 10603 ;; This function uses a non-reentrant model
 10604 ;;
 10605                           
 10606  0D61                     _USBCtrlTrfTxService:	
 10607                           ;psect for function _USBCtrlTrfTxService
 10608                           
 10609  0D61                     i1l3064:	
 10610                           ;incstack = 0
 10611                           ; Regs used in _USBCtrlTrfTxService: [wreg-fsr1h+status,2+status,0+pclath]
 10612                           
 10613                           
 10614                           ;usb_device.c: 1777:     uint8_t byteToSend;;usb_device.c: 1781:     byteToSend = 8;
 10615  0D61  3008               	movlw	8
 10616  0D62  00F0               	movwf	??_USBCtrlTrfTxService
 10617  0D63  0870               	movf	??_USBCtrlTrfTxService,w
 10618  0D64  00F2               	movwf	USBCtrlTrfTxService@byteToSend
 10619                           
 10620                           ;usb_device.c: 1782:     if(inPipes[0].wCount.Val < (uint8_t)8)
 10621  0D65  3000               	movlw	0
 10622  0D66  0020               	movlb	0	; select bank0
 10623  0D67  0269               	subwf	_inPipes+4,w	;volatile
 10624  0D68  3008               	movlw	8
 10625  0D69  1903               	skipnz
 10626  0D6A  0268               	subwf	_inPipes+3,w	;volatile
 10627  0D6B  1803               	skipnc
 10628  0D6C  2D6E               	goto	u159_21
 10629  0D6D  2D6F               	goto	u159_20
 10630  0D6E                     u159_21:
 10631  0D6E  2D87               	goto	i1l348
 10632  0D6F                     u159_20:
 10633  0D6F                     i1l3066:
 10634                           
 10635                           ;usb_device.c: 1783:     {;usb_device.c: 1784:         byteToSend = inPipes[0].wCount.Va
      +                          l;
 10636  0D6F  0868               	movf	_inPipes+3,w	;volatile
 10637  0D70  00F0               	movwf	??_USBCtrlTrfTxService
 10638  0D71  0870               	movf	??_USBCtrlTrfTxService,w
 10639  0D72  00F2               	movwf	USBCtrlTrfTxService@byteToSend
 10640  0D73                     i1l3068:
 10641                           
 10642                           ;usb_device.c: 1791:         if(shortPacketStatus == 0)
 10643  0D73  0022               	movlb	2	; select bank2
 10644  0D74  0867               	movf	_shortPacketStatus^(0+256),w	;volatile
 10645  0D75  1D03               	btfss	3,2
 10646  0D76  2D78               	goto	u160_21
 10647  0D77  2D79               	goto	u160_20
 10648  0D78                     u160_21:
 10649  0D78  2D7E               	goto	i1l3072
 10650  0D79                     u160_20:
 10651  0D79                     i1l3070:
 10652                           
 10653                           ;usb_device.c: 1792:         {;usb_device.c: 1793:             shortPacketStatus = 1;
 10654  0D79  3001               	movlw	1
 10655  0D7A  00F0               	movwf	??_USBCtrlTrfTxService
 10656  0D7B  0870               	movf	??_USBCtrlTrfTxService,w
 10657  0D7C  00E7               	movwf	_shortPacketStatus^(0+256)	;volatile
 10658                           
 10659                           ;usb_device.c: 1794:         }
 10660  0D7D  2D87               	goto	i1l348
 10661  0D7E                     i1l3072:
 10662  0D7E  0367               	decf	_shortPacketStatus^(0+256),w	;volatile
 10663  0D7F  1D03               	btfss	3,2
 10664  0D80  2D82               	goto	u161_21
 10665  0D81  2D83               	goto	u161_20
 10666  0D82                     u161_21:
 10667  0D82  2D87               	goto	i1l348
 10668  0D83                     u161_20:
 10669  0D83                     i1l3074:
 10670                           
 10671                           ;usb_device.c: 1796:         {;usb_device.c: 1797:             shortPacketStatus = 2;
 10672  0D83  3002               	movlw	2
 10673  0D84  00F0               	movwf	??_USBCtrlTrfTxService
 10674  0D85  0870               	movf	??_USBCtrlTrfTxService,w
 10675  0D86  00E7               	movwf	_shortPacketStatus^(0+256)	;volatile
 10676  0D87                     i1l348:	
 10677                           ;usb_device.c: 1799:     }
 10678                           
 10679                           
 10680                           ;usb_device.c: 1803:     inPipes[0].wCount.Val -= byteToSend;
 10681  0D87  0872               	movf	USBCtrlTrfTxService@byteToSend,w
 10682  0D88  00F0               	movwf	??_USBCtrlTrfTxService
 10683  0D89  01F1               	clrf	??_USBCtrlTrfTxService+1
 10684  0D8A  0870               	movf	??_USBCtrlTrfTxService,w
 10685  0D8B  0020               	movlb	0	; select bank0
 10686  0D8C  02E8               	subwf	_inPipes+3,f	;volatile
 10687  0D8D  0871               	movf	??_USBCtrlTrfTxService+1,w
 10688  0D8E  3BE9               	subwfb	_inPipes+4,f	;volatile
 10689  0D8F                     i1l3076:
 10690                           
 10691                           ;usb_device.c: 1808:     pBDTEntryIn[0]->CNT = byteToSend;
 10692  0D8F  086A               	movf	_pBDTEntryIn,w
 10693  0D90  3E01               	addlw	1
 10694  0D91  00F0               	movwf	??_USBCtrlTrfTxService
 10695  0D92  3000               	movlw	0
 10696  0D93  3D6B               	addwfc	_pBDTEntryIn+1,w
 10697  0D94  00F1               	movwf	??_USBCtrlTrfTxService+1
 10698  0D95  0870               	movf	??_USBCtrlTrfTxService,w
 10699  0D96  0086               	movwf	6
 10700  0D97  0871               	movf	??_USBCtrlTrfTxService+1,w
 10701  0D98  0087               	movwf	7
 10702  0D99  0872               	movf	USBCtrlTrfTxService@byteToSend,w
 10703  0D9A  0081               	movwf	1
 10704  0D9B                     i1l3078:
 10705                           
 10706                           ;usb_device.c: 1812:     pDst = (volatile uint8_t*)CtrlTrfData;
 10707  0D9B  3048               	movlw	72
 10708  0D9C  00F0               	movwf	??_USBCtrlTrfTxService
 10709  0D9D  0870               	movf	??_USBCtrlTrfTxService,w
 10710  0D9E  0023               	movlb	3	; select bank3
 10711  0D9F  00BB               	movwf	_pDst^(0+384)
 10712  0DA0                     i1l3080:
 10713                           
 10714                           ;usb_device.c: 1813:     if(inPipes[0].info.bits.ctrl_trf_mem == 0x00)
 10715  0DA0  0020               	movlb	0	; select bank0
 10716  0DA1  1867               	btfsc	_inPipes+2,0	;volatile
 10717  0DA2  2DA4               	goto	u162_21
 10718  0DA3  2DA5               	goto	u162_20
 10719  0DA4                     u162_21:
 10720  0DA4  2DDE               	goto	i1l3102
 10721  0DA5                     u162_20:
 10722  0DA5  2DBF               	goto	i1l3092
 10723  0DA6                     i1l3084:
 10724                           
 10725                           ;usb_device.c: 1816:         {;usb_device.c: 1817:             *pDst++ = *inPipes[0].pSr
      +                          c.bRom++;
 10726  0DA6  0020               	movlb	0	; select bank0
 10727  0DA7  0865               	movf	_inPipes,w	;volatile
 10728  0DA8  0084               	movwf	4
 10729  0DA9  0866               	movf	_inPipes+1,w	;volatile
 10730  0DAA  0085               	movwf	5
 10731  0DAB  0800               	movf	0,w	;code access
 10732  0DAC  00F0               	movwf	??_USBCtrlTrfTxService
 10733  0DAD  0023               	movlb	3	; select bank3
 10734  0DAE  083B               	movf	_pDst^(0+384),w
 10735  0DAF  0086               	movwf	6
 10736  0DB0  0187               	clrf	7
 10737  0DB1  0870               	movf	??_USBCtrlTrfTxService,w
 10738  0DB2  0081               	movwf	1
 10739  0DB3                     i1l3086:
 10740  0DB3  3001               	movlw	1
 10741  0DB4  0020               	movlb	0	; select bank0
 10742  0DB5  07E5               	addwf	_inPipes,f	;volatile
 10743  0DB6  3000               	movlw	0
 10744  0DB7  3DE6               	addwfc	_inPipes+1,f	;volatile
 10745  0DB8                     i1l3088:
 10746  0DB8  3001               	movlw	1
 10747  0DB9  00F0               	movwf	??_USBCtrlTrfTxService
 10748  0DBA  0870               	movf	??_USBCtrlTrfTxService,w
 10749  0DBB  0023               	movlb	3	; select bank3
 10750  0DBC  07BB               	addwf	_pDst^(0+384),f
 10751  0DBD                     i1l3090:
 10752                           
 10753                           ;usb_device.c: 1818:             byteToSend--;
 10754  0DBD  3001               	movlw	1
 10755  0DBE  02F2               	subwf	USBCtrlTrfTxService@byteToSend,f
 10756  0DBF                     i1l3092:
 10757                           
 10758                           ;usb_device.c: 1815:         while(byteToSend)
 10759  0DBF  0872               	movf	USBCtrlTrfTxService@byteToSend,w
 10760  0DC0  1D03               	btfss	3,2
 10761  0DC1  2DC3               	goto	u163_21
 10762  0DC2  2DC4               	goto	u163_20
 10763  0DC3                     u163_21:
 10764  0DC3  2DA6               	goto	i1l3084
 10765  0DC4                     u163_20:
 10766  0DC4  2DE3               	goto	i1l360
 10767  0DC5                     i1l3094:
 10768                           
 10769                           ;usb_device.c: 1824:         {;usb_device.c: 1825:             *pDst++ = *inPipes[0].pSr
      +                          c.bRam++;
 10770  0DC5  0020               	movlb	0	; select bank0
 10771  0DC6  0865               	movf	_inPipes,w	;volatile
 10772  0DC7  0084               	movwf	4
 10773  0DC8  0866               	movf	_inPipes+1,w	;volatile
 10774  0DC9  0085               	movwf	5
 10775  0DCA  0800               	movf	0,w	;code access
 10776  0DCB  00F0               	movwf	??_USBCtrlTrfTxService
 10777  0DCC  0023               	movlb	3	; select bank3
 10778  0DCD  083B               	movf	_pDst^(0+384),w
 10779  0DCE  0086               	movwf	6
 10780  0DCF  0187               	clrf	7
 10781  0DD0  0870               	movf	??_USBCtrlTrfTxService,w
 10782  0DD1  0081               	movwf	1
 10783  0DD2                     i1l3096:
 10784  0DD2  3001               	movlw	1
 10785  0DD3  0020               	movlb	0	; select bank0
 10786  0DD4  07E5               	addwf	_inPipes,f	;volatile
 10787  0DD5  3000               	movlw	0
 10788  0DD6  3DE6               	addwfc	_inPipes+1,f	;volatile
 10789  0DD7                     i1l3098:
 10790  0DD7  3001               	movlw	1
 10791  0DD8  00F0               	movwf	??_USBCtrlTrfTxService
 10792  0DD9  0870               	movf	??_USBCtrlTrfTxService,w
 10793  0DDA  0023               	movlb	3	; select bank3
 10794  0DDB  07BB               	addwf	_pDst^(0+384),f
 10795  0DDC                     i1l3100:
 10796                           
 10797                           ;usb_device.c: 1826:             byteToSend--;
 10798  0DDC  3001               	movlw	1
 10799  0DDD  02F2               	subwf	USBCtrlTrfTxService@byteToSend,f
 10800  0DDE                     i1l3102:
 10801                           
 10802                           ;usb_device.c: 1823:         while(byteToSend)
 10803  0DDE  0872               	movf	USBCtrlTrfTxService@byteToSend,w
 10804  0DDF  1D03               	btfss	3,2
 10805  0DE0  2DE2               	goto	u164_21
 10806  0DE1  2DE3               	goto	u164_20
 10807  0DE2                     u164_21:
 10808  0DE2  2DC5               	goto	i1l3094
 10809  0DE3                     u164_20:
 10810  0DE3                     i1l360:
 10811  0DE3  0008               	return
 10812  0DE4                     __end_of_USBCtrlTrfTxService:
 10813  007E                     btemp	set	126	;btemp
 10814  007E                     int$flags	set	126
 10815  007E                     wtemp0	set	126
 10816                           
 10817                           	psect	config
 10818                           
 10819                           ;Config register CONFIG1 @ 0x8007
 10820                           ;	Oscillator Selection Bits
 10821                           ;	FOSC = INTOSC, INTOSC oscillator: I/O function on CLKIN pin
 10822                           ;	Watchdog Timer Enable
 10823                           ;	WDTE = OFF, WDT disabled
 10824                           ;	Power-up Timer Enable
 10825                           ;	PWRTE = OFF, PWRT disabled
 10826                           ;	MCLR Pin Function Select
 10827                           ;	MCLRE = OFF, MCLR/VPP pin function is digital input
 10828                           ;	Flash Program Memory Code Protection
 10829                           ;	CP = OFF, Program memory code protection is disabled
 10830                           ;	Brown-out Reset Enable
 10831                           ;	BOREN = ON, Brown-out Reset enabled
 10832                           ;	Clock Out Enable
 10833                           ;	CLKOUTEN = OFF, CLKOUT function is disabled. I/O or oscillator function on the CLKOUT 
      +                          pin
 10834                           ;	Internal/External Switchover Mode
 10835                           ;	IESO = OFF, Internal/External Switchover Mode is disabled
 10836                           ;	Fail-Safe Clock Monitor Enable
 10837                           ;	FCMEN = OFF, Fail-Safe Clock Monitor is disabled
 10838  8007                     	org	32775
 10839  8007  0FA4               	dw	4004
 10840                           
 10841                           ;Config register CONFIG2 @ 0x8008
 10842                           ;	Flash Memory Self-Write Protection
 10843                           ;	WRT = OFF, Write protection off
 10844                           ;	CPU System Clock Selection Bit
 10845                           ;	CPUDIV = NOCLKDIV, NO CPU system divide
 10846                           ;	USB Low SPeed Clock Selection bit
 10847                           ;	USBLSCLK = 48MHz, System clock expects 48 MHz, FS/LS USB CLKENs divide-by is set to 8.
 10848                           ;	PLL Multipler Selection Bit
 10849                           ;	PLLMULT = 3x, 3x Output Frequency Selected
 10850                           ;	PLL Enable Bit
 10851                           ;	PLLEN = ENABLED, 3x or 4x PLL Enabled
 10852                           ;	Stack Overflow/Underflow Reset Enable
 10853                           ;	STVREN = ON, Stack Overflow or Underflow will cause a Reset
 10854                           ;	Brown-out Reset Voltage Selection
 10855                           ;	BORV = LO, Brown-out Reset Voltage (Vbor), low trip point selected.
 10856                           ;	Low-Power Brown Out Reset
 10857                           ;	LPBOR = OFF, Low-Power BOR is disabled
 10858                           ;	Low-Voltage Programming Enable
 10859                           ;	LVP = OFF, High-voltage on MCLR/VPP must be used for programming
 10860  8008                     	org	32776
 10861  8008  1FCF               	dw	8143

Data Sizes:
    Strings     0
    Constant    176
    Data        0
    BSS         55
    Persistent  32
    Stack       0

Auto Spaces:
    Space          Size  Autos    Used
    COMMON           14     14      14
    BANK0            32     21      32
    BANK1            16     13      16
    BANK2            16      5      16
    BANK3            80      0      30
    BANK4            80      0       0
    BANK5            80      0       0
    BANK6            80      0       0
    BANK7            80      0       0
    BANK8            80      0       0
    BANK9            80      0       0
    BANK10           80      0       0
    BANK11           80      0       0
    BANK12           48      0       0

Pointer List with Targets:

    USER_USB_CALLBACK_EVENT_HANDLER@pdata	PTR void  size(2) Largest target is 4096
		 -> RAM(DATA[4096]), USTATcopy(BANK1[1]), USBActiveConfiguration(BANK2[1]), BDT(BANK0[32]), 
		 -> NULL(NULL[0]), 

    memset@dest	PTR void  size(2) Largest target is 32
		 -> USBAlternateInterface(BANK2[1]), BDT(BANK0[32]), 

    memset@s	PTR unsigned char  size(2) Largest target is 32
		 -> USBAlternateInterface(BANK2[1]), BDT(BANK0[32]), 

    memcpy@d1	PTR void  size(1) Largest target is 8
		 -> SetupPkt(BANK0[8]), 

    memcpy@d	PTR unsigned char  size(1) Largest target is 8
		 -> SetupPkt(BANK0[8]), 

    memcpy@s1	PTR const void  size(2) Largest target is 4096
		 -> CtrlTrfData(BANK0[8]), RAM(DATA[4096]), SetupPkt(BANK0[8]), 

    memcpy@s	PTR const unsigned char  size(2) Largest target is 4096
		 -> CtrlTrfData(BANK0[8]), RAM(DATA[4096]), SetupPkt(BANK0[8]), 

    USBStdFeatureReqHandler@pUEP	PTR unsigned char  size(2) Largest target is 1
		 -> UEP0(SFR29[1]), 

    USBStdFeatureReqHandler@p	PTR struct __BDT size(2) Largest target is 4096
		 -> RAM(DATA[4096]), BDT(BANK0[32]), NULL(NULL[0]), 

    sp__memcpy	PTR void  size(1) Largest target is 8
		 -> SetupPkt(BANK0[8]), 

    USBStdGetStatusHandler@p	PTR struct __BDT size(2) Largest target is 4096
		 -> RAM(DATA[4096]), BDT(BANK0[32]), NULL(NULL[0]), 

    sp__memset	PTR void  size(2) Largest target is 32
		 -> USBAlternateInterface(BANK2[1]), BDT(BANK0[32]), 

    USBStdSetCfgHandler@p	PTR unsigned char  size(2) Largest target is 1
		 -> UEP1(SFR29[1]), 

    pDst	PTR volatile unsigned char  size(1) Largest target is 8
		 -> CtrlTrfData(BANK0[8]), NULL(NULL[0]), 

    USBConfigureEndpoint@handle	PTR volatile struct __BDT size(1) Largest target is 32
		 -> BDT(BANK0[32]), 

    pBDTEntryEP0OutCurrent	PTR volatile struct __BDT size(1) Largest target is 32
		 -> BDT(BANK0[32]), NULL(NULL[0]), 

    pBDTEntryEP0OutNext	PTR volatile struct __BDT size(2) Largest target is 4096
		 -> RAM(DATA[4096]), BDT(BANK0[32]), NULL(NULL[0]), 

    USBTransferOnePacket@data	PTR unsigned char  size(2) Largest target is 64
		 -> ToSendDataBuffer(BANK2[64]), ReceivedDataBuffer(BANK1[64]), 

    USBTransferOnePacket@handle	PTR volatile struct __BDT size(2) Largest target is 4096
		 -> RAM(DATA[4096]), BDT(BANK0[32]), NULL(NULL[0]), 

    USBEnableEndpoint@p	PTR unsigned char  size(2) Largest target is 1
		 -> UEP0(SFR29[1]), 

    pBDTEntryOut	PTR volatile struct __BDT[2] size(2) Largest target is 4096
		 -> RAM(DATA[4096]), BDT(BANK0[32]), NULL(NULL[0]), 

    pBDTEntryIn	PTR volatile struct __BDT[2] size(2) Largest target is 4096
		 -> RAM(DATA[4096]), BDT(BANK0[32]), NULL(NULL[0]), 

    S314$pFunc	PTR FTN()void  size(2) Largest target is 0

    outPipes.pFunc	PTR FTN()void  size(2) Largest target is 0

    S304$wRam	PTR unsigned short  size(1) Largest target is 0

    outPipes.pDst.wRam	PTR unsigned short  size(1) Largest target is 0

    S304$bRam	PTR unsigned char  size(1) Largest target is 0

    outPipes.pDst.bRam	PTR unsigned char  size(1) Largest target is 0

    S280$wRom	PTR const unsigned short  size(1) Largest target is 0

    inPipes.pSrc.wRom	PTR const unsigned short  size(1) Largest target is 0

    S280$wRam	PTR unsigned short  size(1) Largest target is 0

    inPipes.pSrc.wRam	PTR unsigned short  size(1) Largest target is 0

    S280$bRom	PTR const unsigned char  size(1) Largest target is 0

    inPipes.pSrc.bRom	PTR const unsigned char  size(1) Largest target is 0

    S280$bRam	PTR unsigned char  size(1) Largest target is 0

    inPipes.pSrc.bRam	PTR unsigned char  size(1) Largest target is 0

    USBDeviceInit@p	PTR unsigned char  size(2) Largest target is 1
		 -> UEP1(SFR29[1]), 

    USB_SD_Ptr	const PTR const unsigned char [3] size(2) Largest target is 42
		 -> sd002(CODE[42]), sd001(CODE[34]), sd000(CODE[4]), 

    USB_CD_Ptr	const PTR const unsigned char [1] size(2) Largest target is 41
		 -> configDescriptor1(CODE[41]), 

    sp__USBTransferOnePacket	PTR void  size(2) Largest target is 4096
		 -> RAM(DATA[4096]), BDT(BANK0[32]), NULL(NULL[0]), 

    USBOutHandle	PTR volatile void  size(2) Largest target is 4096
		 -> RAM(DATA[4096]), BDT(BANK0[32]), NULL(NULL[0]), 

    USBInHandle	PTR volatile void  size(2) Largest target is 4096
		 -> RAM(DATA[4096]), BDT(BANK0[32]), NULL(NULL[0]), 


Critical Paths under _main in COMMON

    None.

Critical Paths under _SYS_InterruptHigh in COMMON

    _USBCtrlEPServiceComplete->_USBCtrlEPAllowDataStage
    _USBCtrlEPAllowDataStage->_USBCtrlTrfTxService
    _USBStdSetCfgHandler->_memset
    _USER_USB_CALLBACK_EVENT_HANDLER->_APP_DeviceCustomHIDInitialize
    i1_SYSTEM_Initialize->i1_LED_Off
    _APP_DeviceCustomHIDInitialize->_USBEnableEndpoint
    _USBEnableEndpoint->_USBConfigureEndpoint
    _USBCtrlTrfOutHandler->_USBCtrlTrfRxService
    _USBCtrlTrfRxService->_USBCtrlEPAllowStatusStage
    _USBCtrlTrfInHandler->_USBCtrlTrfTxService

Critical Paths under _main in BANK0

    None.

Critical Paths under _SYS_InterruptHigh in BANK0

    _SYS_InterruptHigh->_USBDeviceTasks
    _USBDeviceTasks->_USBCtrlEPService
    _USBWakeFromSuspend->_USER_USB_CALLBACK_EVENT_HANDLER
    _USBSuspend->_USER_USB_CALLBACK_EVENT_HANDLER
    _USBCtrlEPService->_USBCtrlTrfSetupHandler
    _USBCtrlTrfSetupHandler->_USBCheckStdRequest
    _USBCheckStdRequest->_USBStdFeatureReqHandler
    _USBStdSetCfgHandler->_USER_USB_CALLBACK_EVENT_HANDLER
    _USBStdFeatureReqHandler->_USER_USB_CALLBACK_EVENT_HANDLER

Critical Paths under _main in BANK1

    _main->_APP_DeviceCustomHIDTasks
    _SYSTEM_Initialize->_LED_Off
    _APP_DeviceCustomHIDTasks->_USBTransferOnePacket

Critical Paths under _SYS_InterruptHigh in BANK1

    None.

Critical Paths under _main in BANK2

    _main->_APP_DeviceCustomHIDTasks

Critical Paths under _SYS_InterruptHigh in BANK2

    None.

Critical Paths under _main in BANK3

    None.

Critical Paths under _SYS_InterruptHigh in BANK3

    None.

Critical Paths under _main in BANK4

    None.

Critical Paths under _SYS_InterruptHigh in BANK4

    None.

Critical Paths under _main in BANK5

    None.

Critical Paths under _SYS_InterruptHigh in BANK5

    None.

Critical Paths under _main in BANK6

    None.

Critical Paths under _SYS_InterruptHigh in BANK6

    None.

Critical Paths under _main in BANK7

    None.

Critical Paths under _SYS_InterruptHigh in BANK7

    None.

Critical Paths under _main in BANK8

    None.

Critical Paths under _SYS_InterruptHigh in BANK8

    None.

Critical Paths under _main in BANK9

    None.

Critical Paths under _SYS_InterruptHigh in BANK9

    None.

Critical Paths under _main in BANK10

    None.

Critical Paths under _SYS_InterruptHigh in BANK10

    None.

Critical Paths under _main in BANK11

    None.

Critical Paths under _SYS_InterruptHigh in BANK11

    None.

Critical Paths under _main in BANK12

    None.

Critical Paths under _SYS_InterruptHigh in BANK12

    None.

Call Graph Tables:

 ---------------------------------------------------------------------------------
 (Depth) Function   	        Calls       Base Space   Used Autos Params    Refs
 ---------------------------------------------------------------------------------
 (0) _main                                                 0     0      0    1663
           _APP_DeviceCustomHIDTasks
                  _SYSTEM_Initialize
                    _USBDeviceAttach
                      _USBDeviceInit
 ---------------------------------------------------------------------------------
 (1) _USBDeviceInit                                        5     5      0     272
                                              0 BANK1      5     5      0
 ---------------------------------------------------------------------------------
 (1) _USBDeviceAttach                                      1     1      0       0
                                              0 BANK1      1     1      0
 ---------------------------------------------------------------------------------
 (1) _SYSTEM_Initialize                                    3     3      0      44
                                              3 BANK1      3     3      0
                           _LED_Init
                            _LED_Off
                       _init_alcohol
 ---------------------------------------------------------------------------------
 (2) _init_alcohol                                         0     0      0       0
 ---------------------------------------------------------------------------------
 (2) _LED_Init                                             0     0      0       0
 ---------------------------------------------------------------------------------
 (1) _APP_DeviceCustomHIDTasks                             7     7      0    1347
                                             11 BANK1      2     2      0
                                              0 BANK2      5     5      0
                            _LED_Off
                             _LED_On
               _USBTransferOnePacket
                      _check_alcohol
                      _start_alcohol
 ---------------------------------------------------------------------------------
 (2) _start_alcohol                                        0     0      0       0
 ---------------------------------------------------------------------------------
 (2) _check_alcohol                                        4     2      2      23
                                              0 BANK1      4     2      2
 ---------------------------------------------------------------------------------
 (2) _USBTransferOnePacket                                11     7      4    1099
                                              0 BANK1     11     7      4
 ---------------------------------------------------------------------------------
 (2) _LED_On                                               3     3      0      22
                                              0 BANK1      3     3      0
 ---------------------------------------------------------------------------------
 (2) _LED_Off                                              3     3      0      22
                                              0 BANK1      3     3      0
 ---------------------------------------------------------------------------------
 Estimated maximum stack depth 2
 ---------------------------------------------------------------------------------
 (Depth) Function   	        Calls       Base Space   Used Autos Params    Refs
 ---------------------------------------------------------------------------------
 (3) _SYS_InterruptHigh                                    0     0      0   30441
                     _USBDeviceTasks
 ---------------------------------------------------------------------------------
 (4) _USBDeviceTasks                                       3     3      0   30441
                                             18 BANK0      3     3      0
          _USBCtrlEPAllowStatusStage
                   _USBCtrlEPService
      _USBIncrement1msInternalTimers
                    _USBStallHandler
                         _USBSuspend
                 _USBWakeFromSuspend
    _USER_USB_CALLBACK_EVENT_HANDLER
                    i1_USBDeviceInit
 ---------------------------------------------------------------------------------
 (5) i1_USBDeviceInit                                      5     5      0     272
                                              0 COMMON     5     5      0
 ---------------------------------------------------------------------------------
 (5) _USBWakeFromSuspend                                   1     1      0    3878
                                              6 BANK0      1     1      0
    _USER_USB_CALLBACK_EVENT_HANDLER
 ---------------------------------------------------------------------------------
 (5) _USBSuspend                                           1     1      0    3878
                                              6 BANK0      1     1      0
    _USER_USB_CALLBACK_EVENT_HANDLER
 ---------------------------------------------------------------------------------
 (5) _USBStallHandler                                      1     1      0       0
                                              0 COMMON     1     1      0
 ---------------------------------------------------------------------------------
 (5) _USBIncrement1msInternalTimers                        1     1      0       0
                                              0 COMMON     1     1      0
 ---------------------------------------------------------------------------------
 (5) _USBCtrlEPService                                     2     2      0   18467
                                             16 BANK0      2     2      0
                _USBCtrlTrfInHandler
               _USBCtrlTrfOutHandler
             _USBCtrlTrfSetupHandler
                             _memcpy
 ---------------------------------------------------------------------------------
 (6) _memcpy                                              10     6      4     363
                                              0 COMMON    10     6      4
 ---------------------------------------------------------------------------------
 (6) _USBCtrlTrfSetupHandler                               1     1      0   17875
                                             15 BANK0      1     1      0
                 _USBCheckStdRequest
           _USBCtrlEPServiceComplete
    _USER_USB_CALLBACK_EVENT_HANDLER
 ---------------------------------------------------------------------------------
 (7) _USBCtrlEPServiceComplete                             2     2      0      92
                                              5 COMMON     2     2      0
            _USBCtrlEPAllowDataStage
          _USBCtrlEPAllowStatusStage
 ---------------------------------------------------------------------------------
 (8) _USBCtrlEPAllowDataStage                              2     2      0      92
                                              3 COMMON     2     2      0
                _USBCtrlTrfTxService
 ---------------------------------------------------------------------------------
 (7) _USBCheckStdRequest                                   2     2      0   13905
                                             13 BANK0      2     2      0
            _USBStdFeatureReqHandler
                _USBStdGetDscHandler
             _USBStdGetStatusHandler
                _USBStdSetCfgHandler
    _USER_USB_CALLBACK_EVENT_HANDLER
 ---------------------------------------------------------------------------------
 (8) _USBStdSetCfgHandler                                  5     5      0    5632
                                              6 BANK0      5     5      0
    _USER_USB_CALLBACK_EVENT_HANDLER
                             _memset
 ---------------------------------------------------------------------------------
 (9) _memset                                              14     8      6    1519
                                              0 COMMON    14     8      6
 ---------------------------------------------------------------------------------
 (8) _USBStdGetStatusHandler                               4     4      0      46
                                              0 COMMON     4     4      0
 ---------------------------------------------------------------------------------
 (8) _USBStdGetDscHandler                                  3     3      0       0
                                              0 COMMON     3     3      0
 ---------------------------------------------------------------------------------
 (8) _USBStdFeatureReqHandler                              7     7      0    4349
                                              6 BANK0      7     7      0
    _USER_USB_CALLBACK_EVENT_HANDLER
 ---------------------------------------------------------------------------------
 (5) _USER_USB_CALLBACK_EVENT_HANDLER                      6     0      6    3878
                                              0 BANK0      6     0      6
      _APP_DeviceCustomHIDInitialize
                 _USBCheckHIDRequest
                          i1_LED_Off
                           i1_LED_On
                i1_SYSTEM_Initialize
 ---------------------------------------------------------------------------------
 (6) i1_SYSTEM_Initialize                                  3     3      0      44
                                              3 COMMON     3     3      0
                         i1_LED_Init
                          i1_LED_Off
                     i1_init_alcohol
 ---------------------------------------------------------------------------------
 (7) i1_init_alcohol                                       0     0      0       0
 ---------------------------------------------------------------------------------
 (7) i1_LED_Off                                            3     3      0      22
                                              0 COMMON     3     3      0
 ---------------------------------------------------------------------------------
 (7) i1_LED_Init                                           0     0      0       0
 ---------------------------------------------------------------------------------
 (6) i1_LED_On                                             3     3      0      22
                                              0 COMMON     3     3      0
 ---------------------------------------------------------------------------------
 (6) _USBCheckHIDRequest                                   2     2      0       0
                                              0 COMMON     2     2      0
 ---------------------------------------------------------------------------------
 (6) _APP_DeviceCustomHIDInitialize                        1     1      0    1098
                                             13 COMMON     1     1      0
                  _USBEnableEndpoint
             i1_USBTransferOnePacket
 ---------------------------------------------------------------------------------
 (7) i1_USBTransferOnePacket                              11     7      4     454
                                              0 COMMON    11     7      4
 ---------------------------------------------------------------------------------
 (7) _USBEnableEndpoint                                    6     5      1     644
                                              7 COMMON     6     5      1
               _USBConfigureEndpoint
 ---------------------------------------------------------------------------------
 (8) _USBConfigureEndpoint                                 7     6      1     400
                                              0 COMMON     7     6      1
 ---------------------------------------------------------------------------------
 (6) _USBCtrlTrfOutHandler                                 2     2      0     114
                                              6 COMMON     2     2      0
                _USBCtrlTrfRxService
 ---------------------------------------------------------------------------------
 (7) _USBCtrlTrfRxService                                  4     4      0     114
                                              2 COMMON     4     4      0
          _USBCtrlEPAllowStatusStage
 ---------------------------------------------------------------------------------
 (8) _USBCtrlEPAllowStatusStage                            2     2      0       0
                                              0 COMMON     2     2      0
 ---------------------------------------------------------------------------------
 (6) _USBCtrlTrfInHandler                                  3     3      0     115
                                              3 COMMON     3     3      0
                _USBCtrlTrfTxService
 ---------------------------------------------------------------------------------
 (9) _USBCtrlTrfTxService                                  3     3      0      92
                                              0 COMMON     3     3      0
 ---------------------------------------------------------------------------------
 Estimated maximum stack depth 9
 ---------------------------------------------------------------------------------

 Call Graph Graphs:

 _main (ROOT)
   _APP_DeviceCustomHIDTasks
     _LED_Off
     _LED_On
     _USBTransferOnePacket
     _check_alcohol
     _start_alcohol
   _SYSTEM_Initialize
     _LED_Init
     _LED_Off
     _init_alcohol
   _USBDeviceAttach
   _USBDeviceInit

 _SYS_InterruptHigh (ROOT)
   _USBDeviceTasks
     _USBCtrlEPAllowStatusStage
     _USBCtrlEPService
       _USBCtrlTrfInHandler
         _USBCtrlTrfTxService
       _USBCtrlTrfOutHandler
         _USBCtrlTrfRxService
           _USBCtrlEPAllowStatusStage
       _USBCtrlTrfSetupHandler
         _USBCheckStdRequest
           _USBStdFeatureReqHandler
             _USER_USB_CALLBACK_EVENT_HANDLER
               _APP_DeviceCustomHIDInitialize
                 _USBEnableEndpoint
                   _USBConfigureEndpoint
                 i1_USBTransferOnePacket
               _USBCheckHIDRequest
               i1_LED_Off
               i1_LED_On
               i1_SYSTEM_Initialize
                 i1_LED_Init
                 i1_LED_Off
                 i1_init_alcohol
           _USBStdGetDscHandler
           _USBStdGetStatusHandler
           _USBStdSetCfgHandler
             _USER_USB_CALLBACK_EVENT_HANDLER
             _memset
           _USER_USB_CALLBACK_EVENT_HANDLER
         _USBCtrlEPServiceComplete
           _USBCtrlEPAllowDataStage
             _USBCtrlTrfTxService
           _USBCtrlEPAllowStatusStage
         _USER_USB_CALLBACK_EVENT_HANDLER
       _memcpy
     _USBIncrement1msInternalTimers
     _USBStallHandler
     _USBSuspend
       _USER_USB_CALLBACK_EVENT_HANDLER
     _USBWakeFromSuspend
       _USER_USB_CALLBACK_EVENT_HANDLER
     _USER_USB_CALLBACK_EVENT_HANDLER
     i1_USBDeviceInit

 Address spaces:
Name               Size   Autos  Total    Cost      Usage
BIGRAM             3F0      0       0       0        0.0%
NULL                 0      0       0       0        0.0%
CODE                 0      0       0       0        0.0%
BITCOMMON            E      0       0       1        0.0%
BITSFR0              0      0       0       1        0.0%
SFR0                 0      0       0       1        0.0%
COMMON               E      E       E       2      100.0%
BITSFR1              0      0       0       2        0.0%
SFR1                 0      0       0       2        0.0%
BITSFR2              0      0       0       3        0.0%
SFR2                 0      0       0       3        0.0%
STACK                0      0       0       3        0.0%
BITBANK0            20      0       0       4        0.0%
BITSFR3              0      0       0       4        0.0%
SFR3                 0      0       0       4        0.0%
BANK0               20     15      20       5      100.0%
BITSFR4              0      0       0       5        0.0%
SFR4                 0      0       0       5        0.0%
BITBANK1            10      0       0       6        0.0%
BITSFR5              0      0       0       6        0.0%
SFR5                 0      0       0       6        0.0%
BANK1               10      D      10       7      100.0%
BITSFR6              0      0       0       7        0.0%
SFR6                 0      0       0       7        0.0%
BITBANK2            10      0       0       8        0.0%
BITSFR7              0      0       0       8        0.0%
SFR7                 0      0       0       8        0.0%
BANK2               10      5      10       9      100.0%
BITSFR8              0      0       0       9        0.0%
SFR8                 0      0       0       9        0.0%
BITBANK3            50      0       0      10        0.0%
BITSFR9              0      0       0      10        0.0%
SFR9                 0      0       0      10        0.0%
BANK3               50      0      1E      11       37.5%
BITSFR10             0      0       0      11        0.0%
SFR10                0      0       0      11        0.0%
BITBANK4            50      0       0      12        0.0%
BITSFR11             0      0       0      12        0.0%
SFR11                0      0       0      12        0.0%
BANK4               50      0       0      13        0.0%
BITSFR12             0      0       0      13        0.0%
SFR12                0      0       0      13        0.0%
BITBANK5            50      0       0      14        0.0%
BITSFR13             0      0       0      14        0.0%
SFR13                0      0       0      14        0.0%
BANK5               50      0       0      15        0.0%
BITSFR14             0      0       0      15        0.0%
SFR14                0      0       0      15        0.0%
BITBANK6            50      0       0      16        0.0%
BITSFR15             0      0       0      16        0.0%
SFR15                0      0       0      16        0.0%
BANK6               50      0       0      17        0.0%
BITSFR16             0      0       0      17        0.0%
SFR16                0      0       0      17        0.0%
BITBANK7            50      0       0      18        0.0%
BITSFR17             0      0       0      18        0.0%
SFR17                0      0       0      18        0.0%
BANK7               50      0       0      19        0.0%
BITSFR18             0      0       0      19        0.0%
SFR18                0      0       0      19        0.0%
BITSFR19             0      0       0      20        0.0%
SFR19                0      0       0      20        0.0%
ABS                  0      0      6C      20        0.0%
BITBANK8            50      0       0      21        0.0%
BITSFR20             0      0       0      21        0.0%
SFR20                0      0       0      21        0.0%
BANK8               50      0       0      22        0.0%
BITSFR21             0      0       0      22        0.0%
SFR21                0      0       0      22        0.0%
BITBANK9            50      0       0      23        0.0%
BITSFR22             0      0       0      23        0.0%
SFR22                0      0       0      23        0.0%
BANK9               50      0       0      24        0.0%
BITSFR23             0      0       0      24        0.0%
SFR23                0      0       0      24        0.0%
BITBANK10           50      0       0      25        0.0%
BITSFR24             0      0       0      25        0.0%
SFR24                0      0       0      25        0.0%
BANK10              50      0       0      26        0.0%
BITSFR25             0      0       0      26        0.0%
SFR25                0      0       0      26        0.0%
BITBANK11           50      0       0      27        0.0%
BITSFR26             0      0       0      27        0.0%
SFR26                0      0       0      27        0.0%
BANK11              50      0       0      28        0.0%
BITSFR27             0      0       0      28        0.0%
SFR27                0      0       0      28        0.0%
BITBANK12           30      0       0      29        0.0%
BITSFR28             0      0       0      29        0.0%
SFR28                0      0       0      29        0.0%
BANK12              30      0       0      30        0.0%
BITSFR29             0      0       0      30        0.0%
SFR29                0      0       0      30        0.0%
BITSFR30             0      0       0      31        0.0%
SFR30                0      0       0      31        0.0%
DATA                 0      0      6C      31        0.0%
BITSFR31             0      0       0      32        0.0%
SFR31                0      0       0      32        0.0%


Microchip Technology PIC Macro Assembler V2.35 build 20211206165544 
Symbol Table                                                                                   Mon Jun 06 10:01:23 2022

                             _USB_SD_Ptr 1812                                       l30 02B1  
                                     l31 0388                                       l64 080B  
                                     l91 09B0                            _USBDeviceInit 0453  
                     _USBCheckHIDRequest 0701     USER_USB_CALLBACK_EVENT_HANDLER@event 0050  
   USER_USB_CALLBACK_EVENT_HANDLER@pdata 0052                                      l310 0864  
                                    l311 0863                                      l313 086F  
                                    l250 0495              __end_of_USBStdGetDscHandler 0E67  
                                    l255 0505                                      l291 0F75  
                                    l621 17D7                                      l615 17BE  
                                    l624 17E3                                      l618 17B7  
                                    l581 0936                                      l582 0939  
                                    l591 090D                                      l583 093C  
                                    l592 0910                                      l593 0913  
                                    l585 0958                                      l595 092F  
                                    l579 0933                                      _BDT 0020  
                                    l589 090A                                      l598 17D4  
                                    _UIE 0E92                                      _UIR 0E90  
                             _USBSuspend 082F                     USBStdSetCfgHandler@i 005A  
                   USBStdSetCfgHandler@p 0057              __end_ofi1_SYSTEM_Initialize 0985  
                                    wreg 0009                           _USBDeviceTasks 0183  
                    ?_USBCheckHIDRequest 0070                           _USBDeviceState 0168  
                  __end_of_check_alcohol 17E4                    ??_USBCtrlTrfRxService 0072  
               USBEnableEndpoint@options 0077                          __end_of_LED_Off 0930  
                                   l4000 04B8                                     l4010 04D7  
                                   l4002 04B9                                     l4020 04EE  
                                   l4012 04DB                                     l4004 04BA  
                                   l4030 0502                                     l4022 04F0  
                                   l4014 04E1                                     l4040 085A  
                                   l4032 0503                                     l4024 04F6  
                                   l4016 04E6                                     l4008 04BC  
                                   l4050 0869                                     l4042 085C  
                                   l4034 084F                                     l4026 04F7  
                                   l4018 04E9                                     l4044 085E  
                                   l4036 0855                                     l4028 04F9  
             USBConfigureEndpoint@handle 0076                                     l5110 091E  
                                   l4046 0860                                     l4038 0858  
                                   l5104 09A5                                     l4048 0861  
                                   l5106 0367                                     l4154 0801  
                                   l5108 0947                                     l3700 17DB  
                                   l4156 0805                                     l3710 17BC  
                                   l4158 0808                                     l3704 17CA  
                                   l3650 0F07                                     l3706 17B8  
                                   l3660 0F2B                                     l3652 0F0D  
                                   l3644 0EF0                                     l3900 030B  
                                   l3708 17BB                                     l3662 0F3D  
                                   l3646 0EF5                                     l3910 033B  
                                   l3902 0316                                     l3672 0932  
                                   l3664 0F42                                     l3656 0F10  
                                   l3648 0EFE                                     l3912 0340  
                                   l3904 031C                                     l3920 0372  
                                   l3690 0916                                     l3666 0F59  
                                   l3658 0F1F                                     l3914 0346  
                                   l3906 0322                                     l3930 0990  
                                   l3676 093F                                     l3668 0F71  
                                   l3684 17B1                                     l3908 032E  
                                   l3932 0991                                     l3940 099D  
                                   l3686 0909                                     l3918 035E  
                                   l3934 0994                                     l3926 0987  
                                   l3950 0455                                     l3880 02D6  
                                   l3872 02B7                                     l3936 0998  
                                   l3928 0988                                     l3960 0464  
                                   l3952 0459                                     l3698 17D5  
                                   l3890 02FA                                     l3882 02DA  
                                   l3874 02BE                                     l3866 02A9  
                                   l3962 0468                                     l3892 0301  
                                   l3884 02DE                                     l3876 02C7  
                                   l3980 0497                                     l3964 046C  
                                   l3948 0453                                     l3894 0309  
                                   l3886 02E5                                     l3878 02CE  
                                   l3990 04A2                                     l3982 0498  
                                   l3974 047A                                     l3966 0471  
                                   l3958 045F                                     l3888 02ED  
                                   l3992 04A4                                     l3984 0499  
                                   l3976 048B                                     l3968 0478  
                                   l3994 04A6                                     l3986 049A  
                                   l3978 048F                                     l3996 04AB  
                                   l3988 04A0                                     l3998 04B7  
                                   u2300 0F42                                     u2301 0F41  
                                   u2310 17DB                                     u2311 17DA  
                                   u2500 02C6                                     u2501 02C5  
                                   u2510 02CE                                     u2511 02CD  
                                   u2280 0EF5                                     u2520 02D6  
                                   u2600 0495                                     u2281 0EF4  
                                   u2521 02D5                                     u2601 0494  
                                   u2290 0F0D                                     u2530 02E5  
                                   u2610 04AB                                     u2291 0F0C  
                                   u2531 02E4                                     u2611 04AA  
                                   u2540 02ED                                     u2620 04E1  
                                   u3317 17B5                                     u2541 02EC  
                                   u2621 04E0                                     u2550 0301  
                                   u2470 02B0                                     u2630 0855  
                                   u2551 0300                                     u2471 02AF  
                                   u2631 0854                                     u2560 0309  
                                   u2480 02B6                                     u2640 0869  
                                   u2561 0308                                     u2481 02B5  
                                   u2641 0868                                     u2570 0346  
                                   u2490 02BE                                     u2571 0345  
                                   u2491 02BD                                     u2580 0471  
                                   u2581 0470                                     u2595 047D  
                                   i1l27 082E                                     i1l91 0984  
                  ??_USBCtrlTrfTxService 0070                                     i1l96 0009  
                            ?i1_LED_Init 0070                                     _UCFG 0E91  
                                   _UEP0 0E98                                     _UEP1 0E99  
                                   _UEIE 0E97                                     _UEIR 0E93  
                                   _UCON 0E8E   USBStdFeatureReqHandler@current_ep_data 005A  
                                   _pDst 01BB                                     _main 0801  
                                   fsr0h 0005                                     fsr1h 0007  
                                   indf0 0000                                     fsr0l 0004  
                                   indf1 0001                                     fsr1l 0006  
                        _USBDeviceAttach 084F                                     btemp 007E  
                                   start 000B                     ??_USBCheckHIDRequest 0070  
             __end_of_USBCheckStdRequest 0CE1                   ??_USBCtrlTrfOutHandler 0076  
              ??_USBStdFeatureReqHandler 0056                             _USBOutHandle 01B1  
               ??_USBStdGetStatusHandler 0070                           ?_USBDeviceInit 0070  
                       __end_of_LED_Init 17D5                                    ?_main 0070  
                       __end_ofi1_LED_On 08DF                   __end_of_USBDeviceTasks 02A9  
              ?_USBCtrlEPServiceComplete 0070                                    i1l400 0B83  
                                  i1l321 0C62                                    i1l250 05F5  
                                  i1l411 0BE8                                    i1l403 0BDA  
                                  i1l332 0A88                                    i1l404 0B8D  
                                  i1l317 0C62                                    i1l501 0182  
                                  i1l405 0B8F                                    i1l261 01B1  
                                  i1l262 02A8                                    i1l327 07FB  
                                  i1l335 06AD                                    i1l255 065D  
                                  i1l271 0238                                    i1l360 0DE3  
                                  i1l416 09DD                                    i1l272 02A6  
                                  i1l345 0700                                    i1l433 0B7E  
                                  i1l425 0891                                    i1l273 023F  
                                  i1l506 17FF                                    i1l371 05AA  
                                  i1l363 051E                                    i1l443 0A45  
                                  i1l291 0EED                                    i1l419 084E  
                                  i1l267 01FF                                    i1l348 0D87  
                                  i1l436 0AD3                                    i1l373 05B4  
                                  i1l285 08B6                                    i1l461 0CE0  
                                  i1l382 0FFF                                    i1l615 17B0  
                                  i1l463 0C6D                                    i1l456 0D5D  
                                  i1l472 0C9B                                    i1l457 0D60  
                                  i1l449 0D56                                    i1l529 079F  
                                  i1l571 0B23                                    i1l396 0E66  
                                  i1l581 08BC                                    i1l582 08BF  
                                  i1l583 08C2                                    i1l591 08E4  
                                  i1l592 08E7                                    i1l585 08DE  
                                  i1l593 08EA                                    i1l497 013B  
                                  i1l579 08B9                                    i1l595 0906  
                                  i1l499 014E                                    i1l589 08E1  
                                  i1l598 17C9                                    _UADDR 0E96  
                          _start_alcohol 17B1                                    _USTAT 0E8F  
                       ??i1_init_alcohol 0070          __end_of_USBCtrlEPAllowDataStage 07FC  
                                  _sd000 1818                                    _sd001 1053  
                                  _sd002 1000           ?_USBIncrement1msInternalTimers 0070  
                                  status 0003                                    wtemp0 007E  
                        __initialization 000D                             __end_of_main 0811  
                                 ??_main 00ED                           ?_start_alcohol 0070  
                        ?_USBDeviceTasks 0070                              ?_USBSuspend 0070  
                              ??_LED_Off 00E0                          i1_USBDeviceInit 05B5  
                __end_of_USBDeviceAttach 0870                                   _ADCON0 009D  
                                 _ADCON1 009E                                   _ACTCON 039B  
                                 _ADRESH 009C                                   _ADRESL 009B  
                          ?_init_alcohol 0070                                   _ANSELA 018C  
                                 _ANSELC 018E                        __end_ofi1_LED_Off 0907  
                 SYSTEM_Initialize@state 00E5                                   i1l3000 0783  
                                 i1l3010 095A                                   i1l1154 0A0B  
                                 i1l3100 0DDC                                   i1l3020 096C  
                                 i1l3012 095B                                   i1l3102 0DDE  
                                 i1l3030 08B8                                   i1l3014 0964  
                                 i1l1158 0452                                   i1l3016 0965  
                                 i1l3024 0971                                   i1l3040 0AD4  
                                 u200_20 00DA                                   i1l3200 07E2  
                                 u200_21 00D9                                   i1l3034 08C5  
                                 i1l3018 0968                                   i1l3050 0AF7  
                                 i1l3042 0AD5                                   i1l3202 07F0  
                                 i1l3044 0AEA                                   i1l3300 0B8A  
                                 i1l3204 07F6                                   i1l3070 0D79  
                                 i1l3150 0BF3                                   i1l3046 0AEF  
                                 i1l3054 0AFB                                   i1l3310 0BB1  
                                 i1l3302 0B90                                   i1l3080 0DA0  
                                 i1l3072 0D7E                                   i1l3064 0D61  
                                 i1l3160 0C10                                   i1l3152 0BF8  
                                 i1l3048 0AF2                                   i1l3400 0133  
                                 u201_20 00DE                                   i1l3320 0BDF  
                                 i1l3312 0BB9                                   i1l3304 0B97  
                                 u201_21 00DD                                   i1l3090 0DBD  
                                 i1l3074 0D83                                   i1l3066 0D6F  
                                 i1l3170 0C31                                   i1l3162 0C16  
                                 i1l3154 0BFC                                   i1l3146 0BE9  
                                 i1l3410 016E                                   i1l3402 013F  
                                 i1l3330 002D                                   i1l3322 0BE3  
                                 i1l3314 0BC1                                   i1l3306 0B9B  
                                 i1l3084 0DA6                                   i1l3092 0DBF  
                                 i1l3076 0D8F                                   i1l3068 0D73  
                                 i1l3180 0C5B                                   i1l3172 0C38  
                                 i1l3164 0C1B                                   i1l3156 0C03  
                                 i1l3148 0BEF                                   i1l3500 058F  
                                 i1l3412 017A                                   i1l3404 0147  
                                 i1l3340 0047                                   i1l3332 0033  
                                 i1l3260 0DEB                                   i1l3324 0BE4  
                                 i1l3308 0BA7                                   i1l3420 066F  
                                 i1l3094 0DC5                                   i1l3086 0DB3  
                                 i1l3078 0D9B                                   i1l3174 0C3C  
                                 i1l3166 0C1D                                   i1l3158 0C0A  
                                 i1l3510 05B1                                   i1l3502 059C  
                                 i1l3406 0156                                   i1l3350 0066  
                                 i1l3334 003A                                   i1l3342 0049  
                                 i1l3270 0E0D                                   i1l3262 0DF0  
                                 i1l3318 0BC6                                   i1l3190 07C4  
                                 i1l3182 07A0                                   i1l3430 0689  
                                 i1l3422 0675                                   i1l3414 065E  
                                 i1l3096 0DD2                                   i1l3088 0DB8  
                                 i1l3176 0C41                                   i1l3168 0C25  
                                 i1l3504 05A2                                   i1l3600 0A1E  
                                 i1l5120 0B1E                                   i1l3408 0166  
                                 u202_20 0106                                   i1l3360 00A1  
                                 i1l3352 006D                                   i1l3344 004F  
                                 i1l3336 003B                                   i1l3280 0E43  
                                 i1l3272 0E1C                                   i1l3264 0DF4  
                                 i1l5112 0CBD                                   i1l3192 07CA  
                                 i1l3184 07A3                                   u210_20 06BC  
                                 i1l3440 06B1                                   i1l3432 0696  
                                 i1l3424 0678                                   i1l3416 0665  
                                 u202_21 0105                                   u210_21 06BB  
                                 i1l3098 0DD7                                   i1l3610 0CE1  
                                 i1l3178 0C4E                                   i1l3506 05A7  
                                 i1l3602 0A2B                                   i1l5130 078B  
                                 i1l5122 0979                                   i1l3370 00CC  
                                 i1l3362 00AC                                   i1l3354 0073  
                                 i1l3346 0056                                   i1l3338 0041  
                                 i1l3282 0E4F                                   i1l3274 0E2C  
                                 i1l3266 0DF9                                   i1l3258 0DE4  
                                 i1l5114 0BCF                                   i1l3186 07AA  
                                 i1l3194 07D0                                   i1l3450 06C2  
                                 i1l3442 06B6                                   i1l3434 069C  
                                 i1l3426 067A                                   i1l3418 066A  
                                 i1l3620 0D01                                   i1l3612 0CEA  
                                 i1l3508 05AB                                   i1l3604 0A38  
                                 i1l2900 0E68                                   i1l5124 08F5  
                                 i1l3380 00ED                                   i1l3372 00D2  
                                 i1l3364 00B2                                   i1l3356 0089  
                                 i1l3348 005D                                   i1l5116 0E5B  
                                 i1l3284 0E51                                   i1l3276 0E2E  
                                 i1l3268 0DFE                                   i1l3196 07DB  
                                 i1l3188 07B7                                   i1l3460 06EB  
                                 i1l3452 06C8                                   i1l3444 06BC  
                                 i1l3436 06A1                                   i1l3428 067C  
                                 i1l3630 0D23                                   i1l3622 0D07  
                                 i1l3614 0CF0                                   i1l3470 0506  
                                 i1l3606 0A3E                                   i1l2902 0E6D  
                                 i1l5126 08CD                                   i1l5118 0B04  
                                 i1l3390 010E                                   i1l3382 00F2  
                                 i1l3374 00DA                                   i1l3366 00B6  
                                 i1l3358 009D                                   i1l3278 0E34  
                                 i1l3294 0B7F                                   i1l3198 07DF  
                                 i1l3462 06F1                                   i1l3446 06BF  
                                 i1l3454 06CC                                   i1l3438 06A7  
                                 i1l3640 0D5B                                   i1l3632 0D2A  
                                 i1l3616 0CF7                                   i1l3624 0D0C  
                                 i1l3480 0532                                   i1l3472 050C  
                                 i1l3608 0A44                                   i1l2920 0EBA  
                                 i1l2912 0E88                                   i1l2904 0E76  
                                 i1l5128 0740                                   u203_20 0133  
                                 i1l3392 0113                                   i1l3376 00DE  
                                 i1l3384 00F8                                   i1l3368 00C2  
                                 i1l3288 0E53                                   i1l4520 03B6  
                                 i1l4512 0394                                   i1l4600 0C63  
                                 i1l3464 06F6                                   i1l3456 06D1  
                                 u211_20 06C8                                   i1l3448 06C1  
                                 i1l3560 09F4                                   i1l3720 0885  
                                 i1l3712 0870                                   i1l3800 05D9  
                                 u203_21 0132                                   u211_21 06C7  
                                 i1l3642 0D5E                                   i1l3634 0D37  
                                 i1l3626 0D12                                   i1l3618 0CFC  
                                 i1l3490 0553                                   i1l3482 0536  
                                 i1l3474 051A                                   i1l2922 0ED1  
                                 i1l2914 0E97                                   i1l2906 0E7F  
                                 i1l3394 0123                                   i1l3386 00FE  
                                 i1l3378 00E6                                   i1l3298 0B84  
                                 i1l4522 03F2                                   i1l4514 039A  
                                 i1l4506 0389                                   i1l4610 0C7C  
                                 i1l3466 06F8                                   i1l3458 06DE  
                                 i1l3562 09FB                                   i1l3554 09DF  
                                 i1l3730 0837                                   i1l3722 088B  
                                 i1l3714 0872                                   i1l3810 05EF  
                                 i1l3636 0D3C                                   i1l3628 0D20  
                                 i1l3492 0560                                   i1l3484 053A  
                                 i1l3476 0525                                   i1l2924 0EE9  
                                 i1l2916 0EA3                                   i1l2908 0E85  
                                 i1l2932 08ED                                   i1l2940 17AA  
                                 i1l3396 0128                                   i1l3388 0106  
                                 i1l4540 043E                                   i1l4532 0424  
                                 i1l4516 03AC                                   i1l4508 038D  
                                 i1l4620 0C8B                                   i1l4612 0C80  
                                 i1l4604 0C6E                                   i1l3556 09E8  
                                 i1l3564 09FF                                   i1l3740 17ED  
                                 i1l3732 0838                                   i1l3724 088F  
                                 i1l3716 0881                                   i1l3820 05FE  
                                 i1l3812 05F7                                   i1l4700 0191  
                                 i1l3638 0D49                                   i1l3494 0568  
                                 i1l3486 0540                                   i1l3478 0527  
                                 i1l2918 0EB5                                   i1l2950 081C  
                                 i1l2942 17AD                                   i1l3398 012F  
                                 i1l4542 0444                                   i1l4534 0431  
                                 i1l4526 03FC                                   i1l4550 0F7C  
                                 i1l4630 0C9C                                   i1l4622 0C8F  
                                 i1l4614 0C81                                   i1l4606 0C74  
                                 i1l3558 09F0                                   i1l3742 17F2  
                                 i1l3750 09C0                                   i1l3734 083E  
                                 i1l3726 082F                                   i1l3718 0883  
                                 i1l3830 0612                                   i1l3822 0600  
                                 i1l3814 05F8                                   i1l3806 05DA  
                                 i1l4710 01A9                                   i1l4702 0197  
                                 i1l3496 0575                                   i1l3488 0546  
                                 u220_20 0A13                                   i1l3592 0A0C  
                                 i1l2880 0A6D                                   i1l2872 0A47  
                                 i1l2960 0710                                   i1l2952 0701  
                                 i1l2928 08E0                                   i1l2944 17AE  
                                 u204_20 013B                                   i1l4544 0448  
                                 i1l4536 0435                                   i1l4528 041A  
                                 u300_20 0F8F                                   i1l4560 0F86  
                                 i1l4632 0CA6                                   i1l4624 0C94  
                                 i1l4616 0C85                                   i1l4608 0C78  
                                 u212_20 06FF                                   i1l3744 17FB  
                                 i1l3752 09CB                                   i1l3736 083F  
                                 i1l3728 0831                                   i1l3840 0616  
                                 i1l3832 0613                                   i1l3824 0602  
                                 i1l3816 05F9                                   i1l3808 05EB  
                                 i1l4720 01BE                                   i1l4712 01AE  
                                 i1l4704 019C                                   u220_21 0A12  
                                 u204_21 013A                                   u300_21 0F8E  
                                 u212_21 06FE                                   i1l3498 0582  
                                 i1l3594 0A13                                   i1l2882 0A77  
                                 i1l2874 0A4B                                   i1l2890 0897  
                                 i1l2946 0811                                   i1l2970 072B  
                                 i1l2938 17BF                                   i1l4546 044C  
                                 i1l4538 0439                                   i1l4562 0F8A  
                                 i1l4626 0C95                                   i1l4618 0C87  
                                 i1l4650 0AA9                                   i1l4642 0A89  
                                 i1l3738 17E4                                   i1l3754 09D7  
                                 i1l3746 09B1                                   i1l3850 0643  
                                 i1l3842 0631                                   i1l3834 0614  
                                 i1l3826 0604                                   i1l3818 05FA  
                                 i1l4730 01D5                                   i1l4722 01C4  
                                 i1l4714 01B5                                   i1l4706 01A0  
                                 i1l3596 0A17                                   i1l2884 0A7F  
                                 i1l2876 0A64                                   i1l2892 089C  
                                 i1l2948 0814                                   i1l2972 072F  
                                 i1l2964 0717                                   i1l2956 070A  
                                 i1l4580 0FB7                                   i1l4564 0F8F  
                                 i1l4556 0F7D                                   i1l4548 0F76  
                                 i1l4628 0C99                                   i1l4636 0CB5  
                                 i1l4660 0ABC                                   i1l4652 0AAF  
                                 i1l4644 0A92                                   i1l3748 09B6  
                                 i1l3756 09D9                                   i1l3860 0651  
                                 i1l3852 0648                                   i1l3844 0635  
                                 i1l3836 0615                                   i1l3828 0609  
                                 i1l3780 05B5                                   i1l4740 01F7  
                                 i1l4732 01DA                                   i1l4716 01B9  
                                 i1l4724 01CA                                   i1l4708 01A6  
                                 i1l3598 0A18                                   i1l2886 0A83  
                                 i1l2878 0A68                                   i1l2894 08A0  
                                 i1l2990 076C                                   i1l2982 0755  
                                 i1l2966 071D                                   i1l4590 0FD8  
                                 i1l4582 0FC5                                   i1l4574 0FA1  
                                 i1l4566 0F9D                                   i1l4558 0F82  
                                 i1l4662 0ABE                                   i1l4654 0AB7  
                                 i1l4646 0A9B                                   i1l4670 0B2A  
                                 i1l3862 065A                                   i1l3854 064A  
                                 i1l3846 063B                                   i1l3790 05C0  
                                 i1l3782 05B7                                   i1l4750 0210  
                                 i1l4742 01FD                                   i1l4734 01DE  
                                 i1l4726 01CE                                   i1l4718 01BC  
                                 u213_20 051A                                   u221_20 0A1E  
                                 i1l2896 08A6                                   i1l2888 0893  
                                 i1l2992 0770                                   i1l2984 0759  
                                 i1l2968 0722                                   i1l2976 0738  
                                 u205_20 013F                                   i1l4592 0FDD  
                                 i1l4584 0FC7                                   u301_20 0FB7  
                                 i1l4576 0FAD                                   i1l4568 0F9F  
                                 i1l4664 0AC1                                   i1l4656 0AB8  
                                 i1l4648 0AA1                                   i1l4680 0B59  
                                 i1l4672 0B31                                   i1l3864 065B  
                                 i1l3856 064E                                   i1l3848 0640  
                                 i1l3792 05C5                                   i1l3784 05BB  
                                 i1l4760 022E                                   i1l4752 0213  
                                 i1l4744 0204                                   i1l4736 01EE  
                                 i1l4728 01D2                                   _LED_On 0930  
                                 u213_21 0519                                   u221_21 0A1D  
                                 u205_21 013E                                   u301_21 0FB6  
                                 i1l2898 08B0                                   i1l2994 0774  
                                 i1l2986 075D                                   i1l2978 074B  
                                 i1l4594 0FE2                                   i1l4586 0FCC  
                                 i1l4578 0FB1                                   i1l4666 0AD0  
                                 i1l4658 0ABA                                   i1l4682 0B69  
                                 i1l4674 0B40                                   i1l3858 064F  
                                 i1l3794 05C9                                   i1l4770 0244  
                                 i1l4762 0235                                   i1l4754 0218  
                                 i1l4738 01F4                                   i1l4746 0207  
                                 i1l4690 0183                                   i1l2996 0779  
                                 i1l2988 0762                                   i1l4596 0FE9  
                                 i1l4588 0FD1                                   i1l4684 0B6D  
                                 i1l4676 0B47                                   i1l4668 0B24  
                                 i1l3796 05CD                                   i1l4780 0271  
                                 i1l4772 024A                                   i1l4764 023D  
                                 i1l4756 021C                                   i1l4748 020C  
                                 i1l4692 0189                                   u213_25 0516  
                                 i1l4598 0FF9                                   i1l4678 0B4D  
                                 i1l4686 0B71                                   i1l3798 05D2  
                                 i1l4790 02A0                                   i1l4782 0282  
                                 i1l4774 0254                                   i1l4758 022C  
                                 i1l4694 018E                                   u222_20 0CF7  
                                 u214_20 0540                                   u150_20 08A0  
                                 u302_20 0FE2                                   u206_20 0665  
                                 i1l4688 0B7B                                   i1l4784 0288  
                                 i1l4776 025A                                   u310_20 019C  
                                 i1l4696 018F                                   i1l4792 0006  
                                 u222_21 0CF6                                   u214_21 053F  
                                 u150_21 089F                                   u302_21 0FE1  
                                 u206_21 0664                                   u310_21 019B  
                                 i1l4786 028C                                   i1l4778 025F  
                                 i1l4698 0190                                   i1l4788 029B  
                                 u223_20 0D01                                   u215_20 0546  
                                 u151_20 0E6D                                   u303_20 0C6C  
                                 u207_20 066A                                   u311_20 01A0  
                                 u223_21 0D00                                   u215_21 0545  
                                 u151_21 0E6C                                   u303_21 0C6B  
                                 u207_21 0669                                   u311_21 019F  
                                 u160_20 0D79                                   u224_20 0D12  
                                 u216_20 0568                                   u152_20 0E85  
                                 u208_20 0675                                   u304_20 0B31  
                                 u232_20 088F                                   u320_20 0204  
                                 u312_20 01AE                                   u160_21 0D78  
                                 u224_21 0D11                                   u216_21 0567  
                                 u152_21 0E84                                   u208_21 0674  
                                 u304_21 0B30                                   u232_21 088E  
                                 u320_21 0203                                   u312_21 01AD  
                                 u161_20 0D83                                   u225_20 0D2A  
                                 u217_20 05B1                                   u153_20 0EBA  
                                 u209_20 06B1                                   u233_20 17F2  
                                 u321_20 020C                                   u313_20 01B5  
                                 u161_21 0D82                                   u225_21 0D29  
                                 u217_21 05B0                                   u153_21 0EB9  
                                 u209_21 06B0                                   u233_21 17F1  
                                 u321_21 020B                                   u313_21 01B4  
                                 u145_25 0A4E                                   u305_25 0B36  
                                 u162_20 0DA5                                   u226_20 0D3C  
                                 u170_20 0BEF                                   u154_20 0709  
                                 u306_20 0B59                                   u234_20 17FB  
                                 u242_20 05D2                                   u330_20 02A6  
                                 u322_20 0210                                   u314_20 01B9  
                                 u162_21 0DA4                                   u226_21 0D3B  
                                 u170_21 0BEE                                   u154_21 0708  
                                 u306_21 0B58                                   u234_21 17FA  
                                 u242_21 05D1                                   u330_21 02A5  
                                 u322_21 020F                                   u314_21 01B8  
                                 u146_25 0A54                                   u163_20 0DC4  
                                 u227_20 0D5B                                   u171_20 0BF8  
                                 u155_20 070F                                   u219_20 0A0B  
                                 u307_20 0B7B                                   u235_20 09B6  
                                 u323_20 0218                                   u315_20 01CE  
                                 u163_21 0DC3                                   u227_21 0D5A  
                                 u171_21 0BF7                                   u155_21 070E  
                                 u219_21 0A0A                                   u307_21 0B7A  
                                 u235_21 09B5                                   u323_21 0217  
                                 u315_21 01CD                                   u147_25 0A5C  
                                 u243_25 05DD                                   u164_20 0DE3  
                                 u172_20 0C03                                   u148_20 0A6D  
                                 u156_20 0716                                   u180_20 0DFE  
                                 u236_20 09C0                                   u244_20 05F5  
                                 u324_20 021C                                   u316_20 01D2  
                                 u308_20 0189                                   u164_21 0DE2  
                                 u172_21 0C02                                   u148_21 0A6C  
                                 u156_21 0715                                   u180_21 0DFD  
                                 u236_21 09BF                                   u244_21 05F4  
                                 u324_21 021B                                   u316_21 01D1  
                                 u308_21 0188                                   u173_20 0C1B  
                                 u149_20 0897                                   u157_20 071D  
                                 u181_20 0E34                                   u237_20 09CB  
                                 u245_20 0609                                   u325_20 0235  
                                 u317_20 01DA                                   u309_20 018E  
                                 u173_21 0C1A                                   u149_21 0896  
                                 u157_21 071C                                   u181_21 0E33  
                                 u237_21 09CA                                   u245_21 0608  
                                 u325_21 0234                                   u317_21 01D9  
                                 u309_21 018D                                   u158_20 0754  
                                 u190_20 0041                                   u182_20 0B8A  
                                 u174_20 07AA                                   u246_20 063B  
                                 u326_20 023D                                   u318_20 01DE  
                                 u158_21 0753                                   u190_21 0040  
                                 u182_21 0B89                                   u174_21 07A9  
                                 u246_21 063A                                   u326_21 023C  
                                 u318_21 01DD                                   u159_20 0D6F  
                                 u191_20 004F                                   u183_20 0B97  
                                 u175_20 07DB                                   u327_20 0244  
                                 u319_20 01FD                                   u159_21 0D6E  
                                 u191_21 004E                                   u183_21 0B96  
                                 u175_21 07DA                                   u327_21 0243  
                                 u319_21 01FC                                   u175_25 07D7  
                                 u192_20 0056                                   u184_20 0B9B  
                                 u328_20 025F                                   u192_21 0055  
                                 u184_21 0B9A                                   u328_21 025E  
                                 u193_20 005D                                   u185_20 0BB9  
                                 u329_20 0288                                   u193_21 005C  
                                 u185_21 0BB8                                   u329_21 0287  
                                 u194_20 0066                                   u186_20 0BC1  
                                 u194_21 0065                                   u186_21 0BC0  
                                 u195_20 006D                                   u179_20 0DEB  
                                 u187_20 0BDF                                   u195_21 006C  
                                 u179_21 0DEA                                   u187_21 0BDE  
        ??_APP_DeviceCustomHIDInitialize 007D                                   u196_20 0073  
                                 u188_20 0033                                   u196_21 0072  
                                 u188_21 0032                                   u197_20 00A1  
                                 u189_20 003A                                   u197_21 00A0  
                                 u189_21 0039                                   u198_20 00B6  
                                 u198_21 00B5                                   u199_20 00D2  
                                 u295_20 0393                                   u199_21 00D1  
                                 u295_21 0392                                   u296_20 03B5  
                                 u296_21 03B4                                   u297_20 03FB  
                                 u297_21 03FA                                   u298_20 0423  
                                 _OSCCON 0099                                   u298_21 0422  
                                 u299_20 0452                                   u299_21 0451  
           i1USBTransferOnePacket@handle 0079                        _shortPacketStatus 0167  
                        USBDeviceTasks@i 0064              USBStdFeatureReqHandler@pUEP 0058  
               USBTransferOnePacket@data 00E1               USBCtrlTrfInHandler@lastDTS 0075  
                        ??_USBDeviceInit 00E0                        _USBEnableEndpoint 0892  
                                 _memcpy 09DE                                   _memset 0389  
                     ?_USBEnableEndpoint 0077                      ??_USBEnableEndpoint 0078  
                         ??_init_alcohol 00E0                              _CtrlTrfData 0048  
                   _controlTransferState 00ED               ??_APP_DeviceCustomHIDTasks 00EB  
                      _SYSTEM_Initialize 0985                  __end_of__initialization 0029  
             i1USBTransferOnePacket@data 0071                                ?_LED_Init 0070  
                     ?_SYSTEM_Initialize 0070                                ?i1_LED_On 0070  
                   i1USBDeviceInit@i_886 0073                           __pcstackCOMMON 0070  
              __end_of_USBEnableEndpoint 08B7                            __end_of_sd000 181C  
                          __end_of_sd001 1075                            __end_of_sd002 102A  
                    ??_SYSTEM_Initialize 00E3                                LED_On@led 00E2  
                        _active_protocol 01BC                  __end_ofi1_USBDeviceInit 065E  
            __end_of_USBCtrlTrfInHandler 0D61                          ??_start_alcohol 00E0  
               ??_USBCtrlTrfSetupHandler 005F                  _USBTicksSinceSuspendEnd 01B3  
                       ?_USBDeviceAttach 0070                __end_of_SYSTEM_Initialize 09B1  
                 _USBStdGetStatusHandler 0B7F                             ??i1_LED_Init 0070  
                             __pbssBANK0 0065                               __pbssBANK1 00ED  
                             __pbssBANK2 0160                               __pbssBANK3 01A0  
                                ?_LED_On 0070                             i1LED_Off@led 0072  
                             ??_LED_Init 00E0                              _pBDTEntryIn 006A  
                             ??i1_LED_On 0070         __end_of_USBCtrlEPServiceComplete 0701  
  __end_of_APP_DeviceCustomHIDInitialize 082F            _APP_DeviceCustomHIDInitialize 0811  
                             __pmaintext 0801                     USBCtrlTrfRxService@i 0074  
                             __pintentry 0004                                  ?_memcpy 0070  
                                ?_memset 0070                               _device_dsc 1800  
                       _USBCtrlEPService 0B24                               _ep_data_in 0162  
                     __end_ofi1_LED_Init 17CA              __end_of_USBCtrlTrfRxService 05B5  
                     _USBCheckStdRequest 0C63                        _configDescriptor1 102A  
                                _LED_Off 0907              __end_of_USBCtrlTrfTxService 0DE4  
                    _USBStdSetCfgHandler 0F76                      ?_USBCheckStdRequest 0070  
                                _UIEbits 0E92                                  _UIRbits 0E90  
               ??i1_USBTransferOnePacket 0074          ??_USBIncrement1msInternalTimers 0070  
                   ?_USBStdSetCfgHandler 0070                        __end_of_hid_rpt01 1092  
                   ??_USBCheckStdRequest 005D                         _ToSendDataBuffer 0120  
                       ??_USBDeviceTasks 0062                     __end_of_init_alcohol 17BF  
                      ??_USBStallHandler 0070                         ?i1_USBDeviceInit 0070  
              __end_of_configDescriptor1 1053                                  __ptext1 0453  
                                __ptext2 084F                                  __ptext3 0985  
                                __ptext4 17B8                                  __ptext5 17CA  
                                __ptext6 02A9                                  __ptext7 17B1  
                                __ptext8 17D5                                  __ptext9 0EEE  
                                _inPipes 0065              _USBDeferOUTDataStagePackets 01B4  
                           ??_USBSuspend 0056                       __end_of_USB_CD_Ptr 181E  
                                clrloop0 17A5                     end_of_initialization 0029  
                     __end_of_USB_SD_Ptr 1818                                  memcpy@d 0079  
                                memcpy@n 0072                                  memcpy@s 0075  
                    _pBDTEntryEP0OutNext 006E                                  memset@c 0072  
                                memset@k 007A                                  memset@n 0074  
                                memset@s 007C                          _USB1msTickCount 01A7  
                              i1_LED_Off 08DF                 ?_USBStdFeatureReqHandler 0070  
                  ??_USBStdSetCfgHandler 0056                       __end_of_USBSuspend 084F  
                _USBCtrlEPAllowDataStage 07A0                 _USBCtrlEPServiceComplete 065E  
             _USBStatusStageEnabledFlag1 01B7               _USBStatusStageEnabledFlag2 01B6  
                     USBEnableEndpoint@p 007A                                _TRISAbits 008C  
                              _TRISCbits 008E                       _ReceivedDataBuffer 00A0  
                     _BothEP0OutUOWNsSet 01B8                USBStdSetCfgHandler@i_1619 0059  
                          _check_alcohol 17D5                USBConfigureEndpoint@EPNum 0075  
             ?_USBCtrlEPAllowStatusStage 0070      USER_USB_CALLBACK_EVENT_HANDLER@size 0054  
                              _USTATcopy 00EF                 i1USBTransferOnePacket@ep 0078  
           __end_of_USBTransferOnePacket 0F76                           __end_of_LED_On 0959  
                             ?i1_LED_Off 0070                       USBDeviceInit@i_886 00E3  
                 _USBCtrlTrfSetupHandler 0A89                    __end_of_USBDeviceInit 0506  
  __end_of_USBIncrement1msInternalTimers 1800            _USBIncrement1msInternalTimers 17E4  
                             LED_Off@led 00E2                           __end_of_memcpy 0A0C  
                         __end_of_memset 0453                        _USBBusIsSuspended 01B9  
                    start_initialization 000D                  ?_USBStdGetStatusHandler 0070  
          USBCtrlTrfRxService@byteToRead 0075                           ?_check_alcohol 00E0  
           __end_of_USBConfigureEndpoint 0A89          __end_of_USBStdFeatureReqHandler 0183  
                               ??_LED_On 00E0        __end_of_USBCtrlEPAllowStatusStage 0C63  
       APP_DeviceCustomHIDTasks@head_dat 016B                 __end_of_USBCtrlEPService 0B7F  
              ??_USBCtrlEPAllowDataStage 0073                           USBDeviceInit@i 00E4  
                         USBDeviceInit@p 00E1                   _pBDTEntryEP0OutCurrent 00EE  
                USBTransferOnePacket@dir 00E0                  USBTransferOnePacket@len 00E3  
          APP_DeviceCustomHIDTasks@value 016D                      _USBStdGetDscHandler 0DE4  
       APP_DeviceCustomHIDTasks@tail_dat 016C                ?_APP_DeviceCustomHIDTasks 0070  
                               ??_memcpy 0074                                 ??_memset 0076  
                    i1_SYSTEM_Initialize 0959                               memset@dest 0070  
                 i1_USBTransferOnePacket 0E67                    __end_of_start_alcohol 17B8  
                 _USBActiveConfiguration 016A           __end_of_USBStdGetStatusHandler 0BE9  
              i1USBTransferOnePacket@dir 0070                i1USBTransferOnePacket@len 0073  
                               ?_LED_Off 0070                                ___latbits 0002  
                          __pcstackBANK0 0050                            __pcstackBANK1 00E0  
                          __pcstackBANK2 016B                     ?_USBStdGetDscHandler 0070  
                           _init_alcohol 17B8                     ?i1_SYSTEM_Initialize 0070  
             __end_of_USBWakeFromSuspend 0892                          _USBStallHandler 09B1  
                           _pBDTEntryOut 01AB                              ??i1_LED_Off 0070  
                            i1LED_On@led 0072                                _hid_rpt01 1075  
                              _idle_rate 01BD                     _USBTransferOnePacket 0EEE  
                        ??_check_alcohol 00E2             __end_of_USBCtrlTrfOutHandler 0A46  
                  ??_USBStdGetDscHandler 0070                              _ep_data_out 0160  
          USBConfigureEndpoint@direction 0070                    ??i1_SYSTEM_Initialize 0073  
                         i1_init_alcohol 17AA                                 _LED_Init 17CA  
                               _LATCbits 010E               __end_of_USBCheckHIDRequest 07A0  
             ??_USBCtrlEPServiceComplete 0075                                clear_ram0 17A4  
                               _PIE2bits 0092                                 i1_LED_On 08B7  
                               _PIR2bits 0012                                 _UEP0bits 0E98  
             _USBDeferINDataStagePackets 01B5                                 _UCONbits 0E8E  
                   _USBConfigureEndpoint 0A46                               _ADCON0bits 009D  
                  ?_USBTransferOnePacket 00E0                        _SYS_InterruptHigh 0004  
                           _RemoteWakeup 01BA                       ?_SYS_InterruptHigh 0070  
                __end_of_USBStallHandler 09DE                   __end_ofi1_init_alcohol 17B1  
            ??_USBCtrlEPAllowStatusStage 0070              __end_of_USBStdSetCfgHandler 1000  
                    ??_SYS_InterruptHigh 007E                       __end_of_device_dsc 1812  
                ?_USBCtrlTrfSetupHandler 0070                  USBStdGetStatusHandler@p 0072  
                              memcpy@tmp 0077                   USBTransferOnePacket@ep 00E8  
                               _SetupPkt 0040                    ?_USBConfigureEndpoint 0070  
                      ??_USBDeviceAttach 00E0                __end_of_SYS_InterruptHigh 000B  
                               __ptext10 0930                                 __ptext11 0907  
                               __ptext20 09DE                                 __ptext21 0A89  
                               __ptext13 0183                                 __ptext30 0AD4  
                               __ptext22 065E                                 __ptext14 05B5  
                               __ptext31 0959                                 __ptext23 07A0  
                               __ptext15 0870                                 __ptext40 0A46  
                               __ptext32 17AA                                 __ptext24 0C63  
                               __ptext16 082F                                 __ptext41 0A0C  
                               __ptext33 08DF                                 __ptext25 0F76  
                               __ptext17 09B1                                 __ptext42 0506  
                               __ptext34 17BF                                 __ptext26 0389  
                               __ptext18 17E4                                 __ptext43 0BE9  
                               __ptext35 08B7                                 __ptext27 0B7F  
                               __ptext19 0B24                                 __ptext44 0CE1  
                               __ptext36 0701                                 __ptext28 0DE4  
                               __ptext45 0D61                                 __ptext37 0811  
                               __ptext29 002D                                 __ptext38 0E67  
                               __ptext39 0892                APP_DeviceCustomHIDTasks@i 016F  
                        ?i1_init_alcohol 0070         __end_of_APP_DeviceCustomHIDTasks 0389  
         __end_of_USBCtrlTrfSetupHandler 0AD4                        ?_USBCtrlEPService 0070  
                     ??_USBCtrlEPService 0060                      _USBCtrlTrfInHandler 0CE1  
                               _outPipes 01A0                     _USBCtrlTrfOutHandler 0A0C  
                               int$flags 007E                  ?i1_USBTransferOnePacket 0070  
              _USBCtrlEPAllowStatusStage 0BE9                   ??_USBTransferOnePacket 00E4  
         ?_APP_DeviceCustomHIDInitialize 0070                _USBDeferStatusStagePacket 0164  
                       i1USBDeviceInit@i 0074                         i1USBDeviceInit@p 0071  
                             _INTCONbits 000B                 i1SYSTEM_Initialize@state 0075  
                   ?_USBCtrlTrfInHandler 0070                                 memcpy@d1 0078  
                               memcpy@s1 0070            USBCtrlTrfTxService@byteToSend 0072  
                       ?_USBStallHandler 0070                 USBStdFeatureReqHandler@p 005B  
                               intlevel1 0000                               i1_LED_Init 17BF  
__end_of_USER_USB_CALLBACK_EVENT_HANDLER 0B24         ?_USER_USB_CALLBACK_EVENT_HANDLER 0050  
      ??_USER_USB_CALLBACK_EVENT_HANDLER 007E          _USER_USB_CALLBACK_EVENT_HANDLER 0AD4  
                      ??i1_USBDeviceInit 0070           __end_ofi1_USBTransferOnePacket 0EEE  
                 ??_USBConfigureEndpoint 0071                    ?_USBCtrlTrfOutHandler 0070  
                    _USBCtrlTrfRxService 0506                       _USBWakeFromSuspend 0870  
                _USBStdFeatureReqHandler 002D                      _USBCtrlTrfTxService 0D61  
                          __pstringtext1 1812                            __pstringtext2 181C  
                          __pstringtext3 1000                            __pstringtext4 102A  
                          __pstringtext5 1053                            __pstringtext6 1075  
                          __pstringtext7 1800                            __pstringtext8 1818  
                    ?_USBWakeFromSuspend 0070                    ??_USBCtrlTrfInHandler 0073  
                  _USBAlternateInterface 0169                       check_alcohol@value 00E2  
                    USBEnableEndpoint@ep 007C                          _endpoint_number 0166  
                   ?_USBCtrlTrfRxService 0070                 ?_USBCtrlEPAllowDataStage 0070  
                   ?_USBCtrlTrfTxService 0070             _USBStatusStageTimeoutCounter 0165  
                   ??_USBWakeFromSuspend 0056               USBTransferOnePacket@handle 00E9  
                             _USB_CD_Ptr 181C                              _USBInHandle 01AF  
               _APP_DeviceCustomHIDTasks 02A9  
