

Microchip MPLAB XC8 Assembler V2.35 build 20211206165544 
                                                                                               Fri May 06 00:56:41 2022

Microchip MPLAB XC8 C Compiler v2.35 (Free license) build 20211206165544 Og1 
     1                           	processor	16F1459
     2                           	pagewidth 120
     3                           	opt	flic
     4                           	psect	stringtext1,global,class=STRCODE,delta=2,noexec
     5                           	psect	stringtext2,global,class=STRCODE,delta=2,noexec
     6                           	psect	stringtext3,global,class=STRCODE,delta=2,noexec
     7                           	psect	stringtext4,global,class=STRCODE,delta=2,noexec
     8                           	psect	stringtext5,global,class=STRCODE,delta=2,noexec
     9                           	psect	stringtext6,global,class=STRCODE,delta=2,noexec
    10                           	psect	stringtext7,global,class=STRCODE,delta=2,noexec
    11                           	psect	stringtext8,global,class=STRCODE,delta=2,noexec
    12                           	psect	cinit,global,class=CODE,merge=1,delta=2
    13                           	psect	bssBANK0,global,class=BANK0,space=1,delta=1,noexec
    14                           	psect	bssBANK1,global,class=BANK1,space=1,delta=1,noexec
    15                           	psect	bssBANK2,global,class=BANK2,space=1,delta=1,noexec
    16                           	psect	bssBANK3,global,class=BANK3,space=1,delta=1,noexec
    17                           	psect	clrtext,global,class=CODE,delta=2
    18                           	psect	cstackBANK1,global,class=BANK1,space=1,delta=1,noexec
    19                           	psect	cstackCOMMON,global,class=COMMON,space=1,delta=1,noexec
    20                           	psect	cstackBANK0,global,class=BANK0,space=1,delta=1,noexec
    21                           	psect	maintext,global,class=CODE,merge=1,split=1,delta=2
    22                           	psect	text1,local,class=CODE,merge=1,delta=2
    23                           	psect	text2,local,class=CODE,merge=1,delta=2
    24                           	psect	text3,local,class=CODE,merge=1,delta=2
    25                           	psect	text4,local,class=CODE,merge=1,delta=2
    26                           	psect	text5,local,class=CODE,merge=1,delta=2
    27                           	psect	text6,local,class=CODE,merge=1,delta=2
    28                           	psect	text7,local,class=CODE,merge=1,delta=2
    29                           	psect	text8,local,class=CODE,merge=1,delta=2
    30                           	psect	text9,local,class=CODE,merge=1,delta=2
    31                           	psect	text10,local,class=CODE,merge=1,delta=2
    32                           	psect	intentry,global,class=CODE,delta=2
    33                           	psect	text12,local,class=CODE,merge=1,delta=2
    34                           	psect	text13,local,class=CODE,merge=1,delta=2
    35                           	psect	text14,local,class=CODE,merge=1,delta=2
    36                           	psect	text15,local,class=CODE,merge=1,delta=2
    37                           	psect	text16,local,class=CODE,merge=1,delta=2
    38                           	psect	text17,local,class=CODE,merge=1,delta=2
    39                           	psect	text18,local,class=CODE,merge=1,delta=2
    40                           	psect	text19,local,class=CODE,merge=1,delta=2,group=2
    41                           	psect	text20,local,class=CODE,merge=1,delta=2
    42                           	psect	text21,local,class=CODE,merge=1,delta=2
    43                           	psect	text22,local,class=CODE,merge=1,delta=2
    44                           	psect	text23,local,class=CODE,merge=1,delta=2
    45                           	psect	text24,local,class=CODE,merge=1,delta=2
    46                           	psect	text25,local,class=CODE,merge=1,delta=2,group=2
    47                           	psect	text26,local,class=CODE,merge=1,delta=2
    48                           	psect	text27,local,class=CODE,merge=1,delta=2
    49                           	psect	text28,local,class=CODE,merge=1,delta=2
    50                           	psect	text29,local,class=CODE,merge=1,delta=2
    51                           	psect	text30,local,class=CODE,merge=1,delta=2
    52                           	psect	text31,local,class=CODE,merge=1,delta=2
    53                           	psect	text32,local,class=CODE,merge=1,delta=2
    54                           	psect	text33,local,class=CODE,merge=1,delta=2
    55                           	psect	text34,local,class=CODE,merge=1,delta=2
    56                           	psect	text35,local,class=CODE,merge=1,delta=2
    57                           	psect	text36,local,class=CODE,merge=1,delta=2
    58                           	psect	text37,local,class=CODE,merge=1,delta=2
    59                           	psect	text38,local,class=CODE,merge=1,delta=2
    60                           	psect	text39,local,class=CODE,merge=1,delta=2
    61                           	psect	text40,local,class=CODE,merge=1,delta=2
    62                           	psect	text41,local,class=CODE,merge=1,delta=2
    63                           	psect	text42,local,class=CODE,merge=1,delta=2
    64                           	psect	text43,local,class=CODE,merge=1,delta=2
    65                           	psect	text44,local,class=CODE,merge=1,delta=2
    66                           	psect	config,global,abs,ovrld,class=CONFIG,space=4,delta=2,noexec
    67                           	dabs	1,0x20,32,_BDT
    68                           	dabs	1,0x48,8,_CtrlTrfData
    69                           	dabs	1,0x40,8,_SetupPkt
    70                           	dabs	1,0xA0,64,_ReceivedDataBuffer
    71                           	dabs	1,0x120,64,_ToSendDataBuffer
    72                           	dabs	1,0x7E,2
    73  0000                     
    74                           ; Version 2.20
    75                           ; Generated 12/02/2020 GMT
    76                           ; 
    77                           ; Copyright © 2020, Microchip Technology Inc. and its subsidiaries ("Microchip")
    78                           ; All rights reserved.
    79                           ; 
    80                           ; This software is developed by Microchip Technology Inc. and its subsidiaries ("Microch
      +                          ip").
    81                           ; 
    82                           ; Redistribution and use in source and binary forms, with or without modification, are
    83                           ; permitted provided that the following conditions are met:
    84                           ; 
    85                           ;     1. Redistributions of source code must retain the above copyright notice, this lis
      +                          t of
    86                           ;        conditions and the following disclaimer.
    87                           ; 
    88                           ;     2. Redistributions in binary form must reproduce the above copyright notice, this 
      +                          list
    89                           ;        of conditions and the following disclaimer in the documentation and/or other
    90                           ;        materials provided with the distribution.
    91                           ; 
    92                           ;     3. Microchip's name may not be used to endorse or promote products derived from th
      +                          is
    93                           ;        software without specific prior written permission.
    94                           ; 
    95                           ; THIS SOFTWARE IS PROVIDED BY MICROCHIP "AS IS" AND ANY EXPRESS OR IMPLIED WARRANTIES,
    96                           ; INCLUDING, BUT NOT LIMITED TO, THE IMPLIED WARRANTIES OF MERCHANTABILITY AND FITNESS F
      +                          OR
    97                           ; PURPOSE ARE DISCLAIMED.  IN NO EVENT SHALL MICROCHIP BE LIABLE FOR ANY DIRECT, INDIREC
      +                          T,
    98                           ; INCIDENTAL, SPECIAL, EXEMPLARY, OR CONSEQUENTIAL DAMAGES (INCLUDING BUT NOT LIMITED TO
    99                           ; PROCUREMENT OF SUBSTITUTE GOODS OR SERVICES; LOSS OF USE, DATA OR PROFITS; OR BUSINESS
   100                           ; INTERRUPTION) HOWSOEVER CAUSED AND ON ANY THEORY OF LIABILITY, WHETHER IN CONTRACT, ST
      +                          RICT
   101                           ; LIABILITY, OR TORT (INCLUDING NEGLIGENCE OR OTHERWISE) ARISING IN ANY WAY OUT OF THE U
      +                          SE OF
   102                           ; THIS SOFTWARE, EVEN IF ADVISED OF THE POSSIBILITY OF SUCH DAMAGE.
   103                           ; 
   104                           ; 
   105                           ; Code-generator required, PIC16F1459 Definitions
   106                           ; 
   107                           ; SFR Addresses
   108  0000                     	;# 
   109  0001                     	;# 
   110  0002                     	;# 
   111  0003                     	;# 
   112  0004                     	;# 
   113  0005                     	;# 
   114  0006                     	;# 
   115  0007                     	;# 
   116  0008                     	;# 
   117  0009                     	;# 
   118  000A                     	;# 
   119  000B                     	;# 
   120  000C                     	;# 
   121  000D                     	;# 
   122  000E                     	;# 
   123  0011                     	;# 
   124  0012                     	;# 
   125  0015                     	;# 
   126  0016                     	;# 
   127  0016                     	;# 
   128  0017                     	;# 
   129  0018                     	;# 
   130  0019                     	;# 
   131  001A                     	;# 
   132  001B                     	;# 
   133  001C                     	;# 
   134  008C                     	;# 
   135  008D                     	;# 
   136  008E                     	;# 
   137  0091                     	;# 
   138  0092                     	;# 
   139  0095                     	;# 
   140  0096                     	;# 
   141  0097                     	;# 
   142  0098                     	;# 
   143  0099                     	;# 
   144  009A                     	;# 
   145  009B                     	;# 
   146  009B                     	;# 
   147  009C                     	;# 
   148  009D                     	;# 
   149  009E                     	;# 
   150  009F                     	;# 
   151  010C                     	;# 
   152  010D                     	;# 
   153  010E                     	;# 
   154  0111                     	;# 
   155  0112                     	;# 
   156  0113                     	;# 
   157  0114                     	;# 
   158  0115                     	;# 
   159  0116                     	;# 
   160  0117                     	;# 
   161  0118                     	;# 
   162  0119                     	;# 
   163  011D                     	;# 
   164  018C                     	;# 
   165  018D                     	;# 
   166  018E                     	;# 
   167  0191                     	;# 
   168  0191                     	;# 
   169  0192                     	;# 
   170  0193                     	;# 
   171  0193                     	;# 
   172  0194                     	;# 
   173  0195                     	;# 
   174  0196                     	;# 
   175  0197                     	;# 
   176  0199                     	;# 
   177  019A                     	;# 
   178  019B                     	;# 
   179  019B                     	;# 
   180  019C                     	;# 
   181  019D                     	;# 
   182  019E                     	;# 
   183  019F                     	;# 
   184  020C                     	;# 
   185  020D                     	;# 
   186  0211                     	;# 
   187  0211                     	;# 
   188  0212                     	;# 
   189  0212                     	;# 
   190  0213                     	;# 
   191  0213                     	;# 
   192  0214                     	;# 
   193  0214                     	;# 
   194  0215                     	;# 
   195  0215                     	;# 
   196  0215                     	;# 
   197  0216                     	;# 
   198  0216                     	;# 
   199  0217                     	;# 
   200  0217                     	;# 
   201  0391                     	;# 
   202  0392                     	;# 
   203  0393                     	;# 
   204  0394                     	;# 
   205  0395                     	;# 
   206  0396                     	;# 
   207  039A                     	;# 
   208  039B                     	;# 
   209  0611                     	;# 
   210  0612                     	;# 
   211  0613                     	;# 
   212  0613                     	;# 
   213  0614                     	;# 
   214  0615                     	;# 
   215  0616                     	;# 
   216  0616                     	;# 
   217  0691                     	;# 
   218  0692                     	;# 
   219  0693                     	;# 
   220  0694                     	;# 
   221  0695                     	;# 
   222  0E8E                     	;# 
   223  0E8F                     	;# 
   224  0E90                     	;# 
   225  0E91                     	;# 
   226  0E92                     	;# 
   227  0E93                     	;# 
   228  0E94                     	;# 
   229  0E94                     	;# 
   230  0E95                     	;# 
   231  0E96                     	;# 
   232  0E97                     	;# 
   233  0E98                     	;# 
   234  0E99                     	;# 
   235  0E9A                     	;# 
   236  0E9B                     	;# 
   237  0E9C                     	;# 
   238  0E9D                     	;# 
   239  0E9E                     	;# 
   240  0E9F                     	;# 
   241  0FE4                     	;# 
   242  0FE5                     	;# 
   243  0FE6                     	;# 
   244  0FE7                     	;# 
   245  0FE8                     	;# 
   246  0FE9                     	;# 
   247  0FEA                     	;# 
   248  0FEB                     	;# 
   249  0FED                     	;# 
   250  0FEE                     	;# 
   251  0FEF                     	;# 
   252  0000                     	;# 
   253  0001                     	;# 
   254  0002                     	;# 
   255  0003                     	;# 
   256  0004                     	;# 
   257  0005                     	;# 
   258  0006                     	;# 
   259  0007                     	;# 
   260  0008                     	;# 
   261  0009                     	;# 
   262  000A                     	;# 
   263  000B                     	;# 
   264  000C                     	;# 
   265  000D                     	;# 
   266  000E                     	;# 
   267  0011                     	;# 
   268  0012                     	;# 
   269  0015                     	;# 
   270  0016                     	;# 
   271  0016                     	;# 
   272  0017                     	;# 
   273  0018                     	;# 
   274  0019                     	;# 
   275  001A                     	;# 
   276  001B                     	;# 
   277  001C                     	;# 
   278  008C                     	;# 
   279  008D                     	;# 
   280  008E                     	;# 
   281  0091                     	;# 
   282  0092                     	;# 
   283  0095                     	;# 
   284  0096                     	;# 
   285  0097                     	;# 
   286  0098                     	;# 
   287  0099                     	;# 
   288  009A                     	;# 
   289  009B                     	;# 
   290  009B                     	;# 
   291  009C                     	;# 
   292  009D                     	;# 
   293  009E                     	;# 
   294  009F                     	;# 
   295  010C                     	;# 
   296  010D                     	;# 
   297  010E                     	;# 
   298  0111                     	;# 
   299  0112                     	;# 
   300  0113                     	;# 
   301  0114                     	;# 
   302  0115                     	;# 
   303  0116                     	;# 
   304  0117                     	;# 
   305  0118                     	;# 
   306  0119                     	;# 
   307  011D                     	;# 
   308  018C                     	;# 
   309  018D                     	;# 
   310  018E                     	;# 
   311  0191                     	;# 
   312  0191                     	;# 
   313  0192                     	;# 
   314  0193                     	;# 
   315  0193                     	;# 
   316  0194                     	;# 
   317  0195                     	;# 
   318  0196                     	;# 
   319  0197                     	;# 
   320  0199                     	;# 
   321  019A                     	;# 
   322  019B                     	;# 
   323  019B                     	;# 
   324  019C                     	;# 
   325  019D                     	;# 
   326  019E                     	;# 
   327  019F                     	;# 
   328  020C                     	;# 
   329  020D                     	;# 
   330  0211                     	;# 
   331  0211                     	;# 
   332  0212                     	;# 
   333  0212                     	;# 
   334  0213                     	;# 
   335  0213                     	;# 
   336  0214                     	;# 
   337  0214                     	;# 
   338  0215                     	;# 
   339  0215                     	;# 
   340  0215                     	;# 
   341  0216                     	;# 
   342  0216                     	;# 
   343  0217                     	;# 
   344  0217                     	;# 
   345  0391                     	;# 
   346  0392                     	;# 
   347  0393                     	;# 
   348  0394                     	;# 
   349  0395                     	;# 
   350  0396                     	;# 
   351  039A                     	;# 
   352  039B                     	;# 
   353  0611                     	;# 
   354  0612                     	;# 
   355  0613                     	;# 
   356  0613                     	;# 
   357  0614                     	;# 
   358  0615                     	;# 
   359  0616                     	;# 
   360  0616                     	;# 
   361  0691                     	;# 
   362  0692                     	;# 
   363  0693                     	;# 
   364  0694                     	;# 
   365  0695                     	;# 
   366  0E8E                     	;# 
   367  0E8F                     	;# 
   368  0E90                     	;# 
   369  0E91                     	;# 
   370  0E92                     	;# 
   371  0E93                     	;# 
   372  0E94                     	;# 
   373  0E94                     	;# 
   374  0E95                     	;# 
   375  0E96                     	;# 
   376  0E97                     	;# 
   377  0E98                     	;# 
   378  0E99                     	;# 
   379  0E9A                     	;# 
   380  0E9B                     	;# 
   381  0E9C                     	;# 
   382  0E9D                     	;# 
   383  0E9E                     	;# 
   384  0E9F                     	;# 
   385  0FE4                     	;# 
   386  0FE5                     	;# 
   387  0FE6                     	;# 
   388  0FE7                     	;# 
   389  0FE8                     	;# 
   390  0FE9                     	;# 
   391  0FEA                     	;# 
   392  0FEB                     	;# 
   393  0FED                     	;# 
   394  0FEE                     	;# 
   395  0FEF                     	;# 
   396  0000                     	;# 
   397  0001                     	;# 
   398  0002                     	;# 
   399  0003                     	;# 
   400  0004                     	;# 
   401  0005                     	;# 
   402  0006                     	;# 
   403  0007                     	;# 
   404  0008                     	;# 
   405  0009                     	;# 
   406  000A                     	;# 
   407  000B                     	;# 
   408  000C                     	;# 
   409  000D                     	;# 
   410  000E                     	;# 
   411  0011                     	;# 
   412  0012                     	;# 
   413  0015                     	;# 
   414  0016                     	;# 
   415  0016                     	;# 
   416  0017                     	;# 
   417  0018                     	;# 
   418  0019                     	;# 
   419  001A                     	;# 
   420  001B                     	;# 
   421  001C                     	;# 
   422  008C                     	;# 
   423  008D                     	;# 
   424  008E                     	;# 
   425  0091                     	;# 
   426  0092                     	;# 
   427  0095                     	;# 
   428  0096                     	;# 
   429  0097                     	;# 
   430  0098                     	;# 
   431  0099                     	;# 
   432  009A                     	;# 
   433  009B                     	;# 
   434  009B                     	;# 
   435  009C                     	;# 
   436  009D                     	;# 
   437  009E                     	;# 
   438  009F                     	;# 
   439  010C                     	;# 
   440  010D                     	;# 
   441  010E                     	;# 
   442  0111                     	;# 
   443  0112                     	;# 
   444  0113                     	;# 
   445  0114                     	;# 
   446  0115                     	;# 
   447  0116                     	;# 
   448  0117                     	;# 
   449  0118                     	;# 
   450  0119                     	;# 
   451  011D                     	;# 
   452  018C                     	;# 
   453  018D                     	;# 
   454  018E                     	;# 
   455  0191                     	;# 
   456  0191                     	;# 
   457  0192                     	;# 
   458  0193                     	;# 
   459  0193                     	;# 
   460  0194                     	;# 
   461  0195                     	;# 
   462  0196                     	;# 
   463  0197                     	;# 
   464  0199                     	;# 
   465  019A                     	;# 
   466  019B                     	;# 
   467  019B                     	;# 
   468  019C                     	;# 
   469  019D                     	;# 
   470  019E                     	;# 
   471  019F                     	;# 
   472  020C                     	;# 
   473  020D                     	;# 
   474  0211                     	;# 
   475  0211                     	;# 
   476  0212                     	;# 
   477  0212                     	;# 
   478  0213                     	;# 
   479  0213                     	;# 
   480  0214                     	;# 
   481  0214                     	;# 
   482  0215                     	;# 
   483  0215                     	;# 
   484  0215                     	;# 
   485  0216                     	;# 
   486  0216                     	;# 
   487  0217                     	;# 
   488  0217                     	;# 
   489  0391                     	;# 
   490  0392                     	;# 
   491  0393                     	;# 
   492  0394                     	;# 
   493  0395                     	;# 
   494  0396                     	;# 
   495  039A                     	;# 
   496  039B                     	;# 
   497  0611                     	;# 
   498  0612                     	;# 
   499  0613                     	;# 
   500  0613                     	;# 
   501  0614                     	;# 
   502  0615                     	;# 
   503  0616                     	;# 
   504  0616                     	;# 
   505  0691                     	;# 
   506  0692                     	;# 
   507  0693                     	;# 
   508  0694                     	;# 
   509  0695                     	;# 
   510  0E8E                     	;# 
   511  0E8F                     	;# 
   512  0E90                     	;# 
   513  0E91                     	;# 
   514  0E92                     	;# 
   515  0E93                     	;# 
   516  0E94                     	;# 
   517  0E94                     	;# 
   518  0E95                     	;# 
   519  0E96                     	;# 
   520  0E97                     	;# 
   521  0E98                     	;# 
   522  0E99                     	;# 
   523  0E9A                     	;# 
   524  0E9B                     	;# 
   525  0E9C                     	;# 
   526  0E9D                     	;# 
   527  0E9E                     	;# 
   528  0E9F                     	;# 
   529  0FE4                     	;# 
   530  0FE5                     	;# 
   531  0FE6                     	;# 
   532  0FE7                     	;# 
   533  0FE8                     	;# 
   534  0FE9                     	;# 
   535  0FEA                     	;# 
   536  0FEB                     	;# 
   537  0FED                     	;# 
   538  0FEE                     	;# 
   539  0FEF                     	;# 
   540  0000                     	;# 
   541  0001                     	;# 
   542  0002                     	;# 
   543  0003                     	;# 
   544  0004                     	;# 
   545  0005                     	;# 
   546  0006                     	;# 
   547  0007                     	;# 
   548  0008                     	;# 
   549  0009                     	;# 
   550  000A                     	;# 
   551  000B                     	;# 
   552  000C                     	;# 
   553  000D                     	;# 
   554  000E                     	;# 
   555  0011                     	;# 
   556  0012                     	;# 
   557  0015                     	;# 
   558  0016                     	;# 
   559  0016                     	;# 
   560  0017                     	;# 
   561  0018                     	;# 
   562  0019                     	;# 
   563  001A                     	;# 
   564  001B                     	;# 
   565  001C                     	;# 
   566  008C                     	;# 
   567  008D                     	;# 
   568  008E                     	;# 
   569  0091                     	;# 
   570  0092                     	;# 
   571  0095                     	;# 
   572  0096                     	;# 
   573  0097                     	;# 
   574  0098                     	;# 
   575  0099                     	;# 
   576  009A                     	;# 
   577  009B                     	;# 
   578  009B                     	;# 
   579  009C                     	;# 
   580  009D                     	;# 
   581  009E                     	;# 
   582  009F                     	;# 
   583  010C                     	;# 
   584  010D                     	;# 
   585  010E                     	;# 
   586  0111                     	;# 
   587  0112                     	;# 
   588  0113                     	;# 
   589  0114                     	;# 
   590  0115                     	;# 
   591  0116                     	;# 
   592  0117                     	;# 
   593  0118                     	;# 
   594  0119                     	;# 
   595  011D                     	;# 
   596  018C                     	;# 
   597  018D                     	;# 
   598  018E                     	;# 
   599  0191                     	;# 
   600  0191                     	;# 
   601  0192                     	;# 
   602  0193                     	;# 
   603  0193                     	;# 
   604  0194                     	;# 
   605  0195                     	;# 
   606  0196                     	;# 
   607  0197                     	;# 
   608  0199                     	;# 
   609  019A                     	;# 
   610  019B                     	;# 
   611  019B                     	;# 
   612  019C                     	;# 
   613  019D                     	;# 
   614  019E                     	;# 
   615  019F                     	;# 
   616  020C                     	;# 
   617  020D                     	;# 
   618  0211                     	;# 
   619  0211                     	;# 
   620  0212                     	;# 
   621  0212                     	;# 
   622  0213                     	;# 
   623  0213                     	;# 
   624  0214                     	;# 
   625  0214                     	;# 
   626  0215                     	;# 
   627  0215                     	;# 
   628  0215                     	;# 
   629  0216                     	;# 
   630  0216                     	;# 
   631  0217                     	;# 
   632  0217                     	;# 
   633  0391                     	;# 
   634  0392                     	;# 
   635  0393                     	;# 
   636  0394                     	;# 
   637  0395                     	;# 
   638  0396                     	;# 
   639  039A                     	;# 
   640  039B                     	;# 
   641  0611                     	;# 
   642  0612                     	;# 
   643  0613                     	;# 
   644  0613                     	;# 
   645  0614                     	;# 
   646  0615                     	;# 
   647  0616                     	;# 
   648  0616                     	;# 
   649  0691                     	;# 
   650  0692                     	;# 
   651  0693                     	;# 
   652  0694                     	;# 
   653  0695                     	;# 
   654  0E8E                     	;# 
   655  0E8F                     	;# 
   656  0E90                     	;# 
   657  0E91                     	;# 
   658  0E92                     	;# 
   659  0E93                     	;# 
   660  0E94                     	;# 
   661  0E94                     	;# 
   662  0E95                     	;# 
   663  0E96                     	;# 
   664  0E97                     	;# 
   665  0E98                     	;# 
   666  0E99                     	;# 
   667  0E9A                     	;# 
   668  0E9B                     	;# 
   669  0E9C                     	;# 
   670  0E9D                     	;# 
   671  0E9E                     	;# 
   672  0E9F                     	;# 
   673  0FE4                     	;# 
   674  0FE5                     	;# 
   675  0FE6                     	;# 
   676  0FE7                     	;# 
   677  0FE8                     	;# 
   678  0FE9                     	;# 
   679  0FEA                     	;# 
   680  0FEB                     	;# 
   681  0FED                     	;# 
   682  0FEE                     	;# 
   683  0FEF                     	;# 
   684  0000                     	;# 
   685  0001                     	;# 
   686  0002                     	;# 
   687  0003                     	;# 
   688  0004                     	;# 
   689  0005                     	;# 
   690  0006                     	;# 
   691  0007                     	;# 
   692  0008                     	;# 
   693  0009                     	;# 
   694  000A                     	;# 
   695  000B                     	;# 
   696  000C                     	;# 
   697  000D                     	;# 
   698  000E                     	;# 
   699  0011                     	;# 
   700  0012                     	;# 
   701  0015                     	;# 
   702  0016                     	;# 
   703  0016                     	;# 
   704  0017                     	;# 
   705  0018                     	;# 
   706  0019                     	;# 
   707  001A                     	;# 
   708  001B                     	;# 
   709  001C                     	;# 
   710  008C                     	;# 
   711  008D                     	;# 
   712  008E                     	;# 
   713  0091                     	;# 
   714  0092                     	;# 
   715  0095                     	;# 
   716  0096                     	;# 
   717  0097                     	;# 
   718  0098                     	;# 
   719  0099                     	;# 
   720  009A                     	;# 
   721  009B                     	;# 
   722  009B                     	;# 
   723  009C                     	;# 
   724  009D                     	;# 
   725  009E                     	;# 
   726  009F                     	;# 
   727  010C                     	;# 
   728  010D                     	;# 
   729  010E                     	;# 
   730  0111                     	;# 
   731  0112                     	;# 
   732  0113                     	;# 
   733  0114                     	;# 
   734  0115                     	;# 
   735  0116                     	;# 
   736  0117                     	;# 
   737  0118                     	;# 
   738  0119                     	;# 
   739  011D                     	;# 
   740  018C                     	;# 
   741  018D                     	;# 
   742  018E                     	;# 
   743  0191                     	;# 
   744  0191                     	;# 
   745  0192                     	;# 
   746  0193                     	;# 
   747  0193                     	;# 
   748  0194                     	;# 
   749  0195                     	;# 
   750  0196                     	;# 
   751  0197                     	;# 
   752  0199                     	;# 
   753  019A                     	;# 
   754  019B                     	;# 
   755  019B                     	;# 
   756  019C                     	;# 
   757  019D                     	;# 
   758  019E                     	;# 
   759  019F                     	;# 
   760  020C                     	;# 
   761  020D                     	;# 
   762  0211                     	;# 
   763  0211                     	;# 
   764  0212                     	;# 
   765  0212                     	;# 
   766  0213                     	;# 
   767  0213                     	;# 
   768  0214                     	;# 
   769  0214                     	;# 
   770  0215                     	;# 
   771  0215                     	;# 
   772  0215                     	;# 
   773  0216                     	;# 
   774  0216                     	;# 
   775  0217                     	;# 
   776  0217                     	;# 
   777  0391                     	;# 
   778  0392                     	;# 
   779  0393                     	;# 
   780  0394                     	;# 
   781  0395                     	;# 
   782  0396                     	;# 
   783  039A                     	;# 
   784  039B                     	;# 
   785  0611                     	;# 
   786  0612                     	;# 
   787  0613                     	;# 
   788  0613                     	;# 
   789  0614                     	;# 
   790  0615                     	;# 
   791  0616                     	;# 
   792  0616                     	;# 
   793  0691                     	;# 
   794  0692                     	;# 
   795  0693                     	;# 
   796  0694                     	;# 
   797  0695                     	;# 
   798  0E8E                     	;# 
   799  0E8F                     	;# 
   800  0E90                     	;# 
   801  0E91                     	;# 
   802  0E92                     	;# 
   803  0E93                     	;# 
   804  0E94                     	;# 
   805  0E94                     	;# 
   806  0E95                     	;# 
   807  0E96                     	;# 
   808  0E97                     	;# 
   809  0E98                     	;# 
   810  0E99                     	;# 
   811  0E9A                     	;# 
   812  0E9B                     	;# 
   813  0E9C                     	;# 
   814  0E9D                     	;# 
   815  0E9E                     	;# 
   816  0E9F                     	;# 
   817  0FE4                     	;# 
   818  0FE5                     	;# 
   819  0FE6                     	;# 
   820  0FE7                     	;# 
   821  0FE8                     	;# 
   822  0FE9                     	;# 
   823  0FEA                     	;# 
   824  0FEB                     	;# 
   825  0FED                     	;# 
   826  0FEE                     	;# 
   827  0FEF                     	;# 
   828  0000                     	;# 
   829  0001                     	;# 
   830  0002                     	;# 
   831  0003                     	;# 
   832  0004                     	;# 
   833  0005                     	;# 
   834  0006                     	;# 
   835  0007                     	;# 
   836  0008                     	;# 
   837  0009                     	;# 
   838  000A                     	;# 
   839  000B                     	;# 
   840  000C                     	;# 
   841  000D                     	;# 
   842  000E                     	;# 
   843  0011                     	;# 
   844  0012                     	;# 
   845  0015                     	;# 
   846  0016                     	;# 
   847  0016                     	;# 
   848  0017                     	;# 
   849  0018                     	;# 
   850  0019                     	;# 
   851  001A                     	;# 
   852  001B                     	;# 
   853  001C                     	;# 
   854  008C                     	;# 
   855  008D                     	;# 
   856  008E                     	;# 
   857  0091                     	;# 
   858  0092                     	;# 
   859  0095                     	;# 
   860  0096                     	;# 
   861  0097                     	;# 
   862  0098                     	;# 
   863  0099                     	;# 
   864  009A                     	;# 
   865  009B                     	;# 
   866  009B                     	;# 
   867  009C                     	;# 
   868  009D                     	;# 
   869  009E                     	;# 
   870  009F                     	;# 
   871  010C                     	;# 
   872  010D                     	;# 
   873  010E                     	;# 
   874  0111                     	;# 
   875  0112                     	;# 
   876  0113                     	;# 
   877  0114                     	;# 
   878  0115                     	;# 
   879  0116                     	;# 
   880  0117                     	;# 
   881  0118                     	;# 
   882  0119                     	;# 
   883  011D                     	;# 
   884  018C                     	;# 
   885  018D                     	;# 
   886  018E                     	;# 
   887  0191                     	;# 
   888  0191                     	;# 
   889  0192                     	;# 
   890  0193                     	;# 
   891  0193                     	;# 
   892  0194                     	;# 
   893  0195                     	;# 
   894  0196                     	;# 
   895  0197                     	;# 
   896  0199                     	;# 
   897  019A                     	;# 
   898  019B                     	;# 
   899  019B                     	;# 
   900  019C                     	;# 
   901  019D                     	;# 
   902  019E                     	;# 
   903  019F                     	;# 
   904  020C                     	;# 
   905  020D                     	;# 
   906  0211                     	;# 
   907  0211                     	;# 
   908  0212                     	;# 
   909  0212                     	;# 
   910  0213                     	;# 
   911  0213                     	;# 
   912  0214                     	;# 
   913  0214                     	;# 
   914  0215                     	;# 
   915  0215                     	;# 
   916  0215                     	;# 
   917  0216                     	;# 
   918  0216                     	;# 
   919  0217                     	;# 
   920  0217                     	;# 
   921  0391                     	;# 
   922  0392                     	;# 
   923  0393                     	;# 
   924  0394                     	;# 
   925  0395                     	;# 
   926  0396                     	;# 
   927  039A                     	;# 
   928  039B                     	;# 
   929  0611                     	;# 
   930  0612                     	;# 
   931  0613                     	;# 
   932  0613                     	;# 
   933  0614                     	;# 
   934  0615                     	;# 
   935  0616                     	;# 
   936  0616                     	;# 
   937  0691                     	;# 
   938  0692                     	;# 
   939  0693                     	;# 
   940  0694                     	;# 
   941  0695                     	;# 
   942  0E8E                     	;# 
   943  0E8F                     	;# 
   944  0E90                     	;# 
   945  0E91                     	;# 
   946  0E92                     	;# 
   947  0E93                     	;# 
   948  0E94                     	;# 
   949  0E94                     	;# 
   950  0E95                     	;# 
   951  0E96                     	;# 
   952  0E97                     	;# 
   953  0E98                     	;# 
   954  0E99                     	;# 
   955  0E9A                     	;# 
   956  0E9B                     	;# 
   957  0E9C                     	;# 
   958  0E9D                     	;# 
   959  0E9E                     	;# 
   960  0E9F                     	;# 
   961  0FE4                     	;# 
   962  0FE5                     	;# 
   963  0FE6                     	;# 
   964  0FE7                     	;# 
   965  0FE8                     	;# 
   966  0FE9                     	;# 
   967  0FEA                     	;# 
   968  0FEB                     	;# 
   969  0FED                     	;# 
   970  0FEE                     	;# 
   971  0FEF                     	;# 
   972  0000                     	;# 
   973  0001                     	;# 
   974  0002                     	;# 
   975  0003                     	;# 
   976  0004                     	;# 
   977  0005                     	;# 
   978  0006                     	;# 
   979  0007                     	;# 
   980  0008                     	;# 
   981  0009                     	;# 
   982  000A                     	;# 
   983  000B                     	;# 
   984  000C                     	;# 
   985  000D                     	;# 
   986  000E                     	;# 
   987  0011                     	;# 
   988  0012                     	;# 
   989  0015                     	;# 
   990  0016                     	;# 
   991  0016                     	;# 
   992  0017                     	;# 
   993  0018                     	;# 
   994  0019                     	;# 
   995  001A                     	;# 
   996  001B                     	;# 
   997  001C                     	;# 
   998  008C                     	;# 
   999  008D                     	;# 
  1000  008E                     	;# 
  1001  0091                     	;# 
  1002  0092                     	;# 
  1003  0095                     	;# 
  1004  0096                     	;# 
  1005  0097                     	;# 
  1006  0098                     	;# 
  1007  0099                     	;# 
  1008  009A                     	;# 
  1009  009B                     	;# 
  1010  009B                     	;# 
  1011  009C                     	;# 
  1012  009D                     	;# 
  1013  009E                     	;# 
  1014  009F                     	;# 
  1015  010C                     	;# 
  1016  010D                     	;# 
  1017  010E                     	;# 
  1018  0111                     	;# 
  1019  0112                     	;# 
  1020  0113                     	;# 
  1021  0114                     	;# 
  1022  0115                     	;# 
  1023  0116                     	;# 
  1024  0117                     	;# 
  1025  0118                     	;# 
  1026  0119                     	;# 
  1027  011D                     	;# 
  1028  018C                     	;# 
  1029  018D                     	;# 
  1030  018E                     	;# 
  1031  0191                     	;# 
  1032  0191                     	;# 
  1033  0192                     	;# 
  1034  0193                     	;# 
  1035  0193                     	;# 
  1036  0194                     	;# 
  1037  0195                     	;# 
  1038  0196                     	;# 
  1039  0197                     	;# 
  1040  0199                     	;# 
  1041  019A                     	;# 
  1042  019B                     	;# 
  1043  019B                     	;# 
  1044  019C                     	;# 
  1045  019D                     	;# 
  1046  019E                     	;# 
  1047  019F                     	;# 
  1048  020C                     	;# 
  1049  020D                     	;# 
  1050  0211                     	;# 
  1051  0211                     	;# 
  1052  0212                     	;# 
  1053  0212                     	;# 
  1054  0213                     	;# 
  1055  0213                     	;# 
  1056  0214                     	;# 
  1057  0214                     	;# 
  1058  0215                     	;# 
  1059  0215                     	;# 
  1060  0215                     	;# 
  1061  0216                     	;# 
  1062  0216                     	;# 
  1063  0217                     	;# 
  1064  0217                     	;# 
  1065  0391                     	;# 
  1066  0392                     	;# 
  1067  0393                     	;# 
  1068  0394                     	;# 
  1069  0395                     	;# 
  1070  0396                     	;# 
  1071  039A                     	;# 
  1072  039B                     	;# 
  1073  0611                     	;# 
  1074  0612                     	;# 
  1075  0613                     	;# 
  1076  0613                     	;# 
  1077  0614                     	;# 
  1078  0615                     	;# 
  1079  0616                     	;# 
  1080  0616                     	;# 
  1081  0691                     	;# 
  1082  0692                     	;# 
  1083  0693                     	;# 
  1084  0694                     	;# 
  1085  0695                     	;# 
  1086  0E8E                     	;# 
  1087  0E8F                     	;# 
  1088  0E90                     	;# 
  1089  0E91                     	;# 
  1090  0E92                     	;# 
  1091  0E93                     	;# 
  1092  0E94                     	;# 
  1093  0E94                     	;# 
  1094  0E95                     	;# 
  1095  0E96                     	;# 
  1096  0E97                     	;# 
  1097  0E98                     	;# 
  1098  0E99                     	;# 
  1099  0E9A                     	;# 
  1100  0E9B                     	;# 
  1101  0E9C                     	;# 
  1102  0E9D                     	;# 
  1103  0E9E                     	;# 
  1104  0E9F                     	;# 
  1105  0FE4                     	;# 
  1106  0FE5                     	;# 
  1107  0FE6                     	;# 
  1108  0FE7                     	;# 
  1109  0FE8                     	;# 
  1110  0FE9                     	;# 
  1111  0FEA                     	;# 
  1112  0FEB                     	;# 
  1113  0FED                     	;# 
  1114  0FEE                     	;# 
  1115  0FEF                     	;# 
  1116  0000                     	;# 
  1117  0001                     	;# 
  1118  0002                     	;# 
  1119  0003                     	;# 
  1120  0004                     	;# 
  1121  0005                     	;# 
  1122  0006                     	;# 
  1123  0007                     	;# 
  1124  0008                     	;# 
  1125  0009                     	;# 
  1126  000A                     	;# 
  1127  000B                     	;# 
  1128  000C                     	;# 
  1129  000D                     	;# 
  1130  000E                     	;# 
  1131  0011                     	;# 
  1132  0012                     	;# 
  1133  0015                     	;# 
  1134  0016                     	;# 
  1135  0016                     	;# 
  1136  0017                     	;# 
  1137  0018                     	;# 
  1138  0019                     	;# 
  1139  001A                     	;# 
  1140  001B                     	;# 
  1141  001C                     	;# 
  1142  008C                     	;# 
  1143  008D                     	;# 
  1144  008E                     	;# 
  1145  0091                     	;# 
  1146  0092                     	;# 
  1147  0095                     	;# 
  1148  0096                     	;# 
  1149  0097                     	;# 
  1150  0098                     	;# 
  1151  0099                     	;# 
  1152  009A                     	;# 
  1153  009B                     	;# 
  1154  009B                     	;# 
  1155  009C                     	;# 
  1156  009D                     	;# 
  1157  009E                     	;# 
  1158  009F                     	;# 
  1159  010C                     	;# 
  1160  010D                     	;# 
  1161  010E                     	;# 
  1162  0111                     	;# 
  1163  0112                     	;# 
  1164  0113                     	;# 
  1165  0114                     	;# 
  1166  0115                     	;# 
  1167  0116                     	;# 
  1168  0117                     	;# 
  1169  0118                     	;# 
  1170  0119                     	;# 
  1171  011D                     	;# 
  1172  018C                     	;# 
  1173  018D                     	;# 
  1174  018E                     	;# 
  1175  0191                     	;# 
  1176  0191                     	;# 
  1177  0192                     	;# 
  1178  0193                     	;# 
  1179  0193                     	;# 
  1180  0194                     	;# 
  1181  0195                     	;# 
  1182  0196                     	;# 
  1183  0197                     	;# 
  1184  0199                     	;# 
  1185  019A                     	;# 
  1186  019B                     	;# 
  1187  019B                     	;# 
  1188  019C                     	;# 
  1189  019D                     	;# 
  1190  019E                     	;# 
  1191  019F                     	;# 
  1192  020C                     	;# 
  1193  020D                     	;# 
  1194  0211                     	;# 
  1195  0211                     	;# 
  1196  0212                     	;# 
  1197  0212                     	;# 
  1198  0213                     	;# 
  1199  0213                     	;# 
  1200  0214                     	;# 
  1201  0214                     	;# 
  1202  0215                     	;# 
  1203  0215                     	;# 
  1204  0215                     	;# 
  1205  0216                     	;# 
  1206  0216                     	;# 
  1207  0217                     	;# 
  1208  0217                     	;# 
  1209  0391                     	;# 
  1210  0392                     	;# 
  1211  0393                     	;# 
  1212  0394                     	;# 
  1213  0395                     	;# 
  1214  0396                     	;# 
  1215  039A                     	;# 
  1216  039B                     	;# 
  1217  0611                     	;# 
  1218  0612                     	;# 
  1219  0613                     	;# 
  1220  0613                     	;# 
  1221  0614                     	;# 
  1222  0615                     	;# 
  1223  0616                     	;# 
  1224  0616                     	;# 
  1225  0691                     	;# 
  1226  0692                     	;# 
  1227  0693                     	;# 
  1228  0694                     	;# 
  1229  0695                     	;# 
  1230  0E8E                     	;# 
  1231  0E8F                     	;# 
  1232  0E90                     	;# 
  1233  0E91                     	;# 
  1234  0E92                     	;# 
  1235  0E93                     	;# 
  1236  0E94                     	;# 
  1237  0E94                     	;# 
  1238  0E95                     	;# 
  1239  0E96                     	;# 
  1240  0E97                     	;# 
  1241  0E98                     	;# 
  1242  0E99                     	;# 
  1243  0E9A                     	;# 
  1244  0E9B                     	;# 
  1245  0E9C                     	;# 
  1246  0E9D                     	;# 
  1247  0E9E                     	;# 
  1248  0E9F                     	;# 
  1249  0FE4                     	;# 
  1250  0FE5                     	;# 
  1251  0FE6                     	;# 
  1252  0FE7                     	;# 
  1253  0FE8                     	;# 
  1254  0FE9                     	;# 
  1255  0FEA                     	;# 
  1256  0FEB                     	;# 
  1257  0FED                     	;# 
  1258  0FEE                     	;# 
  1259  0FEF                     	;# 
  1260  0000                     	;# 
  1261  0001                     	;# 
  1262  0002                     	;# 
  1263  0003                     	;# 
  1264  0004                     	;# 
  1265  0005                     	;# 
  1266  0006                     	;# 
  1267  0007                     	;# 
  1268  0008                     	;# 
  1269  0009                     	;# 
  1270  000A                     	;# 
  1271  000B                     	;# 
  1272  000C                     	;# 
  1273  000D                     	;# 
  1274  000E                     	;# 
  1275  0011                     	;# 
  1276  0012                     	;# 
  1277  0015                     	;# 
  1278  0016                     	;# 
  1279  0016                     	;# 
  1280  0017                     	;# 
  1281  0018                     	;# 
  1282  0019                     	;# 
  1283  001A                     	;# 
  1284  001B                     	;# 
  1285  001C                     	;# 
  1286  008C                     	;# 
  1287  008D                     	;# 
  1288  008E                     	;# 
  1289  0091                     	;# 
  1290  0092                     	;# 
  1291  0095                     	;# 
  1292  0096                     	;# 
  1293  0097                     	;# 
  1294  0098                     	;# 
  1295  0099                     	;# 
  1296  009A                     	;# 
  1297  009B                     	;# 
  1298  009B                     	;# 
  1299  009C                     	;# 
  1300  009D                     	;# 
  1301  009E                     	;# 
  1302  009F                     	;# 
  1303  010C                     	;# 
  1304  010D                     	;# 
  1305  010E                     	;# 
  1306  0111                     	;# 
  1307  0112                     	;# 
  1308  0113                     	;# 
  1309  0114                     	;# 
  1310  0115                     	;# 
  1311  0116                     	;# 
  1312  0117                     	;# 
  1313  0118                     	;# 
  1314  0119                     	;# 
  1315  011D                     	;# 
  1316  018C                     	;# 
  1317  018D                     	;# 
  1318  018E                     	;# 
  1319  0191                     	;# 
  1320  0191                     	;# 
  1321  0192                     	;# 
  1322  0193                     	;# 
  1323  0193                     	;# 
  1324  0194                     	;# 
  1325  0195                     	;# 
  1326  0196                     	;# 
  1327  0197                     	;# 
  1328  0199                     	;# 
  1329  019A                     	;# 
  1330  019B                     	;# 
  1331  019B                     	;# 
  1332  019C                     	;# 
  1333  019D                     	;# 
  1334  019E                     	;# 
  1335  019F                     	;# 
  1336  020C                     	;# 
  1337  020D                     	;# 
  1338  0211                     	;# 
  1339  0211                     	;# 
  1340  0212                     	;# 
  1341  0212                     	;# 
  1342  0213                     	;# 
  1343  0213                     	;# 
  1344  0214                     	;# 
  1345  0214                     	;# 
  1346  0215                     	;# 
  1347  0215                     	;# 
  1348  0215                     	;# 
  1349  0216                     	;# 
  1350  0216                     	;# 
  1351  0217                     	;# 
  1352  0217                     	;# 
  1353  0391                     	;# 
  1354  0392                     	;# 
  1355  0393                     	;# 
  1356  0394                     	;# 
  1357  0395                     	;# 
  1358  0396                     	;# 
  1359  039A                     	;# 
  1360  039B                     	;# 
  1361  0611                     	;# 
  1362  0612                     	;# 
  1363  0613                     	;# 
  1364  0613                     	;# 
  1365  0614                     	;# 
  1366  0615                     	;# 
  1367  0616                     	;# 
  1368  0616                     	;# 
  1369  0691                     	;# 
  1370  0692                     	;# 
  1371  0693                     	;# 
  1372  0694                     	;# 
  1373  0695                     	;# 
  1374  0E8E                     	;# 
  1375  0E8F                     	;# 
  1376  0E90                     	;# 
  1377  0E91                     	;# 
  1378  0E92                     	;# 
  1379  0E93                     	;# 
  1380  0E94                     	;# 
  1381  0E94                     	;# 
  1382  0E95                     	;# 
  1383  0E96                     	;# 
  1384  0E97                     	;# 
  1385  0E98                     	;# 
  1386  0E99                     	;# 
  1387  0E9A                     	;# 
  1388  0E9B                     	;# 
  1389  0E9C                     	;# 
  1390  0E9D                     	;# 
  1391  0E9E                     	;# 
  1392  0E9F                     	;# 
  1393  0FE4                     	;# 
  1394  0FE5                     	;# 
  1395  0FE6                     	;# 
  1396  0FE7                     	;# 
  1397  0FE8                     	;# 
  1398  0FE9                     	;# 
  1399  0FEA                     	;# 
  1400  0FEB                     	;# 
  1401  0FED                     	;# 
  1402  0FEE                     	;# 
  1403  0FEF                     	;# 
  1404                           
  1405                           	psect	stringtext1
  1406  1094                     __pstringtext1:
  1407  1094                     _USB_SD_Ptr:
  1408  1094  3400               	retlw	low (_sd000| (0+32768))
  1409  1095  3498               	retlw	high (_sd000| (0+32768))
  1410  1096  3429               	retlw	low (_sd001| (0+32768))
  1411  1097  3490               	retlw	high (_sd001| (0+32768))
  1412  1098  3466               	retlw	low (_sd002| (0+32768))
  1413  1099  3490               	retlw	high (_sd002| (0+32768))
  1414  109A                     __end_of_USB_SD_Ptr:
  1415                           
  1416                           	psect	stringtext2
  1417  1804                     __pstringtext2:
  1418  1804                     _USB_CD_Ptr:
  1419  1804  3400               	retlw	low (_configDescriptor1| (0+32768))
  1420  1805  3490               	retlw	high (_configDescriptor1| (0+32768))
  1421  1806                     __end_of_USB_CD_Ptr:
  1422                           
  1423                           	psect	stringtext3
  1424  1000                     __pstringtext3:
  1425  1000                     _configDescriptor1:
  1426  1000  3409               	retlw	9
  1427  1001  3402               	retlw	2
  1428  1002  3429               	retlw	41
  1429  1003  3400               	retlw	0
  1430  1004  3401               	retlw	1
  1431  1005  3401               	retlw	1
  1432  1006  3400               	retlw	0
  1433  1007  34C0               	retlw	192
  1434  1008  3432               	retlw	50
  1435  1009  3409               	retlw	9
  1436  100A  3404               	retlw	4
  1437  100B  3400               	retlw	0
  1438  100C  3400               	retlw	0
  1439  100D  3402               	retlw	2
  1440  100E  3403               	retlw	3
  1441  100F  3400               	retlw	0
  1442  1010  3400               	retlw	0
  1443  1011  3400               	retlw	0
  1444  1012  3409               	retlw	9
  1445  1013  3421               	retlw	33
  1446  1014  3411               	retlw	17
  1447  1015  3401               	retlw	1
  1448  1016  3400               	retlw	0
  1449  1017  3401               	retlw	1
  1450  1018  3422               	retlw	34
  1451  1019  341D               	retlw	29
  1452  101A  3400               	retlw	0
  1453  101B  3407               	retlw	7
  1454  101C  3405               	retlw	5
  1455  101D  3481               	retlw	129
  1456  101E  3403               	retlw	3
  1457  101F  3440               	retlw	64
  1458  1020  3400               	retlw	0
  1459  1021  3401               	retlw	1
  1460  1022  3407               	retlw	7
  1461  1023  3405               	retlw	5
  1462  1024  3401               	retlw	1
  1463  1025  3403               	retlw	3
  1464  1026  3440               	retlw	64
  1465  1027  3400               	retlw	0
  1466  1028  3401               	retlw	1
  1467  1029                     __end_of_configDescriptor1:
  1468                           
  1469                           	psect	stringtext4
  1470  1029                     __pstringtext4:
  1471  1029                     _sd001:
  1472  1029  3420               	retlw	32
  1473  102A  3403               	retlw	3
  1474  102B  3447               	retlw	71
  1475  102C  3400               	retlw	0
  1476  102D  346F               	retlw	111
  1477  102E  3400               	retlw	0
  1478  102F  3472               	retlw	114
  1479  1030  3400               	retlw	0
  1480  1031  3467               	retlw	103
  1481  1032  3400               	retlw	0
  1482  1033  3465               	retlw	101
  1483  1034  3400               	retlw	0
  1484  1035  3420               	retlw	32
  1485  1036  3400               	retlw	0
  1486  1037  3454               	retlw	84
  1487  1038  3400               	retlw	0
  1488  1039  3465               	retlw	101
  1489  103A  3400               	retlw	0
  1490  103B  3463               	retlw	99
  1491  103C  3400               	retlw	0
  1492  103D  3468               	retlw	104
  1493  103E  3400               	retlw	0
  1494  103F  3420               	retlw	32
  1495  1040  3400               	retlw	0
  1496  1041  3449               	retlw	73
  1497  1042  3400               	retlw	0
  1498  1043  346E               	retlw	110
  1499  1044  3400               	retlw	0
  1500  1045  3463               	retlw	99
  1501  1046  3400               	retlw	0
  1502  1047  342E               	retlw	46
  1503  1048  3400               	retlw	0
  1504  1049                     __end_of_sd001:
  1505                           
  1506                           	psect	stringtext5
  1507  1049                     __pstringtext5:
  1508  1049                     _hid_rpt01:
  1509  1049  3406               	retlw	6
  1510  104A  3400               	retlw	0
  1511  104B  34FF               	retlw	255
  1512  104C  3409               	retlw	9
  1513  104D  3401               	retlw	1
  1514  104E  34A1               	retlw	161
  1515  104F  3401               	retlw	1
  1516  1050  3419               	retlw	25
  1517  1051  3401               	retlw	1
  1518  1052  3429               	retlw	41
  1519  1053  3440               	retlw	64
  1520  1054  3415               	retlw	21
  1521  1055  3400               	retlw	0
  1522  1056  3426               	retlw	38
  1523  1057  34FF               	retlw	255
  1524  1058  3400               	retlw	0
  1525  1059  3475               	retlw	117
  1526  105A  3408               	retlw	8
  1527  105B  3495               	retlw	149
  1528  105C  3440               	retlw	64
  1529  105D  3481               	retlw	129
  1530  105E  3400               	retlw	0
  1531  105F  3419               	retlw	25
  1532  1060  3401               	retlw	1
  1533  1061  3429               	retlw	41
  1534  1062  3440               	retlw	64
  1535  1063  3491               	retlw	145
  1536  1064  3400               	retlw	0
  1537  1065  34C0               	retlw	192
  1538  1066                     __end_of_hid_rpt01:
  1539                           
  1540                           	psect	stringtext6
  1541  1066                     __pstringtext6:
  1542  1066                     _sd002:
  1543  1066  341C               	retlw	28
  1544  1067  3403               	retlw	3
  1545  1068  3441               	retlw	65
  1546  1069  3400               	retlw	0
  1547  106A  346C               	retlw	108
  1548  106B  3400               	retlw	0
  1549  106C  3463               	retlw	99
  1550  106D  3400               	retlw	0
  1551  106E  346F               	retlw	111
  1552  106F  3400               	retlw	0
  1553  1070  3468               	retlw	104
  1554  1071  3400               	retlw	0
  1555  1072  346F               	retlw	111
  1556  1073  3400               	retlw	0
  1557  1074  346C               	retlw	108
  1558  1075  3400               	retlw	0
  1559  1076  3420               	retlw	32
  1560  1077  3400               	retlw	0
  1561  1078  3444               	retlw	68
  1562  1079  3400               	retlw	0
  1563  107A  3472               	retlw	114
  1564  107B  3400               	retlw	0
  1565  107C  3469               	retlw	105
  1566  107D  3400               	retlw	0
  1567  107E  3476               	retlw	118
  1568  107F  3400               	retlw	0
  1569  1080  3465               	retlw	101
  1570  1081  3400               	retlw	0
  1571  1082                     __end_of_sd002:
  1572                           
  1573                           	psect	stringtext7
  1574  1082                     __pstringtext7:
  1575  1082                     _device_dsc:
  1576  1082  3412               	retlw	18
  1577  1083  3401               	retlw	1
  1578  1084  3400               	retlw	0
  1579  1085  3402               	retlw	2
  1580  1086  3400               	retlw	0
  1581  1087  3400               	retlw	0
  1582  1088  3400               	retlw	0
  1583  1089  3408               	retlw	8
  1584  108A  34D8               	retlw	216
  1585  108B  3404               	retlw	4
  1586  108C  343F               	retlw	63
  1587  108D  3400               	retlw	0
  1588  108E  3400               	retlw	0
  1589  108F  3401               	retlw	1
  1590  1090  3401               	retlw	1
  1591  1091  3402               	retlw	2
  1592  1092  3400               	retlw	0
  1593  1093  3401               	retlw	1
  1594  1094                     __end_of_device_dsc:
  1595                           
  1596                           	psect	stringtext8
  1597  1800                     __pstringtext8:
  1598  1800                     _sd000:
  1599  1800  3404               	retlw	4
  1600  1801  3403               	retlw	3
  1601  1802  3409               	retlw	9
  1602  1803  3404               	retlw	4
  1603  1804                     __end_of_sd000:
  1604  000C                     _PORTAbits	set	12
  1605  000B                     _INTCONbits	set	11
  1606  0012                     _PIR2bits	set	18
  1607  008C                     _TRISAbits	set	140
  1608  008E                     _TRISCbits	set	142
  1609  0092                     _PIE2bits	set	146
  1610  0099                     _OSCCON	set	153
  1611  010E                     _LATCbits	set	270
  1612  018E                     _ANSELC	set	398
  1613  018C                     _ANSELA	set	396
  1614  039B                     _ACTCON	set	923
  1615  0E98                     _UEP0bits	set	3736
  1616  0E8E                     _UCON	set	3726
  1617  0E8F                     _USTAT	set	3727
  1618  0E92                     _UIEbits	set	3730
  1619  0E90                     _UIRbits	set	3728
  1620  0E96                     _UADDR	set	3734
  1621  0E92                     _UIE	set	3730
  1622  0E97                     _UEIE	set	3735
  1623  0E91                     _UCFG	set	3729
  1624  0E90                     _UIR	set	3728
  1625  0E93                     _UEIR	set	3731
  1626  0E8E                     _UCONbits	set	3726
  1627  0E99                     _UEP1	set	3737
  1628  0E98                     _UEP0	set	3736
  1629                           
  1630                           	psect	cinit
  1631  000D                     start_initialization:	
  1632                           ; #config settings
  1633                           
  1634  000D                     __initialization:
  1635                           
  1636                           ; Clear objects allocated to BANK0
  1637  000D  3065               	movlw	low __pbssBANK0
  1638  000E  0084               	movwf	4
  1639  000F  3000               	movlw	high __pbssBANK0
  1640  0010  0085               	movwf	5
  1641  0011  300B               	movlw	11
  1642  0012  3197  27FA  3180   	fcall	clear_ram0
  1643                           
  1644                           ; Clear objects allocated to BANK1
  1645  0015  0021               	movlb	1	; select bank1
  1646  0016  01EE               	clrf	__pbssBANK1& (0+127)
  1647  0017  01EF               	clrf	(__pbssBANK1+1)& (0+127)
  1648                           
  1649                           ; Clear objects allocated to BANK2
  1650  0018  3060               	movlw	low __pbssBANK2
  1651  0019  0084               	movwf	4
  1652  001A  3001               	movlw	high __pbssBANK2
  1653  001B  0085               	movwf	5
  1654  001C  3010               	movlw	16
  1655  001D  3197  27FA  3180   	fcall	clear_ram0
  1656                           
  1657                           ; Clear objects allocated to BANK3
  1658  0020  30A0               	movlw	low __pbssBANK3
  1659  0021  0084               	movwf	4
  1660  0022  3001               	movlw	high __pbssBANK3
  1661  0023  0085               	movwf	5
  1662  0024  301A               	movlw	26
  1663  0025  3197  27FA  3180   	fcall	clear_ram0
  1664  0028                     end_of_initialization:	
  1665                           ;End of C runtime variable initialization code
  1666                           
  1667  0028                     __end_of__initialization:
  1668  0028  107E               	bcf	int$flags,0	;clear compiler interrupt flag (level 1)
  1669  0029  0020               	movlb	0
  1670  002A  3188  280B         	ljmp	_main	;jump to C main() function
  1671                           
  1672                           	psect	bssBANK0
  1673  0065                     __pbssBANK0:
  1674  0065                     _inPipes:
  1675  0065                     	ds	5
  1676  006A                     _pBDTEntryIn:
  1677  006A                     	ds	4
  1678  006E                     _pBDTEntryEP0OutNext:
  1679  006E                     	ds	2
  1680                           
  1681                           	psect	bssBANK1
  1682  00EE                     __pbssBANK1:
  1683  00EE                     _pBDTEntryEP0OutCurrent:
  1684  00EE                     	ds	1
  1685  00EF                     _USBDeviceState:
  1686  00EF                     	ds	1
  1687                           
  1688                           	psect	bssBANK2
  1689  0160                     __pbssBANK2:
  1690  0160                     _outPipes:
  1691  0160                     	ds	7
  1692  0167                     _ep_data_in:
  1693  0167                     	ds	2
  1694  0169                     _USBDeferStatusStagePacket:
  1695  0169                     	ds	1
  1696  016A                     _endpoint_number:
  1697  016A                     	ds	1
  1698  016B                     _controlTransferState:
  1699  016B                     	ds	1
  1700  016C                     _shortPacketStatus:
  1701  016C                     	ds	1
  1702  016D                     _USTATcopy:
  1703  016D                     	ds	1
  1704  016E                     _USBAlternateInterface:
  1705  016E                     	ds	1
  1706  016F                     _USBActiveConfiguration:
  1707  016F                     	ds	1
  1708                           
  1709                           	psect	bssBANK3
  1710  01A0                     __pbssBANK3:
  1711  01A0                     _USB1msTickCount:
  1712  01A0                     	ds	4
  1713  01A4                     _pBDTEntryOut:
  1714  01A4                     	ds	4
  1715  01A8                     _ep_data_out:
  1716  01A8                     	ds	2
  1717  01AA                     _USBInHandle:
  1718  01AA                     	ds	2
  1719  01AC                     _USBOutHandle:
  1720  01AC                     	ds	2
  1721  01AE                     _USBTicksSinceSuspendEnd:
  1722  01AE                     	ds	1
  1723  01AF                     _USBDeferOUTDataStagePackets:
  1724  01AF                     	ds	1
  1725  01B0                     _USBDeferINDataStagePackets:
  1726  01B0                     	ds	1
  1727  01B1                     _USBStatusStageEnabledFlag2:
  1728  01B1                     	ds	1
  1729  01B2                     _USBStatusStageEnabledFlag1:
  1730  01B2                     	ds	1
  1731  01B3                     _USBStatusStageTimeoutCounter:
  1732  01B3                     	ds	1
  1733  01B4                     _BothEP0OutUOWNsSet:
  1734  01B4                     	ds	1
  1735  01B5                     _USBBusIsSuspended:
  1736  01B5                     	ds	1
  1737  01B6                     _RemoteWakeup:
  1738  01B6                     	ds	1
  1739  01B7                     _pDst:
  1740  01B7                     	ds	1
  1741  01B8                     _active_protocol:
  1742  01B8                     	ds	1
  1743  01B9                     _idle_rate:
  1744  01B9                     	ds	1
  1745                           
  1746                           	psect	clrtext
  1747  17FA                     clear_ram0:	
  1748                           ;	Called with FSR0 containing the base address, and
  1749                           ;	WREG with the size to clear
  1750                           
  1751  17FA  0064               	clrwdt	;clear the watchdog before getting into this loop
  1752  17FB                     clrloop0:
  1753  17FB  0180               	clrf	0	;clear RAM location pointed to by FSR
  1754  17FC  3101               	addfsr 0,1
  1755  17FD  0B89               	decfsz	9,f	;Have we reached the end of clearing yet?
  1756  17FE  2FFB               	goto	clrloop0	;have we reached the end yet?
  1757  17FF  3400               	retlw	0	;all done for this memory range, return
  1758                           
  1759                           	psect	cstackBANK1
  1760  00E0                     __pcstackBANK1:
  1761  00E0                     ??_LED_On:
  1762  00E0                     ??_check_alcohol:	
  1763                           ; 1 bytes @ 0x0
  1764                           
  1765  00E0                     ??_LED_Off:	
  1766                           ; 1 bytes @ 0x0
  1767                           
  1768  00E0                     ??_USBDeviceInit:	
  1769                           ; 1 bytes @ 0x0
  1770                           
  1771  00E0                     ??_USBDeviceAttach:	
  1772                           ; 1 bytes @ 0x0
  1773                           
  1774  00E0                     ??_LED_Init:	
  1775                           ; 1 bytes @ 0x0
  1776                           
  1777  00E0                     ??_init_alcohol:	
  1778                           ; 1 bytes @ 0x0
  1779                           
  1780  00E0                     ?_USBTransferOnePacket:	
  1781                           ; 1 bytes @ 0x0
  1782                           
  1783  00E0                     USBTransferOnePacket@dir:	
  1784                           ; 2 bytes @ 0x0
  1785                           
  1786                           
  1787                           ; 1 bytes @ 0x0
  1788  00E0                     	ds	1
  1789  00E1                     check_alcohol@ret:
  1790  00E1                     USBDeviceInit@p:	
  1791                           ; 1 bytes @ 0x1
  1792                           
  1793  00E1                     USBTransferOnePacket@data:	
  1794                           ; 2 bytes @ 0x1
  1795                           
  1796                           
  1797                           ; 2 bytes @ 0x1
  1798  00E1                     	ds	1
  1799  00E2                     LED_On@led:
  1800  00E2                     LED_Off@led:	
  1801                           ; 1 bytes @ 0x2
  1802                           
  1803  00E2                     check_alcohol@i:	
  1804                           ; 1 bytes @ 0x2
  1805                           
  1806                           
  1807                           ; 1 bytes @ 0x2
  1808  00E2                     	ds	1
  1809  00E3                     ??_SYSTEM_Initialize:
  1810  00E3                     USBDeviceInit@i_878:	
  1811                           ; 1 bytes @ 0x3
  1812                           
  1813  00E3                     USBTransferOnePacket@len:	
  1814                           ; 1 bytes @ 0x3
  1815                           
  1816                           
  1817                           ; 1 bytes @ 0x3
  1818  00E3                     	ds	1
  1819  00E4                     ??_USBTransferOnePacket:
  1820  00E4                     USBDeviceInit@i:	
  1821                           ; 1 bytes @ 0x4
  1822                           
  1823                           
  1824                           ; 1 bytes @ 0x4
  1825  00E4                     	ds	1
  1826  00E5                     SYSTEM_Initialize@state:
  1827                           
  1828                           ; 1 bytes @ 0x5
  1829  00E5                     	ds	3
  1830  00E8                     USBTransferOnePacket@ep:
  1831                           
  1832                           ; 1 bytes @ 0x8
  1833  00E8                     	ds	1
  1834  00E9                     USBTransferOnePacket@handle:
  1835                           
  1836                           ; 2 bytes @ 0x9
  1837  00E9                     	ds	2
  1838  00EB                     ??_APP_DeviceCustomHIDTasks:
  1839                           
  1840                           ; 1 bytes @ 0xB
  1841  00EB                     	ds	2
  1842  00ED                     APP_DeviceCustomHIDTasks@result:
  1843                           
  1844                           ; 1 bytes @ 0xD
  1845  00ED                     	ds	1
  1846  00EE                     ??_main:
  1847                           
  1848                           	psect	cstackCOMMON
  1849  0070                     __pcstackCOMMON:	
  1850                           ; 1 bytes @ 0xE
  1851                           
  1852  0070                     ?_LED_On:
  1853  0070                     ?_check_alcohol:	
  1854                           ; 1 bytes @ 0x0
  1855                           
  1856  0070                     ?_LED_Off:	
  1857                           ; 1 bytes @ 0x0
  1858                           
  1859  0070                     ?_SYSTEM_Initialize:	
  1860                           ; 1 bytes @ 0x0
  1861                           
  1862  0070                     ?_USBDeviceInit:	
  1863                           ; 1 bytes @ 0x0
  1864                           
  1865  0070                     ?_USBDeviceAttach:	
  1866                           ; 1 bytes @ 0x0
  1867                           
  1868  0070                     ?_LED_Init:	
  1869                           ; 1 bytes @ 0x0
  1870                           
  1871  0070                     ?_init_alcohol:	
  1872                           ; 1 bytes @ 0x0
  1873                           
  1874  0070                     ?_USBDeviceTasks:	
  1875                           ; 1 bytes @ 0x0
  1876                           
  1877  0070                     ?_USBWakeFromSuspend:	
  1878                           ; 1 bytes @ 0x0
  1879                           
  1880  0070                     ?_USBSuspend:	
  1881                           ; 1 bytes @ 0x0
  1882                           
  1883  0070                     ?_USBIncrement1msInternalTimers:	
  1884                           ; 1 bytes @ 0x0
  1885                           
  1886  0070                     ??_USBIncrement1msInternalTimers:	
  1887                           ; 1 bytes @ 0x0
  1888                           
  1889  0070                     ?_USBCtrlEPAllowStatusStage:	
  1890                           ; 1 bytes @ 0x0
  1891                           
  1892  0070                     ??_USBCtrlEPAllowStatusStage:	
  1893                           ; 1 bytes @ 0x0
  1894                           
  1895  0070                     ?_USBStallHandler:	
  1896                           ; 1 bytes @ 0x0
  1897                           
  1898  0070                     ??_USBStallHandler:	
  1899                           ; 1 bytes @ 0x0
  1900                           
  1901  0070                     ?_USBCtrlEPService:	
  1902                           ; 1 bytes @ 0x0
  1903                           
  1904  0070                     ?_USBConfigureEndpoint:	
  1905                           ; 1 bytes @ 0x0
  1906                           
  1907  0070                     ?_USBCtrlTrfTxService:	
  1908                           ; 1 bytes @ 0x0
  1909                           
  1910  0070                     ??_USBCtrlTrfTxService:	
  1911                           ; 1 bytes @ 0x0
  1912                           
  1913  0070                     ?_memcpy:	
  1914                           ; 1 bytes @ 0x0
  1915                           
  1916  0070                     ?_USBCtrlTrfSetupHandler:	
  1917                           ; 1 bytes @ 0x0
  1918                           
  1919  0070                     ?_USBCtrlTrfOutHandler:	
  1920                           ; 1 bytes @ 0x0
  1921                           
  1922  0070                     ?_USBCtrlTrfInHandler:	
  1923                           ; 1 bytes @ 0x0
  1924                           
  1925  0070                     ?_USBCheckStdRequest:	
  1926                           ; 1 bytes @ 0x0
  1927                           
  1928  0070                     ?_USBStdFeatureReqHandler:	
  1929                           ; 1 bytes @ 0x0
  1930                           
  1931  0070                     ?_APP_DeviceCustomHIDInitialize:	
  1932                           ; 1 bytes @ 0x0
  1933                           
  1934  0070                     ?_APP_DeviceCustomHIDTasks:	
  1935                           ; 1 bytes @ 0x0
  1936                           
  1937  0070                     ?_main:	
  1938                           ; 1 bytes @ 0x0
  1939                           
  1940  0070                     ?_SYS_InterruptHigh:	
  1941                           ; 1 bytes @ 0x0
  1942                           
  1943  0070                     ?_USBCtrlEPAllowDataStage:	
  1944                           ; 1 bytes @ 0x0
  1945                           
  1946  0070                     ?_USBCtrlEPServiceComplete:	
  1947                           ; 1 bytes @ 0x0
  1948                           
  1949  0070                     ?_USBCtrlTrfRxService:	
  1950                           ; 1 bytes @ 0x0
  1951                           
  1952  0070                     ?_USBStdSetCfgHandler:	
  1953                           ; 1 bytes @ 0x0
  1954                           
  1955  0070                     ?_USBStdGetDscHandler:	
  1956                           ; 1 bytes @ 0x0
  1957                           
  1958  0070                     ??_USBStdGetDscHandler:	
  1959                           ; 1 bytes @ 0x0
  1960                           
  1961  0070                     ?_USBStdGetStatusHandler:	
  1962                           ; 1 bytes @ 0x0
  1963                           
  1964  0070                     ??_USBStdGetStatusHandler:	
  1965                           ; 1 bytes @ 0x0
  1966                           
  1967  0070                     ?_USBCheckHIDRequest:	
  1968                           ; 1 bytes @ 0x0
  1969                           
  1970  0070                     ??_USBCheckHIDRequest:	
  1971                           ; 1 bytes @ 0x0
  1972                           
  1973  0070                     ?i1_SYSTEM_Initialize:	
  1974                           ; 1 bytes @ 0x0
  1975                           
  1976  0070                     ?i1_USBDeviceInit:	
  1977                           ; 1 bytes @ 0x0
  1978                           
  1979  0070                     ??i1_USBDeviceInit:	
  1980                           ; 1 bytes @ 0x0
  1981                           
  1982  0070                     ?i1_LED_On:	
  1983                           ; 1 bytes @ 0x0
  1984                           
  1985  0070                     ??i1_LED_On:	
  1986                           ; 1 bytes @ 0x0
  1987                           
  1988  0070                     ?i1_LED_Off:	
  1989                           ; 1 bytes @ 0x0
  1990                           
  1991  0070                     ??i1_LED_Off:	
  1992                           ; 1 bytes @ 0x0
  1993                           
  1994  0070                     ?i1_LED_Init:	
  1995                           ; 1 bytes @ 0x0
  1996                           
  1997  0070                     ??i1_LED_Init:	
  1998                           ; 1 bytes @ 0x0
  1999                           
  2000  0070                     ?i1_init_alcohol:	
  2001                           ; 1 bytes @ 0x0
  2002                           
  2003  0070                     ??i1_init_alcohol:	
  2004                           ; 1 bytes @ 0x0
  2005                           
  2006  0070                     ?_memset:	
  2007                           ; 1 bytes @ 0x0
  2008                           
  2009  0070                     ?i1_USBTransferOnePacket:	
  2010                           ; 2 bytes @ 0x0
  2011                           
  2012  0070                     USBConfigureEndpoint@direction:	
  2013                           ; 2 bytes @ 0x0
  2014                           
  2015  0070                     i1USBTransferOnePacket@dir:	
  2016                           ; 1 bytes @ 0x0
  2017                           
  2018  0070                     memcpy@s1:	
  2019                           ; 1 bytes @ 0x0
  2020                           
  2021  0070                     memset@dest:	
  2022                           ; 2 bytes @ 0x0
  2023                           
  2024                           
  2025                           ; 2 bytes @ 0x0
  2026  0070                     	ds	1
  2027  0071                     ??_USBConfigureEndpoint:
  2028  0071                     i1USBDeviceInit@p:	
  2029                           ; 1 bytes @ 0x1
  2030                           
  2031  0071                     i1USBTransferOnePacket@data:	
  2032                           ; 2 bytes @ 0x1
  2033                           
  2034                           
  2035                           ; 2 bytes @ 0x1
  2036  0071                     	ds	1
  2037  0072                     ??_USBCtrlTrfRxService:
  2038  0072                     USBCtrlTrfTxService@byteToSend:	
  2039                           ; 1 bytes @ 0x2
  2040                           
  2041  0072                     i1LED_On@led:	
  2042                           ; 1 bytes @ 0x2
  2043                           
  2044  0072                     i1LED_Off@led:	
  2045                           ; 1 bytes @ 0x2
  2046                           
  2047  0072                     USBStdGetStatusHandler@p:	
  2048                           ; 1 bytes @ 0x2
  2049                           
  2050  0072                     memcpy@n:	
  2051                           ; 2 bytes @ 0x2
  2052                           
  2053  0072                     memset@c:	
  2054                           ; 2 bytes @ 0x2
  2055                           
  2056                           
  2057                           ; 2 bytes @ 0x2
  2058  0072                     	ds	1
  2059  0073                     ??_USBCtrlTrfInHandler:
  2060  0073                     ??_USBCtrlEPAllowDataStage:	
  2061                           ; 1 bytes @ 0x3
  2062                           
  2063  0073                     ??i1_SYSTEM_Initialize:	
  2064                           ; 1 bytes @ 0x3
  2065                           
  2066  0073                     i1USBDeviceInit@i_878:	
  2067                           ; 1 bytes @ 0x3
  2068                           
  2069  0073                     i1USBTransferOnePacket@len:	
  2070                           ; 1 bytes @ 0x3
  2071                           
  2072                           
  2073                           ; 1 bytes @ 0x3
  2074  0073                     	ds	1
  2075  0074                     ??_memcpy:
  2076  0074                     ??i1_USBTransferOnePacket:	
  2077                           ; 1 bytes @ 0x4
  2078                           
  2079  0074                     USBCtrlTrfRxService@i:	
  2080                           ; 1 bytes @ 0x4
  2081                           
  2082  0074                     i1USBDeviceInit@i:	
  2083                           ; 1 bytes @ 0x4
  2084                           
  2085  0074                     memset@n:	
  2086                           ; 1 bytes @ 0x4
  2087                           
  2088                           
  2089                           ; 2 bytes @ 0x4
  2090  0074                     	ds	1
  2091  0075                     ??_USBCtrlEPServiceComplete:
  2092  0075                     USBConfigureEndpoint@EPNum:	
  2093                           ; 1 bytes @ 0x5
  2094                           
  2095  0075                     USBCtrlTrfRxService@byteToRead:	
  2096                           ; 1 bytes @ 0x5
  2097                           
  2098  0075                     USBCtrlTrfInHandler@lastDTS:	
  2099                           ; 1 bytes @ 0x5
  2100                           
  2101  0075                     i1SYSTEM_Initialize@state:	
  2102                           ; 1 bytes @ 0x5
  2103                           
  2104  0075                     memcpy@s:	
  2105                           ; 1 bytes @ 0x5
  2106                           
  2107                           
  2108                           ; 2 bytes @ 0x5
  2109  0075                     	ds	1
  2110  0076                     ??_memset:
  2111  0076                     ??_USBCtrlTrfOutHandler:	
  2112                           ; 1 bytes @ 0x6
  2113                           
  2114  0076                     USBConfigureEndpoint@handle:	
  2115                           ; 1 bytes @ 0x6
  2116                           
  2117                           
  2118                           ; 1 bytes @ 0x6
  2119  0076                     	ds	1
  2120  0077                     ?_USBEnableEndpoint:
  2121  0077                     USBEnableEndpoint@options:	
  2122                           ; 1 bytes @ 0x7
  2123                           
  2124  0077                     memcpy@tmp:	
  2125                           ; 1 bytes @ 0x7
  2126                           
  2127                           
  2128                           ; 1 bytes @ 0x7
  2129  0077                     	ds	1
  2130  0078                     ??_USBEnableEndpoint:
  2131  0078                     memcpy@d1:	
  2132                           ; 1 bytes @ 0x8
  2133                           
  2134  0078                     i1USBTransferOnePacket@ep:	
  2135                           ; 1 bytes @ 0x8
  2136                           
  2137                           
  2138                           ; 1 bytes @ 0x8
  2139  0078                     	ds	1
  2140  0079                     memcpy@d:
  2141  0079                     i1USBTransferOnePacket@handle:	
  2142                           ; 1 bytes @ 0x9
  2143                           
  2144                           
  2145                           ; 2 bytes @ 0x9
  2146  0079                     	ds	1
  2147  007A                     USBEnableEndpoint@p:
  2148  007A                     memset@k:	
  2149                           ; 2 bytes @ 0xA
  2150                           
  2151                           
  2152                           ; 2 bytes @ 0xA
  2153  007A                     	ds	2
  2154  007C                     USBEnableEndpoint@ep:
  2155  007C                     memset@s:	
  2156                           ; 1 bytes @ 0xC
  2157                           
  2158                           
  2159                           ; 2 bytes @ 0xC
  2160  007C                     	ds	1
  2161  007D                     ??_APP_DeviceCustomHIDInitialize:
  2162                           
  2163                           ; 1 bytes @ 0xD
  2164  007D                     	ds	1
  2165  007E                     ??_USER_USB_CALLBACK_EVENT_HANDLER:
  2166  007E                     ??_SYS_InterruptHigh:	
  2167                           ; 1 bytes @ 0xE
  2168                           
  2169                           
  2170                           	psect	cstackBANK0
  2171  0050                     __pcstackBANK0:	
  2172                           ; 1 bytes @ 0xE
  2173                           
  2174  0050                     ?_USER_USB_CALLBACK_EVENT_HANDLER:
  2175  0050                     USER_USB_CALLBACK_EVENT_HANDLER@event:	
  2176                           ; 1 bytes @ 0x0
  2177                           
  2178                           
  2179                           ; 2 bytes @ 0x0
  2180  0050                     	ds	2
  2181  0052                     USER_USB_CALLBACK_EVENT_HANDLER@pdata:
  2182                           
  2183                           ; 2 bytes @ 0x2
  2184  0052                     	ds	2
  2185  0054                     USER_USB_CALLBACK_EVENT_HANDLER@size:
  2186                           
  2187                           ; 2 bytes @ 0x4
  2188  0054                     	ds	2
  2189  0056                     ??_USBWakeFromSuspend:
  2190  0056                     ??_USBSuspend:	
  2191                           ; 1 bytes @ 0x6
  2192                           
  2193  0056                     ??_USBStdFeatureReqHandler:	
  2194                           ; 1 bytes @ 0x6
  2195                           
  2196  0056                     ??_USBStdSetCfgHandler:	
  2197                           ; 1 bytes @ 0x6
  2198                           
  2199                           
  2200                           ; 1 bytes @ 0x6
  2201  0056                     	ds	1
  2202  0057                     USBStdSetCfgHandler@p:
  2203                           
  2204                           ; 2 bytes @ 0x7
  2205  0057                     	ds	1
  2206  0058                     USBStdFeatureReqHandler@pUEP:
  2207                           
  2208                           ; 2 bytes @ 0x8
  2209  0058                     	ds	1
  2210  0059                     USBStdSetCfgHandler@i_1611:
  2211                           
  2212                           ; 1 bytes @ 0x9
  2213  0059                     	ds	1
  2214  005A                     USBStdSetCfgHandler@i:
  2215  005A                     USBStdFeatureReqHandler@current_ep_data:	
  2216                           ; 1 bytes @ 0xA
  2217                           
  2218                           
  2219                           ; 1 bytes @ 0xA
  2220  005A                     	ds	1
  2221  005B                     USBStdFeatureReqHandler@p:
  2222                           
  2223                           ; 2 bytes @ 0xB
  2224  005B                     	ds	2
  2225  005D                     ??_USBCheckStdRequest:
  2226                           
  2227                           ; 1 bytes @ 0xD
  2228  005D                     	ds	2
  2229  005F                     ??_USBCtrlTrfSetupHandler:
  2230                           
  2231                           ; 1 bytes @ 0xF
  2232  005F                     	ds	1
  2233  0060                     ??_USBCtrlEPService:
  2234                           
  2235                           ; 1 bytes @ 0x10
  2236  0060                     	ds	2
  2237  0062                     ??_USBDeviceTasks:
  2238                           
  2239                           ; 1 bytes @ 0x12
  2240  0062                     	ds	2
  2241  0064                     USBDeviceTasks@i:
  2242                           
  2243                           ; 1 bytes @ 0x14
  2244  0064                     	ds	1
  2245                           
  2246                           	psect	maintext
  2247  080B                     __pmaintext:	
  2248 ;;
  2249 ;;Main: autosize = 0, tempsize = 0, incstack = 0, save=0
  2250 ;;
  2251 ;; *************** function _main *****************
  2252 ;; Defined at:
  2253 ;;		line 30 in file "main.c"
  2254 ;; Parameters:    Size  Location     Type
  2255 ;;		None
  2256 ;; Auto vars:     Size  Location     Type
  2257 ;;		None
  2258 ;; Return value:  Size  Location     Type
  2259 ;;                  1    wreg      void 
  2260 ;; Registers used:
  2261 ;;		wreg, fsr0l, fsr0h, fsr1l, fsr1h, status,2, status,0, pclath, cstack
  2262 ;; Tracked objects:
  2263 ;;		On entry : B1F/0
  2264 ;;		On exit  : 0/0
  2265 ;;		Unchanged: 0/0
  2266 ;; Data sizes:     COMMON   BANK0   BANK1   BANK2   BANK3   BANK4   BANK5   BANK6   BANK7   BANK8   BANK9  BANK10  BANK1
      +1  BANK12
  2267 ;;      Params:         0       0       0       0       0       0       0       0       0       0       0       0       
      +0       0
  2268 ;;      Locals:         0       0       0       0       0       0       0       0       0       0       0       0       
      +0       0
  2269 ;;      Temps:          0       0       0       0       0       0       0       0       0       0       0       0       
      +0       0
  2270 ;;      Totals:         0       0       0       0       0       0       0       0       0       0       0       0       
      +0       0
  2271 ;;Total ram usage:        0 bytes
  2272 ;; Hardware stack levels required when called: 12
  2273 ;; This function calls:
  2274 ;;		_APP_DeviceCustomHIDTasks
  2275 ;;		_SYSTEM_Initialize
  2276 ;;		_USBDeviceAttach
  2277 ;;		_USBDeviceInit
  2278 ;; This function is called by:
  2279 ;;		Startup code after reset
  2280 ;; This function uses a non-reentrant model
  2281 ;;
  2282                           
  2283  080B                     _main:	
  2284                           ;psect for function _main
  2285                           
  2286  080B                     l4123:	
  2287                           ;incstack = 0
  2288                           ; Regs used in _main: [wreg-fsr1h+status,2+status,0+pclath+cstack]
  2289                           
  2290                           
  2291                           ;main.c: 32:     SYSTEM_Initialize(SYSTEM_STATE_USB_START);
  2292  080B  3000               	movlw	0
  2293  080C  3189  21C2  3188   	fcall	_SYSTEM_Initialize
  2294  080F                     l4125:
  2295                           
  2296                           ;main.c: 34:     USBDeviceInit();
  2297  080F  3183  2370  3188   	fcall	_USBDeviceInit
  2298  0812                     l4127:
  2299                           
  2300                           ;main.c: 35:     USBDeviceAttach();
  2301  0812  3188  208E  3188   	fcall	_USBDeviceAttach
  2302  0815                     l58:	
  2303                           ;main.c: 37:     while(1)
  2304                           
  2305                           
  2306                           ;main.c: 38:     {;main.c: 58:         APP_DeviceCustomHIDTasks();
  2307  0815  3184  24D1  3188   	fcall	_APP_DeviceCustomHIDTasks
  2308  0818  2815               	goto	l58
  2309  0819  3180  280B         	ljmp	start
  2310  081B                     __end_of_main:
  2311                           
  2312                           	psect	text1
  2313  0370                     __ptext1:	
  2314 ;; *************** function _USBDeviceInit *****************
  2315 ;; Defined at:
  2316 ;;		line 281 in file "usb_device.c"
  2317 ;; Parameters:    Size  Location     Type
  2318 ;;		None
  2319 ;; Auto vars:     Size  Location     Type
  2320 ;;  p               2    1[BANK1 ] PTR unsigned char 
  2321 ;;		 -> UEP1(1), 
  2322 ;;  i               1    3[BANK1 ] unsigned char 
  2323 ;;  i               1    4[BANK1 ] unsigned char 
  2324 ;; Return value:  Size  Location     Type
  2325 ;;                  1    wreg      void 
  2326 ;; Registers used:
  2327 ;;		wreg, fsr1l, fsr1h, status,2, status,0
  2328 ;; Tracked objects:
  2329 ;;		On entry : 0/0
  2330 ;;		On exit  : 0/0
  2331 ;;		Unchanged: 0/0
  2332 ;; Data sizes:     COMMON   BANK0   BANK1   BANK2   BANK3   BANK4   BANK5   BANK6   BANK7   BANK8   BANK9  BANK10  BANK1
      +1  BANK12
  2333 ;;      Params:         0       0       0       0       0       0       0       0       0       0       0       0       
      +0       0
  2334 ;;      Locals:         0       0       4       0       0       0       0       0       0       0       0       0       
      +0       0
  2335 ;;      Temps:          0       0       1       0       0       0       0       0       0       0       0       0       
      +0       0
  2336 ;;      Totals:         0       0       5       0       0       0       0       0       0       0       0       0       
      +0       0
  2337 ;;Total ram usage:        5 bytes
  2338 ;; Hardware stack levels used: 1
  2339 ;; Hardware stack levels required when called: 10
  2340 ;; This function calls:
  2341 ;;		Nothing
  2342 ;; This function is called by:
  2343 ;;		_main
  2344 ;; This function uses a non-reentrant model
  2345 ;;
  2346                           
  2347  0370                     _USBDeviceInit:	
  2348                           ;psect for function _USBDeviceInit
  2349                           
  2350  0370                     l3917:	
  2351                           ;incstack = 0
  2352                           ; Regs used in _USBDeviceInit: [wreg+fsr1l+fsr1h+status,2+status,0]
  2353                           
  2354                           
  2355                           ;usb_device.c: 283:     uint8_t i;;usb_device.c: 285:     {PIE2bits.USBIE = 0;};
  2356  0370  0021               	movlb	1	; select bank1
  2357  0371  1112               	bcf	18,2	;volatile
  2358  0372                     l3919:
  2359                           
  2360                           ;usb_device.c: 292:     {UEIR = 0;};
  2361  0372  003D               	movlb	29	; select bank29
  2362  0373  0193               	clrf	19	;volatile
  2363                           
  2364                           ;usb_device.c: 295:     {UIR = 0;};
  2365  0374  0190               	clrf	16	;volatile
  2366                           
  2367                           ;usb_device.c: 298:     UEP0 = 0;
  2368  0375  0198               	clrf	24	;volatile
  2369  0376                     l3921:
  2370                           
  2371                           ;usb_device.c: 300:     { uint8_t i; uint8_t* p = (uint8_t*)&UEP1; for(i=0;i<1;i++) *p++
      +                           = 0; };
  2372  0376  300E               	movlw	14
  2373  0377  0021               	movlb	1	; select bank1
  2374  0378  00E2               	movwf	(USBDeviceInit@p+1)^(0+128)
  2375  0379  3099               	movlw	153
  2376  037A  00E1               	movwf	USBDeviceInit@p^(0+128)
  2377  037B  01E3               	clrf	USBDeviceInit@i_878^(0+128)
  2378  037C                     l3927:
  2379  037C  0861               	movf	USBDeviceInit@p^(0+128),w
  2380  037D  0086               	movwf	6
  2381  037E  0862               	movf	(USBDeviceInit@p+1)^(0+128),w
  2382  037F  0087               	movwf	7
  2383  0380  0181               	clrf	1
  2384  0381                     l3929:
  2385  0381  3001               	movlw	1
  2386  0382  07E1               	addwf	USBDeviceInit@p^(0+128),f
  2387  0383  3000               	movlw	0
  2388  0384  3DE2               	addwfc	(USBDeviceInit@p+1)^(0+128),f
  2389  0385                     l3931:
  2390  0385  3001               	movlw	1
  2391  0386  00E0               	movwf	??_USBDeviceInit^(0+128)
  2392  0387  0860               	movf	??_USBDeviceInit^(0+128),w
  2393  0388  07E3               	addwf	USBDeviceInit@i_878^(0+128),f
  2394  0389                     l3933:
  2395  0389  0863               	movf	USBDeviceInit@i_878^(0+128),w
  2396  038A  1903               	btfsc	3,2
  2397  038B  2B8D               	goto	u2561
  2398  038C  2B8E               	goto	u2560
  2399  038D                     u2561:
  2400  038D  2B7C               	goto	l3927
  2401  038E                     u2560:
  2402  038E                     l3935:
  2403                           
  2404                           ;usb_device.c: 302:     { UCFG = 0x10 | 0x00 | 0x04 | 0x02; UEIE = 0x9F; UIE = 0x39 | 0x
      +                          40 | 0x02; };
  2405  038E  3016               	movlw	22
  2406  038F  003D               	movlb	29	; select bank29
  2407  0390  0091               	movwf	17	;volatile
  2408  0391  309F               	movlw	159
  2409  0392  0097               	movwf	23	;volatile
  2410  0393  307B               	movlw	123
  2411  0394  0092               	movwf	18	;volatile
  2412  0395                     l3937:
  2413                           
  2414                           ;usb_device.c: 311:     for(i = 0; i < (sizeof(BDT)/sizeof(BDT_ENTRY)); i++)
  2415  0395  0021               	movlb	1	; select bank1
  2416  0396  01E4               	clrf	USBDeviceInit@i^(0+128)
  2417  0397                     l3943:
  2418                           
  2419                           ;usb_device.c: 312:     {;usb_device.c: 313:         BDT[i].Val = 0x00;
  2420  0397  0864               	movf	USBDeviceInit@i^(0+128),w
  2421  0398  00E0               	movwf	??_USBDeviceInit^(0+128)
  2422  0399  3001               	movlw	1
  2423  039A                     u2575:
  2424  039A  35E0               	lslf	??_USBDeviceInit^(0+128),f
  2425  039B  3EFF               	addlw	-1
  2426  039C  1D03               	skipz
  2427  039D  2B9A               	goto	u2575
  2428  039E  3560               	lslf	??_USBDeviceInit^(0+128),w
  2429  039F  3E20               	addlw	32
  2430  03A0  0086               	movwf	6
  2431  03A1  0187               	clrf	7
  2432  03A2  3000               	movlw	0
  2433  03A3  3FC0               	movwi [0]fsr1
  2434  03A4  3000               	movlw	0
  2435  03A5  3FC1               	movwi [1]fsr1
  2436  03A6  3FC2               	movwi [2]fsr1
  2437  03A7  3FC3               	movwi [3]fsr1
  2438  03A8                     l3945:
  2439                           
  2440                           ;usb_device.c: 314:     }
  2441  03A8  3001               	movlw	1
  2442  03A9  00E0               	movwf	??_USBDeviceInit^(0+128)
  2443  03AA  0860               	movf	??_USBDeviceInit^(0+128),w
  2444  03AB  07E4               	addwf	USBDeviceInit@i^(0+128),f
  2445  03AC                     l3947:
  2446  03AC  3008               	movlw	8
  2447  03AD  0264               	subwf	USBDeviceInit@i^(0+128),w
  2448  03AE  1C03               	skipc
  2449  03AF  2BB1               	goto	u2581
  2450  03B0  2BB2               	goto	u2580
  2451  03B1                     u2581:
  2452  03B1  2B97               	goto	l3943
  2453  03B2                     u2580:
  2454  03B2                     l244:
  2455                           
  2456                           ;usb_device.c: 317:     UCONbits.PPBRST = 1;
  2457  03B2  003D               	movlb	29	; select bank29
  2458  03B3  170E               	bsf	14,6	;volatile
  2459  03B4                     l3949:
  2460                           
  2461                           ;usb_device.c: 320:     UADDR = 0x00;
  2462  03B4  0196               	clrf	22	;volatile
  2463  03B5                     l3951:
  2464                           
  2465                           ;usb_device.c: 323:     UCONbits.PKTDIS = 0;
  2466  03B5  120E               	bcf	14,4	;volatile
  2467  03B6                     l3953:
  2468                           
  2469                           ;usb_device.c: 326:     UCONbits.PPBRST = 0;
  2470  03B6  130E               	bcf	14,6	;volatile
  2471  03B7                     l3955:
  2472                           
  2473                           ;usb_device.c: 330:     {;usb_device.c: 331:         (UIR &= 0xF7);
  2474  03B7  30F7               	movlw	247
  2475  03B8  0021               	movlb	1	; select bank1
  2476  03B9  00E0               	movwf	??_USBDeviceInit^(0+128)
  2477  03BA  0860               	movf	??_USBDeviceInit^(0+128),w
  2478  03BB  003D               	movlb	29	; select bank29
  2479  03BC  0590               	andwf	16,f	;volatile
  2480  03BD                     l3957:
  2481                           
  2482                           ;usb_device.c: 333:         inPipes[0].info.Val = 0;
  2483  03BD  0020               	movlb	0	; select bank0
  2484  03BE  01E7               	clrf	_inPipes+2	;volatile
  2485  03BF                     l3959:
  2486                           
  2487                           ;usb_device.c: 334:         outPipes[0].info.Val = 0;
  2488  03BF  0022               	movlb	2	; select bank2
  2489  03C0  01E2               	clrf	(_outPipes^(0+256)+2)	;volatile
  2490  03C1                     l3961:
  2491                           
  2492                           ;usb_device.c: 335:         outPipes[0].wCount.Val = 0;
  2493  03C1  01E3               	clrf	(_outPipes^(0+256)+3)	;volatile
  2494  03C2  01E4               	clrf	((_outPipes+1)^(0+256)+3)	;volatile
  2495  03C3                     l3963:
  2496                           
  2497                           ;usb_device.c: 336:     }while(UIRbits.TRNIF == 1);
  2498  03C3  003D               	movlb	29	; select bank29
  2499  03C4  1990               	btfsc	16,3	;volatile
  2500  03C5  2BC7               	goto	u2591
  2501  03C6  2BC8               	goto	u2590
  2502  03C7                     u2591:
  2503  03C7  2BB7               	goto	l3955
  2504  03C8                     u2590:
  2505  03C8                     l3965:
  2506                           
  2507                           ;usb_device.c: 340:     USBStatusStageEnabledFlag1 = 1;
  2508  03C8  3001               	movlw	1
  2509  03C9  0021               	movlb	1	; select bank1
  2510  03CA  00E0               	movwf	??_USBDeviceInit^(0+128)
  2511  03CB  0860               	movf	??_USBDeviceInit^(0+128),w
  2512  03CC  0023               	movlb	3	; select bank3
  2513  03CD  00B2               	movwf	_USBStatusStageEnabledFlag1^(0+384)	;volatile
  2514                           
  2515                           ;usb_device.c: 341:     USBStatusStageEnabledFlag2 = 1;
  2516  03CE  3001               	movlw	1
  2517  03CF  0021               	movlb	1	; select bank1
  2518  03D0  00E0               	movwf	??_USBDeviceInit^(0+128)
  2519  03D1  0860               	movf	??_USBDeviceInit^(0+128),w
  2520  03D2  0023               	movlb	3	; select bank3
  2521  03D3  00B1               	movwf	_USBStatusStageEnabledFlag2^(0+384)	;volatile
  2522  03D4                     l3967:
  2523                           
  2524                           ;usb_device.c: 343:     USBDeferINDataStagePackets = 0;
  2525  03D4  01B0               	clrf	_USBDeferINDataStagePackets^(0+384)	;volatile
  2526  03D5                     l3969:
  2527                           
  2528                           ;usb_device.c: 344:     USBDeferOUTDataStagePackets = 0;
  2529  03D5  01AF               	clrf	_USBDeferOUTDataStagePackets^(0+384)	;volatile
  2530  03D6                     l3971:
  2531                           
  2532                           ;usb_device.c: 345:     USBBusIsSuspended = 0;
  2533  03D6  01B5               	clrf	_USBBusIsSuspended^(0+384)	;volatile
  2534  03D7                     l3973:
  2535                           
  2536                           ;usb_device.c: 349:     for(i = 0; i < (uint8_t)(1 +1u); i++)
  2537  03D7  0021               	movlb	1	; select bank1
  2538  03D8  01E4               	clrf	USBDeviceInit@i^(0+128)
  2539  03D9                     l3977:
  2540                           
  2541                           ;usb_device.c: 350:     {;usb_device.c: 351:         pBDTEntryIn[i] = 0u;
  2542  03D9  3564               	lslf	USBDeviceInit@i^(0+128),w
  2543  03DA  3E6A               	addlw	(low (_pBDTEntryIn| 0))& (0+255)
  2544  03DB  0086               	movwf	6
  2545  03DC  0187               	clrf	7
  2546  03DD  3000               	movlw	0
  2547  03DE  3FC0               	movwi [0]fsr1
  2548  03DF  3FC1               	movwi [1]fsr1
  2549                           
  2550                           ;usb_device.c: 352:         pBDTEntryOut[i] = 0u;
  2551  03E0  3564               	lslf	USBDeviceInit@i^(0+128),w
  2552  03E1  3EA4               	addlw	(low (_pBDTEntryOut| (0+256)))& (0+255)
  2553  03E2  0086               	movwf	6
  2554  03E3  3001               	movlw	1	; select bank3/4
  2555  03E4  0087               	movwf	7
  2556  03E5  3000               	movlw	0
  2557  03E6  3FC0               	movwi [0]fsr1
  2558  03E7  3FC1               	movwi [1]fsr1
  2559                           
  2560                           ;usb_device.c: 353:         ep_data_in[i].Val = 0u;
  2561  03E8  0864               	movf	USBDeviceInit@i^(0+128),w
  2562  03E9  3E67               	addlw	(low (_ep_data_in| (0+256)))& (0+255)
  2563  03EA  0086               	movwf	6
  2564  03EB  3001               	movlw	1	; select bank2/3
  2565  03EC  0087               	movwf	7
  2566  03ED  0181               	clrf	1
  2567                           
  2568                           ;usb_device.c: 354:         ep_data_out[i].Val = 0u;
  2569  03EE  0864               	movf	USBDeviceInit@i^(0+128),w
  2570  03EF  3EA8               	addlw	(low (_ep_data_out| (0+256)))& (0+255)
  2571  03F0  0086               	movwf	6
  2572  03F1  3001               	movlw	1	; select bank3/4
  2573  03F2  0087               	movwf	7
  2574  03F3  0181               	clrf	1
  2575  03F4                     l3979:
  2576                           
  2577                           ;usb_device.c: 355:     }
  2578  03F4  3001               	movlw	1
  2579  03F5  00E0               	movwf	??_USBDeviceInit^(0+128)
  2580  03F6  0860               	movf	??_USBDeviceInit^(0+128),w
  2581  03F7  07E4               	addwf	USBDeviceInit@i^(0+128),f
  2582  03F8                     l3981:
  2583  03F8  3002               	movlw	2
  2584  03F9  0264               	subwf	USBDeviceInit@i^(0+128),w
  2585  03FA  1C03               	skipc
  2586  03FB  2BFD               	goto	u2601
  2587  03FC  2BFE               	goto	u2600
  2588  03FD                     u2601:
  2589  03FD  2BD9               	goto	l3977
  2590  03FE                     u2600:
  2591  03FE                     l3983:
  2592                           
  2593                           ;usb_device.c: 358:     pBDTEntryIn[0] = (volatile BDT_ENTRY*)&BDT[2];
  2594  03FE  3028               	movlw	40
  2595  03FF  0020               	movlb	0	; select bank0
  2596  0400  00EA               	movwf	_pBDTEntryIn
  2597  0401  3000               	movlw	0
  2598  0402  00EB               	movwf	_pBDTEntryIn+1
  2599  0403                     l3985:
  2600                           
  2601                           ;usb_device.c: 360:     UEP0 = 0x06|0x10;
  2602  0403  3016               	movlw	22
  2603  0404  003D               	movlb	29	; select bank29
  2604  0405  0098               	movwf	24	;volatile
  2605  0406                     l3987:
  2606                           
  2607                           ;usb_device.c: 362:     BDT[0].ADR = (((uint16_t)(&SetupPkt)) & 0x7FFF);
  2608  0406  3000               	movlw	0
  2609  0407  0020               	movlb	0	; select bank0
  2610  0408  00A3               	movwf	35	;volatile
  2611  0409  3040               	movlw	64
  2612  040A  00A2               	movwf	34	;volatile
  2613  040B                     l3989:
  2614                           
  2615                           ;usb_device.c: 363:     BDT[0].CNT = 8;
  2616  040B  3008               	movlw	8
  2617  040C  00A1               	movwf	33	;volatile
  2618  040D                     l3991:
  2619                           
  2620                           ;usb_device.c: 364:     BDT[0].STAT.Val = 0x00|0x04;
  2621  040D  3004               	movlw	4
  2622  040E  0021               	movlb	1	; select bank1
  2623  040F  00E0               	movwf	??_USBDeviceInit^(0+128)
  2624  0410  0860               	movf	??_USBDeviceInit^(0+128),w
  2625  0411  0020               	movlb	0	; select bank0
  2626  0412  00A0               	movwf	32	;volatile
  2627  0413                     l3993:
  2628                           
  2629                           ;usb_device.c: 365:     BDT[0].STAT.Val |= 0x80;
  2630  0413  17A0               	bsf	32,7	;volatile
  2631  0414                     l3995:
  2632                           
  2633                           ;usb_device.c: 368:     USBActiveConfiguration = 0;
  2634  0414  0022               	movlb	2	; select bank2
  2635  0415  01EF               	clrf	_USBActiveConfiguration^(0+256)	;volatile
  2636  0416                     l3997:
  2637                           
  2638                           ;usb_device.c: 370:     USB1msTickCount = 0;
  2639  0416  3000               	movlw	0
  2640  0417  0023               	movlb	3	; select bank3
  2641  0418  00A3               	movwf	(_USB1msTickCount+3)^(0+384)	;volatile
  2642  0419  3000               	movlw	0
  2643  041A  00A2               	movwf	(_USB1msTickCount+2)^(0+384)	;volatile
  2644  041B  3000               	movlw	0
  2645  041C  00A1               	movwf	(_USB1msTickCount+1)^(0+384)	;volatile
  2646  041D  3000               	movlw	0
  2647  041E  00A0               	movwf	_USB1msTickCount^(0+384)	;volatile
  2648  041F                     l3999:
  2649                           
  2650                           ;usb_device.c: 371:     USBTicksSinceSuspendEnd = 0;
  2651  041F  01AE               	clrf	_USBTicksSinceSuspendEnd^(0+384)	;volatile
  2652  0420                     l4001:
  2653                           
  2654                           ;usb_device.c: 374:     USBDeviceState = DETACHED_STATE;
  2655  0420  0021               	movlb	1	; select bank1
  2656  0421  01EF               	clrf	_USBDeviceState^(0+128)	;volatile
  2657  0422                     l249:
  2658  0422  0008               	return
  2659  0423                     __end_of_USBDeviceInit:
  2660                           
  2661                           	psect	text2
  2662  088E                     __ptext2:	
  2663 ;; *************** function _USBDeviceAttach *****************
  2664 ;; Defined at:
  2665 ;;		line 1356 in file "usb_device.c"
  2666 ;; Parameters:    Size  Location     Type
  2667 ;;		None
  2668 ;; Auto vars:     Size  Location     Type
  2669 ;;		None
  2670 ;; Return value:  Size  Location     Type
  2671 ;;                  1    wreg      void 
  2672 ;; Registers used:
  2673 ;;		wreg, status,2, status,0
  2674 ;; Tracked objects:
  2675 ;;		On entry : 0/0
  2676 ;;		On exit  : 0/0
  2677 ;;		Unchanged: 0/0
  2678 ;; Data sizes:     COMMON   BANK0   BANK1   BANK2   BANK3   BANK4   BANK5   BANK6   BANK7   BANK8   BANK9  BANK10  BANK1
      +1  BANK12
  2679 ;;      Params:         0       0       0       0       0       0       0       0       0       0       0       0       
      +0       0
  2680 ;;      Locals:         0       0       0       0       0       0       0       0       0       0       0       0       
      +0       0
  2681 ;;      Temps:          0       0       1       0       0       0       0       0       0       0       0       0       
      +0       0
  2682 ;;      Totals:         0       0       1       0       0       0       0       0       0       0       0       0       
      +0       0
  2683 ;;Total ram usage:        1 bytes
  2684 ;; Hardware stack levels used: 1
  2685 ;; Hardware stack levels required when called: 10
  2686 ;; This function calls:
  2687 ;;		Nothing
  2688 ;; This function is called by:
  2689 ;;		_main
  2690 ;; This function uses a non-reentrant model
  2691 ;;
  2692                           
  2693  088E                     _USBDeviceAttach:	
  2694                           ;psect for function _USBDeviceAttach
  2695                           
  2696  088E                     l4003:	
  2697                           ;incstack = 0
  2698                           ; Regs used in _USBDeviceAttach: [wreg+status,2+status,0]
  2699                           
  2700                           
  2701                           ;usb_device.c: 1360:     {;usb_device.c: 1361:         if(1 == 1)
  2702  088E  0021               	movlb	1	; select bank1
  2703  088F  086F               	movf	_USBDeviceState^(0+128),w	;volatile
  2704  0890  1D03               	btfss	3,2
  2705  0891  2893               	goto	u2611
  2706  0892  2894               	goto	u2610
  2707  0893                     u2611:
  2708  0893  28AD               	goto	l307
  2709  0894                     u2610:
  2710  0894                     l4005:
  2711                           
  2712                           ;usb_device.c: 1362:         {;usb_device.c: 1364:             UCON = 0;
  2713  0894  003D               	movlb	29	; select bank29
  2714  0895  018E               	clrf	14	;volatile
  2715                           
  2716                           ;usb_device.c: 1367:             UIE = 0;
  2717  0896  0192               	clrf	18	;volatile
  2718  0897                     l4007:
  2719                           
  2720                           ;usb_device.c: 1371:             { UCFG = 0x10 | 0x00 | 0x04 | 0x02; UEIE = 0x9F; UIE = 
      +                          0x39 | 0x40 | 0x02; };
  2721  0897  3016               	movlw	22
  2722  0898  0091               	movwf	17	;volatile
  2723  0899                     l4009:
  2724  0899  309F               	movlw	159
  2725  089A  0097               	movwf	23	;volatile
  2726  089B                     l4011:
  2727  089B  307B               	movlw	123
  2728  089C  0092               	movwf	18	;volatile
  2729  089D                     l4013:
  2730                           
  2731                           ;usb_device.c: 1373:             {PIE2bits.USBIE = 1;INTCONbits.PEIE = 1; INTCONbits.GIE
      +                           = 1;};
  2732  089D  0021               	movlb	1	; select bank1
  2733  089E  1512               	bsf	18,2	;volatile
  2734  089F                     l4015:
  2735  089F  170B               	bsf	11,6	;volatile
  2736  08A0                     l4017:
  2737  08A0  178B               	bsf	11,7	;volatile
  2738                           
  2739                           ;usb_device.c: 1376:             while(!UCONbits.USBEN){UCONbits.USBEN = 1;}
  2740  08A1  28A3               	goto	l304
  2741  08A2                     l305:
  2742  08A2  158E               	bsf	14,3	;volatile
  2743  08A3                     l304:
  2744  08A3  003D               	movlb	29	; select bank29
  2745  08A4  1D8E               	btfss	14,3	;volatile
  2746  08A5  28A7               	goto	u2621
  2747  08A6  28A8               	goto	u2620
  2748  08A7                     u2621:
  2749  08A7  28A2               	goto	l305
  2750  08A8                     u2620:
  2751  08A8                     l4019:
  2752                           
  2753                           ;usb_device.c: 1379:             USBDeviceState = ATTACHED_STATE;
  2754  08A8  3001               	movlw	1
  2755  08A9  0021               	movlb	1	; select bank1
  2756  08AA  00E0               	movwf	??_USBDeviceAttach^(0+128)
  2757  08AB  0860               	movf	??_USBDeviceAttach^(0+128),w
  2758  08AC  00EF               	movwf	_USBDeviceState^(0+128)	;volatile
  2759  08AD                     l307:
  2760  08AD  0008               	return
  2761  08AE                     __end_of_USBDeviceAttach:
  2762                           
  2763                           	psect	text3
  2764  09C2                     __ptext3:	
  2765 ;; *************** function _SYSTEM_Initialize *****************
  2766 ;; Defined at:
  2767 ;;		line 85 in file "system.c"
  2768 ;; Parameters:    Size  Location     Type
  2769 ;;  state           1    wreg     enum E2309
  2770 ;; Auto vars:     Size  Location     Type
  2771 ;;  state           1    5[BANK1 ] enum E2309
  2772 ;; Return value:  Size  Location     Type
  2773 ;;                  1    wreg      void 
  2774 ;; Registers used:
  2775 ;;		wreg, fsr0l, fsr0h, status,2, status,0, pclath, cstack
  2776 ;; Tracked objects:
  2777 ;;		On entry : 0/0
  2778 ;;		On exit  : 0/0
  2779 ;;		Unchanged: 0/0
  2780 ;; Data sizes:     COMMON   BANK0   BANK1   BANK2   BANK3   BANK4   BANK5   BANK6   BANK7   BANK8   BANK9  BANK10  BANK1
      +1  BANK12
  2781 ;;      Params:         0       0       0       0       0       0       0       0       0       0       0       0       
      +0       0
  2782 ;;      Locals:         0       0       1       0       0       0       0       0       0       0       0       0       
      +0       0
  2783 ;;      Temps:          0       0       2       0       0       0       0       0       0       0       0       0       
      +0       0
  2784 ;;      Totals:         0       0       3       0       0       0       0       0       0       0       0       0       
      +0       0
  2785 ;;Total ram usage:        3 bytes
  2786 ;; Hardware stack levels used: 1
  2787 ;; Hardware stack levels required when called: 11
  2788 ;; This function calls:
  2789 ;;		_LED_Init
  2790 ;;		_LED_Off
  2791 ;;		_init_alcohol
  2792 ;; This function is called by:
  2793 ;;		_main
  2794 ;; This function uses a non-reentrant model
  2795 ;;
  2796                           
  2797  09C2                     _SYSTEM_Initialize:	
  2798                           ;psect for function _SYSTEM_Initialize
  2799                           
  2800                           
  2801                           ;incstack = 0
  2802                           ; Regs used in _SYSTEM_Initialize: [wreg-fsr0h+status,2+status,0+pclath+cstack]
  2803                           ;SYSTEM_Initialize@state stored from wreg
  2804  09C2  0021               	movlb	1	; select bank1
  2805  09C3  00E5               	movwf	SYSTEM_Initialize@state^(0+128)
  2806  09C4                     l3893:
  2807                           
  2808                           ;system.c: 85: void SYSTEM_Initialize( SYSTEM_STATE state );system.c: 86: {;system.c: 87
      +                          :     switch(state)
  2809  09C4  29D9               	goto	l3909
  2810  09C5                     l3895:
  2811                           
  2812                           ;system.c: 93:                 OSCCON = 0xFC;
  2813  09C5  30FC               	movlw	252
  2814  09C6  0099               	movwf	25	;volatile
  2815                           
  2816                           ;system.c: 94:                 ACTCON = 0x90;
  2817  09C7  3090               	movlw	144
  2818  09C8  0027               	movlb	7	; select bank7
  2819  09C9  009B               	movwf	27	;volatile
  2820  09CA                     l3897:
  2821                           
  2822                           ;system.c: 96:             ANSELA = 0x00;
  2823  09CA  0023               	movlb	3	; select bank3
  2824  09CB  018C               	clrf	12	;volatile
  2825  09CC                     l3899:
  2826                           
  2827                           ;system.c: 97:             ANSELC = 0x00;
  2828  09CC  018E               	clrf	14	;volatile
  2829  09CD                     l3901:
  2830                           
  2831                           ;system.c: 99:             LED_Init();
  2832  09CD  3187  27F1  3189   	fcall	_LED_Init
  2833  09D0                     l3903:
  2834                           
  2835                           ;system.c: 101:             init_alcohol();
  2836  09D0  3187  27FC  3189   	fcall	_init_alcohol
  2837                           
  2838                           ;system.c: 102:             break;
  2839  09D3  29EC               	goto	l85
  2840  09D4                     l3905:
  2841                           
  2842                           ;system.c: 105:             LED_Off(LED_CONNECT);
  2843  09D4  3001               	movlw	1
  2844  09D5  3189  2145  3189   	fcall	_LED_Off
  2845                           
  2846                           ;system.c: 106:             break;
  2847  09D8  29EC               	goto	l85
  2848  09D9                     l3909:
  2849  09D9  0865               	movf	SYSTEM_Initialize@state^(0+128),w
  2850  09DA  00E3               	movwf	??_SYSTEM_Initialize^(0+128)
  2851  09DB  01E4               	clrf	(??_SYSTEM_Initialize^(0+128)+1)
  2852                           
  2853                           ; Switch on 2 bytes has been partitioned into a top level switch of size 1, and 1 sub-sw
      +                          itches
  2854                           ; Switch size 1, requested type "simple"
  2855                           ; Number of cases is 1, Range of values is 0 to 0
  2856                           ; switch strategies available:
  2857                           ; Name         Instructions Cycles
  2858                           ; simple_byte            4     3 (average)
  2859                           ; direct_byte            8     6 (fixed)
  2860                           ; jumptable            260     6 (fixed)
  2861                           ;	Chosen strategy is simple_byte
  2862  09DC  0864               	movf	(??_SYSTEM_Initialize+1)^(0+128),w
  2863  09DD  3A00               	xorlw	0	; case 0
  2864  09DE  1903               	skipnz
  2865  09DF  29E1               	goto	l5073
  2866  09E0  29EC               	goto	l85
  2867  09E1                     l5073:
  2868                           
  2869                           ; Switch size 1, requested type "simple"
  2870                           ; Number of cases is 3, Range of values is 0 to 2
  2871                           ; switch strategies available:
  2872                           ; Name         Instructions Cycles
  2873                           ; simple_byte           10     6 (average)
  2874                           ; direct_byte           12     6 (fixed)
  2875                           ; jumptable            260     6 (fixed)
  2876                           ;	Chosen strategy is simple_byte
  2877  09E1  0863               	movf	??_SYSTEM_Initialize^(0+128),w
  2878  09E2  3A00               	xorlw	0	; case 0
  2879  09E3  1903               	skipnz
  2880  09E4  29C5               	goto	l3895
  2881  09E5  3A01               	xorlw	1	; case 1
  2882  09E6  1903               	skipnz
  2883  09E7  29D4               	goto	l3905
  2884  09E8  3A03               	xorlw	3	; case 2
  2885  09E9  1903               	skipnz
  2886  09EA  29EC               	goto	l85
  2887  09EB  29EC               	goto	l85
  2888  09EC                     l85:
  2889  09EC  0008               	return
  2890  09ED                     __end_of_SYSTEM_Initialize:
  2891                           
  2892                           	psect	text4
  2893  07FC                     __ptext4:	
  2894 ;; *************** function _init_alcohol *****************
  2895 ;; Defined at:
  2896 ;;		line 8 in file "alcohol_drive.c"
  2897 ;; Parameters:    Size  Location     Type
  2898 ;;		None
  2899 ;; Auto vars:     Size  Location     Type
  2900 ;;		None
  2901 ;; Return value:  Size  Location     Type
  2902 ;;                  1    wreg      void 
  2903 ;; Registers used:
  2904 ;;		None
  2905 ;; Tracked objects:
  2906 ;;		On entry : 0/0
  2907 ;;		On exit  : 0/0
  2908 ;;		Unchanged: 0/0
  2909 ;; Data sizes:     COMMON   BANK0   BANK1   BANK2   BANK3   BANK4   BANK5   BANK6   BANK7   BANK8   BANK9  BANK10  BANK1
      +1  BANK12
  2910 ;;      Params:         0       0       0       0       0       0       0       0       0       0       0       0       
      +0       0
  2911 ;;      Locals:         0       0       0       0       0       0       0       0       0       0       0       0       
      +0       0
  2912 ;;      Temps:          0       0       0       0       0       0       0       0       0       0       0       0       
      +0       0
  2913 ;;      Totals:         0       0       0       0       0       0       0       0       0       0       0       0       
      +0       0
  2914 ;;Total ram usage:        0 bytes
  2915 ;; Hardware stack levels used: 1
  2916 ;; Hardware stack levels required when called: 10
  2917 ;; This function calls:
  2918 ;;		Nothing
  2919 ;; This function is called by:
  2920 ;;		_SYSTEM_Initialize
  2921 ;; This function uses a non-reentrant model
  2922 ;;
  2923                           
  2924  07FC                     _init_alcohol:	
  2925                           ;psect for function _init_alcohol
  2926                           
  2927  07FC                     l3689:	
  2928                           ;incstack = 0
  2929                           ; Regs used in _init_alcohol: []
  2930                           
  2931                           
  2932                           ;alcohol_drive.c: 9:     TRISAbits.TRISA5 = 1;
  2933  07FC  0021               	movlb	1	; select bank1
  2934  07FD  168C               	bsf	12,5	;volatile
  2935  07FE                     l599:
  2936  07FE  0008               	return
  2937  07FF                     __end_of_init_alcohol:
  2938                           
  2939                           	psect	text5
  2940  07F1                     __ptext5:	
  2941 ;; *************** function _LED_Init *****************
  2942 ;; Defined at:
  2943 ;;		line 75 in file "leds.c"
  2944 ;; Parameters:    Size  Location     Type
  2945 ;;		None
  2946 ;; Auto vars:     Size  Location     Type
  2947 ;;		None
  2948 ;; Return value:  Size  Location     Type
  2949 ;;                  1    wreg      void 
  2950 ;; Registers used:
  2951 ;;		None
  2952 ;; Tracked objects:
  2953 ;;		On entry : 0/0
  2954 ;;		On exit  : 0/0
  2955 ;;		Unchanged: 0/0
  2956 ;; Data sizes:     COMMON   BANK0   BANK1   BANK2   BANK3   BANK4   BANK5   BANK6   BANK7   BANK8   BANK9  BANK10  BANK1
      +1  BANK12
  2957 ;;      Params:         0       0       0       0       0       0       0       0       0       0       0       0       
      +0       0
  2958 ;;      Locals:         0       0       0       0       0       0       0       0       0       0       0       0       
      +0       0
  2959 ;;      Temps:          0       0       0       0       0       0       0       0       0       0       0       0       
      +0       0
  2960 ;;      Totals:         0       0       0       0       0       0       0       0       0       0       0       0       
      +0       0
  2961 ;;Total ram usage:        0 bytes
  2962 ;; Hardware stack levels used: 1
  2963 ;; Hardware stack levels required when called: 10
  2964 ;; This function calls:
  2965 ;;		Nothing
  2966 ;; This function is called by:
  2967 ;;		_SYSTEM_Initialize
  2968 ;; This function uses a non-reentrant model
  2969 ;;
  2970                           
  2971  07F1                     _LED_Init:	
  2972                           ;psect for function _LED_Init
  2973                           
  2974  07F1                     l3687:	
  2975                           ;incstack = 0
  2976                           ; Regs used in _LED_Init: []
  2977                           
  2978                           
  2979                           ;leds.c: 77:     TRISCbits.TRISC5 = 0;
  2980  07F1  0021               	movlb	1	; select bank1
  2981  07F2  128E               	bcf	14,5	;volatile
  2982                           
  2983                           ;leds.c: 78:     TRISCbits.TRISC4 = 0;
  2984  07F3  120E               	bcf	14,4	;volatile
  2985                           
  2986                           ;leds.c: 79:     TRISCbits.TRISC3 = 0;
  2987  07F4  118E               	bcf	14,3	;volatile
  2988                           
  2989                           ;leds.c: 80:     TRISCbits.TRISC6 = 0;
  2990  07F5  130E               	bcf	14,6	;volatile
  2991                           
  2992                           ;leds.c: 82:     LATCbits.LATC5 = 0;
  2993  07F6  0022               	movlb	2	; select bank2
  2994  07F7  128E               	bcf	14,5	;volatile
  2995                           
  2996                           ;leds.c: 83:     LATCbits.LATC4 = 0;
  2997  07F8  120E               	bcf	14,4	;volatile
  2998                           
  2999                           ;leds.c: 84:     LATCbits.LATC3 = 0;
  3000  07F9  118E               	bcf	14,3	;volatile
  3001                           
  3002                           ;leds.c: 85:     LATCbits.LATC6 = 0;
  3003  07FA  130E               	bcf	14,6	;volatile
  3004  07FB                     l592:
  3005  07FB  0008               	return
  3006  07FC                     __end_of_LED_Init:
  3007                           
  3008                           	psect	text6
  3009  04D1                     __ptext6:	
  3010 ;; *************** function _APP_DeviceCustomHIDTasks *****************
  3011 ;; Defined at:
  3012 ;;		line 54 in file "app_device_custom_hid.c"
  3013 ;; Parameters:    Size  Location     Type
  3014 ;;		None
  3015 ;; Auto vars:     Size  Location     Type
  3016 ;;  result          1   13[BANK1 ] _Bool 
  3017 ;; Return value:  Size  Location     Type
  3018 ;;                  1    wreg      void 
  3019 ;; Registers used:
  3020 ;;		wreg, fsr0l, fsr0h, fsr1l, fsr1h, status,2, status,0, pclath, cstack
  3021 ;; Tracked objects:
  3022 ;;		On entry : 0/0
  3023 ;;		On exit  : 0/0
  3024 ;;		Unchanged: 0/0
  3025 ;; Data sizes:     COMMON   BANK0   BANK1   BANK2   BANK3   BANK4   BANK5   BANK6   BANK7   BANK8   BANK9  BANK10  BANK1
      +1  BANK12
  3026 ;;      Params:         0       0       0       0       0       0       0       0       0       0       0       0       
      +0       0
  3027 ;;      Locals:         0       0       1       0       0       0       0       0       0       0       0       0       
      +0       0
  3028 ;;      Temps:          0       0       2       0       0       0       0       0       0       0       0       0       
      +0       0
  3029 ;;      Totals:         0       0       3       0       0       0       0       0       0       0       0       0       
      +0       0
  3030 ;;Total ram usage:        3 bytes
  3031 ;; Hardware stack levels used: 1
  3032 ;; Hardware stack levels required when called: 11
  3033 ;; This function calls:
  3034 ;;		_LED_Off
  3035 ;;		_LED_On
  3036 ;;		_USBTransferOnePacket
  3037 ;;		_check_alcohol
  3038 ;; This function is called by:
  3039 ;;		_main
  3040 ;; This function uses a non-reentrant model
  3041 ;;
  3042                           
  3043  04D1                     _APP_DeviceCustomHIDTasks:	
  3044                           ;psect for function _APP_DeviceCustomHIDTasks
  3045                           
  3046  04D1                     l3845:	
  3047                           ;incstack = 0
  3048                           ; Regs used in _APP_DeviceCustomHIDTasks: [wreg-fsr1h+status,2+status,0+pclath+cstack]
  3049                           
  3050                           
  3051                           ;app_device_custom_hid.c: 59:     if( USBDeviceState < CONFIGURED_STATE )
  3052  04D1  3020               	movlw	32
  3053  04D2  0021               	movlb	1	; select bank1
  3054  04D3  026F               	subwf	_USBDeviceState^(0+128),w	;volatile
  3055  04D4  1803               	skipnc
  3056  04D5  2CD7               	goto	u2471
  3057  04D6  2CD8               	goto	u2470
  3058  04D7                     u2471:
  3059  04D7  2CD9               	goto	l28
  3060  04D8                     u2470:
  3061  04D8  2D7C               	goto	l29
  3062  04D9                     l28:	
  3063                           ;app_device_custom_hid.c: 62:     }
  3064                           
  3065                           
  3066                           ;app_device_custom_hid.c: 68:     if( UCONbits.SUSPND== 1 )
  3067  04D9  003D               	movlb	29	; select bank29
  3068  04DA  1C8E               	btfss	14,1	;volatile
  3069  04DB  2CDD               	goto	u2481
  3070  04DC  2CDE               	goto	u2480
  3071  04DD                     u2481:
  3072  04DD  2CDF               	goto	l3851
  3073  04DE                     u2480:
  3074  04DE  2D7C               	goto	l29
  3075  04DF                     l3851:
  3076                           
  3077                           ;app_device_custom_hid.c: 74:     if(((USBOutHandle != 0x0000) && ((*(volatile uint8_t*)
      +                          USBOutHandle & 0x80) != 0x00)) == 0)
  3078  04DF  0023               	movlb	3	; select bank3
  3079  04E0  082C               	movf	_USBOutHandle^(0+384),w
  3080  04E1  042D               	iorwf	(_USBOutHandle+1)^(0+384),w
  3081  04E2  1903               	btfsc	3,2
  3082  04E3  2CE5               	goto	u2491
  3083  04E4  2CE6               	goto	u2490
  3084  04E5                     u2491:
  3085  04E5  2D55               	goto	l3885
  3086  04E6                     u2490:
  3087  04E6                     l3853:
  3088  04E6  082C               	movf	_USBOutHandle^(0+384),w
  3089  04E7  0086               	movwf	6
  3090  04E8  082D               	movf	(_USBOutHandle+1)^(0+384),w
  3091  04E9  0087               	movwf	7
  3092  04EA  1B81               	btfsc	1,7
  3093  04EB  2CED               	goto	u2501
  3094  04EC  2CEE               	goto	u2500
  3095  04ED                     u2501:
  3096  04ED  2D7C               	goto	l29
  3097  04EE                     u2500:
  3098  04EE  2D55               	goto	l3885
  3099  04EF                     l3855:
  3100                           
  3101                           ;app_device_custom_hid.c: 79:                 if(!((USBInHandle != 0x0000) && ((*(volati
      +                          le uint8_t*)USBInHandle & 0x80) != 0x00)))
  3102  04EF  0023               	movlb	3	; select bank3
  3103  04F0  082A               	movf	_USBInHandle^(0+384),w
  3104  04F1  042B               	iorwf	(_USBInHandle+1)^(0+384),w
  3105  04F2  1903               	btfsc	3,2
  3106  04F3  2CF5               	goto	u2511
  3107  04F4  2CF6               	goto	u2510
  3108  04F5                     u2511:
  3109  04F5  2CFE               	goto	l3859
  3110  04F6                     u2510:
  3111  04F6                     l3857:
  3112  04F6  082A               	movf	_USBInHandle^(0+384),w
  3113  04F7  0086               	movwf	6
  3114  04F8  082B               	movf	(_USBInHandle+1)^(0+384),w
  3115  04F9  0087               	movwf	7
  3116  04FA  1B81               	btfsc	1,7
  3117  04FB  2CFD               	goto	u2521
  3118  04FC  2CFE               	goto	u2520
  3119  04FD                     u2521:
  3120  04FD  2D66               	goto	l3887
  3121  04FE                     u2520:
  3122  04FE                     l3859:
  3123                           
  3124                           ;app_device_custom_hid.c: 80:                 {;app_device_custom_hid.c: 81:            
      +                                   LED_On(LED_SCANNING);
  3125  04FE  3002               	movlw	2
  3126  04FF  3189  216E  3184   	fcall	_LED_On
  3127  0502                     l3861:
  3128                           
  3129                           ;app_device_custom_hid.c: 82:                     _Bool result = check_alcohol();
  3130  0502  3188  201B  3184   	fcall	_check_alcohol
  3131  0505  0021               	movlb	1	; select bank1
  3132  0506  00EB               	movwf	??_APP_DeviceCustomHIDTasks^(0+128)
  3133  0507  086B               	movf	??_APP_DeviceCustomHIDTasks^(0+128),w
  3134  0508  00ED               	movwf	APP_DeviceCustomHIDTasks@result^(0+128)
  3135  0509                     l3863:
  3136                           
  3137                           ;app_device_custom_hid.c: 84:                     if(result){
  3138  0509  086D               	movf	APP_DeviceCustomHIDTasks@result^(0+128),w
  3139  050A  1903               	btfsc	3,2
  3140  050B  2D0D               	goto	u2531
  3141  050C  2D0E               	goto	u2530
  3142  050D                     u2531:
  3143  050D  2D18               	goto	l3869
  3144  050E                     u2530:
  3145  050E                     l3865:
  3146                           
  3147                           ;app_device_custom_hid.c: 85:                         ToSendDataBuffer[0] = ALCOHOL_OK;
  3148  050E  3081               	movlw	129
  3149  050F  00EB               	movwf	??_APP_DeviceCustomHIDTasks^(0+128)
  3150  0510  086B               	movf	??_APP_DeviceCustomHIDTasks^(0+128),w
  3151  0511  0022               	movlb	2	; select bank2
  3152  0512  00A0               	movwf	32
  3153  0513                     l3867:
  3154                           
  3155                           ;app_device_custom_hid.c: 86:                         LED_On(LED_OK);
  3156  0513  3003               	movlw	3
  3157  0514  3189  216E  3184   	fcall	_LED_On
  3158                           
  3159                           ;app_device_custom_hid.c: 87:                     }else{
  3160  0517  2D21               	goto	l3873
  3161  0518                     l3869:
  3162                           
  3163                           ;app_device_custom_hid.c: 88:                         ToSendDataBuffer[0] = ALCOHOL_NG;
  3164  0518  3082               	movlw	130
  3165  0519  00EB               	movwf	??_APP_DeviceCustomHIDTasks^(0+128)
  3166  051A  086B               	movf	??_APP_DeviceCustomHIDTasks^(0+128),w
  3167  051B  0022               	movlb	2	; select bank2
  3168  051C  00A0               	movwf	32
  3169  051D                     l3871:
  3170                           
  3171                           ;app_device_custom_hid.c: 89:                         LED_On(LED_NG);
  3172  051D  3004               	movlw	4
  3173  051E  3189  216E  3184   	fcall	_LED_On
  3174  0521                     l3873:
  3175                           
  3176                           ;app_device_custom_hid.c: 93:                     USBInHandle = USBTransferOnePacket(1,1
      +                          ,(uint8_t*)&ToSendDataBuffer[0],64);
  3177  0521  0021               	movlb	1	; select bank1
  3178  0522  01E0               	clrf	USBTransferOnePacket@dir^(0+128)
  3179  0523  0AE0               	incf	USBTransferOnePacket@dir^(0+128),f
  3180  0524  3020               	movlw	32
  3181  0525  00E1               	movwf	USBTransferOnePacket@data^(0+128)
  3182  0526  3001               	movlw	1
  3183  0527  00E2               	movwf	(USBTransferOnePacket@data+1)^(0+128)
  3184  0528  3040               	movlw	64
  3185  0529  00EB               	movwf	??_APP_DeviceCustomHIDTasks^(0+128)
  3186  052A  086B               	movf	??_APP_DeviceCustomHIDTasks^(0+128),w
  3187  052B  00E3               	movwf	USBTransferOnePacket@len^(0+128)
  3188  052C  3001               	movlw	1
  3189  052D  318F  2778  3184   	fcall	_USBTransferOnePacket
  3190  0530  0021               	movlb	1	; select bank1
  3191  0531  0861               	movf	(?_USBTransferOnePacket+1)^(0+128),w
  3192  0532  0023               	movlb	3	; select bank3
  3193  0533  00AB               	movwf	(_USBInHandle+1)^(0+384)
  3194  0534  0021               	movlb	1	; select bank1
  3195  0535  0860               	movf	?_USBTransferOnePacket^(0+128),w
  3196  0536  0023               	movlb	3	; select bank3
  3197  0537  00AA               	movwf	_USBInHandle^(0+384)
  3198  0538                     l3875:
  3199                           
  3200                           ;app_device_custom_hid.c: 94:                     LED_Off(LED_SCANNING);
  3201  0538  3002               	movlw	2
  3202  0539  3189  2145  3184   	fcall	_LED_Off
  3203  053C  2D66               	goto	l3887
  3204  053D                     l3877:
  3205                           
  3206                           ;app_device_custom_hid.c: 98:                 if(!((USBInHandle != 0x0000) && ((*(volati
      +                          le uint8_t*)USBInHandle & 0x80) != 0x00)))
  3207  053D  0023               	movlb	3	; select bank3
  3208  053E  082A               	movf	_USBInHandle^(0+384),w
  3209  053F  042B               	iorwf	(_USBInHandle+1)^(0+384),w
  3210  0540  1903               	btfsc	3,2
  3211  0541  2D43               	goto	u2541
  3212  0542  2D44               	goto	u2540
  3213  0543                     u2541:
  3214  0543  2D4C               	goto	l3881
  3215  0544                     u2540:
  3216  0544                     l3879:
  3217  0544  082A               	movf	_USBInHandle^(0+384),w
  3218  0545  0086               	movwf	6
  3219  0546  082B               	movf	(_USBInHandle+1)^(0+384),w
  3220  0547  0087               	movwf	7
  3221  0548  1B81               	btfsc	1,7
  3222  0549  2D4B               	goto	u2551
  3223  054A  2D4C               	goto	u2550
  3224  054B                     u2551:
  3225  054B  2D66               	goto	l3887
  3226  054C                     u2550:
  3227  054C                     l3881:
  3228                           
  3229                           ;app_device_custom_hid.c: 99:                 {;app_device_custom_hid.c: 100:           
      +                                    LED_Off(LED_NG);
  3230  054C  3004               	movlw	4
  3231  054D  3189  2145  3184   	fcall	_LED_Off
  3232                           
  3233                           ;app_device_custom_hid.c: 101:                     LED_Off(LED_OK);
  3234  0550  3003               	movlw	3
  3235  0551  3189  2145  3184   	fcall	_LED_Off
  3236  0554  2D66               	goto	l3887
  3237  0555                     l3885:
  3238  0555  0021               	movlb	1	; select bank1
  3239  0556  0820               	movf	32,w
  3240  0557  00EB               	movwf	??_APP_DeviceCustomHIDTasks^(0+128)
  3241  0558  01EC               	clrf	(??_APP_DeviceCustomHIDTasks^(0+128)+1)
  3242                           
  3243                           ; Switch on 2 bytes has been partitioned into a top level switch of size 1, and 1 sub-sw
      +                          itches
  3244                           ; Switch size 1, requested type "simple"
  3245                           ; Number of cases is 1, Range of values is 0 to 0
  3246                           ; switch strategies available:
  3247                           ; Name         Instructions Cycles
  3248                           ; simple_byte            4     3 (average)
  3249                           ; direct_byte            8     6 (fixed)
  3250                           ; jumptable            260     6 (fixed)
  3251                           ;	Chosen strategy is simple_byte
  3252  0559  086C               	movf	(??_APP_DeviceCustomHIDTasks+1)^(0+128),w
  3253  055A  3A00               	xorlw	0	; case 0
  3254  055B  1903               	skipnz
  3255  055C  2D5E               	goto	l5075
  3256  055D  2D66               	goto	l3887
  3257  055E                     l5075:
  3258                           
  3259                           ; Switch size 1, requested type "simple"
  3260                           ; Number of cases is 2, Range of values is 112 to 128
  3261                           ; switch strategies available:
  3262                           ; Name         Instructions Cycles
  3263                           ; simple_byte            7     4 (average)
  3264                           ; direct_byte           43     9 (fixed)
  3265                           ; jumptable            263     9 (fixed)
  3266                           ;	Chosen strategy is simple_byte
  3267  055E  086B               	movf	??_APP_DeviceCustomHIDTasks^(0+128),w
  3268  055F  3A70               	xorlw	112	; case 112
  3269  0560  1903               	skipnz
  3270  0561  2D3D               	goto	l3877
  3271  0562  3AF0               	xorlw	240	; case 128
  3272  0563  1903               	skipnz
  3273  0564  2CEF               	goto	l3855
  3274  0565  2D66               	goto	l3887
  3275  0566                     l3887:
  3276                           
  3277                           ;app_device_custom_hid.c: 109:         USBOutHandle = USBTransferOnePacket(1,0,(uint8_t*
      +                          )&ReceivedDataBuffer[0],64);
  3278  0566  0021               	movlb	1	; select bank1
  3279  0567  01E0               	clrf	USBTransferOnePacket@dir^(0+128)
  3280  0568  30A0               	movlw	160
  3281  0569  00E1               	movwf	USBTransferOnePacket@data^(0+128)
  3282  056A  3000               	movlw	0
  3283  056B  00E2               	movwf	(USBTransferOnePacket@data+1)^(0+128)
  3284  056C  3040               	movlw	64
  3285  056D  00EB               	movwf	??_APP_DeviceCustomHIDTasks^(0+128)
  3286  056E  086B               	movf	??_APP_DeviceCustomHIDTasks^(0+128),w
  3287  056F  00E3               	movwf	USBTransferOnePacket@len^(0+128)
  3288  0570  3001               	movlw	1
  3289  0571  318F  2778  3184   	fcall	_USBTransferOnePacket
  3290  0574  0021               	movlb	1	; select bank1
  3291  0575  0861               	movf	(?_USBTransferOnePacket+1)^(0+128),w
  3292  0576  0023               	movlb	3	; select bank3
  3293  0577  00AD               	movwf	(_USBOutHandle+1)^(0+384)
  3294  0578  0021               	movlb	1	; select bank1
  3295  0579  0860               	movf	?_USBTransferOnePacket^(0+128),w
  3296  057A  0023               	movlb	3	; select bank3
  3297  057B  00AC               	movwf	_USBOutHandle^(0+384)
  3298  057C                     l29:
  3299  057C  0008               	return
  3300  057D                     __end_of_APP_DeviceCustomHIDTasks:
  3301                           
  3302                           	psect	text7
  3303  081B                     __ptext7:	
  3304 ;; *************** function _check_alcohol *****************
  3305 ;; Defined at:
  3306 ;;		line 16 in file "alcohol_drive.c"
  3307 ;; Parameters:    Size  Location     Type
  3308 ;;		None
  3309 ;; Auto vars:     Size  Location     Type
  3310 ;;  i               1    2[BANK1 ] unsigned char 
  3311 ;;  ret             1    1[BANK1 ] _Bool 
  3312 ;; Return value:  Size  Location     Type
  3313 ;;                  1    wreg      _Bool 
  3314 ;; Registers used:
  3315 ;;		wreg, status,2, status,0
  3316 ;; Tracked objects:
  3317 ;;		On entry : 0/0
  3318 ;;		On exit  : 0/0
  3319 ;;		Unchanged: 0/0
  3320 ;; Data sizes:     COMMON   BANK0   BANK1   BANK2   BANK3   BANK4   BANK5   BANK6   BANK7   BANK8   BANK9  BANK10  BANK1
      +1  BANK12
  3321 ;;      Params:         0       0       0       0       0       0       0       0       0       0       0       0       
      +0       0
  3322 ;;      Locals:         0       0       2       0       0       0       0       0       0       0       0       0       
      +0       0
  3323 ;;      Temps:          0       0       1       0       0       0       0       0       0       0       0       0       
      +0       0
  3324 ;;      Totals:         0       0       3       0       0       0       0       0       0       0       0       0       
      +0       0
  3325 ;;Total ram usage:        3 bytes
  3326 ;; Hardware stack levels used: 1
  3327 ;; Hardware stack levels required when called: 10
  3328 ;; This function calls:
  3329 ;;		Nothing
  3330 ;; This function is called by:
  3331 ;;		_APP_DeviceCustomHIDTasks
  3332 ;; This function uses a non-reentrant model
  3333 ;;
  3334                           
  3335  081B                     _check_alcohol:	
  3336                           ;psect for function _check_alcohol
  3337                           
  3338  081B                     l3657:	
  3339                           ;incstack = 0
  3340                           ; Regs used in _check_alcohol: [wreg+status,2+status,0]
  3341                           
  3342                           
  3343                           ;alcohol_drive.c: 17:     _Bool ret = 1;
  3344  081B  0021               	movlb	1	; select bank1
  3345  081C  01E1               	clrf	check_alcohol@ret^(0+128)
  3346  081D  0AE1               	incf	check_alcohol@ret^(0+128),f
  3347  081E                     l3659:
  3348                           
  3349                           ;alcohol_drive.c: 18:     for(uint8_t i = 0; i < 100; i++){
  3350  081E  01E2               	clrf	check_alcohol@i^(0+128)
  3351  081F                     l602:
  3352                           
  3353                           ;alcohol_drive.c: 20:         if(PORTAbits.RA5 == 0){
  3354  081F  0020               	movlb	0	; select bank0
  3355  0820  1A8C               	btfsc	12,5	;volatile
  3356  0821  2823               	goto	u2301
  3357  0822  2824               	goto	u2300
  3358  0823                     u2301:
  3359  0823  2827               	goto	l3667
  3360  0824                     u2300:
  3361  0824                     l3665:
  3362                           
  3363                           ;alcohol_drive.c: 21:             ret = 0;
  3364  0824  0021               	movlb	1	; select bank1
  3365  0825  01E1               	clrf	check_alcohol@ret^(0+128)
  3366                           
  3367                           ;alcohol_drive.c: 22:             break;
  3368  0826  2832               	goto	l3671
  3369  0827                     l3667:
  3370                           
  3371                           ;alcohol_drive.c: 24:     }
  3372  0827  3001               	movlw	1
  3373  0828  0021               	movlb	1	; select bank1
  3374  0829  00E0               	movwf	??_check_alcohol^(0+128)
  3375  082A  0860               	movf	??_check_alcohol^(0+128),w
  3376  082B  07E2               	addwf	check_alcohol@i^(0+128),f
  3377  082C                     l3669:
  3378  082C  3064               	movlw	100
  3379  082D  0262               	subwf	check_alcohol@i^(0+128),w
  3380  082E  1C03               	skipc
  3381  082F  2831               	goto	u2311
  3382  0830  2832               	goto	u2310
  3383  0831                     u2311:
  3384  0831  281F               	goto	l602
  3385  0832                     u2310:
  3386  0832                     l3671:
  3387                           
  3388                           ;alcohol_drive.c: 25:     return ret;
  3389  0832  0861               	movf	check_alcohol@ret^(0+128),w
  3390  0833                     l605:
  3391  0833  0008               	return
  3392  0834                     __end_of_check_alcohol:
  3393                           
  3394                           	psect	text8
  3395  0F78                     __ptext8:	
  3396 ;; *************** function _USBTransferOnePacket *****************
  3397 ;; Defined at:
  3398 ;;		line 999 in file "usb_device.c"
  3399 ;; Parameters:    Size  Location     Type
  3400 ;;  ep              1    wreg     unsigned char 
  3401 ;;  dir             1    0[BANK1 ] unsigned char 
  3402 ;;  data            2    1[BANK1 ] PTR unsigned char 
  3403 ;;		 -> ToSendDataBuffer(64), ReceivedDataBuffer(64), 
  3404 ;;  len             1    3[BANK1 ] unsigned char 
  3405 ;; Auto vars:     Size  Location     Type
  3406 ;;  ep              1    8[BANK1 ] unsigned char 
  3407 ;;  handle          2    9[BANK1 ] PTR volatile struct __BD
  3408 ;;		 -> RAM(4096), BDT(32), NULL(0), 
  3409 ;; Return value:  Size  Location     Type
  3410 ;;                  2    0[BANK1 ] PTR void 
  3411 ;; Registers used:
  3412 ;;		wreg, fsr1l, fsr1h, status,2, status,0
  3413 ;; Tracked objects:
  3414 ;;		On entry : 0/0
  3415 ;;		On exit  : 0/0
  3416 ;;		Unchanged: 0/0
  3417 ;; Data sizes:     COMMON   BANK0   BANK1   BANK2   BANK3   BANK4   BANK5   BANK6   BANK7   BANK8   BANK9  BANK10  BANK1
      +1  BANK12
  3418 ;;      Params:         0       0       4       0       0       0       0       0       0       0       0       0       
      +0       0
  3419 ;;      Locals:         0       0       3       0       0       0       0       0       0       0       0       0       
      +0       0
  3420 ;;      Temps:          0       0       4       0       0       0       0       0       0       0       0       0       
      +0       0
  3421 ;;      Totals:         0       0      11       0       0       0       0       0       0       0       0       0       
      +0       0
  3422 ;;Total ram usage:       11 bytes
  3423 ;; Hardware stack levels used: 1
  3424 ;; Hardware stack levels required when called: 10
  3425 ;; This function calls:
  3426 ;;		Nothing
  3427 ;; This function is called by:
  3428 ;;		_APP_DeviceCustomHIDTasks
  3429 ;; This function uses a non-reentrant model
  3430 ;;
  3431                           
  3432  0F78                     _USBTransferOnePacket:	
  3433                           ;psect for function _USBTransferOnePacket
  3434                           
  3435                           
  3436                           ;incstack = 0
  3437                           ; Regs used in _USBTransferOnePacket: [wreg+fsr1l+fsr1h+status,2+status,0]
  3438                           ;USBTransferOnePacket@ep stored from wreg
  3439  0F78  0021               	movlb	1	; select bank1
  3440  0F79  00E8               	movwf	USBTransferOnePacket@ep^(0+128)
  3441  0F7A                     l3617:
  3442                           
  3443                           ;usb_device.c: 999: void* USBTransferOnePacket(uint8_t ep,uint8_t dir,uint8_t* data,uint
      +                          8_t len);usb_device.c: 1000: {;usb_device.c: 1001:     volatile BDT_ENTRY* handle;;usb_d
      +                          evice.c: 1004:     if(dir != 0)
  3444  0F7A  0860               	movf	USBTransferOnePacket@dir^(0+128),w
  3445  0F7B  1903               	btfsc	3,2
  3446  0F7C  2F7E               	goto	u2271
  3447  0F7D  2F7F               	goto	u2270
  3448  0F7E                     u2271:
  3449  0F7E  2F88               	goto	l3621
  3450  0F7F                     u2270:
  3451  0F7F                     l3619:
  3452                           
  3453                           ;usb_device.c: 1005:     {;usb_device.c: 1007:         handle = pBDTEntryIn[ep];
  3454  0F7F  3568               	lslf	USBTransferOnePacket@ep^(0+128),w
  3455  0F80  3E6A               	addlw	(low (_pBDTEntryIn| 0))& (0+255)
  3456  0F81  0086               	movwf	6
  3457  0F82  0187               	clrf	7
  3458  0F83  3F40               	moviw [0]fsr1
  3459  0F84  00E9               	movwf	USBTransferOnePacket@handle^(0+128)
  3460  0F85  3F41               	moviw [1]fsr1
  3461  0F86  00EA               	movwf	(USBTransferOnePacket@handle+1)^(0+128)
  3462                           
  3463                           ;usb_device.c: 1008:     }
  3464  0F87  2F91               	goto	l3623
  3465  0F88                     l3621:
  3466                           
  3467                           ;usb_device.c: 1010:     {;usb_device.c: 1012:         handle = pBDTEntryOut[ep];
  3468  0F88  3568               	lslf	USBTransferOnePacket@ep^(0+128),w
  3469  0F89  3EA4               	addlw	(low (_pBDTEntryOut| (0+256)))& (0+255)
  3470  0F8A  0086               	movwf	6
  3471  0F8B  3001               	movlw	1	; select bank3/4
  3472  0F8C  0087               	movwf	7
  3473  0F8D  3F40               	moviw [0]fsr1
  3474  0F8E  00E9               	movwf	USBTransferOnePacket@handle^(0+128)
  3475  0F8F  3F41               	moviw [1]fsr1
  3476  0F90  00EA               	movwf	(USBTransferOnePacket@handle+1)^(0+128)
  3477  0F91                     l3623:
  3478                           
  3479                           ;usb_device.c: 1017:     if(handle == 0)
  3480  0F91  0869               	movf	USBTransferOnePacket@handle^(0+128),w
  3481  0F92  046A               	iorwf	(USBTransferOnePacket@handle+1)^(0+128),w
  3482  0F93  1D03               	btfss	3,2
  3483  0F94  2F96               	goto	u2281
  3484  0F95  2F97               	goto	u2280
  3485  0F96                     u2281:
  3486  0F96  2F9A               	goto	l3629
  3487  0F97                     u2280:
  3488  0F97                     l3625:
  3489                           
  3490                           ;usb_device.c: 1018:     {;usb_device.c: 1019:         return 0;
  3491  0F97  01E0               	clrf	?_USBTransferOnePacket^(0+128)
  3492  0F98  01E1               	clrf	(?_USBTransferOnePacket+1)^(0+128)
  3493  0F99  2FFF               	goto	l285
  3494  0F9A                     l3629:
  3495                           
  3496                           ;usb_device.c: 1033:     handle->ADR = (((uint16_t)(data)) & 0x7FFF);
  3497  0F9A  30FF               	movlw	255
  3498  0F9B  0561               	andwf	USBTransferOnePacket@data^(0+128),w
  3499  0F9C  00E4               	movwf	??_USBTransferOnePacket^(0+128)
  3500  0F9D  307F               	movlw	127
  3501  0F9E  0562               	andwf	(USBTransferOnePacket@data+1)^(0+128),w
  3502  0F9F  00E5               	movwf	(??_USBTransferOnePacket+1)^(0+128)
  3503  0FA0  0869               	movf	USBTransferOnePacket@handle^(0+128),w
  3504  0FA1  0086               	movwf	6
  3505  0FA2  086A               	movf	(USBTransferOnePacket@handle+1)^(0+128),w
  3506  0FA3  0087               	movwf	7
  3507  0FA4  3142               	addfsr 1,2
  3508  0FA5  0864               	movf	??_USBTransferOnePacket^(0+128),w
  3509  0FA6  3FC0               	movwi [0]fsr1
  3510  0FA7  0865               	movf	(??_USBTransferOnePacket^(0+128)+1),w
  3511  0FA8  3FC1               	movwi [1]fsr1
  3512  0FA9                     l3631:
  3513                           
  3514                           ;usb_device.c: 1034:     handle->CNT = len;
  3515  0FA9  0869               	movf	USBTransferOnePacket@handle^(0+128),w
  3516  0FAA  3E01               	addlw	1
  3517  0FAB  00E4               	movwf	??_USBTransferOnePacket^(0+128)
  3518  0FAC  3000               	movlw	0
  3519  0FAD  3D6A               	addwfc	(USBTransferOnePacket@handle+1)^(0+128),w
  3520  0FAE  00E5               	movwf	(??_USBTransferOnePacket+1)^(0+128)
  3521  0FAF  0864               	movf	??_USBTransferOnePacket^(0+128),w
  3522  0FB0  0086               	movwf	6
  3523  0FB1  0865               	movf	(??_USBTransferOnePacket+1)^(0+128),w
  3524  0FB2  0087               	movwf	7
  3525  0FB3  0863               	movf	USBTransferOnePacket@len^(0+128),w
  3526  0FB4  0081               	movwf	1
  3527  0FB5                     l3633:
  3528                           
  3529                           ;usb_device.c: 1035:     handle->STAT.Val &= 0x40;
  3530  0FB5  3040               	movlw	64
  3531  0FB6  00E4               	movwf	??_USBTransferOnePacket^(0+128)
  3532  0FB7  0869               	movf	USBTransferOnePacket@handle^(0+128),w
  3533  0FB8  0086               	movwf	6
  3534  0FB9  086A               	movf	(USBTransferOnePacket@handle+1)^(0+128),w
  3535  0FBA  0087               	movwf	7
  3536  0FBB  0864               	movf	??_USBTransferOnePacket^(0+128),w
  3537  0FBC  0581               	andwf	1,f
  3538                           
  3539                           ;usb_device.c: 1036:     handle->STAT.Val |= (0x08 & 0x08);
  3540  0FBD  0869               	movf	USBTransferOnePacket@handle^(0+128),w
  3541  0FBE  0086               	movwf	6
  3542  0FBF  086A               	movf	(USBTransferOnePacket@handle+1)^(0+128),w
  3543  0FC0  0087               	movwf	7
  3544  0FC1  1581               	bsf	1,3
  3545                           
  3546                           ;usb_device.c: 1037:     handle->STAT.Val |= 0x80;
  3547  0FC2  0869               	movf	USBTransferOnePacket@handle^(0+128),w
  3548  0FC3  0086               	movwf	6
  3549  0FC4  086A               	movf	(USBTransferOnePacket@handle+1)^(0+128),w
  3550  0FC5  0087               	movwf	7
  3551  0FC6  1781               	bsf	1,7
  3552  0FC7                     l3635:
  3553                           
  3554                           ;usb_device.c: 1040:     if(dir != 0)
  3555  0FC7  0860               	movf	USBTransferOnePacket@dir^(0+128),w
  3556  0FC8  1903               	btfsc	3,2
  3557  0FC9  2FCB               	goto	u2291
  3558  0FCA  2FCC               	goto	u2290
  3559  0FCB                     u2291:
  3560  0FCB  2FE3               	goto	l3639
  3561  0FCC                     u2290:
  3562  0FCC                     l3637:
  3563                           
  3564                           ;usb_device.c: 1041:     {;usb_device.c: 1043:         pBDTEntryIn[ep] = (BDT_ENTRY*)(((
      +                          uint16_t)pBDTEntryIn[ep]) ^ 0x0004);
  3565  0FCC  3568               	lslf	USBTransferOnePacket@ep^(0+128),w
  3566  0FCD  3E6A               	addlw	(low (_pBDTEntryIn| 0))& (0+255)
  3567  0FCE  0086               	movwf	6
  3568  0FCF  0187               	clrf	7
  3569  0FD0  3F40               	moviw [0]fsr1
  3570  0FD1  00E4               	movwf	??_USBTransferOnePacket^(0+128)
  3571  0FD2  3F41               	moviw [1]fsr1
  3572  0FD3  00E5               	movwf	(??_USBTransferOnePacket^(0+128)+1)
  3573  0FD4  3004               	movlw	4
  3574  0FD5  0664               	xorwf	??_USBTransferOnePacket^(0+128),w
  3575  0FD6  00E6               	movwf	(??_USBTransferOnePacket+2)^(0+128)
  3576  0FD7  3000               	movlw	0
  3577  0FD8  0665               	xorwf	(??_USBTransferOnePacket+1)^(0+128),w
  3578  0FD9  00E7               	movwf	(??_USBTransferOnePacket+3)^(0+128)
  3579  0FDA  3568               	lslf	USBTransferOnePacket@ep^(0+128),w
  3580  0FDB  3E6A               	addlw	(low (_pBDTEntryIn| 0))& (0+255)
  3581  0FDC  0086               	movwf	6
  3582  0FDD  0187               	clrf	7
  3583  0FDE  0866               	movf	(??_USBTransferOnePacket+2)^(0+128),w
  3584  0FDF  3FC0               	movwi [0]fsr1
  3585  0FE0  0867               	movf	(??_USBTransferOnePacket+3)^(0+128),w
  3586  0FE1  3FC1               	movwi [1]fsr1
  3587                           
  3588                           ;usb_device.c: 1044:     }
  3589  0FE2  2FFB               	goto	l3641
  3590  0FE3                     l3639:
  3591                           
  3592                           ;usb_device.c: 1046:     {;usb_device.c: 1048:         pBDTEntryOut[ep] = (BDT_ENTRY*)((
      +                          (uint16_t)pBDTEntryOut[ep]) ^ 0x0004);
  3593  0FE3  3568               	lslf	USBTransferOnePacket@ep^(0+128),w
  3594  0FE4  3EA4               	addlw	(low (_pBDTEntryOut| (0+256)))& (0+255)
  3595  0FE5  0086               	movwf	6
  3596  0FE6  3001               	movlw	1	; select bank3/4
  3597  0FE7  0087               	movwf	7
  3598  0FE8  3F40               	moviw [0]fsr1
  3599  0FE9  00E4               	movwf	??_USBTransferOnePacket^(0+128)
  3600  0FEA  3F41               	moviw [1]fsr1
  3601  0FEB  00E5               	movwf	(??_USBTransferOnePacket^(0+128)+1)
  3602  0FEC  3004               	movlw	4
  3603  0FED  0664               	xorwf	??_USBTransferOnePacket^(0+128),w
  3604  0FEE  00E6               	movwf	(??_USBTransferOnePacket+2)^(0+128)
  3605  0FEF  3000               	movlw	0
  3606  0FF0  0665               	xorwf	(??_USBTransferOnePacket+1)^(0+128),w
  3607  0FF1  00E7               	movwf	(??_USBTransferOnePacket+3)^(0+128)
  3608  0FF2  3568               	lslf	USBTransferOnePacket@ep^(0+128),w
  3609  0FF3  3EA4               	addlw	(low (_pBDTEntryOut| (0+256)))& (0+255)
  3610  0FF4  0086               	movwf	6
  3611  0FF5  3001               	movlw	1	; select bank3/4
  3612  0FF6  0087               	movwf	7
  3613  0FF7  0866               	movf	(??_USBTransferOnePacket+2)^(0+128),w
  3614  0FF8  3FC0               	movwi [0]fsr1
  3615  0FF9  0867               	movf	(??_USBTransferOnePacket+3)^(0+128),w
  3616  0FFA  3FC1               	movwi [1]fsr1
  3617  0FFB                     l3641:
  3618                           
  3619                           ;usb_device.c: 1050:     return (void*)handle;
  3620  0FFB  086A               	movf	(USBTransferOnePacket@handle+1)^(0+128),w
  3621  0FFC  00E1               	movwf	(?_USBTransferOnePacket+1)^(0+128)
  3622  0FFD  0869               	movf	USBTransferOnePacket@handle^(0+128),w
  3623  0FFE  00E0               	movwf	?_USBTransferOnePacket^(0+128)
  3624  0FFF                     l285:
  3625  0FFF  0008               	return
  3626  1000                     __end_of_USBTransferOnePacket:
  3627                           
  3628                           	psect	text9
  3629  096E                     __ptext9:	
  3630 ;; *************** function _LED_On *****************
  3631 ;; Defined at:
  3632 ;;		line 26 in file "leds.c"
  3633 ;; Parameters:    Size  Location     Type
  3634 ;;  led             1    wreg     enum E2
  3635 ;; Auto vars:     Size  Location     Type
  3636 ;;  led             1    2[BANK1 ] enum E2
  3637 ;; Return value:  Size  Location     Type
  3638 ;;                  1    wreg      void 
  3639 ;; Registers used:
  3640 ;;		wreg, fsr0l, fsr0h, status,2, status,0
  3641 ;; Tracked objects:
  3642 ;;		On entry : 0/0
  3643 ;;		On exit  : 0/0
  3644 ;;		Unchanged: 0/0
  3645 ;; Data sizes:     COMMON   BANK0   BANK1   BANK2   BANK3   BANK4   BANK5   BANK6   BANK7   BANK8   BANK9  BANK10  BANK1
      +1  BANK12
  3646 ;;      Params:         0       0       0       0       0       0       0       0       0       0       0       0       
      +0       0
  3647 ;;      Locals:         0       0       1       0       0       0       0       0       0       0       0       0       
      +0       0
  3648 ;;      Temps:          0       0       2       0       0       0       0       0       0       0       0       0       
      +0       0
  3649 ;;      Totals:         0       0       3       0       0       0       0       0       0       0       0       0       
      +0       0
  3650 ;;Total ram usage:        3 bytes
  3651 ;; Hardware stack levels used: 1
  3652 ;; Hardware stack levels required when called: 10
  3653 ;; This function calls:
  3654 ;;		Nothing
  3655 ;; This function is called by:
  3656 ;;		_APP_DeviceCustomHIDTasks
  3657 ;; This function uses a non-reentrant model
  3658 ;;
  3659                           
  3660  096E                     _LED_On:	
  3661                           ;psect for function _LED_On
  3662                           
  3663                           
  3664                           ;incstack = 0
  3665                           ; Regs used in _LED_On: [wreg-fsr0h+status,2+status,0]
  3666                           ;LED_On@led stored from wreg
  3667  096E  0021               	movlb	1	; select bank1
  3668  096F  00E2               	movwf	LED_On@led^(0+128)
  3669  0970                     l3645:
  3670                           
  3671                           ;leds.c: 26: void LED_On(LED led);leds.c: 27: {;leds.c: 28:     switch(led)
  3672  0970  297D               	goto	l3649
  3673  0971                     l573:	
  3674                           ;leds.c: 29:     {;leds.c: 30:         case LED_CONNECT:
  3675                           
  3676                           
  3677                           ;leds.c: 31:             LATCbits.LATC5 = 1;
  3678  0971  0022               	movlb	2	; select bank2
  3679  0972  168E               	bsf	14,5	;volatile
  3680                           
  3681                           ;leds.c: 32:             break;
  3682  0973  2996               	goto	l579
  3683  0974                     l575:	
  3684                           ;leds.c: 33:         case LED_SCANNING:
  3685                           
  3686                           
  3687                           ;leds.c: 34:             LATCbits.LATC4 = 1;
  3688  0974  0022               	movlb	2	; select bank2
  3689  0975  160E               	bsf	14,4	;volatile
  3690                           
  3691                           ;leds.c: 35:             break;
  3692  0976  2996               	goto	l579
  3693  0977                     l576:	
  3694                           ;leds.c: 36:         case LED_OK:
  3695                           
  3696                           
  3697                           ;leds.c: 37:             LATCbits.LATC3 = 1;
  3698  0977  0022               	movlb	2	; select bank2
  3699  0978  158E               	bsf	14,3	;volatile
  3700                           
  3701                           ;leds.c: 38:             break;
  3702  0979  2996               	goto	l579
  3703  097A                     l577:	
  3704                           ;leds.c: 39:         case LED_NG:
  3705                           
  3706                           
  3707                           ;leds.c: 40:             LATCbits.LATC6 = 1;
  3708  097A  0022               	movlb	2	; select bank2
  3709  097B  170E               	bsf	14,6	;volatile
  3710                           
  3711                           ;leds.c: 41:             break;
  3712  097C  2996               	goto	l579
  3713  097D                     l3649:
  3714  097D  0862               	movf	LED_On@led^(0+128),w
  3715  097E  00E0               	movwf	??_LED_On^(0+128)
  3716  097F  01E1               	clrf	(??_LED_On^(0+128)+1)
  3717                           
  3718                           ; Switch on 2 bytes has been partitioned into a top level switch of size 1, and 1 sub-sw
      +                          itches
  3719                           ; Switch size 1, requested type "simple"
  3720                           ; Number of cases is 1, Range of values is 0 to 0
  3721                           ; switch strategies available:
  3722                           ; Name         Instructions Cycles
  3723                           ; simple_byte            4     3 (average)
  3724                           ; direct_byte            8     6 (fixed)
  3725                           ; jumptable            260     6 (fixed)
  3726                           ;	Chosen strategy is simple_byte
  3727  0980  0861               	movf	(??_LED_On+1)^(0+128),w
  3728  0981  3A00               	xorlw	0	; case 0
  3729  0982  1903               	skipnz
  3730  0983  2985               	goto	l5077
  3731  0984  2996               	goto	l579
  3732  0985                     l5077:
  3733                           
  3734                           ; Switch size 1, requested type "simple"
  3735                           ; Number of cases is 5, Range of values is 0 to 4
  3736                           ; switch strategies available:
  3737                           ; Name         Instructions Cycles
  3738                           ; direct_byte           16     6 (fixed)
  3739                           ; simple_byte           16     9 (average)
  3740                           ; jumptable            260     6 (fixed)
  3741                           ;	Chosen strategy is simple_byte
  3742  0985  0860               	movf	??_LED_On^(0+128),w
  3743  0986  3A00               	xorlw	0	; case 0
  3744  0987  1903               	skipnz
  3745  0988  2996               	goto	l579
  3746  0989  3A01               	xorlw	1	; case 1
  3747  098A  1903               	skipnz
  3748  098B  2971               	goto	l573
  3749  098C  3A03               	xorlw	3	; case 2
  3750  098D  1903               	skipnz
  3751  098E  2974               	goto	l575
  3752  098F  3A01               	xorlw	1	; case 3
  3753  0990  1903               	skipnz
  3754  0991  2977               	goto	l576
  3755  0992  3A07               	xorlw	7	; case 4
  3756  0993  1903               	skipnz
  3757  0994  297A               	goto	l577
  3758  0995  2996               	goto	l579
  3759  0996                     l579:
  3760  0996  0008               	return
  3761  0997                     __end_of_LED_On:
  3762                           
  3763                           	psect	text10
  3764  0945                     __ptext10:	
  3765 ;; *************** function _LED_Off *****************
  3766 ;; Defined at:
  3767 ;;		line 51 in file "leds.c"
  3768 ;; Parameters:    Size  Location     Type
  3769 ;;  led             1    wreg     enum E2
  3770 ;; Auto vars:     Size  Location     Type
  3771 ;;  led             1    2[BANK1 ] enum E2
  3772 ;; Return value:  Size  Location     Type
  3773 ;;                  1    wreg      void 
  3774 ;; Registers used:
  3775 ;;		wreg, fsr0l, fsr0h, status,2, status,0
  3776 ;; Tracked objects:
  3777 ;;		On entry : 0/0
  3778 ;;		On exit  : 0/0
  3779 ;;		Unchanged: 0/0
  3780 ;; Data sizes:     COMMON   BANK0   BANK1   BANK2   BANK3   BANK4   BANK5   BANK6   BANK7   BANK8   BANK9  BANK10  BANK1
      +1  BANK12
  3781 ;;      Params:         0       0       0       0       0       0       0       0       0       0       0       0       
      +0       0
  3782 ;;      Locals:         0       0       1       0       0       0       0       0       0       0       0       0       
      +0       0
  3783 ;;      Temps:          0       0       2       0       0       0       0       0       0       0       0       0       
      +0       0
  3784 ;;      Totals:         0       0       3       0       0       0       0       0       0       0       0       0       
      +0       0
  3785 ;;Total ram usage:        3 bytes
  3786 ;; Hardware stack levels used: 1
  3787 ;; Hardware stack levels required when called: 10
  3788 ;; This function calls:
  3789 ;;		Nothing
  3790 ;; This function is called by:
  3791 ;;		_APP_DeviceCustomHIDTasks
  3792 ;;		_SYSTEM_Initialize
  3793 ;; This function uses a non-reentrant model
  3794 ;;
  3795                           
  3796  0945                     _LED_Off:	
  3797                           ;psect for function _LED_Off
  3798                           
  3799                           
  3800                           ;incstack = 0
  3801                           ; Regs used in _LED_Off: [wreg-fsr0h+status,2+status,0]
  3802                           ;LED_Off@led stored from wreg
  3803  0945  0021               	movlb	1	; select bank1
  3804  0946  00E2               	movwf	LED_Off@led^(0+128)
  3805  0947                     l3675:
  3806                           
  3807                           ;leds.c: 51: void LED_Off(LED led);leds.c: 52: {;leds.c: 53:     switch(led)
  3808  0947  2954               	goto	l3679
  3809  0948                     l583:	
  3810                           ;leds.c: 54:     {;leds.c: 55:         case LED_CONNECT:
  3811                           
  3812                           
  3813                           ;leds.c: 56:             LATCbits.LATC5 = 0;
  3814  0948  0022               	movlb	2	; select bank2
  3815  0949  128E               	bcf	14,5	;volatile
  3816                           
  3817                           ;leds.c: 57:             break;
  3818  094A  296D               	goto	l589
  3819  094B                     l585:	
  3820                           ;leds.c: 58:         case LED_SCANNING:
  3821                           
  3822                           
  3823                           ;leds.c: 59:             LATCbits.LATC4 = 0;
  3824  094B  0022               	movlb	2	; select bank2
  3825  094C  120E               	bcf	14,4	;volatile
  3826                           
  3827                           ;leds.c: 60:             break;
  3828  094D  296D               	goto	l589
  3829  094E                     l586:	
  3830                           ;leds.c: 61:         case LED_OK:
  3831                           
  3832                           
  3833                           ;leds.c: 62:             LATCbits.LATC3 = 0;
  3834  094E  0022               	movlb	2	; select bank2
  3835  094F  118E               	bcf	14,3	;volatile
  3836                           
  3837                           ;leds.c: 63:             break;
  3838  0950  296D               	goto	l589
  3839  0951                     l587:	
  3840                           ;leds.c: 64:         case LED_NG:
  3841                           
  3842                           
  3843                           ;leds.c: 65:             LATCbits.LATC6 = 0;
  3844  0951  0022               	movlb	2	; select bank2
  3845  0952  130E               	bcf	14,6	;volatile
  3846                           
  3847                           ;leds.c: 66:             break;
  3848  0953  296D               	goto	l589
  3849  0954                     l3679:
  3850  0954  0862               	movf	LED_Off@led^(0+128),w
  3851  0955  00E0               	movwf	??_LED_Off^(0+128)
  3852  0956  01E1               	clrf	(??_LED_Off^(0+128)+1)
  3853                           
  3854                           ; Switch on 2 bytes has been partitioned into a top level switch of size 1, and 1 sub-sw
      +                          itches
  3855                           ; Switch size 1, requested type "simple"
  3856                           ; Number of cases is 1, Range of values is 0 to 0
  3857                           ; switch strategies available:
  3858                           ; Name         Instructions Cycles
  3859                           ; simple_byte            4     3 (average)
  3860                           ; direct_byte            8     6 (fixed)
  3861                           ; jumptable            260     6 (fixed)
  3862                           ;	Chosen strategy is simple_byte
  3863  0957  0861               	movf	(??_LED_Off+1)^(0+128),w
  3864  0958  3A00               	xorlw	0	; case 0
  3865  0959  1903               	skipnz
  3866  095A  295C               	goto	l5079
  3867  095B  296D               	goto	l589
  3868  095C                     l5079:
  3869                           
  3870                           ; Switch size 1, requested type "simple"
  3871                           ; Number of cases is 5, Range of values is 0 to 4
  3872                           ; switch strategies available:
  3873                           ; Name         Instructions Cycles
  3874                           ; direct_byte           16     6 (fixed)
  3875                           ; simple_byte           16     9 (average)
  3876                           ; jumptable            260     6 (fixed)
  3877                           ;	Chosen strategy is simple_byte
  3878  095C  0860               	movf	??_LED_Off^(0+128),w
  3879  095D  3A00               	xorlw	0	; case 0
  3880  095E  1903               	skipnz
  3881  095F  296D               	goto	l589
  3882  0960  3A01               	xorlw	1	; case 1
  3883  0961  1903               	skipnz
  3884  0962  2948               	goto	l583
  3885  0963  3A03               	xorlw	3	; case 2
  3886  0964  1903               	skipnz
  3887  0965  294B               	goto	l585
  3888  0966  3A01               	xorlw	1	; case 3
  3889  0967  1903               	skipnz
  3890  0968  294E               	goto	l586
  3891  0969  3A07               	xorlw	7	; case 4
  3892  096A  1903               	skipnz
  3893  096B  2951               	goto	l587
  3894  096C  296D               	goto	l589
  3895  096D                     l589:
  3896  096D  0008               	return
  3897  096E                     __end_of_LED_Off:
  3898                           
  3899                           	psect	intentry
  3900  0004                     __pintentry:	
  3901 ;; *************** function _SYS_InterruptHigh *****************
  3902 ;; Defined at:
  3903 ;;		line 119 in file "system.c"
  3904 ;; Parameters:    Size  Location     Type
  3905 ;;		None
  3906 ;; Auto vars:     Size  Location     Type
  3907 ;;		None
  3908 ;; Return value:  Size  Location     Type
  3909 ;;                  1    wreg      void 
  3910 ;; Registers used:
  3911 ;;		wreg, fsr0l, fsr0h, fsr1l, fsr1h, status,2, status,0, pclath, cstack
  3912 ;; Tracked objects:
  3913 ;;		On entry : 0/0
  3914 ;;		On exit  : 0/0
  3915 ;;		Unchanged: 0/0
  3916 ;; Data sizes:     COMMON   BANK0   BANK1   BANK2   BANK3   BANK4   BANK5   BANK6   BANK7   BANK8   BANK9  BANK10  BANK1
      +1  BANK12
  3917 ;;      Params:         0       0       0       0       0       0       0       0       0       0       0       0       
      +0       0
  3918 ;;      Locals:         0       0       0       0       0       0       0       0       0       0       0       0       
      +0       0
  3919 ;;      Temps:          0       0       0       0       0       0       0       0       0       0       0       0       
      +0       0
  3920 ;;      Totals:         0       0       0       0       0       0       0       0       0       0       0       0       
      +0       0
  3921 ;;Total ram usage:        0 bytes
  3922 ;; Hardware stack levels used: 1
  3923 ;; Hardware stack levels required when called: 9
  3924 ;; This function calls:
  3925 ;;		_USBDeviceTasks
  3926 ;; This function is called by:
  3927 ;;		Interrupt level 1
  3928 ;; This function uses a non-reentrant model
  3929 ;;
  3930                           
  3931  0004                     _SYS_InterruptHigh:
  3932                           
  3933                           ;incstack = 0
  3934  0004  147E               	bsf	int$flags,0	;set compiler interrupt flag (level 1)
  3935                           
  3936                           ; Regs used in _SYS_InterruptHigh: [wreg-fsr1h+status,2+status,0+pclath+cstack]
  3937  0005  3180               	pagesel	$
  3938  0006                     i1l4761:
  3939                           
  3940                           ;system.c: 122:         USBDeviceTasks();
  3941  0006  3181  2182  3180   	fcall	_USBDeviceTasks
  3942  0009                     i1l90:
  3943  0009  107E               	bcf	int$flags,0	;clear compiler interrupt flag (level 1)
  3944  000A  0009               	retfie
  3945  000B                     __end_of_SYS_InterruptHigh:
  3946                           
  3947                           	psect	text12
  3948  0182                     __ptext12:	
  3949 ;; *************** function _USBDeviceTasks *****************
  3950 ;; Defined at:
  3951 ;;		line 481 in file "usb_device.c"
  3952 ;; Parameters:    Size  Location     Type
  3953 ;;		None
  3954 ;; Auto vars:     Size  Location     Type
  3955 ;;  i               1   20[BANK0 ] unsigned char 
  3956 ;; Return value:  Size  Location     Type
  3957 ;;                  1    wreg      void 
  3958 ;; Registers used:
  3959 ;;		wreg, fsr0l, fsr0h, fsr1l, fsr1h, status,2, status,0, pclath, cstack
  3960 ;; Tracked objects:
  3961 ;;		On entry : 0/0
  3962 ;;		On exit  : 0/0
  3963 ;;		Unchanged: 0/0
  3964 ;; Data sizes:     COMMON   BANK0   BANK1   BANK2   BANK3   BANK4   BANK5   BANK6   BANK7   BANK8   BANK9  BANK10  BANK1
      +1  BANK12
  3965 ;;      Params:         0       0       0       0       0       0       0       0       0       0       0       0       
      +0       0
  3966 ;;      Locals:         0       1       0       0       0       0       0       0       0       0       0       0       
      +0       0
  3967 ;;      Temps:          0       2       0       0       0       0       0       0       0       0       0       0       
      +0       0
  3968 ;;      Totals:         0       3       0       0       0       0       0       0       0       0       0       0       
      +0       0
  3969 ;;Total ram usage:        3 bytes
  3970 ;; Hardware stack levels used: 1
  3971 ;; Hardware stack levels required when called: 8
  3972 ;; This function calls:
  3973 ;;		_USBCtrlEPAllowStatusStage
  3974 ;;		_USBCtrlEPService
  3975 ;;		_USBIncrement1msInternalTimers
  3976 ;;		_USBStallHandler
  3977 ;;		_USBSuspend
  3978 ;;		_USBWakeFromSuspend
  3979 ;;		_USER_USB_CALLBACK_EVENT_HANDLER
  3980 ;;		i1_USBDeviceInit
  3981 ;; This function is called by:
  3982 ;;		_SYS_InterruptHigh
  3983 ;; This function uses a non-reentrant model
  3984 ;;
  3985                           
  3986  0182                     _USBDeviceTasks:	
  3987                           ;psect for function _USBDeviceTasks
  3988                           
  3989  0182                     i1l4659:	
  3990                           ;incstack = 0
  3991                           ; Regs used in _USBDeviceTasks: [wreg-fsr1h+status,2+status,0+pclath+cstack]
  3992                           
  3993                           
  3994                           ;usb_device.c: 483:     uint8_t i;;usb_device.c: 594:     if(USBDeviceState == ATTACHED_
      +                          STATE)
  3995  0182  0021               	movlb	1	; select bank1
  3996  0183  036F               	decf	_USBDeviceState^(0+128),w	;volatile
  3997  0184  1D03               	btfss	3,2
  3998  0185  2987               	goto	u306_21
  3999  0186  2988               	goto	u306_20
  4000  0187                     u306_21:
  4001  0187  2996               	goto	i1l4671
  4002  0188                     u306_20:
  4003  0188                     i1l4661:
  4004                           
  4005                           ;usb_device.c: 595:     {;usb_device.c: 605:         if(!UCONbits.SE0)
  4006  0188  003D               	movlb	29	; select bank29
  4007  0189  1A8E               	btfsc	14,5	;volatile
  4008  018A  298C               	goto	u307_21
  4009  018B  298D               	goto	u307_20
  4010  018C                     u307_21:
  4011  018C  2996               	goto	i1l4671
  4012  018D                     u307_20:
  4013  018D                     i1l4663:
  4014                           
  4015                           ;usb_device.c: 606:         {;usb_device.c: 612:                 {UIR = 0;};
  4016  018D  0190               	clrf	16	;volatile
  4017  018E                     i1l4665:
  4018                           
  4019                           ;usb_device.c: 618:             UIEbits.URSTIE = 1;
  4020  018E  1412               	bsf	18,0	;volatile
  4021  018F                     i1l4667:
  4022                           
  4023                           ;usb_device.c: 619:             UIEbits.IDLEIE = 1;
  4024  018F  1612               	bsf	18,4	;volatile
  4025  0190                     i1l4669:
  4026                           
  4027                           ;usb_device.c: 620:             USBDeviceState = POWERED_STATE;
  4028  0190  3002               	movlw	2
  4029  0191  0020               	movlb	0	; select bank0
  4030  0192  00E2               	movwf	??_USBDeviceTasks
  4031  0193  0862               	movf	??_USBDeviceTasks,w
  4032  0194  0021               	movlb	1	; select bank1
  4033  0195  00EF               	movwf	_USBDeviceState^(0+128)	;volatile
  4034  0196                     i1l4671:
  4035                           
  4036                           ;usb_device.c: 638:     if(UIRbits.ACTVIF && UIEbits.ACTVIE)
  4037  0196  003D               	movlb	29	; select bank29
  4038  0197  1D10               	btfss	16,2	;volatile
  4039  0198  299A               	goto	u308_21
  4040  0199  299B               	goto	u308_20
  4041  019A                     u308_21:
  4042  019A  29A8               	goto	i1l4679
  4043  019B                     u308_20:
  4044  019B                     i1l4673:
  4045  019B  1D12               	btfss	18,2	;volatile
  4046  019C  299E               	goto	u309_21
  4047  019D  299F               	goto	u309_20
  4048  019E                     u309_21:
  4049  019E  29A8               	goto	i1l4679
  4050  019F                     u309_20:
  4051  019F                     i1l4675:
  4052                           
  4053                           ;usb_device.c: 639:     {;usb_device.c: 640:         (UIR &= 0xFB);
  4054  019F  30FB               	movlw	251
  4055  01A0  0020               	movlb	0	; select bank0
  4056  01A1  00E2               	movwf	??_USBDeviceTasks
  4057  01A2  0862               	movf	??_USBDeviceTasks,w
  4058  01A3  003D               	movlb	29	; select bank29
  4059  01A4  0590               	andwf	16,f	;volatile
  4060  01A5                     i1l4677:
  4061                           
  4062                           ;usb_device.c: 644:             USBWakeFromSuspend();
  4063  01A5  3188  20AE  3181   	fcall	_USBWakeFromSuspend
  4064  01A8                     i1l4679:
  4065                           
  4066                           ;usb_device.c: 651:     if(UCONbits.SUSPND==1)
  4067  01A8  003D               	movlb	29	; select bank29
  4068  01A9  1C8E               	btfss	14,1	;volatile
  4069  01AA  29AC               	goto	u310_21
  4070  01AB  29AD               	goto	u310_20
  4071  01AC                     u310_21:
  4072  01AC  29B0               	goto	i1l255
  4073  01AD                     u310_20:
  4074  01AD                     i1l4681:
  4075                           
  4076                           ;usb_device.c: 652:     {;usb_device.c: 653:         PIR2bits.USBIF = 0;;
  4077  01AD  0020               	movlb	0	; select bank0
  4078  01AE  1112               	bcf	18,2	;volatile
  4079                           
  4080                           ;usb_device.c: 654:         return;
  4081  01AF  2AA5               	goto	i1l256
  4082  01B0                     i1l255:	
  4083                           ;usb_device.c: 655:     }
  4084                           
  4085                           
  4086                           ;usb_device.c: 667:     if(UIRbits.URSTIF && UIEbits.URSTIE)
  4087  01B0  1C10               	btfss	16,0	;volatile
  4088  01B1  29B3               	goto	u311_21
  4089  01B2  29B4               	goto	u311_20
  4090  01B3                     u311_21:
  4091  01B3  29C9               	goto	i1l4693
  4092  01B4                     u311_20:
  4093  01B4                     i1l4683:
  4094  01B4  1C12               	btfss	18,0	;volatile
  4095  01B5  29B7               	goto	u312_21
  4096  01B6  29B8               	goto	u312_20
  4097  01B7                     u312_21:
  4098  01B7  29C9               	goto	i1l4693
  4099  01B8                     u312_20:
  4100  01B8                     i1l4685:
  4101                           
  4102                           ;usb_device.c: 668:     {;usb_device.c: 669:         USBDeviceInit();
  4103  01B8  3185  257D  3181   	fcall	i1_USBDeviceInit
  4104  01BB                     i1l4687:
  4105                           
  4106                           ;usb_device.c: 673:         {PIE2bits.USBIE = 1;};
  4107  01BB  0021               	movlb	1	; select bank1
  4108  01BC  1512               	bsf	18,2	;volatile
  4109  01BD                     i1l4689:
  4110                           
  4111                           ;usb_device.c: 675:         USBDeviceState = DEFAULT_STATE;
  4112  01BD  3004               	movlw	4
  4113  01BE  0020               	movlb	0	; select bank0
  4114  01BF  00E2               	movwf	??_USBDeviceTasks
  4115  01C0  0862               	movf	??_USBDeviceTasks,w
  4116  01C1  0021               	movlb	1	; select bank1
  4117  01C2  00EF               	movwf	_USBDeviceState^(0+128)	;volatile
  4118  01C3                     i1l4691:
  4119                           
  4120                           ;usb_device.c: 685:         (UIR &= 0xFE);
  4121  01C3  30FE               	movlw	254
  4122  01C4  0020               	movlb	0	; select bank0
  4123  01C5  00E2               	movwf	??_USBDeviceTasks
  4124  01C6  0862               	movf	??_USBDeviceTasks,w
  4125  01C7  003D               	movlb	29	; select bank29
  4126  01C8  0590               	andwf	16,f	;volatile
  4127  01C9                     i1l4693:
  4128                           
  4129                           ;usb_device.c: 691:     if(UIRbits.IDLEIF && UIEbits.IDLEIE)
  4130  01C9  1E10               	btfss	16,4	;volatile
  4131  01CA  29CC               	goto	u313_21
  4132  01CB  29CD               	goto	u313_20
  4133  01CC                     u313_21:
  4134  01CC  29D4               	goto	i1l4699
  4135  01CD                     u313_20:
  4136  01CD                     i1l4695:
  4137  01CD  1E12               	btfss	18,4	;volatile
  4138  01CE  29D0               	goto	u314_21
  4139  01CF  29D1               	goto	u314_20
  4140  01D0                     u314_21:
  4141  01D0  29D4               	goto	i1l4699
  4142  01D1                     u314_20:
  4143  01D1                     i1l4697:
  4144                           
  4145                           ;usb_device.c: 692:     {;usb_device.c: 698:             USBSuspend();
  4146  01D1  3188  206E  3181   	fcall	_USBSuspend
  4147  01D4                     i1l4699:
  4148                           
  4149                           ;usb_device.c: 712:     if(UIRbits.SOFIF)
  4150  01D4  003D               	movlb	29	; select bank29
  4151  01D5  1F10               	btfss	16,6	;volatile
  4152  01D6  29D8               	goto	u315_21
  4153  01D7  29D9               	goto	u315_20
  4154  01D8                     u315_21:
  4155  01D8  2A06               	goto	i1l4715
  4156  01D9                     u315_20:
  4157  01D9                     i1l4701:
  4158                           
  4159                           ;usb_device.c: 713:     {;usb_device.c: 715:         if(UIEbits.SOFIE)
  4160  01D9  1F12               	btfss	18,6	;volatile
  4161  01DA  29DC               	goto	u316_21
  4162  01DB  29DD               	goto	u316_20
  4163  01DC                     u316_21:
  4164  01DC  29ED               	goto	i1l4705
  4165  01DD                     u316_20:
  4166  01DD                     i1l4703:
  4167                           
  4168                           ;usb_device.c: 716:         {;usb_device.c: 717:             USER_USB_CALLBACK_EVENT_HAN
      +                          DLER((USB_EVENT)EVENT_SOF,0,1);
  4169  01DD  3073               	movlw	115
  4170  01DE  0020               	movlb	0	; select bank0
  4171  01DF  00D0               	movwf	USER_USB_CALLBACK_EVENT_HANDLER@event
  4172  01E0  3000               	movlw	0
  4173  01E1  00D1               	movwf	USER_USB_CALLBACK_EVENT_HANDLER@event+1
  4174  01E2  3000               	movlw	0
  4175  01E3  00D2               	movwf	USER_USB_CALLBACK_EVENT_HANDLER@pdata
  4176  01E4  3000               	movlw	0
  4177  01E5  00D3               	movwf	USER_USB_CALLBACK_EVENT_HANDLER@pdata+1
  4178  01E6  3001               	movlw	1
  4179  01E7  00D4               	movwf	USER_USB_CALLBACK_EVENT_HANDLER@size
  4180  01E8  3000               	movlw	0
  4181  01E9  00D5               	movwf	USER_USB_CALLBACK_EVENT_HANDLER@size+1
  4182  01EA  318A  22C5  3181   	fcall	_USER_USB_CALLBACK_EVENT_HANDLER
  4183  01ED                     i1l4705:
  4184                           
  4185                           ;usb_device.c: 719:         (UIR &= 0xBF);
  4186  01ED  30BF               	movlw	191
  4187  01EE  0020               	movlb	0	; select bank0
  4188  01EF  00E2               	movwf	??_USBDeviceTasks
  4189  01F0  0862               	movf	??_USBDeviceTasks,w
  4190  01F1  003D               	movlb	29	; select bank29
  4191  01F2  0590               	andwf	16,f	;volatile
  4192  01F3                     i1l4707:
  4193                           
  4194                           ;usb_device.c: 722:             USBIncrement1msInternalTimers();
  4195  01F3  3188  2034  3181   	fcall	_USBIncrement1msInternalTimers
  4196  01F6                     i1l4709:
  4197                           
  4198                           ;usb_device.c: 739:             if(USBStatusStageTimeoutCounter != 0u)
  4199  01F6  0023               	movlb	3	; select bank3
  4200  01F7  0833               	movf	_USBStatusStageTimeoutCounter^(0+384),w	;volatile
  4201  01F8  1903               	btfsc	3,2
  4202  01F9  29FB               	goto	u317_21
  4203  01FA  29FC               	goto	u317_20
  4204  01FB                     u317_21:
  4205  01FB  29FE               	goto	i1l261
  4206  01FC                     u317_20:
  4207  01FC                     i1l4711:
  4208                           
  4209                           ;usb_device.c: 740:             {;usb_device.c: 741:                 USBStatusStageTimeo
      +                          utCounter--;
  4210  01FC  3001               	movlw	1
  4211  01FD  02B3               	subwf	_USBStatusStageTimeoutCounter^(0+384),f	;volatile
  4212  01FE                     i1l261:	
  4213                           ;usb_device.c: 742:             }
  4214                           
  4215                           
  4216                           ;usb_device.c: 748:             if(USBStatusStageTimeoutCounter == 0)
  4217  01FE  0833               	movf	_USBStatusStageTimeoutCounter^(0+384),w	;volatile
  4218  01FF  1D03               	btfss	3,2
  4219  0200  2A02               	goto	u318_21
  4220  0201  2A03               	goto	u318_20
  4221  0202                     u318_21:
  4222  0202  2A06               	goto	i1l4715
  4223  0203                     u318_20:
  4224  0203                     i1l4713:
  4225                           
  4226                           ;usb_device.c: 749:             {;usb_device.c: 750:                 USBCtrlEPAllowStatu
      +                          sStage();
  4227  0203  318C  2475  3181   	fcall	_USBCtrlEPAllowStatusStage
  4228  0206                     i1l4715:
  4229                           
  4230                           ;usb_device.c: 755:     if(UIRbits.STALLIF && UIEbits.STALLIE)
  4231  0206  003D               	movlb	29	; select bank29
  4232  0207  1E90               	btfss	16,5	;volatile
  4233  0208  2A0A               	goto	u319_21
  4234  0209  2A0B               	goto	u319_20
  4235  020A                     u319_21:
  4236  020A  2A12               	goto	i1l4721
  4237  020B                     u319_20:
  4238  020B                     i1l4717:
  4239  020B  1E92               	btfss	18,5	;volatile
  4240  020C  2A0E               	goto	u320_21
  4241  020D  2A0F               	goto	u320_20
  4242  020E                     u320_21:
  4243  020E  2A12               	goto	i1l4721
  4244  020F                     u320_20:
  4245  020F                     i1l4719:
  4246                           
  4247                           ;usb_device.c: 756:     {;usb_device.c: 757:         USBStallHandler();
  4248  020F  3189  21ED  3181   	fcall	_USBStallHandler
  4249  0212                     i1l4721:
  4250                           
  4251                           ;usb_device.c: 760:     if(UIRbits.UERRIF && UIEbits.UERRIE)
  4252  0212  003D               	movlb	29	; select bank29
  4253  0213  1C90               	btfss	16,1	;volatile
  4254  0214  2A16               	goto	u321_21
  4255  0215  2A17               	goto	u321_20
  4256  0216                     u321_21:
  4257  0216  2A2D               	goto	i1l4729
  4258  0217                     u321_20:
  4259  0217                     i1l4723:
  4260  0217  1C92               	btfss	18,1	;volatile
  4261  0218  2A1A               	goto	u322_21
  4262  0219  2A1B               	goto	u322_20
  4263  021A                     u322_21:
  4264  021A  2A2D               	goto	i1l4729
  4265  021B                     u322_20:
  4266  021B                     i1l4725:
  4267                           
  4268                           ;usb_device.c: 761:     {;usb_device.c: 762:         USER_USB_CALLBACK_EVENT_HANDLER((US
      +                          B_EVENT)EVENT_BUS_ERROR,0,1);
  4269  021B  30FF               	movlw	255
  4270  021C  0020               	movlb	0	; select bank0
  4271  021D  00D0               	movwf	USER_USB_CALLBACK_EVENT_HANDLER@event
  4272  021E  307F               	movlw	127
  4273  021F  00D1               	movwf	USER_USB_CALLBACK_EVENT_HANDLER@event+1
  4274  0220  3000               	movlw	0
  4275  0221  00D2               	movwf	USER_USB_CALLBACK_EVENT_HANDLER@pdata
  4276  0222  3000               	movlw	0
  4277  0223  00D3               	movwf	USER_USB_CALLBACK_EVENT_HANDLER@pdata+1
  4278  0224  3001               	movlw	1
  4279  0225  00D4               	movwf	USER_USB_CALLBACK_EVENT_HANDLER@size
  4280  0226  3000               	movlw	0
  4281  0227  00D5               	movwf	USER_USB_CALLBACK_EVENT_HANDLER@size+1
  4282  0228  318A  22C5  3181   	fcall	_USER_USB_CALLBACK_EVENT_HANDLER
  4283  022B                     i1l4727:
  4284                           
  4285                           ;usb_device.c: 763:         {UEIR = 0;};
  4286  022B  003D               	movlb	29	; select bank29
  4287  022C  0193               	clrf	19	;volatile
  4288  022D                     i1l4729:
  4289                           
  4290                           ;usb_device.c: 778:     if(USBDeviceState < DEFAULT_STATE)
  4291  022D  3004               	movlw	4
  4292  022E  0021               	movlb	1	; select bank1
  4293  022F  026F               	subwf	_USBDeviceState^(0+128),w	;volatile
  4294  0230  1803               	skipnc
  4295  0231  2A33               	goto	u323_21
  4296  0232  2A34               	goto	u323_20
  4297  0233                     u323_21:
  4298  0233  2A37               	goto	i1l265
  4299  0234                     u323_20:
  4300  0234                     i1l4731:
  4301                           
  4302                           ;usb_device.c: 779:     {;usb_device.c: 780:         PIR2bits.USBIF = 0;;
  4303  0234  0020               	movlb	0	; select bank0
  4304  0235  1112               	bcf	18,2	;volatile
  4305                           
  4306                           ;usb_device.c: 781:         return;
  4307  0236  2AA5               	goto	i1l256
  4308  0237                     i1l265:	
  4309                           ;usb_device.c: 782:     }
  4310                           
  4311                           
  4312                           ;usb_device.c: 787:     if(UIEbits.TRNIE)
  4313  0237  003D               	movlb	29	; select bank29
  4314  0238  1D92               	btfss	18,3	;volatile
  4315  0239  2A3B               	goto	u324_21
  4316  023A  2A3C               	goto	u324_20
  4317  023B                     u324_21:
  4318  023B  2AA3               	goto	i1l266
  4319  023C                     u324_20:
  4320  023C                     i1l4733:
  4321                           
  4322                           ;usb_device.c: 788:     {;usb_device.c: 789:         for(i = 0; i < 4u; i++)
  4323  023C  0020               	movlb	0	; select bank0
  4324  023D  01E4               	clrf	USBDeviceTasks@i
  4325  023E                     i1l267:
  4326                           
  4327                           ;usb_device.c: 790:         {;usb_device.c: 791:             if(UIRbits.TRNIF)
  4328  023E  003D               	movlb	29	; select bank29
  4329  023F  1D90               	btfss	16,3	;volatile
  4330  0240  2A42               	goto	u325_21
  4331  0241  2A43               	goto	u325_20
  4332  0242                     u325_21:
  4333  0242  2AA3               	goto	i1l266
  4334  0243                     u325_20:
  4335  0243                     i1l4739:
  4336                           
  4337                           ;usb_device.c: 792:             {;usb_device.c: 794:                 USTATcopy.Val = UST
      +                          AT;
  4338  0243  080F               	movf	15,w	;volatile
  4339  0244  0020               	movlb	0	; select bank0
  4340  0245  00E2               	movwf	??_USBDeviceTasks
  4341  0246  0862               	movf	??_USBDeviceTasks,w
  4342  0247  0022               	movlb	2	; select bank2
  4343  0248  00ED               	movwf	_USTATcopy^(0+256)	;volatile
  4344  0249                     i1l4741:
  4345                           
  4346                           ;usb_device.c: 795:                 endpoint_number = USTATcopy.endpoint_number;
  4347  0249  0C6D               	rrf	_USTATcopy^(0+256),w	;volatile
  4348  024A  0020               	movlb	0	; select bank0
  4349  024B  00E2               	movwf	??_USBDeviceTasks
  4350  024C  0CE2               	rrf	??_USBDeviceTasks,f
  4351  024D  0C62               	rrf	??_USBDeviceTasks,w
  4352  024E  390F               	andlw	15
  4353  024F  00E3               	movwf	??_USBDeviceTasks+1
  4354  0250  0863               	movf	??_USBDeviceTasks+1,w
  4355  0251  0022               	movlb	2	; select bank2
  4356  0252  00EA               	movwf	_endpoint_number^(0+256)	;volatile
  4357  0253                     i1l4743:
  4358                           
  4359                           ;usb_device.c: 797:                 (UIR &= 0xF7);
  4360  0253  30F7               	movlw	247
  4361  0254  0020               	movlb	0	; select bank0
  4362  0255  00E2               	movwf	??_USBDeviceTasks
  4363  0256  0862               	movf	??_USBDeviceTasks,w
  4364  0257  003D               	movlb	29	; select bank29
  4365  0258  0590               	andwf	16,f	;volatile
  4366  0259                     i1l4745:
  4367                           
  4368                           ;usb_device.c: 802:                 if(USTATcopy.direction == 0)
  4369  0259  0022               	movlb	2	; select bank2
  4370  025A  196D               	btfsc	_USTATcopy^(0+256),2	;volatile
  4371  025B  2A5D               	goto	u326_21
  4372  025C  2A5E               	goto	u326_20
  4373  025D                     u326_21:
  4374  025D  2A6F               	goto	i1l4749
  4375  025E                     u326_20:
  4376  025E                     i1l4747:
  4377                           
  4378                           ;usb_device.c: 803:                 {;usb_device.c: 804:                     ep_data_out
      +                          [endpoint_number].bits.ping_pong_state ^= 1;
  4379  025E  086A               	movf	_endpoint_number^(0+256),w	;volatile
  4380  025F  3EA8               	addlw	(low (_ep_data_out| (0+256)))& (0+255)
  4381  0260  0086               	movwf	6
  4382  0261  3001               	movlw	1	; select bank3/4
  4383  0262  0087               	movwf	7
  4384  0263  0801               	movf	1,w
  4385  0264  3901               	andlw	1
  4386  0265  0020               	movlb	0	; select bank0
  4387  0266  00E2               	movwf	??_USBDeviceTasks
  4388  0267  3001               	movlw	1
  4389  0268  06E2               	xorwf	??_USBDeviceTasks,f
  4390  0269  0801               	movf	1,w
  4391  026A  0662               	xorwf	??_USBDeviceTasks,w
  4392  026B  39FE               	andlw	-2
  4393  026C  0662               	xorwf	??_USBDeviceTasks,w
  4394  026D  0081               	movwf	1
  4395                           
  4396                           ;usb_device.c: 805:                 }
  4397  026E  2A7F               	goto	i1l4751
  4398  026F                     i1l4749:
  4399                           
  4400                           ;usb_device.c: 807:                 {;usb_device.c: 808:                     ep_data_in[
      +                          endpoint_number].bits.ping_pong_state ^= 1;
  4401  026F  086A               	movf	_endpoint_number^(0+256),w	;volatile
  4402  0270  3E67               	addlw	(low (_ep_data_in| (0+256)))& (0+255)
  4403  0271  0086               	movwf	6
  4404  0272  3001               	movlw	1	; select bank2/3
  4405  0273  0087               	movwf	7
  4406  0274  0801               	movf	1,w
  4407  0275  3901               	andlw	1
  4408  0276  0020               	movlb	0	; select bank0
  4409  0277  00E2               	movwf	??_USBDeviceTasks
  4410  0278  3001               	movlw	1
  4411  0279  06E2               	xorwf	??_USBDeviceTasks,f
  4412  027A  0801               	movf	1,w
  4413  027B  0662               	xorwf	??_USBDeviceTasks,w
  4414  027C  39FE               	andlw	-2
  4415  027D  0662               	xorwf	??_USBDeviceTasks,w
  4416  027E  0081               	movwf	1
  4417  027F                     i1l4751:
  4418                           
  4419                           ;usb_device.c: 814:                 if(endpoint_number == 0)
  4420  027F  0022               	movlb	2	; select bank2
  4421  0280  086A               	movf	_endpoint_number^(0+256),w	;volatile
  4422  0281  1D03               	btfss	3,2
  4423  0282  2A84               	goto	u327_21
  4424  0283  2A85               	goto	u327_20
  4425  0284                     u327_21:
  4426  0284  2A89               	goto	i1l4755
  4427  0285                     u327_20:
  4428  0285                     i1l4753:
  4429                           
  4430                           ;usb_device.c: 815:                 {;usb_device.c: 816:                     USBCtrlEPSe
      +                          rvice();
  4431  0285  318B  2354  3181   	fcall	_USBCtrlEPService
  4432                           
  4433                           ;usb_device.c: 817:                 }
  4434  0288  2A98               	goto	i1l4757
  4435  0289                     i1l4755:
  4436                           
  4437                           ;usb_device.c: 819:                 {;usb_device.c: 820:                     USER_USB_CA
      +                          LLBACK_EVENT_HANDLER((USB_EVENT)EVENT_TRANSFER,(uint8_t*)&USTATcopy.Val,0);
  4438  0289  3072               	movlw	114
  4439  028A  0020               	movlb	0	; select bank0
  4440  028B  00D0               	movwf	USER_USB_CALLBACK_EVENT_HANDLER@event
  4441  028C  3000               	movlw	0
  4442  028D  00D1               	movwf	USER_USB_CALLBACK_EVENT_HANDLER@event+1
  4443  028E  306D               	movlw	low _USTATcopy
  4444  028F  00D2               	movwf	USER_USB_CALLBACK_EVENT_HANDLER@pdata
  4445  0290  3001               	movlw	high _USTATcopy
  4446  0291  00D3               	movwf	USER_USB_CALLBACK_EVENT_HANDLER@pdata+1
  4447  0292  3000               	movlw	0
  4448  0293  00D4               	movwf	USER_USB_CALLBACK_EVENT_HANDLER@size
  4449  0294  00D5               	movwf	USER_USB_CALLBACK_EVENT_HANDLER@size+1
  4450  0295  318A  22C5  3181   	fcall	_USER_USB_CALLBACK_EVENT_HANDLER
  4451  0298                     i1l4757:
  4452                           
  4453                           ;usb_device.c: 827:         }
  4454  0298  3001               	movlw	1
  4455  0299  0020               	movlb	0	; select bank0
  4456  029A  00E2               	movwf	??_USBDeviceTasks
  4457  029B  0862               	movf	??_USBDeviceTasks,w
  4458  029C  07E4               	addwf	USBDeviceTasks@i,f
  4459  029D                     i1l4759:
  4460  029D  3004               	movlw	4
  4461  029E  0264               	subwf	USBDeviceTasks@i,w
  4462  029F  1C03               	skipc
  4463  02A0  2AA2               	goto	u328_21
  4464  02A1  2AA3               	goto	u328_20
  4465  02A2                     u328_21:
  4466  02A2  2A3E               	goto	i1l267
  4467  02A3                     u328_20:
  4468  02A3                     i1l266:	
  4469                           ;usb_device.c: 828:     }
  4470                           
  4471                           
  4472                           ;usb_device.c: 830:     PIR2bits.USBIF = 0;;
  4473  02A3  0020               	movlb	0	; select bank0
  4474  02A4  1112               	bcf	18,2	;volatile
  4475  02A5                     i1l256:
  4476  02A5  0008               	return
  4477  02A6                     __end_of_USBDeviceTasks:
  4478                           
  4479                           	psect	text13
  4480  057D                     __ptext13:	
  4481 ;; *************** function i1_USBDeviceInit *****************
  4482 ;; Defined at:
  4483 ;;		line 281 in file "usb_device.c"
  4484 ;; Parameters:    Size  Location     Type
  4485 ;;		None
  4486 ;; Auto vars:     Size  Location     Type
  4487 ;;  p               2    1[COMMON] PTR unsigned char 
  4488 ;;		 -> UEP1(1), 
  4489 ;;  i               1    4[COMMON] unsigned char 
  4490 ;;  i               1    3[COMMON] unsigned char 
  4491 ;; Return value:  Size  Location     Type
  4492 ;;                  1    wreg      void 
  4493 ;; Registers used:
  4494 ;;		wreg, fsr1l, fsr1h, status,2, status,0
  4495 ;; Tracked objects:
  4496 ;;		On entry : 0/0
  4497 ;;		On exit  : 0/0
  4498 ;;		Unchanged: 0/0
  4499 ;; Data sizes:     COMMON   BANK0   BANK1   BANK2   BANK3   BANK4   BANK5   BANK6   BANK7   BANK8   BANK9  BANK10  BANK1
      +1  BANK12
  4500 ;;      Params:         0       0       0       0       0       0       0       0       0       0       0       0       
      +0       0
  4501 ;;      Locals:         4       0       0       0       0       0       0       0       0       0       0       0       
      +0       0
  4502 ;;      Temps:          1       0       0       0       0       0       0       0       0       0       0       0       
      +0       0
  4503 ;;      Totals:         5       0       0       0       0       0       0       0       0       0       0       0       
      +0       0
  4504 ;;Total ram usage:        5 bytes
  4505 ;; Hardware stack levels used: 1
  4506 ;; This function calls:
  4507 ;;		Nothing
  4508 ;; This function is called by:
  4509 ;;		_USBDeviceTasks
  4510 ;; This function uses a non-reentrant model
  4511 ;;
  4512                           
  4513  057D                     i1_USBDeviceInit:	
  4514                           ;psect for function i1_USBDeviceInit
  4515                           
  4516  057D                     i1l3759:	
  4517                           ;incstack = 0
  4518                           ; Regs used in i1_USBDeviceInit: [wreg+fsr1l+fsr1h+status,2+status,0]
  4519                           
  4520                           
  4521                           ;usb_device.c: 283:     uint8_t i;;usb_device.c: 285:     {PIE2bits.USBIE = 0;};
  4522  057D  0021               	movlb	1	; select bank1
  4523  057E  1112               	bcf	18,2	;volatile
  4524  057F                     i1l3761:
  4525                           
  4526                           ;usb_device.c: 292:     {UEIR = 0;};
  4527  057F  003D               	movlb	29	; select bank29
  4528  0580  0193               	clrf	19	;volatile
  4529                           
  4530                           ;usb_device.c: 295:     {UIR = 0;};
  4531  0581  0190               	clrf	16	;volatile
  4532                           
  4533                           ;usb_device.c: 298:     UEP0 = 0;
  4534  0582  0198               	clrf	24	;volatile
  4535  0583                     i1l3763:
  4536                           
  4537                           ;usb_device.c: 300:     { uint8_t i; uint8_t* p = (uint8_t*)&UEP1; for(i=0;i<1;i++) *p++
      +                           = 0; };
  4538  0583  300E               	movlw	14
  4539  0584  00F2               	movwf	i1USBDeviceInit@p+1
  4540  0585  3099               	movlw	153
  4541  0586  00F1               	movwf	i1USBDeviceInit@p
  4542  0587  01F3               	clrf	i1USBDeviceInit@i_878
  4543  0588                     i1l3769:
  4544  0588  0871               	movf	i1USBDeviceInit@p,w
  4545  0589  0086               	movwf	6
  4546  058A  0872               	movf	i1USBDeviceInit@p+1,w
  4547  058B  0087               	movwf	7
  4548  058C  0181               	clrf	1
  4549  058D                     i1l3771:
  4550  058D  3001               	movlw	1
  4551  058E  07F1               	addwf	i1USBDeviceInit@p,f
  4552  058F  3000               	movlw	0
  4553  0590  3DF2               	addwfc	i1USBDeviceInit@p+1,f
  4554  0591                     i1l3773:
  4555  0591  3001               	movlw	1
  4556  0592  00F0               	movwf	??i1_USBDeviceInit
  4557  0593  0870               	movf	??i1_USBDeviceInit,w
  4558  0594  07F3               	addwf	i1USBDeviceInit@i_878,f
  4559  0595                     i1l3775:
  4560  0595  0873               	movf	i1USBDeviceInit@i_878,w
  4561  0596  1903               	btfsc	3,2
  4562  0597  2D99               	goto	u242_21
  4563  0598  2D9A               	goto	u242_20
  4564  0599                     u242_21:
  4565  0599  2D88               	goto	i1l3769
  4566  059A                     u242_20:
  4567  059A                     i1l3777:
  4568                           
  4569                           ;usb_device.c: 302:     { UCFG = 0x10 | 0x00 | 0x04 | 0x02; UEIE = 0x9F; UIE = 0x39 | 0x
      +                          40 | 0x02; };
  4570  059A  3016               	movlw	22
  4571  059B  003D               	movlb	29	; select bank29
  4572  059C  0091               	movwf	17	;volatile
  4573  059D  309F               	movlw	159
  4574  059E  0097               	movwf	23	;volatile
  4575  059F  307B               	movlw	123
  4576  05A0  0092               	movwf	18	;volatile
  4577  05A1                     i1l3779:
  4578                           
  4579                           ;usb_device.c: 311:     for(i = 0; i < (sizeof(BDT)/sizeof(BDT_ENTRY)); i++)
  4580  05A1  01F4               	clrf	i1USBDeviceInit@i
  4581  05A2                     i1l3785:
  4582                           
  4583                           ;usb_device.c: 312:     {;usb_device.c: 313:         BDT[i].Val = 0x00;
  4584  05A2  0874               	movf	i1USBDeviceInit@i,w
  4585  05A3  00F0               	movwf	??i1_USBDeviceInit
  4586  05A4  3001               	movlw	1
  4587  05A5                     u243_25:
  4588  05A5  35F0               	lslf	??i1_USBDeviceInit,f
  4589  05A6  3EFF               	addlw	-1
  4590  05A7  1D03               	skipz
  4591  05A8  2DA5               	goto	u243_25
  4592  05A9  3570               	lslf	??i1_USBDeviceInit,w
  4593  05AA  3E20               	addlw	32
  4594  05AB  0086               	movwf	6
  4595  05AC  0187               	clrf	7
  4596  05AD  3000               	movlw	0
  4597  05AE  3FC0               	movwi [0]fsr1
  4598  05AF  3000               	movlw	0
  4599  05B0  3FC1               	movwi [1]fsr1
  4600  05B1  3FC2               	movwi [2]fsr1
  4601  05B2  3FC3               	movwi [3]fsr1
  4602  05B3                     i1l3787:
  4603                           
  4604                           ;usb_device.c: 314:     }
  4605  05B3  3001               	movlw	1
  4606  05B4  00F0               	movwf	??i1_USBDeviceInit
  4607  05B5  0870               	movf	??i1_USBDeviceInit,w
  4608  05B6  07F4               	addwf	i1USBDeviceInit@i,f
  4609  05B7                     i1l3789:
  4610  05B7  3008               	movlw	8
  4611  05B8  0274               	subwf	i1USBDeviceInit@i,w
  4612  05B9  1C03               	skipc
  4613  05BA  2DBC               	goto	u244_21
  4614  05BB  2DBD               	goto	u244_20
  4615  05BC                     u244_21:
  4616  05BC  2DA2               	goto	i1l3785
  4617  05BD                     u244_20:
  4618  05BD                     i1l244:
  4619                           
  4620                           ;usb_device.c: 317:     UCONbits.PPBRST = 1;
  4621  05BD  003D               	movlb	29	; select bank29
  4622  05BE  170E               	bsf	14,6	;volatile
  4623  05BF                     i1l3791:
  4624                           
  4625                           ;usb_device.c: 320:     UADDR = 0x00;
  4626  05BF  0196               	clrf	22	;volatile
  4627  05C0                     i1l3793:
  4628                           
  4629                           ;usb_device.c: 323:     UCONbits.PKTDIS = 0;
  4630  05C0  120E               	bcf	14,4	;volatile
  4631  05C1                     i1l3795:
  4632                           
  4633                           ;usb_device.c: 326:     UCONbits.PPBRST = 0;
  4634  05C1  130E               	bcf	14,6	;volatile
  4635  05C2                     i1l3797:
  4636                           
  4637                           ;usb_device.c: 330:     {;usb_device.c: 331:         (UIR &= 0xF7);
  4638  05C2  30F7               	movlw	247
  4639  05C3  00F0               	movwf	??i1_USBDeviceInit
  4640  05C4  0870               	movf	??i1_USBDeviceInit,w
  4641  05C5  0590               	andwf	16,f	;volatile
  4642  05C6                     i1l3799:
  4643                           
  4644                           ;usb_device.c: 333:         inPipes[0].info.Val = 0;
  4645  05C6  0020               	movlb	0	; select bank0
  4646  05C7  01E7               	clrf	_inPipes+2	;volatile
  4647  05C8                     i1l3801:
  4648                           
  4649                           ;usb_device.c: 334:         outPipes[0].info.Val = 0;
  4650  05C8  0022               	movlb	2	; select bank2
  4651  05C9  01E2               	clrf	(_outPipes^(0+256)+2)	;volatile
  4652  05CA                     i1l3803:
  4653                           
  4654                           ;usb_device.c: 335:         outPipes[0].wCount.Val = 0;
  4655  05CA  01E3               	clrf	(_outPipes^(0+256)+3)	;volatile
  4656  05CB  01E4               	clrf	((_outPipes+1)^(0+256)+3)	;volatile
  4657  05CC                     i1l3805:
  4658                           
  4659                           ;usb_device.c: 336:     }while(UIRbits.TRNIF == 1);
  4660  05CC  003D               	movlb	29	; select bank29
  4661  05CD  1990               	btfsc	16,3	;volatile
  4662  05CE  2DD0               	goto	u245_21
  4663  05CF  2DD1               	goto	u245_20
  4664  05D0                     u245_21:
  4665  05D0  2DC2               	goto	i1l3797
  4666  05D1                     u245_20:
  4667  05D1                     i1l3807:
  4668                           
  4669                           ;usb_device.c: 340:     USBStatusStageEnabledFlag1 = 1;
  4670  05D1  3001               	movlw	1
  4671  05D2  00F0               	movwf	??i1_USBDeviceInit
  4672  05D3  0870               	movf	??i1_USBDeviceInit,w
  4673  05D4  0023               	movlb	3	; select bank3
  4674  05D5  00B2               	movwf	_USBStatusStageEnabledFlag1^(0+384)	;volatile
  4675                           
  4676                           ;usb_device.c: 341:     USBStatusStageEnabledFlag2 = 1;
  4677  05D6  3001               	movlw	1
  4678  05D7  00F0               	movwf	??i1_USBDeviceInit
  4679  05D8  0870               	movf	??i1_USBDeviceInit,w
  4680  05D9  00B1               	movwf	_USBStatusStageEnabledFlag2^(0+384)	;volatile
  4681  05DA                     i1l3809:
  4682                           
  4683                           ;usb_device.c: 343:     USBDeferINDataStagePackets = 0;
  4684  05DA  01B0               	clrf	_USBDeferINDataStagePackets^(0+384)	;volatile
  4685  05DB                     i1l3811:
  4686                           
  4687                           ;usb_device.c: 344:     USBDeferOUTDataStagePackets = 0;
  4688  05DB  01AF               	clrf	_USBDeferOUTDataStagePackets^(0+384)	;volatile
  4689  05DC                     i1l3813:
  4690                           
  4691                           ;usb_device.c: 345:     USBBusIsSuspended = 0;
  4692  05DC  01B5               	clrf	_USBBusIsSuspended^(0+384)	;volatile
  4693  05DD                     i1l3815:
  4694                           
  4695                           ;usb_device.c: 349:     for(i = 0; i < (uint8_t)(1 +1u); i++)
  4696  05DD  01F4               	clrf	i1USBDeviceInit@i
  4697  05DE                     i1l3819:
  4698                           
  4699                           ;usb_device.c: 350:     {;usb_device.c: 351:         pBDTEntryIn[i] = 0u;
  4700  05DE  3574               	lslf	i1USBDeviceInit@i,w
  4701  05DF  3E6A               	addlw	(low (_pBDTEntryIn| 0))& (0+255)
  4702  05E0  0086               	movwf	6
  4703  05E1  0187               	clrf	7
  4704  05E2  3000               	movlw	0
  4705  05E3  3FC0               	movwi [0]fsr1
  4706  05E4  3FC1               	movwi [1]fsr1
  4707                           
  4708                           ;usb_device.c: 352:         pBDTEntryOut[i] = 0u;
  4709  05E5  3574               	lslf	i1USBDeviceInit@i,w
  4710  05E6  3EA4               	addlw	(low (_pBDTEntryOut| (0+256)))& (0+255)
  4711  05E7  0086               	movwf	6
  4712  05E8  3001               	movlw	1	; select bank3/4
  4713  05E9  0087               	movwf	7
  4714  05EA  3000               	movlw	0
  4715  05EB  3FC0               	movwi [0]fsr1
  4716  05EC  3FC1               	movwi [1]fsr1
  4717                           
  4718                           ;usb_device.c: 353:         ep_data_in[i].Val = 0u;
  4719  05ED  0874               	movf	i1USBDeviceInit@i,w
  4720  05EE  3E67               	addlw	(low (_ep_data_in| (0+256)))& (0+255)
  4721  05EF  0086               	movwf	6
  4722  05F0  3001               	movlw	1	; select bank2/3
  4723  05F1  0087               	movwf	7
  4724  05F2  0181               	clrf	1
  4725                           
  4726                           ;usb_device.c: 354:         ep_data_out[i].Val = 0u;
  4727  05F3  0874               	movf	i1USBDeviceInit@i,w
  4728  05F4  3EA8               	addlw	(low (_ep_data_out| (0+256)))& (0+255)
  4729  05F5  0086               	movwf	6
  4730  05F6  3001               	movlw	1	; select bank3/4
  4731  05F7  0087               	movwf	7
  4732  05F8  0181               	clrf	1
  4733  05F9                     i1l3821:
  4734                           
  4735                           ;usb_device.c: 355:     }
  4736  05F9  3001               	movlw	1
  4737  05FA  00F0               	movwf	??i1_USBDeviceInit
  4738  05FB  0870               	movf	??i1_USBDeviceInit,w
  4739  05FC  07F4               	addwf	i1USBDeviceInit@i,f
  4740  05FD                     i1l3823:
  4741  05FD  3002               	movlw	2
  4742  05FE  0274               	subwf	i1USBDeviceInit@i,w
  4743  05FF  1C03               	skipc
  4744  0600  2E02               	goto	u246_21
  4745  0601  2E03               	goto	u246_20
  4746  0602                     u246_21:
  4747  0602  2DDE               	goto	i1l3819
  4748  0603                     u246_20:
  4749  0603                     i1l3825:
  4750                           
  4751                           ;usb_device.c: 358:     pBDTEntryIn[0] = (volatile BDT_ENTRY*)&BDT[2];
  4752  0603  3028               	movlw	40
  4753  0604  0020               	movlb	0	; select bank0
  4754  0605  00EA               	movwf	_pBDTEntryIn
  4755  0606  3000               	movlw	0
  4756  0607  00EB               	movwf	_pBDTEntryIn+1
  4757  0608                     i1l3827:
  4758                           
  4759                           ;usb_device.c: 360:     UEP0 = 0x06|0x10;
  4760  0608  3016               	movlw	22
  4761  0609  003D               	movlb	29	; select bank29
  4762  060A  0098               	movwf	24	;volatile
  4763  060B                     i1l3829:
  4764                           
  4765                           ;usb_device.c: 362:     BDT[0].ADR = (((uint16_t)(&SetupPkt)) & 0x7FFF);
  4766  060B  3000               	movlw	0
  4767  060C  0020               	movlb	0	; select bank0
  4768  060D  00A3               	movwf	35	;volatile
  4769  060E  3040               	movlw	64
  4770  060F  00A2               	movwf	34	;volatile
  4771  0610                     i1l3831:
  4772                           
  4773                           ;usb_device.c: 363:     BDT[0].CNT = 8;
  4774  0610  3008               	movlw	8
  4775  0611  00A1               	movwf	33	;volatile
  4776  0612                     i1l3833:
  4777                           
  4778                           ;usb_device.c: 364:     BDT[0].STAT.Val = 0x00|0x04;
  4779  0612  3004               	movlw	4
  4780  0613  00F0               	movwf	??i1_USBDeviceInit
  4781  0614  0870               	movf	??i1_USBDeviceInit,w
  4782  0615  00A0               	movwf	32	;volatile
  4783  0616                     i1l3835:
  4784                           
  4785                           ;usb_device.c: 365:     BDT[0].STAT.Val |= 0x80;
  4786  0616  17A0               	bsf	32,7	;volatile
  4787  0617                     i1l3837:
  4788                           
  4789                           ;usb_device.c: 368:     USBActiveConfiguration = 0;
  4790  0617  0022               	movlb	2	; select bank2
  4791  0618  01EF               	clrf	_USBActiveConfiguration^(0+256)	;volatile
  4792  0619                     i1l3839:
  4793                           
  4794                           ;usb_device.c: 370:     USB1msTickCount = 0;
  4795  0619  3000               	movlw	0
  4796  061A  0023               	movlb	3	; select bank3
  4797  061B  00A3               	movwf	(_USB1msTickCount+3)^(0+384)	;volatile
  4798  061C  3000               	movlw	0
  4799  061D  00A2               	movwf	(_USB1msTickCount+2)^(0+384)	;volatile
  4800  061E  3000               	movlw	0
  4801  061F  00A1               	movwf	(_USB1msTickCount+1)^(0+384)	;volatile
  4802  0620  3000               	movlw	0
  4803  0621  00A0               	movwf	_USB1msTickCount^(0+384)	;volatile
  4804  0622                     i1l3841:
  4805                           
  4806                           ;usb_device.c: 371:     USBTicksSinceSuspendEnd = 0;
  4807  0622  01AE               	clrf	_USBTicksSinceSuspendEnd^(0+384)	;volatile
  4808  0623                     i1l3843:
  4809                           
  4810                           ;usb_device.c: 374:     USBDeviceState = DETACHED_STATE;
  4811  0623  0021               	movlb	1	; select bank1
  4812  0624  01EF               	clrf	_USBDeviceState^(0+128)	;volatile
  4813  0625                     i1l249:
  4814  0625  0008               	return
  4815  0626                     __end_ofi1_USBDeviceInit:
  4816                           
  4817                           	psect	text14
  4818  08AE                     __ptext14:	
  4819 ;; *************** function _USBWakeFromSuspend *****************
  4820 ;; Defined at:
  4821 ;;		line 2310 in file "usb_device.c"
  4822 ;; Parameters:    Size  Location     Type
  4823 ;;		None
  4824 ;; Auto vars:     Size  Location     Type
  4825 ;;		None
  4826 ;; Return value:  Size  Location     Type
  4827 ;;                  1    wreg      void 
  4828 ;; Registers used:
  4829 ;;		wreg, fsr0l, fsr0h, fsr1l, fsr1h, status,2, status,0, pclath, cstack
  4830 ;; Tracked objects:
  4831 ;;		On entry : 0/0
  4832 ;;		On exit  : 0/0
  4833 ;;		Unchanged: 0/0
  4834 ;; Data sizes:     COMMON   BANK0   BANK1   BANK2   BANK3   BANK4   BANK5   BANK6   BANK7   BANK8   BANK9  BANK10  BANK1
      +1  BANK12
  4835 ;;      Params:         0       0       0       0       0       0       0       0       0       0       0       0       
      +0       0
  4836 ;;      Locals:         0       0       0       0       0       0       0       0       0       0       0       0       
      +0       0
  4837 ;;      Temps:          0       1       0       0       0       0       0       0       0       0       0       0       
      +0       0
  4838 ;;      Totals:         0       1       0       0       0       0       0       0       0       0       0       0       
      +0       0
  4839 ;;Total ram usage:        1 bytes
  4840 ;; Hardware stack levels used: 1
  4841 ;; Hardware stack levels required when called: 4
  4842 ;; This function calls:
  4843 ;;		_USER_USB_CALLBACK_EVENT_HANDLER
  4844 ;; This function is called by:
  4845 ;;		_USBDeviceTasks
  4846 ;; This function uses a non-reentrant model
  4847 ;;
  4848                           
  4849  08AE                     _USBWakeFromSuspend:	
  4850                           ;psect for function _USBWakeFromSuspend
  4851                           
  4852  08AE                     i1l3691:	
  4853                           ;incstack = 0
  4854                           ; Regs used in _USBWakeFromSuspend: [wreg-fsr1h+status,2+status,0+pclath+cstack]
  4855                           
  4856                           
  4857                           ;usb_device.c: 2312:     USBBusIsSuspended = 0;
  4858  08AE  0023               	movlb	3	; select bank3
  4859  08AF  01B5               	clrf	_USBBusIsSuspended^(0+384)	;volatile
  4860  08B0                     i1l3693:
  4861                           
  4862                           ;usb_device.c: 2318:     USER_USB_CALLBACK_EVENT_HANDLER((USB_EVENT)EVENT_RESUME,0,0);
  4863  08B0  3074               	movlw	116
  4864  08B1  0020               	movlb	0	; select bank0
  4865  08B2  00D0               	movwf	USER_USB_CALLBACK_EVENT_HANDLER@event
  4866  08B3  3000               	movlw	0
  4867  08B4  00D1               	movwf	USER_USB_CALLBACK_EVENT_HANDLER@event+1
  4868  08B5  3000               	movlw	0
  4869  08B6  00D2               	movwf	USER_USB_CALLBACK_EVENT_HANDLER@pdata
  4870  08B7  3000               	movlw	0
  4871  08B8  00D3               	movwf	USER_USB_CALLBACK_EVENT_HANDLER@pdata+1
  4872  08B9  3000               	movlw	0
  4873  08BA  00D4               	movwf	USER_USB_CALLBACK_EVENT_HANDLER@size
  4874  08BB  00D5               	movwf	USER_USB_CALLBACK_EVENT_HANDLER@size+1
  4875  08BC  318A  22C5  3188   	fcall	_USER_USB_CALLBACK_EVENT_HANDLER
  4876  08BF                     i1l3695:
  4877                           
  4878                           ;usb_device.c: 2325:         UCONbits.SUSPND = 0;
  4879  08BF  003D               	movlb	29	; select bank29
  4880  08C0  108E               	bcf	14,1	;volatile
  4881  08C1                     i1l3697:
  4882                           
  4883                           ;usb_device.c: 2330:     UIEbits.ACTVIE = 0;
  4884  08C1  1112               	bcf	18,2	;volatile
  4885                           
  4886                           ;usb_device.c: 2348:     while(UIRbits.ACTVIF)
  4887  08C2  28C9               	goto	i1l3701
  4888  08C3                     i1l3699:
  4889                           
  4890                           ;usb_device.c: 2350:     {;usb_device.c: 2351:         (UIR &= 0xFB);
  4891  08C3  30FB               	movlw	251
  4892  08C4  0020               	movlb	0	; select bank0
  4893  08C5  00D6               	movwf	??_USBWakeFromSuspend
  4894  08C6  0856               	movf	??_USBWakeFromSuspend,w
  4895  08C7  003D               	movlb	29	; select bank29
  4896  08C8  0590               	andwf	16,f	;volatile
  4897  08C9                     i1l3701:
  4898                           
  4899                           ;usb_device.c: 2348:     while(UIRbits.ACTVIF)
  4900  08C9  1910               	btfsc	16,2	;volatile
  4901  08CA  28CC               	goto	u232_21
  4902  08CB  28CD               	goto	u232_20
  4903  08CC                     u232_21:
  4904  08CC  28C3               	goto	i1l3699
  4905  08CD                     u232_20:
  4906  08CD                     i1l3703:
  4907                           
  4908                           ;usb_device.c: 2354:     USBTicksSinceSuspendEnd = 0;
  4909  08CD  0023               	movlb	3	; select bank3
  4910  08CE  01AE               	clrf	_USBTicksSinceSuspendEnd^(0+384)	;volatile
  4911  08CF                     i1l419:
  4912  08CF  0008               	return
  4913  08D0                     __end_of_USBWakeFromSuspend:
  4914                           
  4915                           	psect	text15
  4916  086E                     __ptext15:	
  4917 ;; *************** function _USBSuspend *****************
  4918 ;; Defined at:
  4919 ;;		line 2252 in file "usb_device.c"
  4920 ;; Parameters:    Size  Location     Type
  4921 ;;		None
  4922 ;; Auto vars:     Size  Location     Type
  4923 ;;		None
  4924 ;; Return value:  Size  Location     Type
  4925 ;;                  1    wreg      void 
  4926 ;; Registers used:
  4927 ;;		wreg, fsr0l, fsr0h, fsr1l, fsr1h, status,2, status,0, pclath, cstack
  4928 ;; Tracked objects:
  4929 ;;		On entry : 0/0
  4930 ;;		On exit  : 0/0
  4931 ;;		Unchanged: 0/0
  4932 ;; Data sizes:     COMMON   BANK0   BANK1   BANK2   BANK3   BANK4   BANK5   BANK6   BANK7   BANK8   BANK9  BANK10  BANK1
      +1  BANK12
  4933 ;;      Params:         0       0       0       0       0       0       0       0       0       0       0       0       
      +0       0
  4934 ;;      Locals:         0       0       0       0       0       0       0       0       0       0       0       0       
      +0       0
  4935 ;;      Temps:          0       1       0       0       0       0       0       0       0       0       0       0       
      +0       0
  4936 ;;      Totals:         0       1       0       0       0       0       0       0       0       0       0       0       
      +0       0
  4937 ;;Total ram usage:        1 bytes
  4938 ;; Hardware stack levels used: 1
  4939 ;; Hardware stack levels required when called: 4
  4940 ;; This function calls:
  4941 ;;		_USER_USB_CALLBACK_EVENT_HANDLER
  4942 ;; This function is called by:
  4943 ;;		_USBDeviceTasks
  4944 ;; This function uses a non-reentrant model
  4945 ;;
  4946                           
  4947  086E                     _USBSuspend:	
  4948                           ;psect for function _USBSuspend
  4949                           
  4950  086E                     i1l3705:	
  4951                           ;incstack = 0
  4952                           ; Regs used in _USBSuspend: [wreg-fsr1h+status,2+status,0+pclath+cstack]
  4953                           
  4954                           
  4955                           ;usb_device.c: 2277:     UIEbits.ACTVIE = 1;
  4956  086E  003D               	movlb	29	; select bank29
  4957  086F  1512               	bsf	18,2	;volatile
  4958  0870                     i1l3707:
  4959                           
  4960                           ;usb_device.c: 2278:     (UIR &= 0xEF);
  4961  0870  30EF               	movlw	239
  4962  0871  0020               	movlb	0	; select bank0
  4963  0872  00D6               	movwf	??_USBSuspend
  4964  0873  0856               	movf	??_USBSuspend,w
  4965  0874  003D               	movlb	29	; select bank29
  4966  0875  0590               	andwf	16,f	;volatile
  4967  0876                     i1l3709:
  4968                           
  4969                           ;usb_device.c: 2281:         UCONbits.SUSPND = 1;
  4970  0876  148E               	bsf	14,1	;volatile
  4971  0877                     i1l3711:
  4972                           
  4973                           ;usb_device.c: 2284:     USBBusIsSuspended = 1;
  4974  0877  3001               	movlw	1
  4975  0878  0020               	movlb	0	; select bank0
  4976  0879  00D6               	movwf	??_USBSuspend
  4977  087A  0856               	movf	??_USBSuspend,w
  4978  087B  0023               	movlb	3	; select bank3
  4979  087C  00B5               	movwf	_USBBusIsSuspended^(0+384)	;volatile
  4980  087D                     i1l3713:
  4981                           
  4982                           ;usb_device.c: 2285:     USBTicksSinceSuspendEnd = 0;
  4983  087D  01AE               	clrf	_USBTicksSinceSuspendEnd^(0+384)	;volatile
  4984  087E                     i1l3715:
  4985                           
  4986                           ;usb_device.c: 2292:     USER_USB_CALLBACK_EVENT_HANDLER((USB_EVENT)EVENT_SUSPEND,0,0);
  4987  087E  3075               	movlw	117
  4988  087F  0020               	movlb	0	; select bank0
  4989  0880  00D0               	movwf	USER_USB_CALLBACK_EVENT_HANDLER@event
  4990  0881  3000               	movlw	0
  4991  0882  00D1               	movwf	USER_USB_CALLBACK_EVENT_HANDLER@event+1
  4992  0883  3000               	movlw	0
  4993  0884  00D2               	movwf	USER_USB_CALLBACK_EVENT_HANDLER@pdata
  4994  0885  3000               	movlw	0
  4995  0886  00D3               	movwf	USER_USB_CALLBACK_EVENT_HANDLER@pdata+1
  4996  0887  3000               	movlw	0
  4997  0888  00D4               	movwf	USER_USB_CALLBACK_EVENT_HANDLER@size
  4998  0889  00D5               	movwf	USER_USB_CALLBACK_EVENT_HANDLER@size+1
  4999  088A  318A  22C5  3188   	fcall	_USER_USB_CALLBACK_EVENT_HANDLER
  5000  088D                     i1l413:
  5001  088D  0008               	return
  5002  088E                     __end_of_USBSuspend:
  5003                           
  5004                           	psect	text16
  5005  09ED                     __ptext16:	
  5006 ;; *************** function _USBStallHandler *****************
  5007 ;; Defined at:
  5008 ;;		line 2209 in file "usb_device.c"
  5009 ;; Parameters:    Size  Location     Type
  5010 ;;		None
  5011 ;; Auto vars:     Size  Location     Type
  5012 ;;		None
  5013 ;; Return value:  Size  Location     Type
  5014 ;;                  1    wreg      void 
  5015 ;; Registers used:
  5016 ;;		wreg, fsr1l, fsr1h, status,2, status,0
  5017 ;; Tracked objects:
  5018 ;;		On entry : 0/0
  5019 ;;		On exit  : 0/0
  5020 ;;		Unchanged: 0/0
  5021 ;; Data sizes:     COMMON   BANK0   BANK1   BANK2   BANK3   BANK4   BANK5   BANK6   BANK7   BANK8   BANK9  BANK10  BANK1
      +1  BANK12
  5022 ;;      Params:         0       0       0       0       0       0       0       0       0       0       0       0       
      +0       0
  5023 ;;      Locals:         0       0       0       0       0       0       0       0       0       0       0       0       
      +0       0
  5024 ;;      Temps:          1       0       0       0       0       0       0       0       0       0       0       0       
      +0       0
  5025 ;;      Totals:         1       0       0       0       0       0       0       0       0       0       0       0       
      +0       0
  5026 ;;Total ram usage:        1 bytes
  5027 ;; Hardware stack levels used: 1
  5028 ;; This function calls:
  5029 ;;		Nothing
  5030 ;; This function is called by:
  5031 ;;		_USBDeviceTasks
  5032 ;; This function uses a non-reentrant model
  5033 ;;
  5034                           
  5035  09ED                     _USBStallHandler:	
  5036                           ;psect for function _USBStallHandler
  5037                           
  5038  09ED                     i1l3725:	
  5039                           ;incstack = 0
  5040                           ; Regs used in _USBStallHandler: [wreg+fsr1l+fsr1h+status,2+status,0]
  5041                           
  5042                           
  5043                           ;usb_device.c: 2221:     if(UEP0bits.EPSTALL == 1)
  5044  09ED  003D               	movlb	29	; select bank29
  5045  09EE  1C18               	btfss	24,0	;volatile
  5046  09EF  29F1               	goto	u235_21
  5047  09F0  29F2               	goto	u235_20
  5048  09F1                     u235_21:
  5049  09F1  2A15               	goto	i1l3735
  5050  09F2                     u235_20:
  5051  09F2                     i1l3727:
  5052                           
  5053                           ;usb_device.c: 2222:     {;usb_device.c: 2224:         if((pBDTEntryEP0OutCurrent->STAT.
      +                          Val == 0x80) && (pBDTEntryIn[0]->STAT.Val == (0x80|0x04)))
  5054  09F2  0021               	movlb	1	; select bank1
  5055  09F3  086E               	movf	_pBDTEntryEP0OutCurrent^(0+128),w
  5056  09F4  0086               	movwf	6
  5057  09F5  0187               	clrf	7
  5058  09F6  3080               	movlw	128
  5059  09F7  0601               	xorwf	1,w
  5060  09F8  1D03               	btfss	3,2
  5061  09F9  29FB               	goto	u236_21
  5062  09FA  29FC               	goto	u236_20
  5063  09FB                     u236_21:
  5064  09FB  2A13               	goto	i1l3733
  5065  09FC                     u236_20:
  5066  09FC                     i1l3729:
  5067  09FC  0020               	movlb	0	; select bank0
  5068  09FD  086A               	movf	_pBDTEntryIn,w
  5069  09FE  0086               	movwf	6
  5070  09FF  086B               	movf	_pBDTEntryIn+1,w
  5071  0A00  0087               	movwf	7
  5072  0A01  3084               	movlw	132
  5073  0A02  0601               	xorwf	1,w
  5074  0A03  1D03               	btfss	3,2
  5075  0A04  2A06               	goto	u237_21
  5076  0A05  2A07               	goto	u237_20
  5077  0A06                     u237_21:
  5078  0A06  2A13               	goto	i1l3733
  5079  0A07                     u237_20:
  5080  0A07                     i1l3731:
  5081                           
  5082                           ;usb_device.c: 2225:         {;usb_device.c: 2227:             pBDTEntryEP0OutCurrent->S
      +                          TAT.Val = 0x00|(0x08 & 0x08)|0x04;
  5083  0A07  300C               	movlw	12
  5084  0A08  00F0               	movwf	??_USBStallHandler
  5085  0A09  0021               	movlb	1	; select bank1
  5086  0A0A  086E               	movf	_pBDTEntryEP0OutCurrent^(0+128),w
  5087  0A0B  0086               	movwf	6
  5088  0A0C  0187               	clrf	7
  5089  0A0D  0870               	movf	??_USBStallHandler,w
  5090  0A0E  0081               	movwf	1
  5091                           
  5092                           ;usb_device.c: 2228:             pBDTEntryEP0OutCurrent->STAT.Val |= 0x80;
  5093  0A0F  086E               	movf	_pBDTEntryEP0OutCurrent^(0+128),w
  5094  0A10  0086               	movwf	6
  5095  0A11  0187               	clrf	7
  5096  0A12  1781               	bsf	1,7
  5097  0A13                     i1l3733:
  5098                           
  5099                           ;usb_device.c: 2230:         UEP0bits.EPSTALL = 0;
  5100  0A13  003D               	movlb	29	; select bank29
  5101  0A14  1018               	bcf	24,0	;volatile
  5102  0A15                     i1l3735:
  5103                           
  5104                           ;usb_device.c: 2233:     (UIR &= 0xDF);
  5105  0A15  30DF               	movlw	223
  5106  0A16  00F0               	movwf	??_USBStallHandler
  5107  0A17  0870               	movf	??_USBStallHandler,w
  5108  0A18  0590               	andwf	16,f	;volatile
  5109  0A19                     i1l410:
  5110  0A19  0008               	return
  5111  0A1A                     __end_of_USBStallHandler:
  5112                           
  5113                           	psect	text17
  5114  0834                     __ptext17:	
  5115 ;; *************** function _USBIncrement1msInternalTimers *****************
  5116 ;; Defined at:
  5117 ;;		line 2998 in file "usb_device.c"
  5118 ;; Parameters:    Size  Location     Type
  5119 ;;		None
  5120 ;; Auto vars:     Size  Location     Type
  5121 ;;		None
  5122 ;; Return value:  Size  Location     Type
  5123 ;;                  1    wreg      void 
  5124 ;; Registers used:
  5125 ;;		wreg, status,2, status,0
  5126 ;; Tracked objects:
  5127 ;;		On entry : 0/0
  5128 ;;		On exit  : 0/0
  5129 ;;		Unchanged: 0/0
  5130 ;; Data sizes:     COMMON   BANK0   BANK1   BANK2   BANK3   BANK4   BANK5   BANK6   BANK7   BANK8   BANK9  BANK10  BANK1
      +1  BANK12
  5131 ;;      Params:         0       0       0       0       0       0       0       0       0       0       0       0       
      +0       0
  5132 ;;      Locals:         0       0       0       0       0       0       0       0       0       0       0       0       
      +0       0
  5133 ;;      Temps:          1       0       0       0       0       0       0       0       0       0       0       0       
      +0       0
  5134 ;;      Totals:         1       0       0       0       0       0       0       0       0       0       0       0       
      +0       0
  5135 ;;Total ram usage:        1 bytes
  5136 ;; Hardware stack levels used: 1
  5137 ;; This function calls:
  5138 ;;		Nothing
  5139 ;; This function is called by:
  5140 ;;		_USBDeviceTasks
  5141 ;; This function uses a non-reentrant model
  5142 ;;
  5143                           
  5144  0834                     _USBIncrement1msInternalTimers:	
  5145                           ;psect for function _USBIncrement1msInternalTimers
  5146                           
  5147  0834                     i1l3717:	
  5148                           ;incstack = 0
  5149                           ; Regs used in _USBIncrement1msInternalTimers: [wreg+status,2+status,0]
  5150                           
  5151                           
  5152                           ;usb_device.c: 3006:     USB1msTickCount++;
  5153  0834  3001               	movlw	1
  5154  0835  0023               	movlb	3	; select bank3
  5155  0836  07A0               	addwf	_USB1msTickCount^(0+384),f	;volatile
  5156  0837  3000               	movlw	0
  5157  0838  3DA1               	addwfc	(_USB1msTickCount+1)^(0+384),f	;volatile
  5158  0839  3000               	movlw	0
  5159  083A  3DA2               	addwfc	(_USB1msTickCount+2)^(0+384),f	;volatile
  5160  083B  3000               	movlw	0
  5161  083C  3DA3               	addwfc	(_USB1msTickCount+3)^(0+384),f	;volatile
  5162  083D                     i1l3719:
  5163                           
  5164                           ;usb_device.c: 3007:     if(USBBusIsSuspended == 0)
  5165  083D  0835               	movf	_USBBusIsSuspended^(0+384),w	;volatile
  5166  083E  1D03               	btfss	3,2
  5167  083F  2841               	goto	u233_21
  5168  0840  2842               	goto	u233_20
  5169  0841                     u233_21:
  5170  0841  284F               	goto	i1l500
  5171  0842                     u233_20:
  5172  0842                     i1l3721:
  5173                           
  5174                           ;usb_device.c: 3008:     {;usb_device.c: 3009:         USBTicksSinceSuspendEnd++;
  5175  0842  3001               	movlw	1
  5176  0843  00F0               	movwf	??_USBIncrement1msInternalTimers
  5177  0844  0870               	movf	??_USBIncrement1msInternalTimers,w
  5178  0845  07AE               	addwf	_USBTicksSinceSuspendEnd^(0+384),f	;volatile
  5179                           
  5180                           ;usb_device.c: 3011:         if(USBTicksSinceSuspendEnd == 0)
  5181  0846  082E               	movf	_USBTicksSinceSuspendEnd^(0+384),w	;volatile
  5182  0847  1D03               	btfss	3,2
  5183  0848  284A               	goto	u234_21
  5184  0849  284B               	goto	u234_20
  5185  084A                     u234_21:
  5186  084A  284F               	goto	i1l500
  5187  084B                     u234_20:
  5188  084B                     i1l3723:
  5189                           
  5190                           ;usb_device.c: 3012:         {;usb_device.c: 3013:             USBTicksSinceSuspendEnd =
      +                           255;
  5191  084B  30FF               	movlw	255
  5192  084C  00F0               	movwf	??_USBIncrement1msInternalTimers
  5193  084D  0870               	movf	??_USBIncrement1msInternalTimers,w
  5194  084E  00AE               	movwf	_USBTicksSinceSuspendEnd^(0+384)	;volatile
  5195  084F                     i1l500:
  5196  084F  0008               	return
  5197  0850                     __end_of_USBIncrement1msInternalTimers:
  5198                           
  5199                           	psect	text18
  5200  0B54                     __ptext18:	
  5201 ;; *************** function _USBCtrlEPService *****************
  5202 ;; Defined at:
  5203 ;;		line 2379 in file "usb_device.c"
  5204 ;; Parameters:    Size  Location     Type
  5205 ;;		None
  5206 ;; Auto vars:     Size  Location     Type
  5207 ;;		None
  5208 ;; Return value:  Size  Location     Type
  5209 ;;                  1    wreg      void 
  5210 ;; Registers used:
  5211 ;;		wreg, fsr0l, fsr0h, fsr1l, fsr1h, status,2, status,0, pclath, cstack
  5212 ;; Tracked objects:
  5213 ;;		On entry : 0/0
  5214 ;;		On exit  : 0/0
  5215 ;;		Unchanged: 0/0
  5216 ;; Data sizes:     COMMON   BANK0   BANK1   BANK2   BANK3   BANK4   BANK5   BANK6   BANK7   BANK8   BANK9  BANK10  BANK1
      +1  BANK12
  5217 ;;      Params:         0       0       0       0       0       0       0       0       0       0       0       0       
      +0       0
  5218 ;;      Locals:         0       0       0       0       0       0       0       0       0       0       0       0       
      +0       0
  5219 ;;      Temps:          0       2       0       0       0       0       0       0       0       0       0       0       
      +0       0
  5220 ;;      Totals:         0       2       0       0       0       0       0       0       0       0       0       0       
      +0       0
  5221 ;;Total ram usage:        2 bytes
  5222 ;; Hardware stack levels used: 1
  5223 ;; Hardware stack levels required when called: 7
  5224 ;; This function calls:
  5225 ;;		_USBCtrlTrfInHandler
  5226 ;;		_USBCtrlTrfOutHandler
  5227 ;;		_USBCtrlTrfSetupHandler
  5228 ;;		_memcpy
  5229 ;; This function is called by:
  5230 ;;		_USBDeviceTasks
  5231 ;; This function uses a non-reentrant model
  5232 ;;
  5233                           
  5234  0B54                     _USBCtrlEPService:	
  5235                           ;psect for function _USBCtrlEPService
  5236                           
  5237  0B54                     i1l4637:	
  5238                           ;incstack = 0
  5239                           ; Regs used in _USBCtrlEPService: [wreg-fsr1h+status,2+status,0+pclath+cstack]
  5240                           
  5241                           
  5242                           ;usb_device.c: 2385:         USBStatusStageTimeoutCounter = (uint8_t)45;
  5243  0B54  302D               	movlw	45
  5244  0B55  0020               	movlb	0	; select bank0
  5245  0B56  00E0               	movwf	??_USBCtrlEPService
  5246  0B57  0860               	movf	??_USBCtrlEPService,w
  5247  0B58  0023               	movlb	3	; select bank3
  5248  0B59  00B3               	movwf	_USBStatusStageTimeoutCounter^(0+384)	;volatile
  5249  0B5A                     i1l4639:
  5250                           
  5251                           ;usb_device.c: 2389:     if((USTATcopy.Val & ~0x02) == 0x00)
  5252  0B5A  0022               	movlb	2	; select bank2
  5253  0B5B  086D               	movf	_USTATcopy^(0+256),w	;volatile
  5254  0B5C  39FD               	andlw	253
  5255  0B5D  1D03               	btfss	3,2
  5256  0B5E  2B60               	goto	u302_21
  5257  0B5F  2B61               	goto	u302_20
  5258  0B60                     u302_21:
  5259  0B60  2BA1               	goto	i1l4655
  5260  0B61                     u302_20:
  5261  0B61                     i1l4641:
  5262                           
  5263                           ;usb_device.c: 2390:     {;usb_device.c: 2393:             pBDTEntryEP0OutCurrent = (vol
      +                          atile BDT_ENTRY*)&BDT[(USTATcopy.Val & 0x7E)>>1];
  5264  0B61  366D               	lsrf	_USTATcopy^(0+256),w	;volatile
  5265  0B62  393F               	andlw	63
  5266  0B63  0020               	movlb	0	; select bank0
  5267  0B64  00E0               	movwf	??_USBCtrlEPService
  5268  0B65  3001               	movlw	1
  5269  0B66                     u303_25:
  5270  0B66  35E0               	lslf	??_USBCtrlEPService,f
  5271  0B67  3EFF               	addlw	-1
  5272  0B68  1D03               	skipz
  5273  0B69  2B66               	goto	u303_25
  5274  0B6A  3560               	lslf	??_USBCtrlEPService,w
  5275  0B6B  3E20               	addlw	32
  5276  0B6C  00E1               	movwf	??_USBCtrlEPService+1
  5277  0B6D  0861               	movf	??_USBCtrlEPService+1,w
  5278  0B6E  0021               	movlb	1	; select bank1
  5279  0B6F  00EE               	movwf	_pBDTEntryEP0OutCurrent^(0+128)
  5280  0B70                     i1l4643:
  5281                           
  5282                           ;usb_device.c: 2401:         pBDTEntryEP0OutNext = pBDTEntryEP0OutCurrent;
  5283  0B70  086E               	movf	_pBDTEntryEP0OutCurrent^(0+128),w
  5284  0B71  0020               	movlb	0	; select bank0
  5285  0B72  00EE               	movwf	_pBDTEntryEP0OutNext
  5286  0B73  39FF               	andlw	255
  5287  0B74  1D03               	skipz
  5288  0B75  3000               	movlw	0
  5289  0B76  00EF               	movwf	_pBDTEntryEP0OutNext+1
  5290  0B77                     i1l4645:
  5291                           
  5292                           ;usb_device.c: 2403:         pBDTEntryEP0OutNext = (volatile BDT_ENTRY*)(((uint16_t)pBDT
      +                          EntryEP0OutNext) ^ 0x0004);
  5293  0B77  3004               	movlw	4
  5294  0B78  066E               	xorwf	_pBDTEntryEP0OutNext,w
  5295  0B79  00EE               	movwf	_pBDTEntryEP0OutNext
  5296  0B7A  3000               	movlw	0
  5297  0B7B  066F               	xorwf	_pBDTEntryEP0OutNext+1,w
  5298  0B7C  00EF               	movwf	_pBDTEntryEP0OutNext+1
  5299  0B7D                     i1l4647:
  5300                           
  5301                           ;usb_device.c: 2406:         if(pBDTEntryEP0OutCurrent->STAT.PID == 0xD)
  5302  0B7D  0021               	movlb	1	; select bank1
  5303  0B7E  086E               	movf	_pBDTEntryEP0OutCurrent^(0+128),w
  5304  0B7F  0086               	movwf	6
  5305  0B80  0187               	clrf	7
  5306  0B81  0C01               	rrf	1,w
  5307  0B82  0C89               	rrf	9,f
  5308  0B83  390F               	andlw	15
  5309  0B84  3A0D               	xorlw	13
  5310  0B85  1D03               	skipz
  5311  0B86  2B88               	goto	u304_21
  5312  0B87  2B89               	goto	u304_20
  5313  0B88                     u304_21:
  5314  0B88  2B9D               	goto	i1l4653
  5315  0B89                     u304_20:
  5316  0B89                     i1l4649:
  5317                           
  5318                           ;usb_device.c: 2407:         {;usb_device.c: 2412:             memcpy((uint8_t*)&SetupPk
      +                          t, (uint8_t*)((void *)(pBDTEntryEP0OutCurrent->ADR)), 8);
  5319  0B89  086E               	movf	_pBDTEntryEP0OutCurrent^(0+128),w
  5320  0B8A  3E02               	addlw	2
  5321  0B8B  0086               	movwf	6
  5322  0B8C  0187               	clrf	7
  5323  0B8D  3F40               	moviw [0]fsr1
  5324  0B8E  00F0               	movwf	memcpy@s1
  5325  0B8F  3F41               	moviw [1]fsr1
  5326  0B90  00F1               	movwf	memcpy@s1+1
  5327  0B91  3008               	movlw	8
  5328  0B92  00F2               	movwf	memcpy@n
  5329  0B93  3000               	movlw	0
  5330  0B94  00F3               	movwf	memcpy@n+1
  5331  0B95  3040               	movlw	64
  5332  0B96  318A  221A  318B   	fcall	_memcpy
  5333  0B99                     i1l4651:
  5334                           
  5335                           ;usb_device.c: 2415:             USBCtrlTrfSetupHandler();
  5336  0B99  318B  2309  318B   	fcall	_USBCtrlTrfSetupHandler
  5337                           
  5338                           ;usb_device.c: 2416:         }
  5339  0B9C  2BAE               	goto	i1l427
  5340  0B9D                     i1l4653:
  5341                           
  5342                           ;usb_device.c: 2418:         {;usb_device.c: 2420:             USBCtrlTrfOutHandler();
  5343  0B9D  318A  2248  318B   	fcall	_USBCtrlTrfOutHandler
  5344  0BA0  2BAE               	goto	i1l427
  5345  0BA1                     i1l4655:
  5346  0BA1  30FD               	movlw	253
  5347  0BA2  056D               	andwf	_USTATcopy^(0+256),w	;volatile
  5348  0BA3  0020               	movlb	0	; select bank0
  5349  0BA4  00E0               	movwf	??_USBCtrlEPService
  5350  0BA5  3004               	movlw	4
  5351  0BA6  0660               	xorwf	??_USBCtrlEPService,w
  5352  0BA7  1D03               	btfss	3,2
  5353  0BA8  2BAA               	goto	u305_21
  5354  0BA9  2BAB               	goto	u305_20
  5355  0BAA                     u305_21:
  5356  0BAA  2BAE               	goto	i1l427
  5357  0BAB                     u305_20:
  5358  0BAB                     i1l4657:
  5359                           
  5360                           ;usb_device.c: 2424:     {;usb_device.c: 2427:         USBCtrlTrfInHandler();
  5361  0BAB  318C  24EF  318B   	fcall	_USBCtrlTrfInHandler
  5362  0BAE                     i1l427:
  5363  0BAE  0008               	return
  5364  0BAF                     __end_of_USBCtrlEPService:
  5365                           
  5366                           	psect	text19
  5367  0A1A                     __ptext19:	
  5368 ;; *************** function _memcpy *****************
  5369 ;; Defined at:
  5370 ;;		line 4 in file "C:\Program Files\Microchip\xc8\v2.35\pic\sources\c99\common\memcpy.c"
  5371 ;; Parameters:    Size  Location     Type
  5372 ;;  d1              1    wreg     PTR void 
  5373 ;;		 -> SetupPkt(8), 
  5374 ;;  s1              2    0[COMMON] PTR const void 
  5375 ;;		 -> CtrlTrfData(8), RAM(4096), SetupPkt(8), 
  5376 ;;  n               2    2[COMMON] unsigned int 
  5377 ;; Auto vars:     Size  Location     Type
  5378 ;;  d1              1    8[COMMON] PTR void 
  5379 ;;		 -> SetupPkt(8), 
  5380 ;;  s               2    5[COMMON] PTR const unsigned char 
  5381 ;;		 -> CtrlTrfData(8), RAM(4096), SetupPkt(8), 
  5382 ;;  d               1    9[COMMON] PTR unsigned char 
  5383 ;;		 -> SetupPkt(8), 
  5384 ;;  tmp             1    7[COMMON] unsigned char 
  5385 ;; Return value:  Size  Location     Type
  5386 ;;                  1    wreg      PTR void 
  5387 ;; Registers used:
  5388 ;;		wreg, fsr1l, fsr1h, status,2, status,0
  5389 ;; Tracked objects:
  5390 ;;		On entry : 0/0
  5391 ;;		On exit  : 0/0
  5392 ;;		Unchanged: 0/0
  5393 ;; Data sizes:     COMMON   BANK0   BANK1   BANK2   BANK3   BANK4   BANK5   BANK6   BANK7   BANK8   BANK9  BANK10  BANK1
      +1  BANK12
  5394 ;;      Params:         4       0       0       0       0       0       0       0       0       0       0       0       
      +0       0
  5395 ;;      Locals:         5       0       0       0       0       0       0       0       0       0       0       0       
      +0       0
  5396 ;;      Temps:          1       0       0       0       0       0       0       0       0       0       0       0       
      +0       0
  5397 ;;      Totals:        10       0       0       0       0       0       0       0       0       0       0       0       
      +0       0
  5398 ;;Total ram usage:       10 bytes
  5399 ;; Hardware stack levels used: 1
  5400 ;; This function calls:
  5401 ;;		Nothing
  5402 ;; This function is called by:
  5403 ;;		_USBCtrlEPService
  5404 ;; This function uses a non-reentrant model
  5405 ;;
  5406                           
  5407  0A1A                     _memcpy:	
  5408                           ;psect for function _memcpy
  5409                           
  5410                           
  5411                           ;incstack = 0
  5412                           ; Regs used in _memcpy: [wreg+fsr1l+fsr1h+status,2+status,0]
  5413                           ;memcpy@d1 stored from wreg
  5414  0A1A  00F8               	movwf	memcpy@d1
  5415  0A1B                     i1l3527:
  5416  0A1B  0871               	movf	memcpy@s1+1,w
  5417  0A1C  00F6               	movwf	memcpy@s+1
  5418  0A1D  0870               	movf	memcpy@s1,w
  5419  0A1E  00F5               	movwf	memcpy@s
  5420  0A1F  0878               	movf	memcpy@d1,w
  5421  0A20  00F4               	movwf	??_memcpy
  5422  0A21  0874               	movf	??_memcpy,w
  5423  0A22  00F9               	movwf	memcpy@d
  5424  0A23  2A3B               	goto	i1l3537
  5425  0A24                     i1l3529:
  5426  0A24  0875               	movf	memcpy@s,w
  5427  0A25  0086               	movwf	6
  5428  0A26  0876               	movf	memcpy@s+1,w
  5429  0A27  0087               	movwf	7
  5430  0A28  0801               	movf	1,w
  5431  0A29  00F4               	movwf	??_memcpy
  5432  0A2A  0874               	movf	??_memcpy,w
  5433  0A2B  00F7               	movwf	memcpy@tmp
  5434  0A2C                     i1l3531:
  5435  0A2C  3001               	movlw	1
  5436  0A2D  07F5               	addwf	memcpy@s,f
  5437  0A2E  3000               	movlw	0
  5438  0A2F  3DF6               	addwfc	memcpy@s+1,f
  5439  0A30                     i1l3533:
  5440  0A30  0877               	movf	memcpy@tmp,w
  5441  0A31  00F4               	movwf	??_memcpy
  5442  0A32  0879               	movf	memcpy@d,w
  5443  0A33  0086               	movwf	6
  5444  0A34  0187               	clrf	7
  5445  0A35  0874               	movf	??_memcpy,w
  5446  0A36  0081               	movwf	1
  5447  0A37                     i1l3535:
  5448  0A37  3001               	movlw	1
  5449  0A38  00F4               	movwf	??_memcpy
  5450  0A39  0874               	movf	??_memcpy,w
  5451  0A3A  07F9               	addwf	memcpy@d,f
  5452  0A3B                     i1l3537:
  5453  0A3B  3001               	movlw	1
  5454  0A3C  02F2               	subwf	memcpy@n,f
  5455  0A3D  3000               	movlw	0
  5456  0A3E  3BF3               	subwfb	memcpy@n+1,f
  5457  0A3F  0A72               	incf	memcpy@n,w
  5458  0A40  1D03               	skipz
  5459  0A41  2A46               	goto	u218_21
  5460  0A42  0A73               	incf	memcpy@n+1,w
  5461  0A43  1D03               	btfss	3,2
  5462  0A44  2A46               	goto	u218_21
  5463  0A45  2A47               	goto	u218_20
  5464  0A46                     u218_21:
  5465  0A46  2A24               	goto	i1l3529
  5466  0A47                     u218_20:
  5467  0A47                     i1l1135:
  5468  0A47  0008               	return
  5469  0A48                     __end_of_memcpy:
  5470                           
  5471                           	psect	text20
  5472  0B09                     __ptext20:	
  5473 ;; *************** function _USBCtrlTrfSetupHandler *****************
  5474 ;; Defined at:
  5475 ;;		line 2472 in file "usb_device.c"
  5476 ;; Parameters:    Size  Location     Type
  5477 ;;		None
  5478 ;; Auto vars:     Size  Location     Type
  5479 ;;		None
  5480 ;; Return value:  Size  Location     Type
  5481 ;;                  1    wreg      void 
  5482 ;; Registers used:
  5483 ;;		wreg, fsr0l, fsr0h, fsr1l, fsr1h, status,2, status,0, pclath, cstack
  5484 ;; Tracked objects:
  5485 ;;		On entry : 0/0
  5486 ;;		On exit  : 0/0
  5487 ;;		Unchanged: 0/0
  5488 ;; Data sizes:     COMMON   BANK0   BANK1   BANK2   BANK3   BANK4   BANK5   BANK6   BANK7   BANK8   BANK9  BANK10  BANK1
      +1  BANK12
  5489 ;;      Params:         0       0       0       0       0       0       0       0       0       0       0       0       
      +0       0
  5490 ;;      Locals:         0       0       0       0       0       0       0       0       0       0       0       0       
      +0       0
  5491 ;;      Temps:          0       1       0       0       0       0       0       0       0       0       0       0       
      +0       0
  5492 ;;      Totals:         0       1       0       0       0       0       0       0       0       0       0       0       
      +0       0
  5493 ;;Total ram usage:        1 bytes
  5494 ;; Hardware stack levels used: 1
  5495 ;; Hardware stack levels required when called: 6
  5496 ;; This function calls:
  5497 ;;		_USBCheckStdRequest
  5498 ;;		_USBCtrlEPServiceComplete
  5499 ;;		_USER_USB_CALLBACK_EVENT_HANDLER
  5500 ;; This function is called by:
  5501 ;;		_USBCtrlEPService
  5502 ;; This function uses a non-reentrant model
  5503 ;;
  5504                           
  5505  0B09                     _USBCtrlTrfSetupHandler:	
  5506                           ;psect for function _USBCtrlTrfSetupHandler
  5507                           
  5508  0B09                     i1l4611:	
  5509                           ;incstack = 0
  5510                           ; Regs used in _USBCtrlTrfSetupHandler: [wreg-fsr1h+status,2+status,0+pclath+cstack]
  5511                           
  5512                           
  5513                           ;usb_device.c: 2477:     shortPacketStatus = 0;
  5514  0B09  0022               	movlb	2	; select bank2
  5515  0B0A  01EC               	clrf	_shortPacketStatus^(0+256)	;volatile
  5516                           
  5517                           ;usb_device.c: 2478:     USBDeferStatusStagePacket = 0;
  5518  0B0B  01E9               	clrf	_USBDeferStatusStagePacket^(0+256)	;volatile
  5519                           
  5520                           ;usb_device.c: 2479:     USBDeferINDataStagePackets = 0;
  5521  0B0C  0023               	movlb	3	; select bank3
  5522  0B0D  01B0               	clrf	_USBDeferINDataStagePackets^(0+384)	;volatile
  5523                           
  5524                           ;usb_device.c: 2480:     USBDeferOUTDataStagePackets = 0;
  5525  0B0E  01AF               	clrf	_USBDeferOUTDataStagePackets^(0+384)	;volatile
  5526                           
  5527                           ;usb_device.c: 2481:     BothEP0OutUOWNsSet = 0;
  5528  0B0F  01B4               	clrf	_BothEP0OutUOWNsSet^(0+384)	;volatile
  5529                           
  5530                           ;usb_device.c: 2482:     controlTransferState = 0;
  5531  0B10  0022               	movlb	2	; select bank2
  5532  0B11  01EB               	clrf	_controlTransferState^(0+256)	;volatile
  5533  0B12                     i1l4613:
  5534                           
  5535                           ;usb_device.c: 2491:     pBDTEntryIn[0]->STAT.Val &= ~(0x80);
  5536  0B12  307F               	movlw	127
  5537  0B13  0020               	movlb	0	; select bank0
  5538  0B14  00DF               	movwf	??_USBCtrlTrfSetupHandler
  5539  0B15  086A               	movf	_pBDTEntryIn,w
  5540  0B16  0086               	movwf	6
  5541  0B17  086B               	movf	_pBDTEntryIn+1,w
  5542  0B18  0087               	movwf	7
  5543  0B19  085F               	movf	??_USBCtrlTrfSetupHandler,w
  5544  0B1A  0581               	andwf	1,f
  5545  0B1B                     i1l4615:
  5546                           
  5547                           ;usb_device.c: 2493:     pBDTEntryIn[0] = (volatile BDT_ENTRY*)(((uint16_t)pBDTEntryIn[0
      +                          ]) ^ 0x0004);
  5548  0B1B  3004               	movlw	4
  5549  0B1C  066A               	xorwf	_pBDTEntryIn,w
  5550  0B1D  00EA               	movwf	_pBDTEntryIn
  5551  0B1E  3000               	movlw	0
  5552  0B1F  066B               	xorwf	_pBDTEntryIn+1,w
  5553  0B20  00EB               	movwf	_pBDTEntryIn+1
  5554  0B21                     i1l4617:
  5555                           
  5556                           ;usb_device.c: 2494:     pBDTEntryIn[0]->STAT.Val &= ~(0x80);
  5557  0B21  307F               	movlw	127
  5558  0B22  00DF               	movwf	??_USBCtrlTrfSetupHandler
  5559  0B23  086A               	movf	_pBDTEntryIn,w
  5560  0B24  0086               	movwf	6
  5561  0B25  086B               	movf	_pBDTEntryIn+1,w
  5562  0B26  0087               	movwf	7
  5563  0B27  085F               	movf	??_USBCtrlTrfSetupHandler,w
  5564  0B28  0581               	andwf	1,f
  5565  0B29                     i1l4619:
  5566                           
  5567                           ;usb_device.c: 2495:     pBDTEntryIn[0] = (volatile BDT_ENTRY*)(((uint16_t)pBDTEntryIn[0
      +                          ]) ^ 0x0004);
  5568  0B29  3004               	movlw	4
  5569  0B2A  066A               	xorwf	_pBDTEntryIn,w
  5570  0B2B  00EA               	movwf	_pBDTEntryIn
  5571  0B2C  3000               	movlw	0
  5572  0B2D  066B               	xorwf	_pBDTEntryIn+1,w
  5573  0B2E  00EB               	movwf	_pBDTEntryIn+1
  5574  0B2F                     i1l4621:
  5575                           
  5576                           ;usb_device.c: 2496:     pBDTEntryEP0OutNext->STAT.Val &= ~(0x80);
  5577  0B2F  307F               	movlw	127
  5578  0B30  00DF               	movwf	??_USBCtrlTrfSetupHandler
  5579  0B31  086E               	movf	_pBDTEntryEP0OutNext,w
  5580  0B32  0086               	movwf	6
  5581  0B33  086F               	movf	_pBDTEntryEP0OutNext+1,w
  5582  0B34  0087               	movwf	7
  5583  0B35  085F               	movf	??_USBCtrlTrfSetupHandler,w
  5584  0B36  0581               	andwf	1,f
  5585  0B37                     i1l4623:
  5586                           
  5587                           ;usb_device.c: 2498:     inPipes[0].info.Val = 0;
  5588  0B37  01E7               	clrf	_inPipes+2	;volatile
  5589  0B38                     i1l4625:
  5590                           
  5591                           ;usb_device.c: 2499:     inPipes[0].wCount.Val = 0;
  5592  0B38  01E8               	clrf	_inPipes+3	;volatile
  5593  0B39  01E9               	clrf	_inPipes+4	;volatile
  5594  0B3A                     i1l4627:
  5595                           
  5596                           ;usb_device.c: 2500:     outPipes[0].info.Val = 0;
  5597  0B3A  0022               	movlb	2	; select bank2
  5598  0B3B  01E2               	clrf	(_outPipes^(0+256)+2)	;volatile
  5599  0B3C                     i1l4629:
  5600                           
  5601                           ;usb_device.c: 2501:     outPipes[0].wCount.Val = 0;
  5602  0B3C  01E3               	clrf	(_outPipes^(0+256)+3)	;volatile
  5603  0B3D  01E4               	clrf	((_outPipes+1)^(0+256)+3)	;volatile
  5604  0B3E                     i1l4631:
  5605                           
  5606                           ;usb_device.c: 2507:     USBCheckStdRequest();
  5607  0B3E  318D  256D  318B   	fcall	_USBCheckStdRequest
  5608  0B41                     i1l4633:
  5609                           
  5610                           ;usb_device.c: 2508:     USER_USB_CALLBACK_EVENT_HANDLER((USB_EVENT)EVENT_EP0_REQUEST,0,
      +                          0);
  5611  0B41  3003               	movlw	3
  5612  0B42  0020               	movlb	0	; select bank0
  5613  0B43  00D0               	movwf	USER_USB_CALLBACK_EVENT_HANDLER@event
  5614  0B44  3000               	movlw	0
  5615  0B45  00D1               	movwf	USER_USB_CALLBACK_EVENT_HANDLER@event+1
  5616  0B46  3000               	movlw	0
  5617  0B47  00D2               	movwf	USER_USB_CALLBACK_EVENT_HANDLER@pdata
  5618  0B48  3000               	movlw	0
  5619  0B49  00D3               	movwf	USER_USB_CALLBACK_EVENT_HANDLER@pdata+1
  5620  0B4A  3000               	movlw	0
  5621  0B4B  00D4               	movwf	USER_USB_CALLBACK_EVENT_HANDLER@size
  5622  0B4C  00D5               	movwf	USER_USB_CALLBACK_EVENT_HANDLER@size+1
  5623  0B4D  318A  22C5  318B   	fcall	_USER_USB_CALLBACK_EVENT_HANDLER
  5624  0B50                     i1l4635:
  5625                           
  5626                           ;usb_device.c: 2521:     USBCtrlEPServiceComplete();
  5627  0B50  3186  2626  318B   	fcall	_USBCtrlEPServiceComplete
  5628  0B53                     i1l430:
  5629  0B53  0008               	return
  5630  0B54                     __end_of_USBCtrlTrfSetupHandler:
  5631                           
  5632                           	psect	text21
  5633  0626                     __ptext21:	
  5634 ;; *************** function _USBCtrlEPServiceComplete *****************
  5635 ;; Defined at:
  5636 ;;		line 1620 in file "usb_device.c"
  5637 ;; Parameters:    Size  Location     Type
  5638 ;;		None
  5639 ;; Auto vars:     Size  Location     Type
  5640 ;;		None
  5641 ;; Return value:  Size  Location     Type
  5642 ;;                  1    wreg      void 
  5643 ;; Registers used:
  5644 ;;		wreg, fsr0l, fsr0h, fsr1l, fsr1h, status,2, status,0, pclath, cstack
  5645 ;; Tracked objects:
  5646 ;;		On entry : 0/0
  5647 ;;		On exit  : 0/0
  5648 ;;		Unchanged: 0/0
  5649 ;; Data sizes:     COMMON   BANK0   BANK1   BANK2   BANK3   BANK4   BANK5   BANK6   BANK7   BANK8   BANK9  BANK10  BANK1
      +1  BANK12
  5650 ;;      Params:         0       0       0       0       0       0       0       0       0       0       0       0       
      +0       0
  5651 ;;      Locals:         0       0       0       0       0       0       0       0       0       0       0       0       
      +0       0
  5652 ;;      Temps:          2       0       0       0       0       0       0       0       0       0       0       0       
      +0       0
  5653 ;;      Totals:         2       0       0       0       0       0       0       0       0       0       0       0       
      +0       0
  5654 ;;Total ram usage:        2 bytes
  5655 ;; Hardware stack levels used: 1
  5656 ;; Hardware stack levels required when called: 2
  5657 ;; This function calls:
  5658 ;;		_USBCtrlEPAllowDataStage
  5659 ;;		_USBCtrlEPAllowStatusStage
  5660 ;; This function is called by:
  5661 ;;		_USBCtrlTrfSetupHandler
  5662 ;; This function uses a non-reentrant model
  5663 ;;
  5664                           
  5665  0626                     _USBCtrlEPServiceComplete:	
  5666                           ;psect for function _USBCtrlEPServiceComplete
  5667                           
  5668  0626                     i1l3387:	
  5669                           ;incstack = 0
  5670                           ; Regs used in _USBCtrlEPServiceComplete: [wreg-fsr1h+status,2+status,0+pclath+cstack]
  5671                           
  5672                           
  5673                           ;usb_device.c: 1626:     UCONbits.PKTDIS = 0;
  5674  0626  003D               	movlb	29	; select bank29
  5675  0627  120E               	bcf	14,4	;volatile
  5676                           
  5677                           ;usb_device.c: 1632:     if(inPipes[0].info.bits.busy == 0)
  5678  0628  0020               	movlb	0	; select bank0
  5679  0629  1BE7               	btfsc	_inPipes+2,7	;volatile
  5680  062A  2E2C               	goto	u205_21
  5681  062B  2E2D               	goto	u205_20
  5682  062C                     u205_21:
  5683  062C  2E74               	goto	i1l329
  5684  062D                     u205_20:
  5685  062D                     i1l3389:
  5686                           
  5687                           ;usb_device.c: 1633:     {;usb_device.c: 1634:         if(outPipes[0].info.bits.busy == 
      +                          1)
  5688  062D  0022               	movlb	2	; select bank2
  5689  062E  1FE2               	btfss	(_outPipes^(0+256)+2),7	;volatile
  5690  062F  2E31               	goto	u206_21
  5691  0630  2E32               	goto	u206_20
  5692  0631                     u206_21:
  5693  0631  2E43               	goto	i1l3401
  5694  0632                     u206_20:
  5695  0632                     i1l3391:
  5696                           
  5697                           ;usb_device.c: 1635:         {;usb_device.c: 1636:             controlTransferState = 2;
  5698  0632  3002               	movlw	2
  5699  0633  00F5               	movwf	??_USBCtrlEPServiceComplete
  5700  0634  0875               	movf	??_USBCtrlEPServiceComplete,w
  5701  0635  00EB               	movwf	_controlTransferState^(0+256)	;volatile
  5702  0636                     i1l3393:
  5703                           
  5704                           ;usb_device.c: 1647:             if(USBDeferOUTDataStagePackets == 0)
  5705  0636  0023               	movlb	3	; select bank3
  5706  0637  082F               	movf	_USBDeferOUTDataStagePackets^(0+384),w	;volatile
  5707  0638  1D03               	btfss	3,2
  5708  0639  2E3B               	goto	u207_21
  5709  063A  2E3C               	goto	u207_20
  5710  063B                     u207_21:
  5711  063B  2E3F               	goto	i1l3397
  5712  063C                     u207_20:
  5713  063C                     i1l3395:
  5714                           
  5715                           ;usb_device.c: 1648:             {;usb_device.c: 1649:                 USBCtrlEPAllowDat
      +                          aStage();
  5716  063C  318B  23AF  3186   	fcall	_USBCtrlEPAllowDataStage
  5717  063F                     i1l3397:
  5718                           
  5719                           ;usb_device.c: 1654:             USBStatusStageEnabledFlag2 = 0;
  5720  063F  0023               	movlb	3	; select bank3
  5721  0640  01B1               	clrf	_USBStatusStageEnabledFlag2^(0+384)	;volatile
  5722  0641                     i1l3399:
  5723                           
  5724                           ;usb_device.c: 1655:             USBStatusStageEnabledFlag1 = 0;
  5725  0641  01B2               	clrf	_USBStatusStageEnabledFlag1^(0+384)	;volatile
  5726                           
  5727                           ;usb_device.c: 1656:         }
  5728  0642  2EC7               	goto	i1l339
  5729  0643                     i1l3401:
  5730                           
  5731                           ;usb_device.c: 1658:         {;usb_device.c: 1663:             pBDTEntryEP0OutNext->CNT 
      +                          = 8;
  5732  0643  0020               	movlb	0	; select bank0
  5733  0644  086E               	movf	_pBDTEntryEP0OutNext,w
  5734  0645  3E01               	addlw	1
  5735  0646  00F5               	movwf	??_USBCtrlEPServiceComplete
  5736  0647  3000               	movlw	0
  5737  0648  3D6F               	addwfc	_pBDTEntryEP0OutNext+1,w
  5738  0649  00F6               	movwf	??_USBCtrlEPServiceComplete+1
  5739  064A  0875               	movf	??_USBCtrlEPServiceComplete,w
  5740  064B  0086               	movwf	6
  5741  064C  0876               	movf	??_USBCtrlEPServiceComplete+1,w
  5742  064D  0087               	movwf	7
  5743  064E  3008               	movlw	8
  5744  064F  0081               	movwf	1
  5745  0650                     i1l3403:
  5746                           
  5747                           ;usb_device.c: 1664:             pBDTEntryEP0OutNext->ADR = (((uint16_t)(&SetupPkt)) & 0
      +                          x7FFF);
  5748  0650  3040               	movlw	64
  5749  0651  00F5               	movwf	??_USBCtrlEPServiceComplete
  5750  0652  3000               	movlw	0
  5751  0653  00F6               	movwf	??_USBCtrlEPServiceComplete+1
  5752  0654  086E               	movf	_pBDTEntryEP0OutNext,w
  5753  0655  0086               	movwf	6
  5754  0656  086F               	movf	_pBDTEntryEP0OutNext+1,w
  5755  0657  0087               	movwf	7
  5756  0658  3142               	addfsr 1,2
  5757  0659  0875               	movf	??_USBCtrlEPServiceComplete,w
  5758  065A  3FC0               	movwi [0]fsr1
  5759  065B  0876               	movf	??_USBCtrlEPServiceComplete+1,w
  5760  065C  3FC1               	movwi [1]fsr1
  5761  065D                     i1l3405:
  5762                           
  5763                           ;usb_device.c: 1665:             pBDTEntryEP0OutNext->STAT.Val = 0x00|(0x08 & 0x08)|0x04
      +                          ;
  5764  065D  086E               	movf	_pBDTEntryEP0OutNext,w
  5765  065E  0086               	movwf	6
  5766  065F  086F               	movf	_pBDTEntryEP0OutNext+1,w
  5767  0660  0087               	movwf	7
  5768  0661  300C               	movlw	12
  5769  0662  0081               	movwf	1
  5770  0663                     i1l3407:
  5771                           
  5772                           ;usb_device.c: 1666:             pBDTEntryEP0OutNext->STAT.Val |= 0x80;
  5773  0663  086E               	movf	_pBDTEntryEP0OutNext,w
  5774  0664  0086               	movwf	6
  5775  0665  086F               	movf	_pBDTEntryEP0OutNext+1,w
  5776  0666  0087               	movwf	7
  5777  0667  1781               	bsf	1,7
  5778  0668                     i1l3409:
  5779                           
  5780                           ;usb_device.c: 1667:             pBDTEntryIn[0]->STAT.Val = 0x04;
  5781  0668  086A               	movf	_pBDTEntryIn,w
  5782  0669  0086               	movwf	6
  5783  066A  086B               	movf	_pBDTEntryIn+1,w
  5784  066B  0087               	movwf	7
  5785  066C  3004               	movlw	4
  5786  066D  0081               	movwf	1
  5787  066E                     i1l3411:
  5788                           
  5789                           ;usb_device.c: 1668:             pBDTEntryIn[0]->STAT.Val |= 0x80;
  5790  066E  086A               	movf	_pBDTEntryIn,w
  5791  066F  0086               	movwf	6
  5792  0670  086B               	movf	_pBDTEntryIn+1,w
  5793  0671  0087               	movwf	7
  5794  0672  1781               	bsf	1,7
  5795  0673  2EC7               	goto	i1l339
  5796  0674                     i1l329:	
  5797                           ;usb_device.c: 1671:     else
  5798                           
  5799                           
  5800                           ;usb_device.c: 1672:     {;usb_device.c: 1673:   if(SetupPkt.DataDir == (0x80>>7))
  5801  0674  1FC0               	btfss	64,7	;volatile
  5802  0675  2E77               	goto	u208_21
  5803  0676  2E78               	goto	u208_20
  5804  0677                     u208_21:
  5805  0677  2E93               	goto	i1l3427
  5806  0678                     u208_20:
  5807  0678                     i1l3413:
  5808                           
  5809                           ;usb_device.c: 1674:   {;usb_device.c: 1675:    controlTransferState = 1;
  5810  0678  3001               	movlw	1
  5811  0679  00F5               	movwf	??_USBCtrlEPServiceComplete
  5812  067A  0875               	movf	??_USBCtrlEPServiceComplete,w
  5813  067B  0022               	movlb	2	; select bank2
  5814  067C  00EB               	movwf	_controlTransferState^(0+256)	;volatile
  5815  067D                     i1l3415:
  5816                           
  5817                           ;usb_device.c: 1689:    if(USBDeferINDataStagePackets == 0)
  5818  067D  0023               	movlb	3	; select bank3
  5819  067E  0830               	movf	_USBDeferINDataStagePackets^(0+384),w	;volatile
  5820  067F  1D03               	btfss	3,2
  5821  0680  2E82               	goto	u209_21
  5822  0681  2E83               	goto	u209_20
  5823  0682                     u209_21:
  5824  0682  2E86               	goto	i1l3419
  5825  0683                     u209_20:
  5826  0683                     i1l3417:
  5827                           
  5828                           ;usb_device.c: 1690:             {;usb_device.c: 1691:                 USBCtrlEPAllowDat
      +                          aStage();
  5829  0683  318B  23AF  3186   	fcall	_USBCtrlEPAllowDataStage
  5830  0686                     i1l3419:
  5831                           
  5832                           ;usb_device.c: 1714:             USBStatusStageEnabledFlag2 = 0;
  5833  0686  0023               	movlb	3	; select bank3
  5834  0687  01B1               	clrf	_USBStatusStageEnabledFlag2^(0+384)	;volatile
  5835  0688                     i1l3421:
  5836                           
  5837                           ;usb_device.c: 1715:             USBStatusStageEnabledFlag1 = 0;
  5838  0688  01B2               	clrf	_USBStatusStageEnabledFlag1^(0+384)	;volatile
  5839  0689                     i1l3423:
  5840                           
  5841                           ;usb_device.c: 1716:             if(USBDeferStatusStagePacket == 0)
  5842  0689  0022               	movlb	2	; select bank2
  5843  068A  0869               	movf	_USBDeferStatusStagePacket^(0+256),w	;volatile
  5844  068B  1D03               	btfss	3,2
  5845  068C  2E8E               	goto	u210_21
  5846  068D  2E8F               	goto	u210_20
  5847  068E                     u210_21:
  5848  068E  2EC7               	goto	i1l339
  5849  068F                     u210_20:
  5850  068F                     i1l3425:
  5851                           
  5852                           ;usb_device.c: 1717:             {;usb_device.c: 1718:                 USBCtrlEPAllowSta
      +                          tusStage();
  5853  068F  318C  2475  3186   	fcall	_USBCtrlEPAllowStatusStage
  5854  0692  2EC7               	goto	i1l339
  5855  0693                     i1l3427:
  5856                           
  5857                           ;usb_device.c: 1722:   {;usb_device.c: 1733:    controlTransferState = 2;
  5858  0693  3002               	movlw	2
  5859  0694  00F5               	movwf	??_USBCtrlEPServiceComplete
  5860  0695  0875               	movf	??_USBCtrlEPServiceComplete,w
  5861  0696  0022               	movlb	2	; select bank2
  5862  0697  00EB               	movwf	_controlTransferState^(0+256)	;volatile
  5863  0698                     i1l3429:
  5864                           
  5865                           ;usb_device.c: 1736:    pBDTEntryEP0OutNext->CNT = 8;
  5866  0698  0020               	movlb	0	; select bank0
  5867  0699  086E               	movf	_pBDTEntryEP0OutNext,w
  5868  069A  3E01               	addlw	1
  5869  069B  00F5               	movwf	??_USBCtrlEPServiceComplete
  5870  069C  3000               	movlw	0
  5871  069D  3D6F               	addwfc	_pBDTEntryEP0OutNext+1,w
  5872  069E  00F6               	movwf	??_USBCtrlEPServiceComplete+1
  5873  069F  0875               	movf	??_USBCtrlEPServiceComplete,w
  5874  06A0  0086               	movwf	6
  5875  06A1  0876               	movf	??_USBCtrlEPServiceComplete+1,w
  5876  06A2  0087               	movwf	7
  5877  06A3  3008               	movlw	8
  5878  06A4  0081               	movwf	1
  5879  06A5                     i1l3431:
  5880                           
  5881                           ;usb_device.c: 1737:    pBDTEntryEP0OutNext->ADR = (((uint16_t)(&SetupPkt)) & 0x7FFF);
  5882  06A5  3040               	movlw	64
  5883  06A6  00F5               	movwf	??_USBCtrlEPServiceComplete
  5884  06A7  3000               	movlw	0
  5885  06A8  00F6               	movwf	??_USBCtrlEPServiceComplete+1
  5886  06A9  086E               	movf	_pBDTEntryEP0OutNext,w
  5887  06AA  0086               	movwf	6
  5888  06AB  086F               	movf	_pBDTEntryEP0OutNext+1,w
  5889  06AC  0087               	movwf	7
  5890  06AD  3142               	addfsr 1,2
  5891  06AE  0875               	movf	??_USBCtrlEPServiceComplete,w
  5892  06AF  3FC0               	movwi [0]fsr1
  5893  06B0  0876               	movf	??_USBCtrlEPServiceComplete+1,w
  5894  06B1  3FC1               	movwi [1]fsr1
  5895  06B2                     i1l3433:
  5896                           
  5897                           ;usb_device.c: 1738:    pBDTEntryEP0OutNext->STAT.Val = 0x04;
  5898  06B2  086E               	movf	_pBDTEntryEP0OutNext,w
  5899  06B3  0086               	movwf	6
  5900  06B4  086F               	movf	_pBDTEntryEP0OutNext+1,w
  5901  06B5  0087               	movwf	7
  5902  06B6  3004               	movlw	4
  5903  06B7  0081               	movwf	1
  5904  06B8                     i1l3435:
  5905                           
  5906                           ;usb_device.c: 1739:             pBDTEntryEP0OutNext->STAT.Val |= 0x80;
  5907  06B8  086E               	movf	_pBDTEntryEP0OutNext,w
  5908  06B9  0086               	movwf	6
  5909  06BA  086F               	movf	_pBDTEntryEP0OutNext+1,w
  5910  06BB  0087               	movwf	7
  5911  06BC  1781               	bsf	1,7
  5912  06BD                     i1l3437:
  5913                           
  5914                           ;usb_device.c: 1742:             USBStatusStageEnabledFlag2 = 0;
  5915  06BD  0023               	movlb	3	; select bank3
  5916  06BE  01B1               	clrf	_USBStatusStageEnabledFlag2^(0+384)	;volatile
  5917  06BF                     i1l3439:
  5918                           
  5919                           ;usb_device.c: 1743:             USBStatusStageEnabledFlag1 = 0;
  5920  06BF  01B2               	clrf	_USBStatusStageEnabledFlag1^(0+384)	;volatile
  5921                           
  5922                           ;usb_device.c: 1744:    if(USBDeferStatusStagePacket == 0)
  5923  06C0  0022               	movlb	2	; select bank2
  5924  06C1  0869               	movf	_USBDeferStatusStagePacket^(0+256),w	;volatile
  5925  06C2  1D03               	btfss	3,2
  5926  06C3  2EC5               	goto	u211_21
  5927  06C4  2EC6               	goto	u211_20
  5928  06C5                     u211_21:
  5929  06C5  2EC7               	goto	i1l339
  5930  06C6                     u211_20:
  5931  06C6  2E8F               	goto	i1l3425
  5932  06C7                     i1l339:
  5933  06C7  0008               	return
  5934  06C8                     __end_of_USBCtrlEPServiceComplete:
  5935                           
  5936                           	psect	text22
  5937  0BAF                     __ptext22:	
  5938 ;; *************** function _USBCtrlEPAllowDataStage *****************
  5939 ;; Defined at:
  5940 ;;		line 1492 in file "usb_device.c"
  5941 ;; Parameters:    Size  Location     Type
  5942 ;;		None
  5943 ;; Auto vars:     Size  Location     Type
  5944 ;;		None
  5945 ;; Return value:  Size  Location     Type
  5946 ;;                  1    wreg      void 
  5947 ;; Registers used:
  5948 ;;		wreg, fsr0l, fsr0h, fsr1l, fsr1h, status,2, status,0, pclath, cstack
  5949 ;; Tracked objects:
  5950 ;;		On entry : 0/0
  5951 ;;		On exit  : 0/0
  5952 ;;		Unchanged: 0/0
  5953 ;; Data sizes:     COMMON   BANK0   BANK1   BANK2   BANK3   BANK4   BANK5   BANK6   BANK7   BANK8   BANK9  BANK10  BANK1
      +1  BANK12
  5954 ;;      Params:         0       0       0       0       0       0       0       0       0       0       0       0       
      +0       0
  5955 ;;      Locals:         0       0       0       0       0       0       0       0       0       0       0       0       
      +0       0
  5956 ;;      Temps:          2       0       0       0       0       0       0       0       0       0       0       0       
      +0       0
  5957 ;;      Totals:         2       0       0       0       0       0       0       0       0       0       0       0       
      +0       0
  5958 ;;Total ram usage:        2 bytes
  5959 ;; Hardware stack levels used: 1
  5960 ;; Hardware stack levels required when called: 1
  5961 ;; This function calls:
  5962 ;;		_USBCtrlTrfTxService
  5963 ;; This function is called by:
  5964 ;;		_USBCtrlEPServiceComplete
  5965 ;; This function uses a non-reentrant model
  5966 ;;
  5967                           
  5968  0BAF                     _USBCtrlEPAllowDataStage:	
  5969                           ;psect for function _USBCtrlEPAllowDataStage
  5970                           
  5971  0BAF                     i1l3155:	
  5972                           ;incstack = 0
  5973                           ; Regs used in _USBCtrlEPAllowDataStage: [wreg-fsr1h+status,2+status,0+pclath+cstack]
  5974                           
  5975                           
  5976                           ;usb_device.c: 1494:     USBDeferINDataStagePackets = 0;
  5977  0BAF  0023               	movlb	3	; select bank3
  5978  0BB0  01B0               	clrf	_USBDeferINDataStagePackets^(0+384)	;volatile
  5979                           
  5980                           ;usb_device.c: 1495:     USBDeferOUTDataStagePackets = 0;
  5981  0BB1  01AF               	clrf	_USBDeferOUTDataStagePackets^(0+384)	;volatile
  5982  0BB2                     i1l3157:
  5983                           
  5984                           ;usb_device.c: 1497:     if(controlTransferState == 2)
  5985  0BB2  3002               	movlw	2
  5986  0BB3  0022               	movlb	2	; select bank2
  5987  0BB4  066B               	xorwf	_controlTransferState^(0+256),w	;volatile
  5988  0BB5  1D03               	btfss	3,2
  5989  0BB6  2BB8               	goto	u173_21
  5990  0BB7  2BB9               	goto	u173_20
  5991  0BB8                     u173_21:
  5992  0BB8  2BDF               	goto	i1l3167
  5993  0BB9                     u173_20:
  5994  0BB9                     i1l3159:
  5995                           
  5996                           ;usb_device.c: 1498:     {;usb_device.c: 1500:         pBDTEntryEP0OutNext->CNT = 8;
  5997  0BB9  0020               	movlb	0	; select bank0
  5998  0BBA  086E               	movf	_pBDTEntryEP0OutNext,w
  5999  0BBB  3E01               	addlw	1
  6000  0BBC  00F3               	movwf	??_USBCtrlEPAllowDataStage
  6001  0BBD  3000               	movlw	0
  6002  0BBE  3D6F               	addwfc	_pBDTEntryEP0OutNext+1,w
  6003  0BBF  00F4               	movwf	??_USBCtrlEPAllowDataStage+1
  6004  0BC0  0873               	movf	??_USBCtrlEPAllowDataStage,w
  6005  0BC1  0086               	movwf	6
  6006  0BC2  0874               	movf	??_USBCtrlEPAllowDataStage+1,w
  6007  0BC3  0087               	movwf	7
  6008  0BC4  3008               	movlw	8
  6009  0BC5  0081               	movwf	1
  6010  0BC6                     i1l3161:
  6011                           
  6012                           ;usb_device.c: 1501:         pBDTEntryEP0OutNext->ADR = (((uint16_t)(&CtrlTrfData)) & 0x
      +                          7FFF);
  6013  0BC6  3048               	movlw	72
  6014  0BC7  00F3               	movwf	??_USBCtrlEPAllowDataStage
  6015  0BC8  3000               	movlw	0
  6016  0BC9  00F4               	movwf	??_USBCtrlEPAllowDataStage+1
  6017  0BCA  086E               	movf	_pBDTEntryEP0OutNext,w
  6018  0BCB  0086               	movwf	6
  6019  0BCC  086F               	movf	_pBDTEntryEP0OutNext+1,w
  6020  0BCD  0087               	movwf	7
  6021  0BCE  3142               	addfsr 1,2
  6022  0BCF  0873               	movf	??_USBCtrlEPAllowDataStage,w
  6023  0BD0  3FC0               	movwi [0]fsr1
  6024  0BD1  0874               	movf	??_USBCtrlEPAllowDataStage+1,w
  6025  0BD2  3FC1               	movwi [1]fsr1
  6026  0BD3                     i1l3163:
  6027                           
  6028                           ;usb_device.c: 1502:         pBDTEntryEP0OutNext->STAT.Val = 0x40|(0x08 & 0x08);
  6029  0BD3  086E               	movf	_pBDTEntryEP0OutNext,w
  6030  0BD4  0086               	movwf	6
  6031  0BD5  086F               	movf	_pBDTEntryEP0OutNext+1,w
  6032  0BD6  0087               	movwf	7
  6033  0BD7  3048               	movlw	72
  6034  0BD8  0081               	movwf	1
  6035  0BD9                     i1l3165:
  6036                           
  6037                           ;usb_device.c: 1503:         pBDTEntryEP0OutNext->STAT.Val |= 0x80;
  6038  0BD9  086E               	movf	_pBDTEntryEP0OutNext,w
  6039  0BDA  0086               	movwf	6
  6040  0BDB  086F               	movf	_pBDTEntryEP0OutNext+1,w
  6041  0BDC  0087               	movwf	7
  6042  0BDD  1781               	bsf	1,7
  6043                           
  6044                           ;usb_device.c: 1504:     }
  6045  0BDE  2C0A               	goto	i1l321
  6046  0BDF                     i1l3167:
  6047                           
  6048                           ;usb_device.c: 1506:     {;usb_device.c: 1509:   if(SetupPkt.wLength < inPipes[0].wCount
      +                          .Val)
  6049  0BDF  0020               	movlb	0	; select bank0
  6050  0BE0  0869               	movf	_inPipes+4,w	;volatile
  6051  0BE1  0247               	subwf	71,w	;volatile
  6052  0BE2  1D03               	skipz
  6053  0BE3  2BE6               	goto	u174_25
  6054  0BE4  0868               	movf	_inPipes+3,w	;volatile
  6055  0BE5  0246               	subwf	70,w	;volatile
  6056  0BE6                     u174_25:
  6057  0BE6  1803               	skipnc
  6058  0BE7  2BE9               	goto	u174_21
  6059  0BE8  2BEA               	goto	u174_20
  6060  0BE9                     u174_21:
  6061  0BE9  2BEE               	goto	i1l3171
  6062  0BEA                     u174_20:
  6063  0BEA                     i1l3169:
  6064                           
  6065                           ;usb_device.c: 1510:   {;usb_device.c: 1511:    inPipes[0].wCount.Val = SetupPkt.wLength
      +                          ;
  6066  0BEA  0847               	movf	71,w	;volatile
  6067  0BEB  00E9               	movwf	_inPipes+4	;volatile
  6068  0BEC  0846               	movf	70,w	;volatile
  6069  0BED  00E8               	movwf	_inPipes+3	;volatile
  6070  0BEE                     i1l3171:
  6071                           
  6072                           ;usb_device.c: 1513:   USBCtrlTrfTxService();
  6073  0BEE  318D  25EB  318B   	fcall	_USBCtrlTrfTxService
  6074  0BF1                     i1l3173:
  6075                           
  6076                           ;usb_device.c: 1518:   pBDTEntryIn[0]->ADR = (((uint16_t)(&CtrlTrfData)) & 0x7FFF);
  6077  0BF1  3048               	movlw	72
  6078  0BF2  00F3               	movwf	??_USBCtrlEPAllowDataStage
  6079  0BF3  3000               	movlw	0
  6080  0BF4  00F4               	movwf	??_USBCtrlEPAllowDataStage+1
  6081  0BF5  0020               	movlb	0	; select bank0
  6082  0BF6  086A               	movf	_pBDTEntryIn,w
  6083  0BF7  0086               	movwf	6
  6084  0BF8  086B               	movf	_pBDTEntryIn+1,w
  6085  0BF9  0087               	movwf	7
  6086  0BFA  3142               	addfsr 1,2
  6087  0BFB  0873               	movf	??_USBCtrlEPAllowDataStage,w
  6088  0BFC  3FC0               	movwi [0]fsr1
  6089  0BFD  0874               	movf	??_USBCtrlEPAllowDataStage+1,w
  6090  0BFE  3FC1               	movwi [1]fsr1
  6091  0BFF                     i1l3175:
  6092                           
  6093                           ;usb_device.c: 1519:   pBDTEntryIn[0]->STAT.Val = 0x40|(0x08 & 0x08);
  6094  0BFF  086A               	movf	_pBDTEntryIn,w
  6095  0C00  0086               	movwf	6
  6096  0C01  086B               	movf	_pBDTEntryIn+1,w
  6097  0C02  0087               	movwf	7
  6098  0C03  3048               	movlw	72
  6099  0C04  0081               	movwf	1
  6100  0C05                     i1l3177:
  6101                           
  6102                           ;usb_device.c: 1520:         pBDTEntryIn[0]->STAT.Val |= 0x80;
  6103  0C05  086A               	movf	_pBDTEntryIn,w
  6104  0C06  0086               	movwf	6
  6105  0C07  086B               	movf	_pBDTEntryIn+1,w
  6106  0C08  0087               	movwf	7
  6107  0C09  1781               	bsf	1,7
  6108  0C0A                     i1l321:
  6109  0C0A  0008               	return
  6110  0C0B                     __end_of_USBCtrlEPAllowDataStage:
  6111                           
  6112                           	psect	text23
  6113  0D6D                     __ptext23:	
  6114 ;; *************** function _USBCheckStdRequest *****************
  6115 ;; Defined at:
  6116 ;;		line 2693 in file "usb_device.c"
  6117 ;; Parameters:    Size  Location     Type
  6118 ;;		None
  6119 ;; Auto vars:     Size  Location     Type
  6120 ;;		None
  6121 ;; Return value:  Size  Location     Type
  6122 ;;                  1    wreg      void 
  6123 ;; Registers used:
  6124 ;;		wreg, fsr0l, fsr0h, fsr1l, fsr1h, status,2, status,0, pclath, cstack
  6125 ;; Tracked objects:
  6126 ;;		On entry : 0/0
  6127 ;;		On exit  : 0/0
  6128 ;;		Unchanged: 0/0
  6129 ;; Data sizes:     COMMON   BANK0   BANK1   BANK2   BANK3   BANK4   BANK5   BANK6   BANK7   BANK8   BANK9  BANK10  BANK1
      +1  BANK12
  6130 ;;      Params:         0       0       0       0       0       0       0       0       0       0       0       0       
      +0       0
  6131 ;;      Locals:         0       0       0       0       0       0       0       0       0       0       0       0       
      +0       0
  6132 ;;      Temps:          0       2       0       0       0       0       0       0       0       0       0       0       
      +0       0
  6133 ;;      Totals:         0       2       0       0       0       0       0       0       0       0       0       0       
      +0       0
  6134 ;;Total ram usage:        2 bytes
  6135 ;; Hardware stack levels used: 1
  6136 ;; Hardware stack levels required when called: 5
  6137 ;; This function calls:
  6138 ;;		_USBStdFeatureReqHandler
  6139 ;;		_USBStdGetDscHandler
  6140 ;;		_USBStdGetStatusHandler
  6141 ;;		_USBStdSetCfgHandler
  6142 ;;		_USER_USB_CALLBACK_EVENT_HANDLER
  6143 ;; This function is called by:
  6144 ;;		_USBCtrlTrfSetupHandler
  6145 ;; This function uses a non-reentrant model
  6146 ;;
  6147                           
  6148  0D6D                     _USBCheckStdRequest:	
  6149                           ;psect for function _USBCheckStdRequest
  6150                           
  6151  0D6D                     i1l4569:	
  6152                           ;incstack = 0
  6153                           ; Regs used in _USBCheckStdRequest: [wreg-fsr1h+status,2+status,0+pclath+cstack]
  6154                           
  6155                           
  6156                           ;usb_device.c: 2695:     if(SetupPkt.RequestType != (0x00>>5)) return;
  6157  0D6D  0020               	movlb	0	; select bank0
  6158  0D6E  0E40               	swapf	64,w	;volatile
  6159  0D6F  0C89               	rrf	9,f
  6160  0D70  3903               	andlw	3
  6161  0D71  3A00               	xorlw	0
  6162  0D72  1903               	skipnz
  6163  0D73  2D75               	goto	u301_21
  6164  0D74  2D76               	goto	u301_20
  6165  0D75                     u301_21:
  6166  0D75  2DBF               	goto	i1l4605
  6167  0D76                     u301_20:
  6168  0D76  2DEA               	goto	i1l455
  6169  0D77                     i1l457:	
  6170                           ;usb_device.c: 2698:     {;usb_device.c: 2699:         case 5:
  6171                           
  6172                           
  6173                           ;usb_device.c: 2700:             inPipes[0].info.bits.busy = 1;
  6174  0D77  17E7               	bsf	_inPipes+2,7	;volatile
  6175  0D78                     i1l4573:
  6176                           
  6177                           ;usb_device.c: 2701:             USBDeviceState = ADR_PENDING_STATE;
  6178  0D78  3008               	movlw	8
  6179  0D79  00DD               	movwf	??_USBCheckStdRequest
  6180  0D7A  085D               	movf	??_USBCheckStdRequest,w
  6181  0D7B  0021               	movlb	1	; select bank1
  6182  0D7C  00EF               	movwf	_USBDeviceState^(0+128)	;volatile
  6183                           
  6184                           ;usb_device.c: 2703:             break;
  6185  0D7D  2DEA               	goto	i1l455
  6186  0D7E                     i1l4575:
  6187                           
  6188                           ;usb_device.c: 2705:             USBStdGetDscHandler();
  6189  0D7E  318E  266E  318D   	fcall	_USBStdGetDscHandler
  6190                           
  6191                           ;usb_device.c: 2706:             break;
  6192  0D81  2DEA               	goto	i1l455
  6193  0D82                     i1l4577:
  6194                           
  6195                           ;usb_device.c: 2708:             USBStdSetCfgHandler();
  6196  0D82  3187  2767  318D   	fcall	_USBStdSetCfgHandler
  6197                           
  6198                           ;usb_device.c: 2709:             break;
  6199  0D85  2DEA               	goto	i1l455
  6200  0D86                     i1l4579:
  6201                           
  6202                           ;usb_device.c: 2711:             inPipes[0].pSrc.bRam = (uint8_t*)&USBActiveConfiguratio
      +                          n;
  6203  0D86  306F               	movlw	low _USBActiveConfiguration
  6204  0D87  00E5               	movwf	_inPipes	;volatile
  6205  0D88  3001               	movlw	high _USBActiveConfiguration
  6206  0D89  00E6               	movwf	_inPipes+1	;volatile
  6207  0D8A                     i1l4581:
  6208                           
  6209                           ;usb_device.c: 2712:             inPipes[0].info.bits.ctrl_trf_mem = 0x01;
  6210  0D8A  1467               	bsf	_inPipes+2,0	;volatile
  6211  0D8B                     i1l4583:
  6212                           
  6213                           ;usb_device.c: 2713:             inPipes[0].wCount.v[0] = 1;
  6214  0D8B  3001               	movlw	1
  6215  0D8C  00DD               	movwf	??_USBCheckStdRequest
  6216  0D8D  085D               	movf	??_USBCheckStdRequest,w
  6217  0D8E  00E8               	movwf	_inPipes+3	;volatile
  6218  0D8F                     i1l4585:
  6219                           
  6220                           ;usb_device.c: 2714:             inPipes[0].info.bits.busy = 1;
  6221  0D8F  17E7               	bsf	_inPipes+2,7	;volatile
  6222                           
  6223                           ;usb_device.c: 2715:             break;
  6224  0D90  2DEA               	goto	i1l455
  6225  0D91                     i1l4587:
  6226                           
  6227                           ;usb_device.c: 2717:             USBStdGetStatusHandler();
  6228  0D91  318C  240B  318D   	fcall	_USBStdGetStatusHandler
  6229                           
  6230                           ;usb_device.c: 2718:             break;
  6231  0D94  2DEA               	goto	i1l455
  6232  0D95                     i1l4589:
  6233                           
  6234                           ;usb_device.c: 2721:             USBStdFeatureReqHandler();
  6235  0D95  3180  202C  318D   	fcall	_USBStdFeatureReqHandler
  6236                           
  6237                           ;usb_device.c: 2722:             break;
  6238  0D98  2DEA               	goto	i1l455
  6239  0D99                     i1l4591:
  6240                           
  6241                           ;usb_device.c: 2724:             inPipes[0].pSrc.bRam = (uint8_t*)&USBAlternateInterface
      +                          [SetupPkt.bIntfID];
  6242  0D99  0844               	movf	68,w	;volatile
  6243  0D9A  3E6E               	addlw	(low (_USBAlternateInterface| (0+256)))& (0+255)
  6244  0D9B  00E5               	movwf	_inPipes	;volatile
  6245  0D9C  3001               	movlw	1
  6246  0D9D  00E6               	movwf	_inPipes+1	;volatile
  6247  0D9E                     i1l4593:
  6248                           
  6249                           ;usb_device.c: 2725:             inPipes[0].info.bits.ctrl_trf_mem = 0x01;
  6250  0D9E  1467               	bsf	_inPipes+2,0	;volatile
  6251  0D9F                     i1l4595:
  6252                           
  6253                           ;usb_device.c: 2726:             inPipes[0].wCount.v[0] = 1;
  6254  0D9F  3001               	movlw	1
  6255  0DA0  00DD               	movwf	??_USBCheckStdRequest
  6256  0DA1  085D               	movf	??_USBCheckStdRequest,w
  6257  0DA2  00E8               	movwf	_inPipes+3	;volatile
  6258  0DA3                     i1l4597:
  6259                           
  6260                           ;usb_device.c: 2727:             inPipes[0].info.bits.busy = 1;
  6261  0DA3  17E7               	bsf	_inPipes+2,7	;volatile
  6262                           
  6263                           ;usb_device.c: 2728:             break;
  6264  0DA4  2DEA               	goto	i1l455
  6265  0DA5                     i1l466:	
  6266                           ;usb_device.c: 2729:         case 11:
  6267                           
  6268                           
  6269                           ;usb_device.c: 2730:             inPipes[0].info.bits.busy = 1;
  6270  0DA5  17E7               	bsf	_inPipes+2,7	;volatile
  6271  0DA6                     i1l4599:
  6272                           
  6273                           ;usb_device.c: 2731:             USBAlternateInterface[SetupPkt.bIntfID] = SetupPkt.bAlt
      +                          ID;
  6274  0DA6  0842               	movf	66,w	;volatile
  6275  0DA7  00DD               	movwf	??_USBCheckStdRequest
  6276  0DA8  0844               	movf	68,w	;volatile
  6277  0DA9  3E6E               	addlw	(low (_USBAlternateInterface| (0+256)))& (0+255)
  6278  0DAA  0086               	movwf	6
  6279  0DAB  3001               	movlw	1	; select bank2/3
  6280  0DAC  0087               	movwf	7
  6281  0DAD  085D               	movf	??_USBCheckStdRequest,w
  6282  0DAE  0081               	movwf	1
  6283                           
  6284                           ;usb_device.c: 2732:             break;
  6285  0DAF  2DEA               	goto	i1l455
  6286  0DB0                     i1l4601:
  6287                           
  6288                           ;usb_device.c: 2734:             USER_USB_CALLBACK_EVENT_HANDLER((USB_EVENT)EVENT_SET_DE
      +                          SCRIPTOR,0,0);
  6289  0DB0  3002               	movlw	2
  6290  0DB1  00D0               	movwf	USER_USB_CALLBACK_EVENT_HANDLER@event
  6291  0DB2  3000               	movlw	0
  6292  0DB3  00D1               	movwf	USER_USB_CALLBACK_EVENT_HANDLER@event+1
  6293  0DB4  3000               	movlw	0
  6294  0DB5  00D2               	movwf	USER_USB_CALLBACK_EVENT_HANDLER@pdata
  6295  0DB6  3000               	movlw	0
  6296  0DB7  00D3               	movwf	USER_USB_CALLBACK_EVENT_HANDLER@pdata+1
  6297  0DB8  3000               	movlw	0
  6298  0DB9  00D4               	movwf	USER_USB_CALLBACK_EVENT_HANDLER@size
  6299  0DBA  00D5               	movwf	USER_USB_CALLBACK_EVENT_HANDLER@size+1
  6300  0DBB  318A  22C5  318D   	fcall	_USER_USB_CALLBACK_EVENT_HANDLER
  6301                           
  6302                           ;usb_device.c: 2735:             break;
  6303  0DBE  2DEA               	goto	i1l455
  6304  0DBF                     i1l4605:
  6305  0DBF  0841               	movf	65,w	;volatile
  6306  0DC0  00DD               	movwf	??_USBCheckStdRequest
  6307  0DC1  01DE               	clrf	??_USBCheckStdRequest+1
  6308                           
  6309                           ; Switch on 2 bytes has been partitioned into a top level switch of size 1, and 1 sub-sw
      +                          itches
  6310                           ; Switch size 1, requested type "simple"
  6311                           ; Number of cases is 1, Range of values is 0 to 0
  6312                           ; switch strategies available:
  6313                           ; Name         Instructions Cycles
  6314                           ; simple_byte            4     3 (average)
  6315                           ; direct_byte            8     6 (fixed)
  6316                           ; jumptable            260     6 (fixed)
  6317                           ;	Chosen strategy is simple_byte
  6318  0DC2  085E               	movf	??_USBCheckStdRequest+1,w
  6319  0DC3  3A00               	xorlw	0	; case 0
  6320  0DC4  1903               	skipnz
  6321  0DC5  2DC7               	goto	i1l5081
  6322  0DC6  2DEA               	goto	i1l455
  6323  0DC7                     i1l5081:
  6324                           
  6325                           ; Switch size 1, requested type "simple"
  6326                           ; Number of cases is 11, Range of values is 0 to 12
  6327                           ; switch strategies available:
  6328                           ; Name         Instructions Cycles
  6329                           ; direct_byte           32     6 (fixed)
  6330                           ; simple_byte           34    18 (average)
  6331                           ; jumptable            260     6 (fixed)
  6332                           ;	Chosen strategy is simple_byte
  6333  0DC7  085D               	movf	??_USBCheckStdRequest,w
  6334  0DC8  3A00               	xorlw	0	; case 0
  6335  0DC9  1903               	skipnz
  6336  0DCA  2D91               	goto	i1l4587
  6337  0DCB  3A01               	xorlw	1	; case 1
  6338  0DCC  1903               	skipnz
  6339  0DCD  2D95               	goto	i1l4589
  6340  0DCE  3A02               	xorlw	2	; case 3
  6341  0DCF  1903               	skipnz
  6342  0DD0  2D95               	goto	i1l4589
  6343  0DD1  3A06               	xorlw	6	; case 5
  6344  0DD2  1903               	skipnz
  6345  0DD3  2D77               	goto	i1l457
  6346  0DD4  3A03               	xorlw	3	; case 6
  6347  0DD5  1903               	skipnz
  6348  0DD6  2D7E               	goto	i1l4575
  6349  0DD7  3A01               	xorlw	1	; case 7
  6350  0DD8  1903               	skipnz
  6351  0DD9  2DB0               	goto	i1l4601
  6352  0DDA  3A0F               	xorlw	15	; case 8
  6353  0DDB  1903               	skipnz
  6354  0DDC  2D86               	goto	i1l4579
  6355  0DDD  3A01               	xorlw	1	; case 9
  6356  0DDE  1903               	skipnz
  6357  0DDF  2D82               	goto	i1l4577
  6358  0DE0  3A03               	xorlw	3	; case 10
  6359  0DE1  1903               	skipnz
  6360  0DE2  2D99               	goto	i1l4591
  6361  0DE3  3A01               	xorlw	1	; case 11
  6362  0DE4  1903               	skipnz
  6363  0DE5  2DA5               	goto	i1l466
  6364  0DE6  3A07               	xorlw	7	; case 12
  6365  0DE7  1903               	skipnz
  6366  0DE8  2DEA               	goto	i1l455
  6367  0DE9  2DEA               	goto	i1l455
  6368  0DEA                     i1l455:
  6369  0DEA  0008               	return
  6370  0DEB                     __end_of_USBCheckStdRequest:
  6371                           
  6372                           	psect	text24
  6373  0767                     __ptext24:	
  6374 ;; *************** function _USBStdSetCfgHandler *****************
  6375 ;; Defined at:
  6376 ;;		line 1972 in file "usb_device.c"
  6377 ;; Parameters:    Size  Location     Type
  6378 ;;		None
  6379 ;; Auto vars:     Size  Location     Type
  6380 ;;  p               2    7[BANK0 ] PTR unsigned char 
  6381 ;;		 -> UEP1(1), 
  6382 ;;  i               1    9[BANK0 ] unsigned char 
  6383 ;;  i               1   10[BANK0 ] unsigned char 
  6384 ;; Return value:  Size  Location     Type
  6385 ;;                  1    wreg      void 
  6386 ;; Registers used:
  6387 ;;		wreg, fsr0l, fsr0h, fsr1l, fsr1h, status,2, status,0, pclath, cstack
  6388 ;; Tracked objects:
  6389 ;;		On entry : 0/0
  6390 ;;		On exit  : 0/0
  6391 ;;		Unchanged: 0/0
  6392 ;; Data sizes:     COMMON   BANK0   BANK1   BANK2   BANK3   BANK4   BANK5   BANK6   BANK7   BANK8   BANK9  BANK10  BANK1
      +1  BANK12
  6393 ;;      Params:         0       0       0       0       0       0       0       0       0       0       0       0       
      +0       0
  6394 ;;      Locals:         0       4       0       0       0       0       0       0       0       0       0       0       
      +0       0
  6395 ;;      Temps:          0       1       0       0       0       0       0       0       0       0       0       0       
      +0       0
  6396 ;;      Totals:         0       5       0       0       0       0       0       0       0       0       0       0       
      +0       0
  6397 ;;Total ram usage:        5 bytes
  6398 ;; Hardware stack levels used: 1
  6399 ;; Hardware stack levels required when called: 4
  6400 ;; This function calls:
  6401 ;;		_USER_USB_CALLBACK_EVENT_HANDLER
  6402 ;;		_memset
  6403 ;; This function is called by:
  6404 ;;		_USBCheckStdRequest
  6405 ;; This function uses a non-reentrant model
  6406 ;;
  6407                           
  6408  0767                     _USBStdSetCfgHandler:	
  6409                           ;psect for function _USBStdSetCfgHandler
  6410                           
  6411  0767                     i1l4517:	
  6412                           ;incstack = 0
  6413                           ; Regs used in _USBStdSetCfgHandler: [wreg-fsr1h+status,2+status,0+pclath+cstack]
  6414                           
  6415                           
  6416                           ;usb_device.c: 1974:     uint8_t i;;usb_device.c: 1977:     inPipes[0].info.bits.busy = 
      +                          1;
  6417  0767  0020               	movlb	0	; select bank0
  6418  0768  17E7               	bsf	_inPipes+2,7	;volatile
  6419                           
  6420                           ;usb_device.c: 1980:     { uint8_t i; uint8_t* p = (uint8_t*)&UEP1; for(i=0;i<1;i++) *p+
      +                          + = 0; };
  6421  0769  300E               	movlw	14
  6422  076A  00D8               	movwf	USBStdSetCfgHandler@p+1
  6423  076B  3099               	movlw	153
  6424  076C  00D7               	movwf	USBStdSetCfgHandler@p
  6425  076D                     i1l4519:
  6426  076D  01D9               	clrf	USBStdSetCfgHandler@i_1611
  6427  076E                     i1l4525:
  6428  076E  0857               	movf	USBStdSetCfgHandler@p,w
  6429  076F  0086               	movwf	6
  6430  0770  0858               	movf	USBStdSetCfgHandler@p+1,w
  6431  0771  0087               	movwf	7
  6432  0772  0181               	clrf	1
  6433  0773                     i1l4527:
  6434  0773  3001               	movlw	1
  6435  0774  07D7               	addwf	USBStdSetCfgHandler@p,f
  6436  0775  3000               	movlw	0
  6437  0776  3DD8               	addwfc	USBStdSetCfgHandler@p+1,f
  6438  0777                     i1l4529:
  6439  0777  3001               	movlw	1
  6440  0778  00D6               	movwf	??_USBStdSetCfgHandler
  6441  0779  0856               	movf	??_USBStdSetCfgHandler,w
  6442  077A  07D9               	addwf	USBStdSetCfgHandler@i_1611,f
  6443  077B                     i1l4531:
  6444  077B  0859               	movf	USBStdSetCfgHandler@i_1611,w
  6445  077C  1903               	btfsc	3,2
  6446  077D  2F7F               	goto	u298_21
  6447  077E  2F80               	goto	u298_20
  6448  077F                     u298_21:
  6449  077F  2F6E               	goto	i1l4525
  6450  0780                     u298_20:
  6451  0780                     i1l4533:
  6452                           
  6453                           ;usb_device.c: 1983:     memset((void*)&BDT[0], 0x00, sizeof(BDT));
  6454  0780  3020               	movlw	32
  6455  0781  00F0               	movwf	memset@dest
  6456  0782  3000               	movlw	0
  6457  0783  00F1               	movwf	memset@dest+1
  6458  0784  3000               	movlw	0
  6459  0785  00F2               	movwf	memset@c
  6460  0786  00F3               	movwf	memset@c+1
  6461  0787  3020               	movlw	32
  6462  0788  00F4               	movwf	memset@n
  6463  0789  3000               	movlw	0
  6464  078A  00F5               	movwf	memset@n+1
  6465  078B  3182  22A6  3187   	fcall	_memset
  6466  078E                     i1l4535:
  6467                           
  6468                           ;usb_device.c: 1986:     UCONbits.PPBRST = 1;
  6469  078E  003D               	movlb	29	; select bank29
  6470  078F  170E               	bsf	14,6	;volatile
  6471  0790                     i1l4537:
  6472                           
  6473                           ;usb_device.c: 1991:  for(i = 0; i < (uint8_t)(1 +1u); i++)
  6474  0790  0020               	movlb	0	; select bank0
  6475  0791  01DA               	clrf	USBStdSetCfgHandler@i
  6476  0792                     i1l4543:
  6477                           
  6478                           ;usb_device.c: 1992:  {;usb_device.c: 1993:   ep_data_in[i].Val = 0u;
  6479  0792  085A               	movf	USBStdSetCfgHandler@i,w
  6480  0793  3E67               	addlw	(low (_ep_data_in| (0+256)))& (0+255)
  6481  0794  0086               	movwf	6
  6482  0795  3001               	movlw	1	; select bank2/3
  6483  0796  0087               	movwf	7
  6484  0797  0181               	clrf	1
  6485                           
  6486                           ;usb_device.c: 1994:         ep_data_out[i].Val = 0u;
  6487  0798  085A               	movf	USBStdSetCfgHandler@i,w
  6488  0799  3EA8               	addlw	(low (_ep_data_out| (0+256)))& (0+255)
  6489  079A  0086               	movwf	6
  6490  079B  3001               	movlw	1	; select bank3/4
  6491  079C  0087               	movwf	7
  6492  079D  0181               	clrf	1
  6493  079E                     i1l4545:
  6494                           
  6495                           ;usb_device.c: 1995:  }
  6496  079E  3001               	movlw	1
  6497  079F  00D6               	movwf	??_USBStdSetCfgHandler
  6498  07A0  0856               	movf	??_USBStdSetCfgHandler,w
  6499  07A1  07DA               	addwf	USBStdSetCfgHandler@i,f
  6500  07A2                     i1l4547:
  6501  07A2  3002               	movlw	2
  6502  07A3  025A               	subwf	USBStdSetCfgHandler@i,w
  6503  07A4  1C03               	skipc
  6504  07A5  2FA7               	goto	u299_21
  6505  07A6  2FA8               	goto	u299_20
  6506  07A7                     u299_21:
  6507  07A7  2F92               	goto	i1l4543
  6508  07A8                     u299_20:
  6509  07A8                     i1l4549:
  6510                           
  6511                           ;usb_device.c: 1998:     memset((void*)&USBAlternateInterface,0x00,1);
  6512  07A8  306E               	movlw	low _USBAlternateInterface
  6513  07A9  00F0               	movwf	memset@dest
  6514  07AA  3001               	movlw	high _USBAlternateInterface
  6515  07AB  00F1               	movwf	memset@dest+1
  6516  07AC  3000               	movlw	0
  6517  07AD  00F2               	movwf	memset@c
  6518  07AE  00F3               	movwf	memset@c+1
  6519  07AF  3001               	movlw	1
  6520  07B0  00F4               	movwf	memset@n
  6521  07B1  3000               	movlw	0
  6522  07B2  00F5               	movwf	memset@n+1
  6523  07B3  3182  22A6  3187   	fcall	_memset
  6524  07B6                     i1l4551:
  6525                           
  6526                           ;usb_device.c: 2001:     UCONbits.PPBRST = 0;
  6527  07B6  003D               	movlb	29	; select bank29
  6528  07B7  130E               	bcf	14,6	;volatile
  6529  07B8                     i1l4553:
  6530                           
  6531                           ;usb_device.c: 2003:     pBDTEntryIn[0] = (volatile BDT_ENTRY*)&BDT[2];
  6532  07B8  3028               	movlw	40
  6533  07B9  0020               	movlb	0	; select bank0
  6534  07BA  00EA               	movwf	_pBDTEntryIn
  6535  07BB  3000               	movlw	0
  6536  07BC  00EB               	movwf	_pBDTEntryIn+1
  6537  07BD                     i1l4555:
  6538                           
  6539                           ;usb_device.c: 2006:     pBDTEntryEP0OutCurrent = (volatile BDT_ENTRY*)&BDT[0];
  6540  07BD  3020               	movlw	32
  6541  07BE  00D6               	movwf	??_USBStdSetCfgHandler
  6542  07BF  0856               	movf	??_USBStdSetCfgHandler,w
  6543  07C0  0021               	movlb	1	; select bank1
  6544  07C1  00EE               	movwf	_pBDTEntryEP0OutCurrent^(0+128)
  6545  07C2                     i1l4557:
  6546                           
  6547                           ;usb_device.c: 2007:     pBDTEntryEP0OutNext = pBDTEntryEP0OutCurrent;
  6548  07C2  086E               	movf	_pBDTEntryEP0OutCurrent^(0+128),w
  6549  07C3  0020               	movlb	0	; select bank0
  6550  07C4  00EE               	movwf	_pBDTEntryEP0OutNext
  6551  07C5  39FF               	andlw	255
  6552  07C6  1D03               	skipz
  6553  07C7  3000               	movlw	0
  6554  07C8  00EF               	movwf	_pBDTEntryEP0OutNext+1
  6555  07C9                     i1l4559:
  6556                           
  6557                           ;usb_device.c: 2010:     USBActiveConfiguration = SetupPkt.bConfigurationValue;
  6558  07C9  0842               	movf	66,w	;volatile
  6559  07CA  00D6               	movwf	??_USBStdSetCfgHandler
  6560  07CB  0856               	movf	??_USBStdSetCfgHandler,w
  6561  07CC  0022               	movlb	2	; select bank2
  6562  07CD  00EF               	movwf	_USBActiveConfiguration^(0+256)	;volatile
  6563  07CE                     i1l4561:
  6564                           
  6565                           ;usb_device.c: 2013:     if(USBActiveConfiguration == 0)
  6566  07CE  086F               	movf	_USBActiveConfiguration^(0+256),w	;volatile
  6567  07CF  1D03               	btfss	3,2
  6568  07D0  2FD2               	goto	u300_21
  6569  07D1  2FD3               	goto	u300_20
  6570  07D2                     u300_21:
  6571  07D2  2FDA               	goto	i1l4565
  6572  07D3                     u300_20:
  6573  07D3                     i1l4563:
  6574                           
  6575                           ;usb_device.c: 2014:     {;usb_device.c: 2016:         USBDeviceState = ADDRESS_STATE;
  6576  07D3  3010               	movlw	16
  6577  07D4  0020               	movlb	0	; select bank0
  6578  07D5  00D6               	movwf	??_USBStdSetCfgHandler
  6579  07D6  0856               	movf	??_USBStdSetCfgHandler,w
  6580  07D7  0021               	movlb	1	; select bank1
  6581  07D8  00EF               	movwf	_USBDeviceState^(0+128)	;volatile
  6582                           
  6583                           ;usb_device.c: 2017:     }
  6584  07D9  2FF0               	goto	i1l376
  6585  07DA                     i1l4565:
  6586                           
  6587                           ;usb_device.c: 2019:     {;usb_device.c: 2021:         USER_USB_CALLBACK_EVENT_HANDLER((
      +                          USB_EVENT)EVENT_CONFIGURED,(void*)&USBActiveConfiguration,1);
  6588  07DA  3001               	movlw	1
  6589  07DB  0020               	movlb	0	; select bank0
  6590  07DC  00D0               	movwf	USER_USB_CALLBACK_EVENT_HANDLER@event
  6591  07DD  3000               	movlw	0
  6592  07DE  00D1               	movwf	USER_USB_CALLBACK_EVENT_HANDLER@event+1
  6593  07DF  306F               	movlw	low _USBActiveConfiguration
  6594  07E0  00D2               	movwf	USER_USB_CALLBACK_EVENT_HANDLER@pdata
  6595  07E1  3001               	movlw	high _USBActiveConfiguration
  6596  07E2  00D3               	movwf	USER_USB_CALLBACK_EVENT_HANDLER@pdata+1
  6597  07E3  3001               	movlw	1
  6598  07E4  00D4               	movwf	USER_USB_CALLBACK_EVENT_HANDLER@size
  6599  07E5  3000               	movlw	0
  6600  07E6  00D5               	movwf	USER_USB_CALLBACK_EVENT_HANDLER@size+1
  6601  07E7  318A  22C5  3187   	fcall	_USER_USB_CALLBACK_EVENT_HANDLER
  6602  07EA                     i1l4567:
  6603                           
  6604                           ;usb_device.c: 2026:         USBDeviceState = CONFIGURED_STATE;
  6605  07EA  3020               	movlw	32
  6606  07EB  0020               	movlb	0	; select bank0
  6607  07EC  00D6               	movwf	??_USBStdSetCfgHandler
  6608  07ED  0856               	movf	??_USBStdSetCfgHandler,w
  6609  07EE  0021               	movlb	1	; select bank1
  6610  07EF  00EF               	movwf	_USBDeviceState^(0+128)	;volatile
  6611  07F0                     i1l376:
  6612  07F0  0008               	return
  6613  07F1                     __end_of_USBStdSetCfgHandler:
  6614                           
  6615                           	psect	text25
  6616  02A6                     __ptext25:	
  6617 ;; *************** function _memset *****************
  6618 ;; Defined at:
  6619 ;;		line 4 in file "C:\Program Files\Microchip\xc8\v2.35\pic\sources\c99\common\memset.c"
  6620 ;; Parameters:    Size  Location     Type
  6621 ;;  dest            2    0[COMMON] PTR void 
  6622 ;;		 -> USBAlternateInterface(1), BDT(32), 
  6623 ;;  c               2    2[COMMON] int 
  6624 ;;  n               2    4[COMMON] unsigned int 
  6625 ;; Auto vars:     Size  Location     Type
  6626 ;;  s               2   12[COMMON] PTR unsigned char 
  6627 ;;		 -> USBAlternateInterface(1), BDT(32), 
  6628 ;;  k               2   10[COMMON] unsigned int 
  6629 ;; Return value:  Size  Location     Type
  6630 ;;                  2    0[COMMON] PTR void 
  6631 ;; Registers used:
  6632 ;;		wreg, fsr1l, fsr1h, status,2, status,0
  6633 ;; Tracked objects:
  6634 ;;		On entry : 0/0
  6635 ;;		On exit  : 0/0
  6636 ;;		Unchanged: 0/0
  6637 ;; Data sizes:     COMMON   BANK0   BANK1   BANK2   BANK3   BANK4   BANK5   BANK6   BANK7   BANK8   BANK9  BANK10  BANK1
      +1  BANK12
  6638 ;;      Params:         6       0       0       0       0       0       0       0       0       0       0       0       
      +0       0
  6639 ;;      Locals:         4       0       0       0       0       0       0       0       0       0       0       0       
      +0       0
  6640 ;;      Temps:          4       0       0       0       0       0       0       0       0       0       0       0       
      +0       0
  6641 ;;      Totals:        14       0       0       0       0       0       0       0       0       0       0       0       
      +0       0
  6642 ;;Total ram usage:       14 bytes
  6643 ;; Hardware stack levels used: 1
  6644 ;; This function calls:
  6645 ;;		Nothing
  6646 ;; This function is called by:
  6647 ;;		_USBStdSetCfgHandler
  6648 ;; This function uses a non-reentrant model
  6649 ;;
  6650                           
  6651  02A6                     _memset:	
  6652                           ;psect for function _memset
  6653                           
  6654  02A6                     i1l4475:	
  6655                           ;incstack = 0
  6656                           ; Regs used in _memset: [wreg+fsr1l+fsr1h+status,2+status,0]
  6657                           
  6658  02A6  0871               	movf	memset@dest+1,w
  6659  02A7  00FD               	movwf	memset@s+1
  6660  02A8  0870               	movf	memset@dest,w
  6661  02A9  00FC               	movwf	memset@s
  6662  02AA                     i1l4477:
  6663  02AA  0874               	movf	memset@n,w
  6664  02AB  0475               	iorwf	memset@n+1,w
  6665  02AC  1D03               	btfss	3,2
  6666  02AD  2AAF               	goto	u293_21
  6667  02AE  2AB0               	goto	u293_20
  6668  02AF                     u293_21:
  6669  02AF  2AB1               	goto	i1l4481
  6670  02B0                     u293_20:
  6671  02B0  2B6F               	goto	i1l1139
  6672  02B1                     i1l4481:
  6673  02B1  087C               	movf	memset@s,w
  6674  02B2  0086               	movwf	6
  6675  02B3  087D               	movf	memset@s+1,w
  6676  02B4  0087               	movwf	7
  6677  02B5  0872               	movf	memset@c,w
  6678  02B6  0081               	movwf	1
  6679  02B7                     i1l4483:
  6680  02B7  0874               	movf	memset@n,w
  6681  02B8  077C               	addwf	memset@s,w
  6682  02B9  00F6               	movwf	??_memset
  6683  02BA  0875               	movf	memset@n+1,w
  6684  02BB  3D7D               	addwfc	memset@s+1,w
  6685  02BC  00F7               	movwf	??_memset+1
  6686  02BD  0876               	movf	??_memset,w
  6687  02BE  3EFF               	addlw	255
  6688  02BF  00F8               	movwf	??_memset+2
  6689  02C0  30FF               	movlw	255
  6690  02C1  3D77               	addwfc	??_memset+1,w
  6691  02C2  00F9               	movwf	??_memset+3
  6692  02C3  0878               	movf	??_memset+2,w
  6693  02C4  0086               	movwf	6
  6694  02C5  0879               	movf	??_memset+3,w
  6695  02C6  0087               	movwf	7
  6696  02C7  0872               	movf	memset@c,w
  6697  02C8  0081               	movwf	1
  6698  02C9                     i1l4485:
  6699  02C9  3000               	movlw	0
  6700  02CA  0275               	subwf	memset@n+1,w
  6701  02CB  3003               	movlw	3
  6702  02CC  1903               	skipnz
  6703  02CD  0274               	subwf	memset@n,w
  6704  02CE  1803               	skipnc
  6705  02CF  2AD1               	goto	u294_21
  6706  02D0  2AD2               	goto	u294_20
  6707  02D1                     u294_21:
  6708  02D1  2AD3               	goto	i1l4489
  6709  02D2                     u294_20:
  6710  02D2  2B6F               	goto	i1l1139
  6711  02D3                     i1l4489:
  6712  02D3  087C               	movf	memset@s,w
  6713  02D4  3E01               	addlw	1
  6714  02D5  00F6               	movwf	??_memset
  6715  02D6  3000               	movlw	0
  6716  02D7  3D7D               	addwfc	memset@s+1,w
  6717  02D8  00F7               	movwf	??_memset+1
  6718  02D9  0876               	movf	??_memset,w
  6719  02DA  0086               	movwf	6
  6720  02DB  0877               	movf	??_memset+1,w
  6721  02DC  0087               	movwf	7
  6722  02DD  0872               	movf	memset@c,w
  6723  02DE  0081               	movwf	1
  6724  02DF  087C               	movf	memset@s,w
  6725  02E0  3E02               	addlw	2
  6726  02E1  00F6               	movwf	??_memset
  6727  02E2  3000               	movlw	0
  6728  02E3  3D7D               	addwfc	memset@s+1,w
  6729  02E4  00F7               	movwf	??_memset+1
  6730  02E5  0876               	movf	??_memset,w
  6731  02E6  0086               	movwf	6
  6732  02E7  0877               	movf	??_memset+1,w
  6733  02E8  0087               	movwf	7
  6734  02E9  0872               	movf	memset@c,w
  6735  02EA  0081               	movwf	1
  6736  02EB  0874               	movf	memset@n,w
  6737  02EC  077C               	addwf	memset@s,w
  6738  02ED  00F6               	movwf	??_memset
  6739  02EE  0875               	movf	memset@n+1,w
  6740  02EF  3D7D               	addwfc	memset@s+1,w
  6741  02F0  00F7               	movwf	??_memset+1
  6742  02F1  0876               	movf	??_memset,w
  6743  02F2  3EFE               	addlw	254
  6744  02F3  00F8               	movwf	??_memset+2
  6745  02F4  30FF               	movlw	255
  6746  02F5  3D77               	addwfc	??_memset+1,w
  6747  02F6  00F9               	movwf	??_memset+3
  6748  02F7  0878               	movf	??_memset+2,w
  6749  02F8  0086               	movwf	6
  6750  02F9  0879               	movf	??_memset+3,w
  6751  02FA  0087               	movwf	7
  6752  02FB  0872               	movf	memset@c,w
  6753  02FC  0081               	movwf	1
  6754  02FD  0874               	movf	memset@n,w
  6755  02FE  077C               	addwf	memset@s,w
  6756  02FF  00F6               	movwf	??_memset
  6757  0300  0875               	movf	memset@n+1,w
  6758  0301  3D7D               	addwfc	memset@s+1,w
  6759  0302  00F7               	movwf	??_memset+1
  6760  0303  0876               	movf	??_memset,w
  6761  0304  3EFD               	addlw	253
  6762  0305  00F8               	movwf	??_memset+2
  6763  0306  30FF               	movlw	255
  6764  0307  3D77               	addwfc	??_memset+1,w
  6765  0308  00F9               	movwf	??_memset+3
  6766  0309  0878               	movf	??_memset+2,w
  6767  030A  0086               	movwf	6
  6768  030B  0879               	movf	??_memset+3,w
  6769  030C  0087               	movwf	7
  6770  030D  0872               	movf	memset@c,w
  6771  030E  0081               	movwf	1
  6772  030F                     i1l4491:
  6773  030F  3000               	movlw	0
  6774  0310  0275               	subwf	memset@n+1,w
  6775  0311  3007               	movlw	7
  6776  0312  1903               	skipnz
  6777  0313  0274               	subwf	memset@n,w
  6778  0314  1803               	skipnc
  6779  0315  2B17               	goto	u295_21
  6780  0316  2B18               	goto	u295_20
  6781  0317                     u295_21:
  6782  0317  2B19               	goto	i1l4495
  6783  0318                     u295_20:
  6784  0318  2B6F               	goto	i1l1139
  6785  0319                     i1l4495:
  6786  0319  087C               	movf	memset@s,w
  6787  031A  3E03               	addlw	3
  6788  031B  00F6               	movwf	??_memset
  6789  031C  3000               	movlw	0
  6790  031D  3D7D               	addwfc	memset@s+1,w
  6791  031E  00F7               	movwf	??_memset+1
  6792  031F  0876               	movf	??_memset,w
  6793  0320  0086               	movwf	6
  6794  0321  0877               	movf	??_memset+1,w
  6795  0322  0087               	movwf	7
  6796  0323  0872               	movf	memset@c,w
  6797  0324  0081               	movwf	1
  6798  0325  0874               	movf	memset@n,w
  6799  0326  077C               	addwf	memset@s,w
  6800  0327  00F6               	movwf	??_memset
  6801  0328  0875               	movf	memset@n+1,w
  6802  0329  3D7D               	addwfc	memset@s+1,w
  6803  032A  00F7               	movwf	??_memset+1
  6804  032B  0876               	movf	??_memset,w
  6805  032C  3EFC               	addlw	252
  6806  032D  00F8               	movwf	??_memset+2
  6807  032E  30FF               	movlw	255
  6808  032F  3D77               	addwfc	??_memset+1,w
  6809  0330  00F9               	movwf	??_memset+3
  6810  0331  0878               	movf	??_memset+2,w
  6811  0332  0086               	movwf	6
  6812  0333  0879               	movf	??_memset+3,w
  6813  0334  0087               	movwf	7
  6814  0335  0872               	movf	memset@c,w
  6815  0336  0081               	movwf	1
  6816  0337                     i1l4497:
  6817  0337  3000               	movlw	0
  6818  0338  0275               	subwf	memset@n+1,w
  6819  0339  3009               	movlw	9
  6820  033A  1903               	skipnz
  6821  033B  0274               	subwf	memset@n,w
  6822  033C  1803               	skipnc
  6823  033D  2B3F               	goto	u296_21
  6824  033E  2B40               	goto	u296_20
  6825  033F                     u296_21:
  6826  033F  2B41               	goto	i1l4501
  6827  0340                     u296_20:
  6828  0340  2B6F               	goto	i1l1139
  6829  0341                     i1l4501:
  6830  0341  097C               	comf	memset@s,w
  6831  0342  00F6               	movwf	??_memset
  6832  0343  097D               	comf	memset@s+1,w
  6833  0344  00F7               	movwf	??_memset+1
  6834  0345  0AF6               	incf	??_memset,f
  6835  0346  1903               	skipnz
  6836  0347  0AF7               	incf	??_memset+1,f
  6837  0348  3003               	movlw	3
  6838  0349  0576               	andwf	??_memset,w
  6839  034A  00FA               	movwf	memset@k
  6840  034B  3000               	movlw	0
  6841  034C  0577               	andwf	??_memset+1,w
  6842  034D  00FB               	movwf	memset@k+1
  6843  034E                     i1l4503:
  6844  034E  087A               	movf	memset@k,w
  6845  034F  07FC               	addwf	memset@s,f
  6846  0350  087B               	movf	memset@k+1,w
  6847  0351  3DFD               	addwfc	memset@s+1,f
  6848  0352                     i1l4505:
  6849  0352  087A               	movf	memset@k,w
  6850  0353  02F4               	subwf	memset@n,f
  6851  0354  087B               	movf	memset@k+1,w
  6852  0355  3BF5               	subwfb	memset@n+1,f
  6853  0356                     i1l4507:
  6854  0356  30FC               	movlw	252
  6855  0357  05F4               	andwf	memset@n,f
  6856  0358  30FF               	movlw	255
  6857  0359  05F5               	andwf	memset@n+1,f
  6858  035A  2B69               	goto	i1l4515
  6859  035B                     i1l4509:
  6860  035B  087C               	movf	memset@s,w
  6861  035C  0086               	movwf	6
  6862  035D  087D               	movf	memset@s+1,w
  6863  035E  0087               	movwf	7
  6864  035F  0872               	movf	memset@c,w
  6865  0360  0081               	movwf	1
  6866  0361                     i1l4511:
  6867  0361  3001               	movlw	1
  6868  0362  02F4               	subwf	memset@n,f
  6869  0363  3000               	movlw	0
  6870  0364  3BF5               	subwfb	memset@n+1,f
  6871  0365                     i1l4513:
  6872  0365  3001               	movlw	1
  6873  0366  07FC               	addwf	memset@s,f
  6874  0367  3000               	movlw	0
  6875  0368  3DFD               	addwfc	memset@s+1,f
  6876  0369                     i1l4515:
  6877  0369  0874               	movf	memset@n,w
  6878  036A  0475               	iorwf	memset@n+1,w
  6879  036B  1D03               	btfss	3,2
  6880  036C  2B6E               	goto	u297_21
  6881  036D  2B6F               	goto	u297_20
  6882  036E                     u297_21:
  6883  036E  2B5B               	goto	i1l4509
  6884  036F                     u297_20:
  6885  036F                     i1l1139:
  6886  036F  0008               	return
  6887  0370                     __end_of_memset:
  6888                           
  6889                           	psect	text26
  6890  0C0B                     __ptext26:	
  6891 ;; *************** function _USBStdGetStatusHandler *****************
  6892 ;; Defined at:
  6893 ;;		line 2133 in file "usb_device.c"
  6894 ;; Parameters:    Size  Location     Type
  6895 ;;		None
  6896 ;; Auto vars:     Size  Location     Type
  6897 ;;  p               2    2[COMMON] PTR struct __BDT
  6898 ;;		 -> RAM(4096), BDT(32), NULL(0), 
  6899 ;; Return value:  Size  Location     Type
  6900 ;;                  1    wreg      void 
  6901 ;; Registers used:
  6902 ;;		wreg, fsr0l, fsr0h, fsr1l, fsr1h, status,2, status,0
  6903 ;; Tracked objects:
  6904 ;;		On entry : 0/0
  6905 ;;		On exit  : 0/0
  6906 ;;		Unchanged: 0/0
  6907 ;; Data sizes:     COMMON   BANK0   BANK1   BANK2   BANK3   BANK4   BANK5   BANK6   BANK7   BANK8   BANK9  BANK10  BANK1
      +1  BANK12
  6908 ;;      Params:         0       0       0       0       0       0       0       0       0       0       0       0       
      +0       0
  6909 ;;      Locals:         2       0       0       0       0       0       0       0       0       0       0       0       
      +0       0
  6910 ;;      Temps:          2       0       0       0       0       0       0       0       0       0       0       0       
      +0       0
  6911 ;;      Totals:         4       0       0       0       0       0       0       0       0       0       0       0       
      +0       0
  6912 ;;Total ram usage:        4 bytes
  6913 ;; Hardware stack levels used: 1
  6914 ;; This function calls:
  6915 ;;		Nothing
  6916 ;; This function is called by:
  6917 ;;		_USBCheckStdRequest
  6918 ;; This function uses a non-reentrant model
  6919 ;;
  6920                           
  6921  0C0B                     _USBStdGetStatusHandler:	
  6922                           ;psect for function _USBStdGetStatusHandler
  6923                           
  6924  0C0B                     i1l3267:	
  6925                           ;incstack = 0
  6926                           ; Regs used in _USBStdGetStatusHandler: [wreg-fsr1h+status,2+status,0]
  6927                           
  6928                           
  6929                           ;usb_device.c: 2135:     CtrlTrfData[0] = 0;
  6930  0C0B  0020               	movlb	0	; select bank0
  6931  0C0C  01C8               	clrf	72	;volatile
  6932                           
  6933                           ;usb_device.c: 2136:     CtrlTrfData[1] = 0;
  6934  0C0D  01C9               	clrf	73	;volatile
  6935                           
  6936                           ;usb_device.c: 2138:     switch(SetupPkt.Recipient)
  6937  0C0E  2C52               	goto	i1l3291
  6938  0C0F                     i1l394:	
  6939                           ;usb_device.c: 2139:     {;usb_device.c: 2140:         case (0x00):
  6940                           
  6941                           
  6942                           ;usb_device.c: 2141:             inPipes[0].info.bits.busy = 1;
  6943  0C0F  17E7               	bsf	_inPipes+2,7	;volatile
  6944  0C10                     i1l3271:	
  6945                           ;usb_device.c: 2146:             if(0 == 1)
  6946                           
  6947                           
  6948                           ;usb_device.c: 2151:             if(RemoteWakeup == 1)
  6949  0C10  0023               	movlb	3	; select bank3
  6950  0C11  0336               	decf	_RemoteWakeup^(0+384),w	;volatile
  6951  0C12  1D03               	btfss	3,2
  6952  0C13  2C15               	goto	u181_21
  6953  0C14  2C16               	goto	u181_20
  6954  0C15                     u181_21:
  6955  0C15  2C66               	goto	i1l397
  6956  0C16                     u181_20:
  6957  0C16                     i1l3273:
  6958                           
  6959                           ;usb_device.c: 2152:             {;usb_device.c: 2153:                 CtrlTrfData[0]|=0
      +                          x02;
  6960  0C16  0020               	movlb	0	; select bank0
  6961  0C17  14C8               	bsf	72,1	;volatile
  6962  0C18  2C66               	goto	i1l397
  6963  0C19                     i1l398:	
  6964                           ;usb_device.c: 2156:         case (0x01):
  6965                           
  6966                           
  6967                           ;usb_device.c: 2157:             inPipes[0].info.bits.busy = 1;
  6968  0C19  17E7               	bsf	_inPipes+2,7	;volatile
  6969                           
  6970                           ;usb_device.c: 2158:             break;
  6971  0C1A  2C66               	goto	i1l397
  6972  0C1B                     i1l399:	
  6973                           ;usb_device.c: 2159:         case (0x02):
  6974                           
  6975                           
  6976                           ;usb_device.c: 2160:             inPipes[0].info.bits.busy = 1;
  6977  0C1B  17E7               	bsf	_inPipes+2,7	;volatile
  6978  0C1C                     i1l3275:
  6979                           
  6980                           ;usb_device.c: 2164:             if(SetupPkt.EPNum != 0)
  6981  0C1C  0844               	movf	68,w	;volatile
  6982  0C1D  390F               	andlw	15
  6983  0C1E  3A00               	xorlw	0
  6984  0C1F  1903               	skipnz
  6985  0C20  2C22               	goto	u182_21
  6986  0C21  2C23               	goto	u182_20
  6987  0C22                     u182_21:
  6988  0C22  2C66               	goto	i1l397
  6989  0C23                     u182_20:
  6990  0C23                     i1l3277:
  6991                           
  6992                           ;usb_device.c: 2165:             {;usb_device.c: 2166:                 BDT_ENTRY *p;;usb
      +                          _device.c: 2168:                 if(SetupPkt.EPDir == 0)
  6993  0C23  1BC4               	btfsc	68,7	;volatile
  6994  0C24  2C26               	goto	u183_21
  6995  0C25  2C27               	goto	u183_20
  6996  0C26                     u183_21:
  6997  0C26  2C33               	goto	i1l3281
  6998  0C27                     u183_20:
  6999  0C27                     i1l3279:
  7000                           
  7001                           ;usb_device.c: 2169:                 {;usb_device.c: 2170:                     p = (BDT_
      +                          ENTRY*)pBDTEntryOut[SetupPkt.EPNum];
  7002  0C27  0844               	movf	68,w	;volatile
  7003  0C28  390F               	andlw	15
  7004  0C29  0709               	addwf	9,w
  7005  0C2A  3EA4               	addlw	(low (_pBDTEntryOut| (0+256)))& (0+255)
  7006  0C2B  0086               	movwf	6
  7007  0C2C  3001               	movlw	1	; select bank3/4
  7008  0C2D  0087               	movwf	7
  7009  0C2E  3F40               	moviw [0]fsr1
  7010  0C2F  00F2               	movwf	USBStdGetStatusHandler@p
  7011  0C30  3F41               	moviw [1]fsr1
  7012  0C31  00F3               	movwf	USBStdGetStatusHandler@p+1
  7013                           
  7014                           ;usb_device.c: 2171:                 }
  7015  0C32  2C3D               	goto	i1l3283
  7016  0C33                     i1l3281:
  7017                           
  7018                           ;usb_device.c: 2173:                 {;usb_device.c: 2174:                     p = (BDT_
      +                          ENTRY*)pBDTEntryIn[SetupPkt.EPNum];
  7019  0C33  0844               	movf	68,w	;volatile
  7020  0C34  390F               	andlw	15
  7021  0C35  0709               	addwf	9,w
  7022  0C36  3E6A               	addlw	(low (_pBDTEntryIn| 0))& (0+255)
  7023  0C37  0086               	movwf	6
  7024  0C38  0187               	clrf	7
  7025  0C39  3F40               	moviw [0]fsr1
  7026  0C3A  00F2               	movwf	USBStdGetStatusHandler@p
  7027  0C3B  3F41               	moviw [1]fsr1
  7028  0C3C  00F3               	movwf	USBStdGetStatusHandler@p+1
  7029  0C3D                     i1l3283:
  7030                           
  7031                           ;usb_device.c: 2177:                 if((p->STAT.UOWN == 1) && (p->STAT.BSTALL == 1))
  7032  0C3D  0872               	movf	USBStdGetStatusHandler@p,w
  7033  0C3E  0086               	movwf	6
  7034  0C3F  0873               	movf	USBStdGetStatusHandler@p+1,w
  7035  0C40  0087               	movwf	7
  7036  0C41  1F81               	btfss	1,7
  7037  0C42  2C44               	goto	u184_21
  7038  0C43  2C45               	goto	u184_20
  7039  0C44                     u184_21:
  7040  0C44  2C66               	goto	i1l397
  7041  0C45                     u184_20:
  7042  0C45                     i1l3285:
  7043  0C45  0872               	movf	USBStdGetStatusHandler@p,w
  7044  0C46  0086               	movwf	6
  7045  0C47  0873               	movf	USBStdGetStatusHandler@p+1,w
  7046  0C48  0087               	movwf	7
  7047  0C49  1D01               	btfss	1,2
  7048  0C4A  2C4C               	goto	u185_21
  7049  0C4B  2C4D               	goto	u185_20
  7050  0C4C                     u185_21:
  7051  0C4C  2C66               	goto	i1l397
  7052  0C4D                     u185_20:
  7053  0C4D                     i1l3287:
  7054                           
  7055                           ;usb_device.c: 2178:                 {;usb_device.c: 2179:                     CtrlTrfDa
      +                          ta[0]=0x01;
  7056  0C4D  3001               	movlw	1
  7057  0C4E  00F0               	movwf	??_USBStdGetStatusHandler
  7058  0C4F  0870               	movf	??_USBStdGetStatusHandler,w
  7059  0C50  00C8               	movwf	72	;volatile
  7060  0C51  2C66               	goto	i1l397
  7061  0C52                     i1l3291:
  7062  0C52  0840               	movf	64,w	;volatile
  7063  0C53  391F               	andlw	31
  7064  0C54  00F0               	movwf	??_USBStdGetStatusHandler
  7065  0C55  01F1               	clrf	??_USBStdGetStatusHandler+1
  7066                           
  7067                           ; Switch on 2 bytes has been partitioned into a top level switch of size 1, and 1 sub-sw
      +                          itches
  7068                           ; Switch size 1, requested type "simple"
  7069                           ; Number of cases is 1, Range of values is 0 to 0
  7070                           ; switch strategies available:
  7071                           ; Name         Instructions Cycles
  7072                           ; simple_byte            4     3 (average)
  7073                           ; direct_byte            8     6 (fixed)
  7074                           ; jumptable            260     6 (fixed)
  7075                           ;	Chosen strategy is simple_byte
  7076  0C56  0871               	movf	??_USBStdGetStatusHandler+1,w
  7077  0C57  3A00               	xorlw	0	; case 0
  7078  0C58  1903               	skipnz
  7079  0C59  2C5B               	goto	i1l5083
  7080  0C5A  2C66               	goto	i1l397
  7081  0C5B                     i1l5083:
  7082                           
  7083                           ; Switch size 1, requested type "simple"
  7084                           ; Number of cases is 3, Range of values is 0 to 2
  7085                           ; switch strategies available:
  7086                           ; Name         Instructions Cycles
  7087                           ; simple_byte           10     6 (average)
  7088                           ; direct_byte           12     6 (fixed)
  7089                           ; jumptable            260     6 (fixed)
  7090                           ;	Chosen strategy is simple_byte
  7091  0C5B  0870               	movf	??_USBStdGetStatusHandler,w
  7092  0C5C  3A00               	xorlw	0	; case 0
  7093  0C5D  1903               	skipnz
  7094  0C5E  2C0F               	goto	i1l394
  7095  0C5F  3A01               	xorlw	1	; case 1
  7096  0C60  1903               	skipnz
  7097  0C61  2C19               	goto	i1l398
  7098  0C62  3A03               	xorlw	3	; case 2
  7099  0C63  1903               	skipnz
  7100  0C64  2C1B               	goto	i1l399
  7101  0C65  2C66               	goto	i1l397
  7102  0C66                     i1l397:
  7103                           
  7104                           ;usb_device.c: 2185:     if(inPipes[0].info.bits.busy == 1)
  7105  0C66  0020               	movlb	0	; select bank0
  7106  0C67  1FE7               	btfss	_inPipes+2,7	;volatile
  7107  0C68  2C6A               	goto	u186_21
  7108  0C69  2C6B               	goto	u186_20
  7109  0C6A                     u186_21:
  7110  0C6A  2C74               	goto	i1l405
  7111  0C6B                     u186_20:
  7112  0C6B                     i1l3293:
  7113                           
  7114                           ;usb_device.c: 2186:     {;usb_device.c: 2187:         inPipes[0].pSrc.bRam = (uint8_t*)
      +                          &CtrlTrfData;
  7115  0C6B  3048               	movlw	72
  7116  0C6C  00E5               	movwf	_inPipes	;volatile
  7117  0C6D  3000               	movlw	0
  7118  0C6E  00E6               	movwf	_inPipes+1	;volatile
  7119  0C6F                     i1l3295:
  7120                           
  7121                           ;usb_device.c: 2188:         inPipes[0].info.bits.ctrl_trf_mem = 0x01;
  7122  0C6F  1467               	bsf	_inPipes+2,0	;volatile
  7123  0C70                     i1l3297:
  7124                           
  7125                           ;usb_device.c: 2189:         inPipes[0].wCount.v[0] = 2;
  7126  0C70  3002               	movlw	2
  7127  0C71  00F0               	movwf	??_USBStdGetStatusHandler
  7128  0C72  0870               	movf	??_USBStdGetStatusHandler,w
  7129  0C73  00E8               	movwf	_inPipes+3	;volatile
  7130  0C74                     i1l405:
  7131  0C74  0008               	return
  7132  0C75                     __end_of_USBStdGetStatusHandler:
  7133                           
  7134                           	psect	text27
  7135  0E6E                     __ptext27:	
  7136 ;; *************** function _USBStdGetDscHandler *****************
  7137 ;; Defined at:
  7138 ;;		line 2047 in file "usb_device.c"
  7139 ;; Parameters:    Size  Location     Type
  7140 ;;		None
  7141 ;; Auto vars:     Size  Location     Type
  7142 ;;		None
  7143 ;; Return value:  Size  Location     Type
  7144 ;;                  1    wreg      void 
  7145 ;; Registers used:
  7146 ;;		wreg, fsr0l, fsr0h, status,2, status,0, pclath
  7147 ;; Tracked objects:
  7148 ;;		On entry : 0/0
  7149 ;;		On exit  : 0/0
  7150 ;;		Unchanged: 0/0
  7151 ;; Data sizes:     COMMON   BANK0   BANK1   BANK2   BANK3   BANK4   BANK5   BANK6   BANK7   BANK8   BANK9  BANK10  BANK1
      +1  BANK12
  7152 ;;      Params:         0       0       0       0       0       0       0       0       0       0       0       0       
      +0       0
  7153 ;;      Locals:         0       0       0       0       0       0       0       0       0       0       0       0       
      +0       0
  7154 ;;      Temps:          3       0       0       0       0       0       0       0       0       0       0       0       
      +0       0
  7155 ;;      Totals:         3       0       0       0       0       0       0       0       0       0       0       0       
      +0       0
  7156 ;;Total ram usage:        3 bytes
  7157 ;; Hardware stack levels used: 1
  7158 ;; This function calls:
  7159 ;;		Nothing
  7160 ;; This function is called by:
  7161 ;;		_USBCheckStdRequest
  7162 ;; This function uses a non-reentrant model
  7163 ;;
  7164                           
  7165  0E6E                     _USBStdGetDscHandler:	
  7166                           ;psect for function _USBStdGetDscHandler
  7167                           
  7168  0E6E                     i1l3231:	
  7169                           ;incstack = 0
  7170                           ; Regs used in _USBStdGetDscHandler: [wreg-fsr0h+status,2+status,0+pclath]
  7171                           
  7172                           
  7173                           ;usb_device.c: 2049:     if(SetupPkt.bmRequestType == 0x80)
  7174  0E6E  3080               	movlw	128
  7175  0E6F  0020               	movlb	0	; select bank0
  7176  0E70  0640               	xorwf	64,w	;volatile
  7177  0E71  1D03               	btfss	3,2
  7178  0E72  2E74               	goto	u178_21
  7179  0E73  2E75               	goto	u178_20
  7180  0E74                     u178_21:
  7181  0E74  2EF0               	goto	i1l390
  7182  0E75                     u178_20:
  7183  0E75                     i1l3233:
  7184                           
  7185                           ;usb_device.c: 2050:     {;usb_device.c: 2051:         inPipes[0].info.Val = 0x00 | 0x80
      +                           | 0x40;
  7186  0E75  30C0               	movlw	192
  7187  0E76  00F0               	movwf	??_USBStdGetDscHandler
  7188  0E77  0870               	movf	??_USBStdGetDscHandler,w
  7189  0E78  00E7               	movwf	_inPipes+2	;volatile
  7190                           
  7191                           ;usb_device.c: 2053:         switch(SetupPkt.bDescriptorType)
  7192  0E79  2EDD               	goto	i1l3261
  7193  0E7A                     i1l3235:
  7194                           
  7195                           ;usb_device.c: 2059:                     inPipes[0].pSrc.bRom = (const uint8_t*)&device_
      +                          dsc;
  7196  0E7A  3082               	movlw	low (_device_dsc| (0+32768))
  7197  0E7B  00E5               	movwf	_inPipes	;volatile
  7198  0E7C  3090               	movlw	high (_device_dsc| (0+32768))
  7199  0E7D  00E6               	movwf	_inPipes+1	;volatile
  7200  0E7E                     i1l3237:
  7201                           
  7202                           ;usb_device.c: 2061:                 inPipes[0].wCount.Val = sizeof(device_dsc);
  7203  0E7E  3000               	movlw	0
  7204  0E7F  00E9               	movwf	_inPipes+4	;volatile
  7205  0E80  3012               	movlw	18
  7206  0E81  00E8               	movwf	_inPipes+3	;volatile
  7207                           
  7208                           ;usb_device.c: 2062:                 break;
  7209  0E82  2EF0               	goto	i1l390
  7210  0E83                     i1l3239:
  7211                           
  7212                           ;usb_device.c: 2067:                 if(SetupPkt.bDscIndex < 1)
  7213  0E83  0842               	movf	66,w	;volatile
  7214  0E84  1D03               	btfss	3,2
  7215  0E85  2E87               	goto	u179_21
  7216  0E86  2E88               	goto	u179_20
  7217  0E87                     u179_21:
  7218  0E87  2EB6               	goto	i1l3247
  7219  0E88                     u179_20:
  7220  0E88                     i1l3241:
  7221                           
  7222                           ;usb_device.c: 2068:                 {;usb_device.c: 2072:                         inPip
      +                          es[0].pSrc.bRom = *(USB_CD_Ptr+SetupPkt.bDscIndex);
  7223  0E88  0842               	movf	66,w	;volatile
  7224  0E89  00F0               	movwf	??_USBStdGetDscHandler
  7225  0E8A  01F1               	clrf	??_USBStdGetDscHandler+1
  7226  0E8B  35F0               	lslf	??_USBStdGetDscHandler,f
  7227  0E8C  0DF1               	rlf	??_USBStdGetDscHandler+1,f
  7228  0E8D  3004               	movlw	low (_USB_CD_Ptr| (0+32768))
  7229  0E8E  0770               	addwf	??_USBStdGetDscHandler,w
  7230  0E8F  0084               	movwf	4
  7231  0E90  3098               	movlw	high (_USB_CD_Ptr| (0+32768))
  7232  0E91  3D71               	addwfc	??_USBStdGetDscHandler+1,w
  7233  0E92  0085               	movwf	5
  7234  0E93  3F00               	moviw [0]fsr0
  7235  0E94  00E5               	movwf	_inPipes	;volatile
  7236  0E95  3F01               	moviw [1]fsr0
  7237  0E96  00E6               	movwf	_inPipes+1	;volatile
  7238  0E97                     i1l3243:
  7239                           
  7240                           ;usb_device.c: 2078:                     inPipes[0].wCount.byte.LB = *(inPipes[0].pSrc.b
      +                          Rom+2);
  7241  0E97  0866               	movf	_inPipes+1,w	;volatile
  7242  0E98  00F1               	movwf	??_USBStdGetDscHandler+1
  7243  0E99  0865               	movf	_inPipes,w	;volatile
  7244  0E9A  00F0               	movwf	??_USBStdGetDscHandler
  7245  0E9B  3002               	movlw	2
  7246  0E9C  0770               	addwf	??_USBStdGetDscHandler,w
  7247  0E9D  0084               	movwf	4
  7248  0E9E  0871               	movf	??_USBStdGetDscHandler+1,w
  7249  0E9F  1803               	skipnc
  7250  0EA0  0A71               	incf	??_USBStdGetDscHandler+1,w
  7251  0EA1  0085               	movwf	5
  7252  0EA2  0800               	movf	0,w	;code access
  7253  0EA3  00F2               	movwf	??_USBStdGetDscHandler+2
  7254  0EA4  0872               	movf	??_USBStdGetDscHandler+2,w
  7255  0EA5  00E8               	movwf	_inPipes+3	;volatile
  7256  0EA6                     i1l3245:
  7257                           
  7258                           ;usb_device.c: 2079:                     inPipes[0].wCount.byte.HB = *(inPipes[0].pSrc.b
      +                          Rom+3);
  7259  0EA6  0866               	movf	_inPipes+1,w	;volatile
  7260  0EA7  00F1               	movwf	??_USBStdGetDscHandler+1
  7261  0EA8  0865               	movf	_inPipes,w	;volatile
  7262  0EA9  00F0               	movwf	??_USBStdGetDscHandler
  7263  0EAA  3003               	movlw	3
  7264  0EAB  0770               	addwf	??_USBStdGetDscHandler,w
  7265  0EAC  0084               	movwf	4
  7266  0EAD  0871               	movf	??_USBStdGetDscHandler+1,w
  7267  0EAE  1803               	skipnc
  7268  0EAF  0A71               	incf	??_USBStdGetDscHandler+1,w
  7269  0EB0  0085               	movwf	5
  7270  0EB1  0800               	movf	0,w	;code access
  7271  0EB2  00F2               	movwf	??_USBStdGetDscHandler+2
  7272  0EB3  0872               	movf	??_USBStdGetDscHandler+2,w
  7273  0EB4  00E9               	movwf	_inPipes+4	;volatile
  7274                           
  7275                           ;usb_device.c: 2080:                 }
  7276  0EB5  2EF0               	goto	i1l390
  7277  0EB6                     i1l3247:
  7278                           
  7279                           ;usb_device.c: 2082:     {;usb_device.c: 2083:      inPipes[0].info.Val = 0;
  7280  0EB6  01E7               	clrf	_inPipes+2	;volatile
  7281  0EB7  2EF0               	goto	i1l390
  7282  0EB8                     i1l3249:
  7283                           
  7284                           ;usb_device.c: 2090:                 if(SetupPkt.bDscIndex<3)
  7285  0EB8  3003               	movlw	3
  7286  0EB9  0242               	subwf	66,w	;volatile
  7287  0EBA  1803               	skipnc
  7288  0EBB  2EBD               	goto	u180_21
  7289  0EBC  2EBE               	goto	u180_20
  7290  0EBD                     u180_21:
  7291  0EBD  2ED9               	goto	i1l3255
  7292  0EBE                     u180_20:
  7293  0EBE                     i1l3251:
  7294                           
  7295                           ;usb_device.c: 2091:                 {;usb_device.c: 2093:                     inPipes[0
      +                          ].pSrc.bRom = *(USB_SD_Ptr+SetupPkt.bDscIndex);
  7296  0EBE  0842               	movf	66,w	;volatile
  7297  0EBF  00F0               	movwf	??_USBStdGetDscHandler
  7298  0EC0  01F1               	clrf	??_USBStdGetDscHandler+1
  7299  0EC1  35F0               	lslf	??_USBStdGetDscHandler,f
  7300  0EC2  0DF1               	rlf	??_USBStdGetDscHandler+1,f
  7301  0EC3  3094               	movlw	low (_USB_SD_Ptr| (0+32768))
  7302  0EC4  0770               	addwf	??_USBStdGetDscHandler,w
  7303  0EC5  0084               	movwf	4
  7304  0EC6  3090               	movlw	high (_USB_SD_Ptr| (0+32768))
  7305  0EC7  3D71               	addwfc	??_USBStdGetDscHandler+1,w
  7306  0EC8  0085               	movwf	5
  7307  0EC9  3F00               	moviw [0]fsr0
  7308  0ECA  00E5               	movwf	_inPipes	;volatile
  7309  0ECB  3F01               	moviw [1]fsr0
  7310  0ECC  00E6               	movwf	_inPipes+1	;volatile
  7311  0ECD                     i1l3253:
  7312                           
  7313                           ;usb_device.c: 2095:                     inPipes[0].wCount.Val = *inPipes[0].pSrc.bRom;
  7314  0ECD  0865               	movf	_inPipes,w	;volatile
  7315  0ECE  0084               	movwf	4
  7316  0ECF  0866               	movf	_inPipes+1,w	;volatile
  7317  0ED0  0085               	movwf	5
  7318  0ED1  0800               	movf	0,w	;code access
  7319  0ED2  00F0               	movwf	??_USBStdGetDscHandler
  7320  0ED3  01F1               	clrf	??_USBStdGetDscHandler+1
  7321  0ED4  0870               	movf	??_USBStdGetDscHandler,w
  7322  0ED5  00E8               	movwf	_inPipes+3	;volatile
  7323  0ED6  0871               	movf	??_USBStdGetDscHandler+1,w
  7324  0ED7  00E9               	movwf	_inPipes+4	;volatile
  7325                           
  7326                           ;usb_device.c: 2096:                 }
  7327  0ED8  2EF0               	goto	i1l390
  7328  0ED9                     i1l3255:
  7329                           
  7330                           ;usb_device.c: 2107:                 {;usb_device.c: 2108:                     inPipes[0
      +                          ].info.Val = 0;
  7331  0ED9  01E7               	clrf	_inPipes+2	;volatile
  7332  0EDA  2EF0               	goto	i1l390
  7333  0EDB                     i1l3257:
  7334                           
  7335                           ;usb_device.c: 2112:                 inPipes[0].info.Val = 0;
  7336  0EDB  01E7               	clrf	_inPipes+2	;volatile
  7337                           
  7338                           ;usb_device.c: 2113:                 break;
  7339  0EDC  2EF0               	goto	i1l390
  7340  0EDD                     i1l3261:
  7341  0EDD  0843               	movf	67,w	;volatile
  7342  0EDE  00F0               	movwf	??_USBStdGetDscHandler
  7343  0EDF  01F1               	clrf	??_USBStdGetDscHandler+1
  7344                           
  7345                           ; Switch on 2 bytes has been partitioned into a top level switch of size 1, and 1 sub-sw
      +                          itches
  7346                           ; Switch size 1, requested type "simple"
  7347                           ; Number of cases is 1, Range of values is 0 to 0
  7348                           ; switch strategies available:
  7349                           ; Name         Instructions Cycles
  7350                           ; simple_byte            4     3 (average)
  7351                           ; direct_byte            8     6 (fixed)
  7352                           ; jumptable            260     6 (fixed)
  7353                           ;	Chosen strategy is simple_byte
  7354  0EE0  0871               	movf	??_USBStdGetDscHandler+1,w
  7355  0EE1  3A00               	xorlw	0	; case 0
  7356  0EE2  1903               	skipnz
  7357  0EE3  2EE5               	goto	i1l5085
  7358  0EE4  2EDB               	goto	i1l3257
  7359  0EE5                     i1l5085:
  7360                           
  7361                           ; Switch size 1, requested type "simple"
  7362                           ; Number of cases is 3, Range of values is 1 to 3
  7363                           ; switch strategies available:
  7364                           ; Name         Instructions Cycles
  7365                           ; simple_byte           10     6 (average)
  7366                           ; direct_byte           15     9 (fixed)
  7367                           ; jumptable            263     9 (fixed)
  7368                           ;	Chosen strategy is simple_byte
  7369  0EE5  0870               	movf	??_USBStdGetDscHandler,w
  7370  0EE6  3A01               	xorlw	1	; case 1
  7371  0EE7  1903               	skipnz
  7372  0EE8  2E7A               	goto	i1l3235
  7373  0EE9  3A03               	xorlw	3	; case 2
  7374  0EEA  1903               	skipnz
  7375  0EEB  2E83               	goto	i1l3239
  7376  0EEC  3A01               	xorlw	1	; case 3
  7377  0EED  1903               	skipnz
  7378  0EEE  2EB8               	goto	i1l3249
  7379  0EEF  2EDB               	goto	i1l3257
  7380  0EF0                     i1l390:
  7381  0EF0  0008               	return
  7382  0EF1                     __end_of_USBStdGetDscHandler:
  7383                           
  7384                           	psect	text28
  7385  002C                     __ptext28:	
  7386 ;; *************** function _USBStdFeatureReqHandler *****************
  7387 ;; Defined at:
  7388 ;;		line 2761 in file "usb_device.c"
  7389 ;; Parameters:    Size  Location     Type
  7390 ;;		None
  7391 ;; Auto vars:     Size  Location     Type
  7392 ;;  p               2   11[BANK0 ] PTR struct __BDT
  7393 ;;		 -> RAM(4096), BDT(32), NULL(0), 
  7394 ;;  pUEP            2    8[BANK0 ] PTR unsigned char 
  7395 ;;		 -> UEP0(1), 
  7396 ;;  current_ep_d    1   10[BANK0 ] struct .
  7397 ;; Return value:  Size  Location     Type
  7398 ;;                  1    wreg      void 
  7399 ;; Registers used:
  7400 ;;		wreg, fsr0l, fsr0h, fsr1l, fsr1h, status,2, status,0, pclath, cstack
  7401 ;; Tracked objects:
  7402 ;;		On entry : 0/0
  7403 ;;		On exit  : 0/0
  7404 ;;		Unchanged: 0/0
  7405 ;; Data sizes:     COMMON   BANK0   BANK1   BANK2   BANK3   BANK4   BANK5   BANK6   BANK7   BANK8   BANK9  BANK10  BANK1
      +1  BANK12
  7406 ;;      Params:         0       0       0       0       0       0       0       0       0       0       0       0       
      +0       0
  7407 ;;      Locals:         0       5       0       0       0       0       0       0       0       0       0       0       
      +0       0
  7408 ;;      Temps:          0       2       0       0       0       0       0       0       0       0       0       0       
      +0       0
  7409 ;;      Totals:         0       7       0       0       0       0       0       0       0       0       0       0       
      +0       0
  7410 ;;Total ram usage:        7 bytes
  7411 ;; Hardware stack levels used: 1
  7412 ;; Hardware stack levels required when called: 4
  7413 ;; This function calls:
  7414 ;;		_USER_USB_CALLBACK_EVENT_HANDLER
  7415 ;; This function is called by:
  7416 ;;		_USBCheckStdRequest
  7417 ;; This function uses a non-reentrant model
  7418 ;;
  7419                           
  7420  002C                     _USBStdFeatureReqHandler:	
  7421                           ;psect for function _USBStdFeatureReqHandler
  7422                           
  7423  002C                     i1l3303:	
  7424                           ;incstack = 0
  7425                           ; Regs used in _USBStdFeatureReqHandler: [wreg-fsr1h+status,2+status,0+pclath+cstack]
  7426                           
  7427                           
  7428                           ;usb_device.c: 2763:     BDT_ENTRY *p;;usb_device.c: 2764:     EP_STATUS current_ep_data
      +                          ;;usb_device.c: 2768:         unsigned char* pUEP;;usb_device.c: 2772:     if((SetupPkt.
      +                          bFeature == 1)&&
  7429  002C  0020               	movlb	0	; select bank0
  7430  002D  0342               	decf	66,w	;volatile
  7431  002E  1D03               	btfss	3,2
  7432  002F  2831               	goto	u187_21
  7433  0030  2832               	goto	u187_20
  7434  0031                     u187_21:
  7435  0031  2848               	goto	i1l3315
  7436  0032                     u187_20:
  7437  0032                     i1l3305:
  7438  0032  0840               	movf	64,w	;volatile
  7439  0033  391F               	andlw	31
  7440  0034  3A00               	xorlw	0
  7441  0035  1D03               	skipz
  7442  0036  2838               	goto	u188_21
  7443  0037  2839               	goto	u188_20
  7444  0038                     u188_21:
  7445  0038  2848               	goto	i1l3315
  7446  0039                     u188_20:
  7447  0039                     i1l3307:
  7448                           
  7449                           ;usb_device.c: 2774:     {;usb_device.c: 2775:         inPipes[0].info.bits.busy = 1;
  7450  0039  17E7               	bsf	_inPipes+2,7	;volatile
  7451  003A                     i1l3309:
  7452                           
  7453                           ;usb_device.c: 2776:         if(SetupPkt.bRequest == 3)
  7454  003A  3003               	movlw	3
  7455  003B  0641               	xorwf	65,w	;volatile
  7456  003C  1D03               	btfss	3,2
  7457  003D  283F               	goto	u189_21
  7458  003E  2840               	goto	u189_20
  7459  003F                     u189_21:
  7460  003F  2846               	goto	i1l3313
  7461  0040                     u189_20:
  7462  0040                     i1l3311:
  7463                           
  7464                           ;usb_device.c: 2777:             RemoteWakeup = 1;
  7465  0040  3001               	movlw	1
  7466  0041  00D6               	movwf	??_USBStdFeatureReqHandler
  7467  0042  0856               	movf	??_USBStdFeatureReqHandler,w
  7468  0043  0023               	movlb	3	; select bank3
  7469  0044  00B6               	movwf	_RemoteWakeup^(0+384)	;volatile
  7470  0045  2848               	goto	i1l3315
  7471  0046                     i1l3313:
  7472                           
  7473                           ;usb_device.c: 2779:             RemoteWakeup = 0;
  7474  0046  0023               	movlb	3	; select bank3
  7475  0047  01B6               	clrf	_RemoteWakeup^(0+384)	;volatile
  7476  0048                     i1l3315:
  7477                           
  7478                           ;usb_device.c: 2783:     if((SetupPkt.bFeature == 0)&&
  7479  0048  0020               	movlb	0	; select bank0
  7480  0049  0842               	movf	66,w	;volatile
  7481  004A  1D03               	btfss	3,2
  7482  004B  284D               	goto	u190_21
  7483  004C  284E               	goto	u190_20
  7484  004D                     u190_21:
  7485  004D  2981               	goto	i1l495
  7486  004E                     u190_20:
  7487  004E                     i1l3317:
  7488  004E  0840               	movf	64,w	;volatile
  7489  004F  391F               	andlw	31
  7490  0050  3A02               	xorlw	2
  7491  0051  1D03               	skipz
  7492  0052  2854               	goto	u191_21
  7493  0053  2855               	goto	u191_20
  7494  0054                     u191_21:
  7495  0054  2981               	goto	i1l495
  7496  0055                     u191_20:
  7497  0055                     i1l3319:
  7498  0055  0844               	movf	68,w	;volatile
  7499  0056  390F               	andlw	15
  7500  0057  3A00               	xorlw	0
  7501  0058  1903               	skipnz
  7502  0059  285B               	goto	u192_21
  7503  005A  285C               	goto	u192_20
  7504  005B                     u192_21:
  7505  005B  2981               	goto	i1l495
  7506  005C                     u192_20:
  7507  005C                     i1l3321:
  7508  005C  0844               	movf	68,w	;volatile
  7509  005D  390F               	andlw	15
  7510  005E  00D6               	movwf	??_USBStdFeatureReqHandler
  7511  005F  3002               	movlw	2
  7512  0060  0256               	subwf	??_USBStdFeatureReqHandler,w
  7513  0061  1803               	skipnc
  7514  0062  2864               	goto	u193_21
  7515  0063  2865               	goto	u193_20
  7516  0064                     u193_21:
  7517  0064  2981               	goto	i1l495
  7518  0065                     u193_20:
  7519  0065                     i1l3323:
  7520  0065  3020               	movlw	32
  7521  0066  0021               	movlb	1	; select bank1
  7522  0067  066F               	xorwf	_USBDeviceState^(0+128),w	;volatile
  7523  0068  1D03               	btfss	3,2
  7524  0069  286B               	goto	u194_21
  7525  006A  286C               	goto	u194_20
  7526  006B                     u194_21:
  7527  006B  2981               	goto	i1l495
  7528  006C                     u194_20:
  7529  006C                     i1l3325:
  7530                           
  7531                           ;usb_device.c: 2787:     {;usb_device.c: 2790:   inPipes[0].info.bits.busy = 1;
  7532  006C  0020               	movlb	0	; select bank0
  7533  006D  17E7               	bsf	_inPipes+2,7	;volatile
  7534                           
  7535                           ;usb_device.c: 2793:         if(SetupPkt.EPDir == 0)
  7536  006E  1BC4               	btfsc	68,7	;volatile
  7537  006F  2871               	goto	u195_21
  7538  0070  2872               	goto	u195_20
  7539  0071                     u195_21:
  7540  0071  2888               	goto	i1l3329
  7541  0072                     u195_20:
  7542  0072                     i1l3327:
  7543                           
  7544                           ;usb_device.c: 2794:         {;usb_device.c: 2795:             p = (BDT_ENTRY*)pBDTEntry
      +                          Out[SetupPkt.EPNum];
  7545  0072  0844               	movf	68,w	;volatile
  7546  0073  390F               	andlw	15
  7547  0074  0709               	addwf	9,w
  7548  0075  3EA4               	addlw	(low (_pBDTEntryOut| (0+256)))& (0+255)
  7549  0076  0086               	movwf	6
  7550  0077  3001               	movlw	1	; select bank3/4
  7551  0078  0087               	movwf	7
  7552  0079  3F40               	moviw [0]fsr1
  7553  007A  00DB               	movwf	USBStdFeatureReqHandler@p
  7554  007B  3F41               	moviw [1]fsr1
  7555  007C  00DC               	movwf	USBStdFeatureReqHandler@p+1
  7556                           
  7557                           ;usb_device.c: 2796:             current_ep_data.Val = ep_data_out[SetupPkt.EPNum].Val;
  7558  007D  0844               	movf	68,w	;volatile
  7559  007E  390F               	andlw	15
  7560  007F  3EA8               	addlw	(low (_ep_data_out| (0+256)))& (0+255)
  7561  0080  0086               	movwf	6
  7562  0081  3001               	movlw	1	; select bank3/4
  7563  0082  0087               	movwf	7
  7564  0083  0801               	movf	1,w
  7565  0084  00D6               	movwf	??_USBStdFeatureReqHandler
  7566  0085  0856               	movf	??_USBStdFeatureReqHandler,w
  7567  0086  00DA               	movwf	USBStdFeatureReqHandler@current_ep_data
  7568                           
  7569                           ;usb_device.c: 2797:         }
  7570  0087  289C               	goto	i1l3331
  7571  0088                     i1l3329:
  7572                           
  7573                           ;usb_device.c: 2799:         {;usb_device.c: 2800:             p = (BDT_ENTRY*)pBDTEntry
      +                          In[SetupPkt.EPNum];
  7574  0088  0844               	movf	68,w	;volatile
  7575  0089  390F               	andlw	15
  7576  008A  0709               	addwf	9,w
  7577  008B  3E6A               	addlw	(low (_pBDTEntryIn| 0))& (0+255)
  7578  008C  0086               	movwf	6
  7579  008D  0187               	clrf	7
  7580  008E  3F40               	moviw [0]fsr1
  7581  008F  00DB               	movwf	USBStdFeatureReqHandler@p
  7582  0090  3F41               	moviw [1]fsr1
  7583  0091  00DC               	movwf	USBStdFeatureReqHandler@p+1
  7584                           
  7585                           ;usb_device.c: 2801:             current_ep_data.Val = ep_data_in[SetupPkt.EPNum].Val;
  7586  0092  0844               	movf	68,w	;volatile
  7587  0093  390F               	andlw	15
  7588  0094  3E67               	addlw	(low (_ep_data_in| (0+256)))& (0+255)
  7589  0095  0086               	movwf	6
  7590  0096  3001               	movlw	1	; select bank2/3
  7591  0097  0087               	movwf	7
  7592  0098  0801               	movf	1,w
  7593  0099  00D6               	movwf	??_USBStdFeatureReqHandler
  7594  009A  0856               	movf	??_USBStdFeatureReqHandler,w
  7595  009B  00DA               	movwf	USBStdFeatureReqHandler@current_ep_data
  7596  009C                     i1l3331:
  7597                           
  7598                           ;usb_device.c: 2808:             if(current_ep_data.bits.ping_pong_state == 0)
  7599  009C  185A               	btfsc	USBStdFeatureReqHandler@current_ep_data,0
  7600  009D  289F               	goto	u196_21
  7601  009E  28A0               	goto	u196_20
  7602  009F                     u196_21:
  7603  009F  28AB               	goto	i1l3335
  7604  00A0                     u196_20:
  7605  00A0                     i1l3333:
  7606                           
  7607                           ;usb_device.c: 2809:             {;usb_device.c: 2810:                 p = (BDT_ENTRY*)(
      +                          ((uint16_t)p) & (~0x0004));
  7608  00A0  30FB               	movlw	251
  7609  00A1  00D6               	movwf	??_USBStdFeatureReqHandler
  7610  00A2  30FF               	movlw	255
  7611  00A3  00D7               	movwf	??_USBStdFeatureReqHandler+1
  7612  00A4  085B               	movf	USBStdFeatureReqHandler@p,w
  7613  00A5  0556               	andwf	??_USBStdFeatureReqHandler,w
  7614  00A6  00DB               	movwf	USBStdFeatureReqHandler@p
  7615  00A7  085C               	movf	USBStdFeatureReqHandler@p+1,w
  7616  00A8  0557               	andwf	??_USBStdFeatureReqHandler+1,w
  7617  00A9  00DC               	movwf	USBStdFeatureReqHandler@p+1
  7618                           
  7619                           ;usb_device.c: 2811:             }
  7620  00AA  28B1               	goto	i1l3337
  7621  00AB                     i1l3335:
  7622                           
  7623                           ;usb_device.c: 2813:             {;usb_device.c: 2814:                 p = (BDT_ENTRY*)(
      +                          ((uint16_t)p) | 0x0004);
  7624  00AB  3004               	movlw	4
  7625  00AC  045B               	iorwf	USBStdFeatureReqHandler@p,w
  7626  00AD  00DB               	movwf	USBStdFeatureReqHandler@p
  7627  00AE  3000               	movlw	0
  7628  00AF  045C               	iorwf	USBStdFeatureReqHandler@p+1,w
  7629  00B0  00DC               	movwf	USBStdFeatureReqHandler@p+1
  7630  00B1                     i1l3337:
  7631                           
  7632                           ;usb_device.c: 2820:         if(SetupPkt.EPDir == 0)
  7633  00B1  1BC4               	btfsc	68,7	;volatile
  7634  00B2  28B4               	goto	u197_21
  7635  00B3  28B5               	goto	u197_20
  7636  00B4                     u197_21:
  7637  00B4  28C1               	goto	i1l3341
  7638  00B5                     u197_20:
  7639  00B5                     i1l3339:
  7640                           
  7641                           ;usb_device.c: 2821:         {;usb_device.c: 2822:             pBDTEntryOut[SetupPkt.EPN
      +                          um] = (volatile BDT_ENTRY *)p;
  7642  00B5  0844               	movf	68,w	;volatile
  7643  00B6  390F               	andlw	15
  7644  00B7  0709               	addwf	9,w
  7645  00B8  3EA4               	addlw	(low (_pBDTEntryOut| (0+256)))& (0+255)
  7646  00B9  0086               	movwf	6
  7647  00BA  3001               	movlw	1	; select bank3/4
  7648  00BB  0087               	movwf	7
  7649  00BC  085B               	movf	USBStdFeatureReqHandler@p,w
  7650  00BD  3FC0               	movwi [0]fsr1
  7651  00BE  085C               	movf	USBStdFeatureReqHandler@p+1,w
  7652  00BF  3FC1               	movwi [1]fsr1
  7653                           
  7654                           ;usb_device.c: 2823:         }
  7655  00C0  28CB               	goto	i1l3343
  7656  00C1                     i1l3341:
  7657                           
  7658                           ;usb_device.c: 2825:         {;usb_device.c: 2826:             pBDTEntryIn[SetupPkt.EPNu
      +                          m] = (volatile BDT_ENTRY *)p;
  7659  00C1  0844               	movf	68,w	;volatile
  7660  00C2  390F               	andlw	15
  7661  00C3  0709               	addwf	9,w
  7662  00C4  3E6A               	addlw	(low (_pBDTEntryIn| 0))& (0+255)
  7663  00C5  0086               	movwf	6
  7664  00C6  0187               	clrf	7
  7665  00C7  085B               	movf	USBStdFeatureReqHandler@p,w
  7666  00C8  3FC0               	movwi [0]fsr1
  7667  00C9  085C               	movf	USBStdFeatureReqHandler@p+1,w
  7668  00CA  3FC1               	movwi [1]fsr1
  7669  00CB                     i1l3343:
  7670                           
  7671                           ;usb_device.c: 2830:         if(SetupPkt.bRequest == 3)
  7672  00CB  3003               	movlw	3
  7673  00CC  0641               	xorwf	65,w	;volatile
  7674  00CD  1D03               	btfss	3,2
  7675  00CE  28D0               	goto	u198_21
  7676  00CF  28D1               	goto	u198_20
  7677  00D0                     u198_21:
  7678  00D0  28F7               	goto	i1l3357
  7679  00D1                     u198_20:
  7680  00D1                     i1l3345:
  7681                           
  7682                           ;usb_device.c: 2831:         {;usb_device.c: 2832:             if(p->STAT.UOWN == 1)
  7683  00D1  085B               	movf	USBStdFeatureReqHandler@p,w
  7684  00D2  0086               	movwf	6
  7685  00D3  085C               	movf	USBStdFeatureReqHandler@p+1,w
  7686  00D4  0087               	movwf	7
  7687  00D5  1F81               	btfss	1,7
  7688  00D6  28D8               	goto	u199_21
  7689  00D7  28D9               	goto	u199_20
  7690  00D8                     u199_21:
  7691  00D8  28EC               	goto	i1l3353
  7692  00D9                     u199_20:
  7693  00D9                     i1l3347:
  7694                           
  7695                           ;usb_device.c: 2833:             {;usb_device.c: 2836:                 if(SetupPkt.EPDir
      +                           == 0)
  7696  00D9  1BC4               	btfsc	68,7	;volatile
  7697  00DA  28DC               	goto	u200_21
  7698  00DB  28DD               	goto	u200_20
  7699  00DC                     u200_21:
  7700  00DC  28E5               	goto	i1l3351
  7701  00DD                     u200_20:
  7702  00DD                     i1l3349:
  7703                           
  7704                           ;usb_device.c: 2837:                 {;usb_device.c: 2838:                     ep_data_o
      +                          ut[SetupPkt.EPNum].bits.transfer_terminated = 1;
  7705  00DD  0844               	movf	68,w	;volatile
  7706  00DE  390F               	andlw	15
  7707  00DF  3EA8               	addlw	(low (_ep_data_out| (0+256)))& (0+255)
  7708  00E0  0086               	movwf	6
  7709  00E1  3001               	movlw	1	; select bank3/4
  7710  00E2  0087               	movwf	7
  7711  00E3  1481               	bsf	1,1
  7712                           
  7713                           ;usb_device.c: 2839:                 }
  7714  00E4  28EC               	goto	i1l3353
  7715  00E5                     i1l3351:
  7716                           
  7717                           ;usb_device.c: 2841:                 {;usb_device.c: 2842:                     ep_data_i
      +                          n[SetupPkt.EPNum].bits.transfer_terminated = 1;
  7718  00E5  0844               	movf	68,w	;volatile
  7719  00E6  390F               	andlw	15
  7720  00E7  3E67               	addlw	(low (_ep_data_in| (0+256)))& (0+255)
  7721  00E8  0086               	movwf	6
  7722  00E9  3001               	movlw	1	; select bank2/3
  7723  00EA  0087               	movwf	7
  7724  00EB  1481               	bsf	1,1
  7725  00EC                     i1l3353:
  7726                           
  7727                           ;usb_device.c: 2847:             p->STAT.Val |= 0x04;
  7728  00EC  085B               	movf	USBStdFeatureReqHandler@p,w
  7729  00ED  0086               	movwf	6
  7730  00EE  085C               	movf	USBStdFeatureReqHandler@p+1,w
  7731  00EF  0087               	movwf	7
  7732  00F0  1501               	bsf	1,2
  7733  00F1                     i1l3355:
  7734                           
  7735                           ;usb_device.c: 2848:             p->STAT.Val |= 0x80;
  7736  00F1  085B               	movf	USBStdFeatureReqHandler@p,w
  7737  00F2  0086               	movwf	6
  7738  00F3  085C               	movf	USBStdFeatureReqHandler@p+1,w
  7739  00F4  0087               	movwf	7
  7740  00F5  1781               	bsf	1,7
  7741                           
  7742                           ;usb_device.c: 2849:         }
  7743  00F6  2981               	goto	i1l495
  7744  00F7                     i1l3357:
  7745                           
  7746                           ;usb_device.c: 2851:         {;usb_device.c: 2855:                 p = (BDT_ENTRY*)(((ui
      +                          nt16_t)p) ^ 0x0004);
  7747  00F7  3004               	movlw	4
  7748  00F8  065B               	xorwf	USBStdFeatureReqHandler@p,w
  7749  00F9  00DB               	movwf	USBStdFeatureReqHandler@p
  7750  00FA  3000               	movlw	0
  7751  00FB  065C               	xorwf	USBStdFeatureReqHandler@p+1,w
  7752  00FC  00DC               	movwf	USBStdFeatureReqHandler@p+1
  7753  00FD                     i1l3359:
  7754                           
  7755                           ;usb_device.c: 2857:                 if(p->STAT.UOWN == 1)
  7756  00FD  085B               	movf	USBStdFeatureReqHandler@p,w
  7757  00FE  0086               	movwf	6
  7758  00FF  085C               	movf	USBStdFeatureReqHandler@p+1,w
  7759  0100  0087               	movwf	7
  7760  0101  1F81               	btfss	1,7
  7761  0102  2904               	goto	u201_21
  7762  0103  2905               	goto	u201_20
  7763  0104                     u201_21:
  7764  0104  2922               	goto	i1l3367
  7765  0105                     u201_20:
  7766  0105                     i1l3361:
  7767                           
  7768                           ;usb_device.c: 2858:                 {;usb_device.c: 2861:                     p->STAT.V
      +                          al &= (~0x80);
  7769  0105  307F               	movlw	127
  7770  0106  00D6               	movwf	??_USBStdFeatureReqHandler
  7771  0107  085B               	movf	USBStdFeatureReqHandler@p,w
  7772  0108  0086               	movwf	6
  7773  0109  085C               	movf	USBStdFeatureReqHandler@p+1,w
  7774  010A  0087               	movwf	7
  7775  010B  0856               	movf	??_USBStdFeatureReqHandler,w
  7776  010C  0581               	andwf	1,f
  7777  010D                     i1l3363:
  7778                           
  7779                           ;usb_device.c: 2862:                     p->STAT.Val |= 0x40;
  7780  010D  085B               	movf	USBStdFeatureReqHandler@p,w
  7781  010E  0086               	movwf	6
  7782  010F  085C               	movf	USBStdFeatureReqHandler@p+1,w
  7783  0110  0087               	movwf	7
  7784  0111  1701               	bsf	1,6
  7785  0112                     i1l3365:
  7786                           
  7787                           ;usb_device.c: 2863:                     USER_USB_CALLBACK_EVENT_HANDLER((USB_EVENT)EVEN
      +                          T_TRANSFER_TERMINATED,p,sizeof(p));
  7788  0112  3005               	movlw	5
  7789  0113  00D0               	movwf	USER_USB_CALLBACK_EVENT_HANDLER@event
  7790  0114  3000               	movlw	0
  7791  0115  00D1               	movwf	USER_USB_CALLBACK_EVENT_HANDLER@event+1
  7792  0116  085C               	movf	USBStdFeatureReqHandler@p+1,w
  7793  0117  00D3               	movwf	USER_USB_CALLBACK_EVENT_HANDLER@pdata+1
  7794  0118  085B               	movf	USBStdFeatureReqHandler@p,w
  7795  0119  00D2               	movwf	USER_USB_CALLBACK_EVENT_HANDLER@pdata
  7796  011A  3002               	movlw	2
  7797  011B  00D4               	movwf	USER_USB_CALLBACK_EVENT_HANDLER@size
  7798  011C  3000               	movlw	0
  7799  011D  00D5               	movwf	USER_USB_CALLBACK_EVENT_HANDLER@size+1
  7800  011E  318A  22C5  3180   	fcall	_USER_USB_CALLBACK_EVENT_HANDLER
  7801                           
  7802                           ;usb_device.c: 2864:                 }
  7803  0121  2927               	goto	i1l3369
  7804  0122                     i1l3367:
  7805                           
  7806                           ;usb_device.c: 2866:                 {;usb_device.c: 2868:      p->STAT.Val |= 0x40;
  7807  0122  085B               	movf	USBStdFeatureReqHandler@p,w
  7808  0123  0086               	movwf	6
  7809  0124  085C               	movf	USBStdFeatureReqHandler@p+1,w
  7810  0125  0087               	movwf	7
  7811  0126  1701               	bsf	1,6
  7812  0127                     i1l3369:
  7813                           
  7814                           ;usb_device.c: 2873:                 p = (BDT_ENTRY*)(((uint16_t)p) ^ 0x0004);
  7815  0127  3004               	movlw	4
  7816  0128  0020               	movlb	0	; select bank0
  7817  0129  065B               	xorwf	USBStdFeatureReqHandler@p,w
  7818  012A  00DB               	movwf	USBStdFeatureReqHandler@p
  7819  012B  3000               	movlw	0
  7820  012C  065C               	xorwf	USBStdFeatureReqHandler@p+1,w
  7821  012D  00DC               	movwf	USBStdFeatureReqHandler@p+1
  7822  012E                     i1l3371:
  7823                           
  7824                           ;usb_device.c: 2879:                 if((current_ep_data.bits.transfer_terminated != 0) 
      +                          || (p->STAT.UOWN == 1))
  7825  012E  18DA               	btfsc	USBStdFeatureReqHandler@current_ep_data,1
  7826  012F  2931               	goto	u202_21
  7827  0130  2932               	goto	u202_20
  7828  0131                     u202_21:
  7829  0131  293A               	goto	i1l491
  7830  0132                     u202_20:
  7831  0132                     i1l3373:
  7832  0132  085B               	movf	USBStdFeatureReqHandler@p,w
  7833  0133  0086               	movwf	6
  7834  0134  085C               	movf	USBStdFeatureReqHandler@p+1,w
  7835  0135  0087               	movwf	7
  7836  0136  1F81               	btfss	1,7
  7837  0137  2939               	goto	u203_21
  7838  0138  293A               	goto	u203_20
  7839  0139                     u203_21:
  7840  0139  2965               	goto	i1l3381
  7841  013A                     u203_20:
  7842  013A                     i1l491:
  7843                           
  7844                           ;usb_device.c: 2880:                 {;usb_device.c: 2881:                     if(SetupP
      +                          kt.EPDir == 0)
  7845  013A  1BC4               	btfsc	68,7	;volatile
  7846  013B  293D               	goto	u204_21
  7847  013C  293E               	goto	u204_20
  7848  013D                     u204_21:
  7849  013D  2946               	goto	i1l3377
  7850  013E                     u204_20:
  7851  013E                     i1l3375:
  7852                           
  7853                           ;usb_device.c: 2882:                     {;usb_device.c: 2883:                         e
      +                          p_data_out[SetupPkt.EPNum].bits.transfer_terminated = 0;
  7854  013E  0844               	movf	68,w	;volatile
  7855  013F  390F               	andlw	15
  7856  0140  3EA8               	addlw	(low (_ep_data_out| (0+256)))& (0+255)
  7857  0141  0086               	movwf	6
  7858  0142  3001               	movlw	1	; select bank3/4
  7859  0143  0087               	movwf	7
  7860  0144  1081               	bcf	1,1
  7861                           
  7862                           ;usb_device.c: 2884:                     }
  7863  0145  294D               	goto	i1l493
  7864  0146                     i1l3377:
  7865                           
  7866                           ;usb_device.c: 2886:                     {;usb_device.c: 2887:                         e
      +                          p_data_in[SetupPkt.EPNum].bits.transfer_terminated = 0;
  7867  0146  0844               	movf	68,w	;volatile
  7868  0147  390F               	andlw	15
  7869  0148  3E67               	addlw	(low (_ep_data_in| (0+256)))& (0+255)
  7870  0149  0086               	movwf	6
  7871  014A  3001               	movlw	1	; select bank2/3
  7872  014B  0087               	movwf	7
  7873  014C  1081               	bcf	1,1
  7874  014D                     i1l493:	
  7875                           ;usb_device.c: 2888:                     }
  7876                           
  7877                           
  7878                           ;usb_device.c: 2890:                     p->STAT.Val &= ~(0x80 | 0x40 | 0x04);
  7879  014D  303B               	movlw	59
  7880  014E  00D6               	movwf	??_USBStdFeatureReqHandler
  7881  014F  085B               	movf	USBStdFeatureReqHandler@p,w
  7882  0150  0086               	movwf	6
  7883  0151  085C               	movf	USBStdFeatureReqHandler@p+1,w
  7884  0152  0087               	movwf	7
  7885  0153  0856               	movf	??_USBStdFeatureReqHandler,w
  7886  0154  0581               	andwf	1,f
  7887  0155                     i1l3379:
  7888                           
  7889                           ;usb_device.c: 2893:                     USER_USB_CALLBACK_EVENT_HANDLER((USB_EVENT)EVEN
      +                          T_TRANSFER_TERMINATED,p,sizeof(p));
  7890  0155  3005               	movlw	5
  7891  0156  00D0               	movwf	USER_USB_CALLBACK_EVENT_HANDLER@event
  7892  0157  3000               	movlw	0
  7893  0158  00D1               	movwf	USER_USB_CALLBACK_EVENT_HANDLER@event+1
  7894  0159  085C               	movf	USBStdFeatureReqHandler@p+1,w
  7895  015A  00D3               	movwf	USER_USB_CALLBACK_EVENT_HANDLER@pdata+1
  7896  015B  085B               	movf	USBStdFeatureReqHandler@p,w
  7897  015C  00D2               	movwf	USER_USB_CALLBACK_EVENT_HANDLER@pdata
  7898  015D  3002               	movlw	2
  7899  015E  00D4               	movwf	USER_USB_CALLBACK_EVENT_HANDLER@size
  7900  015F  3000               	movlw	0
  7901  0160  00D5               	movwf	USER_USB_CALLBACK_EVENT_HANDLER@size+1
  7902  0161  318A  22C5  3180   	fcall	_USER_USB_CALLBACK_EVENT_HANDLER
  7903                           
  7904                           ;usb_device.c: 2894:                 }
  7905  0164  296D               	goto	i1l3383
  7906  0165                     i1l3381:
  7907                           
  7908                           ;usb_device.c: 2896:                 {;usb_device.c: 2898:                     p->STAT.V
      +                          al &= ~(0x80 | 0x40 | 0x04);
  7909  0165  303B               	movlw	59
  7910  0166  00D6               	movwf	??_USBStdFeatureReqHandler
  7911  0167  085B               	movf	USBStdFeatureReqHandler@p,w
  7912  0168  0086               	movwf	6
  7913  0169  085C               	movf	USBStdFeatureReqHandler@p+1,w
  7914  016A  0087               	movwf	7
  7915  016B  0856               	movf	??_USBStdFeatureReqHandler,w
  7916  016C  0581               	andwf	1,f
  7917  016D                     i1l3383:
  7918                           
  7919                           ;usb_device.c: 2946:                 pUEP = (unsigned char*)(&UEP0+SetupPkt.EPNum);
  7920  016D  0020               	movlb	0	; select bank0
  7921  016E  0844               	movf	68,w	;volatile
  7922  016F  390F               	andlw	15
  7923  0170  3E98               	addlw	152
  7924  0171  00D6               	movwf	??_USBStdFeatureReqHandler
  7925  0172  01D7               	clrf	??_USBStdFeatureReqHandler+1
  7926  0173  300E               	movlw	14
  7927  0174  3DD7               	addwfc	??_USBStdFeatureReqHandler+1,f
  7928  0175  0856               	movf	??_USBStdFeatureReqHandler,w
  7929  0176  00D8               	movwf	USBStdFeatureReqHandler@pUEP
  7930  0177  0857               	movf	??_USBStdFeatureReqHandler+1,w
  7931  0178  00D9               	movwf	USBStdFeatureReqHandler@pUEP+1
  7932  0179                     i1l3385:
  7933                           
  7934                           ;usb_device.c: 2950:             *pUEP &= ~0x0001;
  7935  0179  30FE               	movlw	254
  7936  017A  00D6               	movwf	??_USBStdFeatureReqHandler
  7937  017B  0858               	movf	USBStdFeatureReqHandler@pUEP,w
  7938  017C  0086               	movwf	6
  7939  017D  0859               	movf	USBStdFeatureReqHandler@pUEP+1,w
  7940  017E  0087               	movwf	7
  7941  017F  0856               	movf	??_USBStdFeatureReqHandler,w
  7942  0180  0581               	andwf	1,f
  7943  0181                     i1l495:
  7944  0181  0008               	return
  7945  0182                     __end_of_USBStdFeatureReqHandler:
  7946                           
  7947                           	psect	text29
  7948  0AC5                     __ptext29:	
  7949 ;; *************** function _USER_USB_CALLBACK_EVENT_HANDLER *****************
  7950 ;; Defined at:
  7951 ;;		line 51 in file "usb_events.c"
  7952 ;; Parameters:    Size  Location     Type
  7953 ;;  event           2    0[BANK0 ] enum E2550
  7954 ;;  pdata           2    2[BANK0 ] PTR void 
  7955 ;;		 -> RAM(4096), USTATcopy(1), USBActiveConfiguration(1), BDT(32), 
  7956 ;;		 -> NULL(0), 
  7957 ;;  size            2    4[BANK0 ] unsigned short 
  7958 ;; Auto vars:     Size  Location     Type
  7959 ;;		None
  7960 ;; Return value:  Size  Location     Type
  7961 ;;                  1    wreg      _Bool 
  7962 ;; Registers used:
  7963 ;;		wreg, fsr0l, fsr0h, fsr1l, fsr1h, status,2, status,0, pclath, cstack
  7964 ;; Tracked objects:
  7965 ;;		On entry : 0/0
  7966 ;;		On exit  : 0/0
  7967 ;;		Unchanged: 0/0
  7968 ;; Data sizes:     COMMON   BANK0   BANK1   BANK2   BANK3   BANK4   BANK5   BANK6   BANK7   BANK8   BANK9  BANK10  BANK1
      +1  BANK12
  7969 ;;      Params:         0       6       0       0       0       0       0       0       0       0       0       0       
      +0       0
  7970 ;;      Locals:         0       0       0       0       0       0       0       0       0       0       0       0       
      +0       0
  7971 ;;      Temps:          0       0       0       0       0       0       0       0       0       0       0       0       
      +0       0
  7972 ;;      Totals:         0       6       0       0       0       0       0       0       0       0       0       0       
      +0       0
  7973 ;;Total ram usage:        6 bytes
  7974 ;; Hardware stack levels used: 1
  7975 ;; Hardware stack levels required when called: 3
  7976 ;; This function calls:
  7977 ;;		_APP_DeviceCustomHIDInitialize
  7978 ;;		_USBCheckHIDRequest
  7979 ;;		i1_LED_Off
  7980 ;;		i1_LED_On
  7981 ;;		i1_SYSTEM_Initialize
  7982 ;; This function is called by:
  7983 ;;		_USBDeviceTasks
  7984 ;;		_USBStdSetCfgHandler
  7985 ;;		_USBSuspend
  7986 ;;		_USBWakeFromSuspend
  7987 ;;		_USBCtrlTrfSetupHandler
  7988 ;;		_USBCheckStdRequest
  7989 ;;		_USBStdFeatureReqHandler
  7990 ;; This function uses a non-reentrant model
  7991 ;;
  7992                           
  7993  0AC5                     _USER_USB_CALLBACK_EVENT_HANDLER:	
  7994                           ;psect for function _USER_USB_CALLBACK_EVENT_HANDLER
  7995                           
  7996  0AC5                     i1l3013:	
  7997                           ;incstack = 0
  7998                           ; Regs used in _USER_USB_CALLBACK_EVENT_HANDLER: [wreg-fsr1h+status,2+status,0+pclath+cs
      +                          tack]
  7999                           
  8000                           
  8001                           ;usb_events.c: 51: _Bool USER_USB_CALLBACK_EVENT_HANDLER(USB_EVENT event, void *pdata, u
      +                          int16_t size);usb_events.c: 52: {;usb_events.c: 53:     switch((int)event)
  8002  0AC5  2AE0               	goto	i1l3027
  8003  0AC6                     i1l3015:
  8004                           
  8005                           ;usb_events.c: 74:             SYSTEM_Initialize(SYSTEM_STATE_USB_SUSPEND);
  8006  0AC6  3001               	movlw	1
  8007  0AC7  3189  2197  318A   	fcall	i1_SYSTEM_Initialize
  8008                           
  8009                           ;usb_events.c: 75:             LED_Off(LED_CONNECT);
  8010  0ACA  3001               	movlw	1
  8011  0ACB  3189  211D  318A   	fcall	i1_LED_Off
  8012                           
  8013                           ;usb_events.c: 76:             break;
  8014  0ACE  2B08               	goto	i1l565
  8015  0ACF                     i1l3017:
  8016                           
  8017                           ;usb_events.c: 86:             SYSTEM_Initialize(SYSTEM_STATE_USB_RESUME);
  8018  0ACF  3002               	movlw	2
  8019  0AD0  3189  2197  318A   	fcall	i1_SYSTEM_Initialize
  8020                           
  8021                           ;usb_events.c: 87:             break;
  8022  0AD3  2B08               	goto	i1l565
  8023  0AD4                     i1l3019:
  8024                           
  8025                           ;usb_events.c: 92:             APP_DeviceCustomHIDInitialize();
  8026  0AD4  3188  2050  318A   	fcall	_APP_DeviceCustomHIDInitialize
  8027  0AD7                     i1l3021:
  8028                           
  8029                           ;usb_events.c: 93:             LED_On(LED_CONNECT);
  8030  0AD7  3001               	movlw	1
  8031  0AD8  3188  20F5  318A   	fcall	i1_LED_On
  8032                           
  8033                           ;usb_events.c: 94:             break;
  8034  0ADB  2B08               	goto	i1l565
  8035  0ADC                     i1l3023:
  8036                           
  8037                           ;usb_events.c: 102:             USBCheckHIDRequest();
  8038  0ADC  3186  26C8  318A   	fcall	_USBCheckHIDRequest
  8039                           
  8040                           ;usb_events.c: 103:             break;
  8041  0ADF  2B08               	goto	i1l565
  8042  0AE0                     i1l3027:
  8043                           
  8044                           ; Switch on 2 bytes has been partitioned into a top level switch of size 1, and 2 sub-sw
      +                          itches
  8045                           ; Switch size 1, requested type "simple"
  8046                           ; Number of cases is 2, Range of values is 0 to 127
  8047                           ; switch strategies available:
  8048                           ; Name         Instructions Cycles
  8049                           ; simple_byte            7     4 (average)
  8050                           ; direct_byte          262     6 (fixed)
  8051                           ; jumptable            260     6 (fixed)
  8052                           ;	Chosen strategy is simple_byte
  8053  0AE0  0020               	movlb	0	; select bank0
  8054  0AE1  0851               	movf	USER_USB_CALLBACK_EVENT_HANDLER@event+1,w
  8055  0AE2  3A00               	xorlw	0	; case 0
  8056  0AE3  1903               	skipnz
  8057  0AE4  2AE9               	goto	i1l5087
  8058  0AE5  3A7F               	xorlw	127	; case 127
  8059  0AE6  1903               	skipnz
  8060  0AE7  2B03               	goto	i1l5089
  8061  0AE8  2B08               	goto	i1l565
  8062  0AE9                     i1l5087:
  8063                           
  8064                           ; Switch size 1, requested type "simple"
  8065                           ; Number of cases is 8, Range of values is 1 to 117
  8066                           ; switch strategies available:
  8067                           ; Name         Instructions Cycles
  8068                           ; simple_byte           25    13 (average)
  8069                           ; direct_byte          243     9 (fixed)
  8070                           ; jumptable            263     9 (fixed)
  8071                           ;	Chosen strategy is simple_byte
  8072  0AE9  0850               	movf	USER_USB_CALLBACK_EVENT_HANDLER@event,w
  8073  0AEA  3A01               	xorlw	1	; case 1
  8074  0AEB  1903               	skipnz
  8075  0AEC  2AD4               	goto	i1l3019
  8076  0AED  3A03               	xorlw	3	; case 2
  8077  0AEE  1903               	skipnz
  8078  0AEF  2B08               	goto	i1l565
  8079  0AF0  3A01               	xorlw	1	; case 3
  8080  0AF1  1903               	skipnz
  8081  0AF2  2ADC               	goto	i1l3023
  8082  0AF3  3A06               	xorlw	6	; case 5
  8083  0AF4  1903               	skipnz
  8084  0AF5  2B08               	goto	i1l565
  8085  0AF6  3A77               	xorlw	119	; case 114
  8086  0AF7  1903               	skipnz
  8087  0AF8  2B08               	goto	i1l565
  8088  0AF9  3A01               	xorlw	1	; case 115
  8089  0AFA  1903               	skipnz
  8090  0AFB  2B08               	goto	i1l565
  8091  0AFC  3A07               	xorlw	7	; case 116
  8092  0AFD  1903               	skipnz
  8093  0AFE  2ACF               	goto	i1l3017
  8094  0AFF  3A01               	xorlw	1	; case 117
  8095  0B00  1903               	skipnz
  8096  0B01  2AC6               	goto	i1l3015
  8097  0B02  2B08               	goto	i1l565
  8098  0B03                     i1l5089:
  8099                           
  8100                           ; Switch size 1, requested type "simple"
  8101                           ; Number of cases is 1, Range of values is 255 to 255
  8102                           ; switch strategies available:
  8103                           ; Name         Instructions Cycles
  8104                           ; simple_byte            4     3 (average)
  8105                           ; direct_byte            7     5 (fixed)
  8106                           ; jumptable            263     9 (fixed)
  8107                           ;	Chosen strategy is simple_byte
  8108  0B03  0850               	movf	USER_USB_CALLBACK_EVENT_HANDLER@event,w
  8109  0B04  3AFF               	xorlw	255	; case 255
  8110  0B05  1903               	skipnz
  8111  0B06  2B08               	goto	i1l565
  8112  0B07  2B08               	goto	i1l565
  8113  0B08                     i1l565:
  8114  0B08  0008               	return
  8115  0B09                     __end_of_USER_USB_CALLBACK_EVENT_HANDLER:
  8116                           
  8117                           	psect	text30
  8118  0997                     __ptext30:	
  8119 ;; *************** function i1_SYSTEM_Initialize *****************
  8120 ;; Defined at:
  8121 ;;		line 85 in file "system.c"
  8122 ;; Parameters:    Size  Location     Type
  8123 ;;  state           1    wreg     enum E2309
  8124 ;; Auto vars:     Size  Location     Type
  8125 ;;  state           1    5[COMMON] enum E2309
  8126 ;; Return value:  Size  Location     Type
  8127 ;;                  1    wreg      void 
  8128 ;; Registers used:
  8129 ;;		wreg, fsr0l, fsr0h, status,2, status,0, pclath, cstack
  8130 ;; Tracked objects:
  8131 ;;		On entry : 0/0
  8132 ;;		On exit  : 0/0
  8133 ;;		Unchanged: 0/0
  8134 ;; Data sizes:     COMMON   BANK0   BANK1   BANK2   BANK3   BANK4   BANK5   BANK6   BANK7   BANK8   BANK9  BANK10  BANK1
      +1  BANK12
  8135 ;;      Params:         0       0       0       0       0       0       0       0       0       0       0       0       
      +0       0
  8136 ;;      Locals:         1       0       0       0       0       0       0       0       0       0       0       0       
      +0       0
  8137 ;;      Temps:          2       0       0       0       0       0       0       0       0       0       0       0       
      +0       0
  8138 ;;      Totals:         3       0       0       0       0       0       0       0       0       0       0       0       
      +0       0
  8139 ;;Total ram usage:        3 bytes
  8140 ;; Hardware stack levels used: 1
  8141 ;; Hardware stack levels required when called: 1
  8142 ;; This function calls:
  8143 ;;		i1_LED_Init
  8144 ;;		i1_LED_Off
  8145 ;;		i1_init_alcohol
  8146 ;; This function is called by:
  8147 ;;		_USER_USB_CALLBACK_EVENT_HANDLER
  8148 ;; This function uses a non-reentrant model
  8149 ;;
  8150                           
  8151  0997                     i1_SYSTEM_Initialize:	
  8152                           ;psect for function i1_SYSTEM_Initialize
  8153                           
  8154                           
  8155                           ;incstack = 0
  8156                           ; Regs used in i1_SYSTEM_Initialize: [wreg-fsr0h+status,2+status,0+pclath+cstack]
  8157                           ;i1SYSTEM_Initialize@state stored from wreg
  8158  0997  00F5               	movwf	i1SYSTEM_Initialize@state
  8159  0998                     i1l2981:
  8160                           
  8161                           ;system.c: 85: void SYSTEM_Initialize( SYSTEM_STATE state );system.c: 86: {;system.c: 87
      +                          :     switch(state)
  8162  0998  29AE               	goto	i1l2997
  8163  0999                     i1l2983:
  8164                           
  8165                           ;system.c: 93:                 OSCCON = 0xFC;
  8166  0999  30FC               	movlw	252
  8167  099A  0021               	movlb	1	; select bank1
  8168  099B  0099               	movwf	25	;volatile
  8169                           
  8170                           ;system.c: 94:                 ACTCON = 0x90;
  8171  099C  3090               	movlw	144
  8172  099D  0027               	movlb	7	; select bank7
  8173  099E  009B               	movwf	27	;volatile
  8174  099F                     i1l2985:
  8175                           
  8176                           ;system.c: 96:             ANSELA = 0x00;
  8177  099F  0023               	movlb	3	; select bank3
  8178  09A0  018C               	clrf	12	;volatile
  8179  09A1                     i1l2987:
  8180                           
  8181                           ;system.c: 97:             ANSELC = 0x00;
  8182  09A1  018E               	clrf	14	;volatile
  8183  09A2                     i1l2989:
  8184                           
  8185                           ;system.c: 99:             LED_Init();
  8186  09A2  3188  2000  3189   	fcall	i1_LED_Init
  8187  09A5                     i1l2991:
  8188                           
  8189                           ;system.c: 101:             init_alcohol();
  8190  09A5  3197  27F7  3189   	fcall	i1_init_alcohol
  8191                           
  8192                           ;system.c: 102:             break;
  8193  09A8  29C1               	goto	i1l85
  8194  09A9                     i1l2993:
  8195                           
  8196                           ;system.c: 105:             LED_Off(LED_CONNECT);
  8197  09A9  3001               	movlw	1
  8198  09AA  3189  211D  3189   	fcall	i1_LED_Off
  8199                           
  8200                           ;system.c: 106:             break;
  8201  09AD  29C1               	goto	i1l85
  8202  09AE                     i1l2997:
  8203  09AE  0875               	movf	i1SYSTEM_Initialize@state,w
  8204  09AF  00F3               	movwf	??i1_SYSTEM_Initialize
  8205  09B0  01F4               	clrf	??i1_SYSTEM_Initialize+1
  8206                           
  8207                           ; Switch on 2 bytes has been partitioned into a top level switch of size 1, and 1 sub-sw
      +                          itches
  8208                           ; Switch size 1, requested type "simple"
  8209                           ; Number of cases is 1, Range of values is 0 to 0
  8210                           ; switch strategies available:
  8211                           ; Name         Instructions Cycles
  8212                           ; simple_byte            4     3 (average)
  8213                           ; direct_byte            8     6 (fixed)
  8214                           ; jumptable            260     6 (fixed)
  8215                           ;	Chosen strategy is simple_byte
  8216  09B1  0874               	movf	??i1_SYSTEM_Initialize+1,w
  8217  09B2  3A00               	xorlw	0	; case 0
  8218  09B3  1903               	skipnz
  8219  09B4  29B6               	goto	i1l5091
  8220  09B5  29C1               	goto	i1l85
  8221  09B6                     i1l5091:
  8222                           
  8223                           ; Switch size 1, requested type "simple"
  8224                           ; Number of cases is 3, Range of values is 0 to 2
  8225                           ; switch strategies available:
  8226                           ; Name         Instructions Cycles
  8227                           ; simple_byte           10     6 (average)
  8228                           ; direct_byte           12     6 (fixed)
  8229                           ; jumptable            260     6 (fixed)
  8230                           ;	Chosen strategy is simple_byte
  8231  09B6  0873               	movf	??i1_SYSTEM_Initialize,w
  8232  09B7  3A00               	xorlw	0	; case 0
  8233  09B8  1903               	skipnz
  8234  09B9  2999               	goto	i1l2983
  8235  09BA  3A01               	xorlw	1	; case 1
  8236  09BB  1903               	skipnz
  8237  09BC  29A9               	goto	i1l2993
  8238  09BD  3A03               	xorlw	3	; case 2
  8239  09BE  1903               	skipnz
  8240  09BF  29C1               	goto	i1l85
  8241  09C0  29C1               	goto	i1l85
  8242  09C1                     i1l85:
  8243  09C1  0008               	return
  8244  09C2                     __end_ofi1_SYSTEM_Initialize:
  8245                           
  8246                           	psect	text31
  8247  17F7                     __ptext31:	
  8248 ;; *************** function i1_init_alcohol *****************
  8249 ;; Defined at:
  8250 ;;		line 8 in file "alcohol_drive.c"
  8251 ;; Parameters:    Size  Location     Type
  8252 ;;		None
  8253 ;; Auto vars:     Size  Location     Type
  8254 ;;		None
  8255 ;; Return value:  Size  Location     Type
  8256 ;;                  1    wreg      void 
  8257 ;; Registers used:
  8258 ;;		None
  8259 ;; Tracked objects:
  8260 ;;		On entry : 0/0
  8261 ;;		On exit  : 0/0
  8262 ;;		Unchanged: 0/0
  8263 ;; Data sizes:     COMMON   BANK0   BANK1   BANK2   BANK3   BANK4   BANK5   BANK6   BANK7   BANK8   BANK9  BANK10  BANK1
      +1  BANK12
  8264 ;;      Params:         0       0       0       0       0       0       0       0       0       0       0       0       
      +0       0
  8265 ;;      Locals:         0       0       0       0       0       0       0       0       0       0       0       0       
      +0       0
  8266 ;;      Temps:          0       0       0       0       0       0       0       0       0       0       0       0       
      +0       0
  8267 ;;      Totals:         0       0       0       0       0       0       0       0       0       0       0       0       
      +0       0
  8268 ;;Total ram usage:        0 bytes
  8269 ;; Hardware stack levels used: 1
  8270 ;; This function calls:
  8271 ;;		Nothing
  8272 ;; This function is called by:
  8273 ;;		i1_SYSTEM_Initialize
  8274 ;; This function uses a non-reentrant model
  8275 ;;
  8276                           
  8277  17F7                     i1_init_alcohol:	
  8278                           ;psect for function i1_init_alcohol
  8279                           
  8280  17F7                     i1l2915:	
  8281                           ;incstack = 0
  8282                           ; Regs used in i1_init_alcohol: []
  8283                           
  8284                           
  8285                           ;alcohol_drive.c: 9:     TRISAbits.TRISA5 = 1;
  8286  17F7  0021               	movlb	1	; select bank1
  8287  17F8  168C               	bsf	12,5	;volatile
  8288  17F9                     i1l599:
  8289  17F9  0008               	return
  8290  17FA                     __end_ofi1_init_alcohol:
  8291                           
  8292                           	psect	text32
  8293  091D                     __ptext32:	
  8294 ;; *************** function i1_LED_Off *****************
  8295 ;; Defined at:
  8296 ;;		line 51 in file "leds.c"
  8297 ;; Parameters:    Size  Location     Type
  8298 ;;  led             1    wreg     enum E2
  8299 ;; Auto vars:     Size  Location     Type
  8300 ;;  led             1    2[COMMON] enum E2
  8301 ;; Return value:  Size  Location     Type
  8302 ;;                  1    wreg      void 
  8303 ;; Registers used:
  8304 ;;		wreg, fsr0l, fsr0h, status,2, status,0
  8305 ;; Tracked objects:
  8306 ;;		On entry : 0/0
  8307 ;;		On exit  : 0/0
  8308 ;;		Unchanged: 0/0
  8309 ;; Data sizes:     COMMON   BANK0   BANK1   BANK2   BANK3   BANK4   BANK5   BANK6   BANK7   BANK8   BANK9  BANK10  BANK1
      +1  BANK12
  8310 ;;      Params:         0       0       0       0       0       0       0       0       0       0       0       0       
      +0       0
  8311 ;;      Locals:         1       0       0       0       0       0       0       0       0       0       0       0       
      +0       0
  8312 ;;      Temps:          2       0       0       0       0       0       0       0       0       0       0       0       
      +0       0
  8313 ;;      Totals:         3       0       0       0       0       0       0       0       0       0       0       0       
      +0       0
  8314 ;;Total ram usage:        3 bytes
  8315 ;; Hardware stack levels used: 1
  8316 ;; This function calls:
  8317 ;;		Nothing
  8318 ;; This function is called by:
  8319 ;;		_USER_USB_CALLBACK_EVENT_HANDLER
  8320 ;;		i1_SYSTEM_Initialize
  8321 ;; This function uses a non-reentrant model
  8322 ;;
  8323                           
  8324  091D                     i1_LED_Off:	
  8325                           ;psect for function i1_LED_Off
  8326                           
  8327                           
  8328                           ;incstack = 0
  8329                           ; Regs used in i1_LED_Off: [wreg-fsr0h+status,2+status,0]
  8330                           ;i1LED_Off@led stored from wreg
  8331  091D  00F2               	movwf	i1LED_Off@led
  8332  091E                     i1l2903:
  8333                           
  8334                           ;leds.c: 51: void LED_Off(LED led);leds.c: 52: {;leds.c: 53:     switch(led)
  8335  091E  292B               	goto	i1l2907
  8336  091F                     i1l583:	
  8337                           ;leds.c: 54:     {;leds.c: 55:         case LED_CONNECT:
  8338                           
  8339                           
  8340                           ;leds.c: 56:             LATCbits.LATC5 = 0;
  8341  091F  0022               	movlb	2	; select bank2
  8342  0920  128E               	bcf	14,5	;volatile
  8343                           
  8344                           ;leds.c: 57:             break;
  8345  0921  2944               	goto	i1l589
  8346  0922                     i1l585:	
  8347                           ;leds.c: 58:         case LED_SCANNING:
  8348                           
  8349                           
  8350                           ;leds.c: 59:             LATCbits.LATC4 = 0;
  8351  0922  0022               	movlb	2	; select bank2
  8352  0923  120E               	bcf	14,4	;volatile
  8353                           
  8354                           ;leds.c: 60:             break;
  8355  0924  2944               	goto	i1l589
  8356  0925                     i1l586:	
  8357                           ;leds.c: 61:         case LED_OK:
  8358                           
  8359                           
  8360                           ;leds.c: 62:             LATCbits.LATC3 = 0;
  8361  0925  0022               	movlb	2	; select bank2
  8362  0926  118E               	bcf	14,3	;volatile
  8363                           
  8364                           ;leds.c: 63:             break;
  8365  0927  2944               	goto	i1l589
  8366  0928                     i1l587:	
  8367                           ;leds.c: 64:         case LED_NG:
  8368                           
  8369                           
  8370                           ;leds.c: 65:             LATCbits.LATC6 = 0;
  8371  0928  0022               	movlb	2	; select bank2
  8372  0929  130E               	bcf	14,6	;volatile
  8373                           
  8374                           ;leds.c: 66:             break;
  8375  092A  2944               	goto	i1l589
  8376  092B                     i1l2907:
  8377  092B  0872               	movf	i1LED_Off@led,w
  8378  092C  00F0               	movwf	??i1_LED_Off
  8379  092D  01F1               	clrf	??i1_LED_Off+1
  8380                           
  8381                           ; Switch on 2 bytes has been partitioned into a top level switch of size 1, and 1 sub-sw
      +                          itches
  8382                           ; Switch size 1, requested type "simple"
  8383                           ; Number of cases is 1, Range of values is 0 to 0
  8384                           ; switch strategies available:
  8385                           ; Name         Instructions Cycles
  8386                           ; simple_byte            4     3 (average)
  8387                           ; direct_byte            8     6 (fixed)
  8388                           ; jumptable            260     6 (fixed)
  8389                           ;	Chosen strategy is simple_byte
  8390  092E  0871               	movf	??i1_LED_Off+1,w
  8391  092F  3A00               	xorlw	0	; case 0
  8392  0930  1903               	skipnz
  8393  0931  2933               	goto	i1l5093
  8394  0932  2944               	goto	i1l589
  8395  0933                     i1l5093:
  8396                           
  8397                           ; Switch size 1, requested type "simple"
  8398                           ; Number of cases is 5, Range of values is 0 to 4
  8399                           ; switch strategies available:
  8400                           ; Name         Instructions Cycles
  8401                           ; direct_byte           16     6 (fixed)
  8402                           ; simple_byte           16     9 (average)
  8403                           ; jumptable            260     6 (fixed)
  8404                           ;	Chosen strategy is simple_byte
  8405  0933  0870               	movf	??i1_LED_Off,w
  8406  0934  3A00               	xorlw	0	; case 0
  8407  0935  1903               	skipnz
  8408  0936  2944               	goto	i1l589
  8409  0937  3A01               	xorlw	1	; case 1
  8410  0938  1903               	skipnz
  8411  0939  291F               	goto	i1l583
  8412  093A  3A03               	xorlw	3	; case 2
  8413  093B  1903               	skipnz
  8414  093C  2922               	goto	i1l585
  8415  093D  3A01               	xorlw	1	; case 3
  8416  093E  1903               	skipnz
  8417  093F  2925               	goto	i1l586
  8418  0940  3A07               	xorlw	7	; case 4
  8419  0941  1903               	skipnz
  8420  0942  2928               	goto	i1l587
  8421  0943  2944               	goto	i1l589
  8422  0944                     i1l589:
  8423  0944  0008               	return
  8424  0945                     __end_ofi1_LED_Off:
  8425                           
  8426                           	psect	text33
  8427  0800                     __ptext33:	
  8428 ;; *************** function i1_LED_Init *****************
  8429 ;; Defined at:
  8430 ;;		line 75 in file "leds.c"
  8431 ;; Parameters:    Size  Location     Type
  8432 ;;		None
  8433 ;; Auto vars:     Size  Location     Type
  8434 ;;		None
  8435 ;; Return value:  Size  Location     Type
  8436 ;;                  1    wreg      void 
  8437 ;; Registers used:
  8438 ;;		None
  8439 ;; Tracked objects:
  8440 ;;		On entry : 0/0
  8441 ;;		On exit  : 0/0
  8442 ;;		Unchanged: 0/0
  8443 ;; Data sizes:     COMMON   BANK0   BANK1   BANK2   BANK3   BANK4   BANK5   BANK6   BANK7   BANK8   BANK9  BANK10  BANK1
      +1  BANK12
  8444 ;;      Params:         0       0       0       0       0       0       0       0       0       0       0       0       
      +0       0
  8445 ;;      Locals:         0       0       0       0       0       0       0       0       0       0       0       0       
      +0       0
  8446 ;;      Temps:          0       0       0       0       0       0       0       0       0       0       0       0       
      +0       0
  8447 ;;      Totals:         0       0       0       0       0       0       0       0       0       0       0       0       
      +0       0
  8448 ;;Total ram usage:        0 bytes
  8449 ;; Hardware stack levels used: 1
  8450 ;; This function calls:
  8451 ;;		Nothing
  8452 ;; This function is called by:
  8453 ;;		i1_SYSTEM_Initialize
  8454 ;; This function uses a non-reentrant model
  8455 ;;
  8456                           
  8457  0800                     i1_LED_Init:	
  8458                           ;psect for function i1_LED_Init
  8459                           
  8460  0800                     i1l2913:	
  8461                           ;incstack = 0
  8462                           ; Regs used in i1_LED_Init: []
  8463                           
  8464                           
  8465                           ;leds.c: 77:     TRISCbits.TRISC5 = 0;
  8466  0800  0021               	movlb	1	; select bank1
  8467  0801  128E               	bcf	14,5	;volatile
  8468                           
  8469                           ;leds.c: 78:     TRISCbits.TRISC4 = 0;
  8470  0802  120E               	bcf	14,4	;volatile
  8471                           
  8472                           ;leds.c: 79:     TRISCbits.TRISC3 = 0;
  8473  0803  118E               	bcf	14,3	;volatile
  8474                           
  8475                           ;leds.c: 80:     TRISCbits.TRISC6 = 0;
  8476  0804  130E               	bcf	14,6	;volatile
  8477                           
  8478                           ;leds.c: 82:     LATCbits.LATC5 = 0;
  8479  0805  0022               	movlb	2	; select bank2
  8480  0806  128E               	bcf	14,5	;volatile
  8481                           
  8482                           ;leds.c: 83:     LATCbits.LATC4 = 0;
  8483  0807  120E               	bcf	14,4	;volatile
  8484                           
  8485                           ;leds.c: 84:     LATCbits.LATC3 = 0;
  8486  0808  118E               	bcf	14,3	;volatile
  8487                           
  8488                           ;leds.c: 85:     LATCbits.LATC6 = 0;
  8489  0809  130E               	bcf	14,6	;volatile
  8490  080A                     i1l592:
  8491  080A  0008               	return
  8492  080B                     __end_ofi1_LED_Init:
  8493                           
  8494                           	psect	text34
  8495  08F5                     __ptext34:	
  8496 ;; *************** function i1_LED_On *****************
  8497 ;; Defined at:
  8498 ;;		line 26 in file "leds.c"
  8499 ;; Parameters:    Size  Location     Type
  8500 ;;  led             1    wreg     enum E2
  8501 ;; Auto vars:     Size  Location     Type
  8502 ;;  led             1    2[COMMON] enum E2
  8503 ;; Return value:  Size  Location     Type
  8504 ;;                  1    wreg      void 
  8505 ;; Registers used:
  8506 ;;		wreg, fsr0l, fsr0h, status,2, status,0
  8507 ;; Tracked objects:
  8508 ;;		On entry : 0/0
  8509 ;;		On exit  : 0/0
  8510 ;;		Unchanged: 0/0
  8511 ;; Data sizes:     COMMON   BANK0   BANK1   BANK2   BANK3   BANK4   BANK5   BANK6   BANK7   BANK8   BANK9  BANK10  BANK1
      +1  BANK12
  8512 ;;      Params:         0       0       0       0       0       0       0       0       0       0       0       0       
      +0       0
  8513 ;;      Locals:         1       0       0       0       0       0       0       0       0       0       0       0       
      +0       0
  8514 ;;      Temps:          2       0       0       0       0       0       0       0       0       0       0       0       
      +0       0
  8515 ;;      Totals:         3       0       0       0       0       0       0       0       0       0       0       0       
      +0       0
  8516 ;;Total ram usage:        3 bytes
  8517 ;; Hardware stack levels used: 1
  8518 ;; This function calls:
  8519 ;;		Nothing
  8520 ;; This function is called by:
  8521 ;;		_USER_USB_CALLBACK_EVENT_HANDLER
  8522 ;; This function uses a non-reentrant model
  8523 ;;
  8524                           
  8525  08F5                     i1_LED_On:	
  8526                           ;psect for function i1_LED_On
  8527                           
  8528                           
  8529                           ;incstack = 0
  8530                           ; Regs used in i1_LED_On: [wreg-fsr0h+status,2+status,0]
  8531                           ;i1LED_On@led stored from wreg
  8532  08F5  00F2               	movwf	i1LED_On@led
  8533  08F6                     i1l3003:
  8534                           
  8535                           ;leds.c: 26: void LED_On(LED led);leds.c: 27: {;leds.c: 28:     switch(led)
  8536  08F6  2903               	goto	i1l3007
  8537  08F7                     i1l573:	
  8538                           ;leds.c: 29:     {;leds.c: 30:         case LED_CONNECT:
  8539                           
  8540                           
  8541                           ;leds.c: 31:             LATCbits.LATC5 = 1;
  8542  08F7  0022               	movlb	2	; select bank2
  8543  08F8  168E               	bsf	14,5	;volatile
  8544                           
  8545                           ;leds.c: 32:             break;
  8546  08F9  291C               	goto	i1l579
  8547  08FA                     i1l575:	
  8548                           ;leds.c: 33:         case LED_SCANNING:
  8549                           
  8550                           
  8551                           ;leds.c: 34:             LATCbits.LATC4 = 1;
  8552  08FA  0022               	movlb	2	; select bank2
  8553  08FB  160E               	bsf	14,4	;volatile
  8554                           
  8555                           ;leds.c: 35:             break;
  8556  08FC  291C               	goto	i1l579
  8557  08FD                     i1l576:	
  8558                           ;leds.c: 36:         case LED_OK:
  8559                           
  8560                           
  8561                           ;leds.c: 37:             LATCbits.LATC3 = 1;
  8562  08FD  0022               	movlb	2	; select bank2
  8563  08FE  158E               	bsf	14,3	;volatile
  8564                           
  8565                           ;leds.c: 38:             break;
  8566  08FF  291C               	goto	i1l579
  8567  0900                     i1l577:	
  8568                           ;leds.c: 39:         case LED_NG:
  8569                           
  8570                           
  8571                           ;leds.c: 40:             LATCbits.LATC6 = 1;
  8572  0900  0022               	movlb	2	; select bank2
  8573  0901  170E               	bsf	14,6	;volatile
  8574                           
  8575                           ;leds.c: 41:             break;
  8576  0902  291C               	goto	i1l579
  8577  0903                     i1l3007:
  8578  0903  0872               	movf	i1LED_On@led,w
  8579  0904  00F0               	movwf	??i1_LED_On
  8580  0905  01F1               	clrf	??i1_LED_On+1
  8581                           
  8582                           ; Switch on 2 bytes has been partitioned into a top level switch of size 1, and 1 sub-sw
      +                          itches
  8583                           ; Switch size 1, requested type "simple"
  8584                           ; Number of cases is 1, Range of values is 0 to 0
  8585                           ; switch strategies available:
  8586                           ; Name         Instructions Cycles
  8587                           ; simple_byte            4     3 (average)
  8588                           ; direct_byte            8     6 (fixed)
  8589                           ; jumptable            260     6 (fixed)
  8590                           ;	Chosen strategy is simple_byte
  8591  0906  0871               	movf	??i1_LED_On+1,w
  8592  0907  3A00               	xorlw	0	; case 0
  8593  0908  1903               	skipnz
  8594  0909  290B               	goto	i1l5095
  8595  090A  291C               	goto	i1l579
  8596  090B                     i1l5095:
  8597                           
  8598                           ; Switch size 1, requested type "simple"
  8599                           ; Number of cases is 5, Range of values is 0 to 4
  8600                           ; switch strategies available:
  8601                           ; Name         Instructions Cycles
  8602                           ; direct_byte           16     6 (fixed)
  8603                           ; simple_byte           16     9 (average)
  8604                           ; jumptable            260     6 (fixed)
  8605                           ;	Chosen strategy is simple_byte
  8606  090B  0870               	movf	??i1_LED_On,w
  8607  090C  3A00               	xorlw	0	; case 0
  8608  090D  1903               	skipnz
  8609  090E  291C               	goto	i1l579
  8610  090F  3A01               	xorlw	1	; case 1
  8611  0910  1903               	skipnz
  8612  0911  28F7               	goto	i1l573
  8613  0912  3A03               	xorlw	3	; case 2
  8614  0913  1903               	skipnz
  8615  0914  28FA               	goto	i1l575
  8616  0915  3A01               	xorlw	1	; case 3
  8617  0916  1903               	skipnz
  8618  0917  28FD               	goto	i1l576
  8619  0918  3A07               	xorlw	7	; case 4
  8620  0919  1903               	skipnz
  8621  091A  2900               	goto	i1l577
  8622  091B  291C               	goto	i1l579
  8623  091C                     i1l579:
  8624  091C  0008               	return
  8625  091D                     __end_ofi1_LED_On:
  8626                           
  8627                           	psect	text35
  8628  06C8                     __ptext35:	
  8629 ;; *************** function _USBCheckHIDRequest *****************
  8630 ;; Defined at:
  8631 ;;		line 161 in file "usb_device_hid.c"
  8632 ;; Parameters:    Size  Location     Type
  8633 ;;		None
  8634 ;; Auto vars:     Size  Location     Type
  8635 ;;		None
  8636 ;; Return value:  Size  Location     Type
  8637 ;;                  1    wreg      void 
  8638 ;; Registers used:
  8639 ;;		wreg, fsr0l, fsr0h, status,2, status,0
  8640 ;; Tracked objects:
  8641 ;;		On entry : 0/0
  8642 ;;		On exit  : 0/0
  8643 ;;		Unchanged: 0/0
  8644 ;; Data sizes:     COMMON   BANK0   BANK1   BANK2   BANK3   BANK4   BANK5   BANK6   BANK7   BANK8   BANK9  BANK10  BANK1
      +1  BANK12
  8645 ;;      Params:         0       0       0       0       0       0       0       0       0       0       0       0       
      +0       0
  8646 ;;      Locals:         0       0       0       0       0       0       0       0       0       0       0       0       
      +0       0
  8647 ;;      Temps:          2       0       0       0       0       0       0       0       0       0       0       0       
      +0       0
  8648 ;;      Totals:         2       0       0       0       0       0       0       0       0       0       0       0       
      +0       0
  8649 ;;Total ram usage:        2 bytes
  8650 ;; Hardware stack levels used: 1
  8651 ;; This function calls:
  8652 ;;		Nothing
  8653 ;; This function is called by:
  8654 ;;		_USER_USB_CALLBACK_EVENT_HANDLER
  8655 ;; This function uses a non-reentrant model
  8656 ;;
  8657                           
  8658  06C8                     _USBCheckHIDRequest:	
  8659                           ;psect for function _USBCheckHIDRequest
  8660                           
  8661  06C8                     i1l2923:	
  8662                           ;incstack = 0
  8663                           ; Regs used in _USBCheckHIDRequest: [wreg-fsr0h+status,2+status,0]
  8664                           
  8665                           
  8666                           ;usb_device_hid.c: 163:     if(SetupPkt.Recipient != (0x01)) return;
  8667  06C8  0020               	movlb	0	; select bank0
  8668  06C9  0840               	movf	64,w	;volatile
  8669  06CA  391F               	andlw	31
  8670  06CB  3A01               	xorlw	1
  8671  06CC  1903               	skipnz
  8672  06CD  2ECF               	goto	u153_21
  8673  06CE  2ED0               	goto	u153_20
  8674  06CF                     u153_21:
  8675  06CF  2ED1               	goto	i1l2927
  8676  06D0                     u153_20:
  8677  06D0  2F66               	goto	i1l523
  8678  06D1                     i1l2927:
  8679                           
  8680                           ;usb_device_hid.c: 164:     if(SetupPkt.bIntfID != 0x00) return;
  8681  06D1  0844               	movf	68,w	;volatile
  8682  06D2  1903               	btfsc	3,2
  8683  06D3  2ED5               	goto	u154_21
  8684  06D4  2ED6               	goto	u154_20
  8685  06D5                     u154_21:
  8686  06D5  2ED7               	goto	i1l2931
  8687  06D6                     u154_20:
  8688  06D6  2F66               	goto	i1l523
  8689  06D7                     i1l2931:
  8690                           
  8691                           ;usb_device_hid.c: 171:     if(SetupPkt.bRequest == 6)
  8692  06D7  3006               	movlw	6
  8693  06D8  0641               	xorwf	65,w	;volatile
  8694  06D9  1D03               	btfss	3,2
  8695  06DA  2EDC               	goto	u155_21
  8696  06DB  2EDD               	goto	u155_20
  8697  06DC                     u155_21:
  8698  06DC  2F12               	goto	i1l2949
  8699  06DD                     u155_20:
  8700  06DD  2EFF               	goto	i1l2947
  8701  06DE                     i1l2935:
  8702                           
  8703                           ;usb_device_hid.c: 176:                 if(USBActiveConfiguration == 1)
  8704  06DE  0022               	movlb	2	; select bank2
  8705  06DF  036F               	decf	_USBActiveConfiguration^(0+256),w	;volatile
  8706  06E0  1D03               	btfss	3,2
  8707  06E1  2EE3               	goto	u156_21
  8708  06E2  2EE4               	goto	u156_20
  8709  06E3                     u156_21:
  8710  06E3  2F12               	goto	i1l2949
  8711  06E4                     u156_20:
  8712  06E4                     i1l2937:
  8713                           
  8714                           ;usb_device_hid.c: 177:                 {;usb_device_hid.c: 178:                     { i
      +                          nPipes[0].pSrc.bRom = (const uint8_t*)&configDescriptor1 + 18; inPipes[0].wCount.Val = s
      +                          izeof(USB_HID_DSC)+3; inPipes[0].info.Val = 0x40 | 0x80 | 0x00; };
  8715  06E4  3012               	movlw	low ((_configDescriptor1| (0+32768)+18))
  8716  06E5  0020               	movlb	0	; select bank0
  8717  06E6  00E5               	movwf	_inPipes	;volatile
  8718  06E7  3090               	movlw	high ((_configDescriptor1| (0+32768)+18))
  8719  06E8  00E6               	movwf	_inPipes+1	;volatile
  8720  06E9                     i1l2939:
  8721  06E9  3000               	movlw	0
  8722  06EA  00E9               	movwf	_inPipes+4	;volatile
  8723  06EB  3009               	movlw	9
  8724  06EC  00E8               	movwf	_inPipes+3	;volatile
  8725  06ED  30C0               	movlw	192
  8726  06EE  00F0               	movwf	??_USBCheckHIDRequest
  8727  06EF  0870               	movf	??_USBCheckHIDRequest,w
  8728  06F0  00E7               	movwf	_inPipes+2	;volatile
  8729  06F1  2F12               	goto	i1l2949
  8730  06F2                     i1l2941:
  8731                           
  8732                           ;usb_device_hid.c: 186:                 {;usb_device_hid.c: 187:                     { i
      +                          nPipes[0].pSrc.bRom = (const uint8_t*)&hid_rpt01; inPipes[0].wCount.Val = 29; inPipes[0]
      +                          .info.Val = 0x40 | 0x80 | 0x00; };
  8733  06F2  3049               	movlw	low (_hid_rpt01| (0+32768))
  8734  06F3  00E5               	movwf	_inPipes	;volatile
  8735  06F4  3090               	movlw	high (_hid_rpt01| (0+32768))
  8736  06F5  00E6               	movwf	_inPipes+1	;volatile
  8737  06F6                     i1l2943:
  8738  06F6  3000               	movlw	0
  8739  06F7  00E9               	movwf	_inPipes+4	;volatile
  8740  06F8  301D               	movlw	29
  8741  06F9  00E8               	movwf	_inPipes+3	;volatile
  8742  06FA  30C0               	movlw	192
  8743  06FB  00F0               	movwf	??_USBCheckHIDRequest
  8744  06FC  0870               	movf	??_USBCheckHIDRequest,w
  8745  06FD  00E7               	movwf	_inPipes+2	;volatile
  8746                           
  8747                           ;usb_device_hid.c: 191:                 };usb_device_hid.c: 192:                 break;
  8748  06FE  2F12               	goto	i1l2949
  8749  06FF                     i1l2947:
  8750  06FF  0843               	movf	67,w	;volatile
  8751  0700  00F0               	movwf	??_USBCheckHIDRequest
  8752  0701  01F1               	clrf	??_USBCheckHIDRequest+1
  8753                           
  8754                           ; Switch on 2 bytes has been partitioned into a top level switch of size 1, and 1 sub-sw
      +                          itches
  8755                           ; Switch size 1, requested type "simple"
  8756                           ; Number of cases is 1, Range of values is 0 to 0
  8757                           ; switch strategies available:
  8758                           ; Name         Instructions Cycles
  8759                           ; simple_byte            4     3 (average)
  8760                           ; direct_byte            8     6 (fixed)
  8761                           ; jumptable            260     6 (fixed)
  8762                           ;	Chosen strategy is simple_byte
  8763  0702  0871               	movf	??_USBCheckHIDRequest+1,w
  8764  0703  3A00               	xorlw	0	; case 0
  8765  0704  1903               	skipnz
  8766  0705  2F07               	goto	i1l5097
  8767  0706  2F12               	goto	i1l2949
  8768  0707                     i1l5097:
  8769                           
  8770                           ; Switch size 1, requested type "simple"
  8771                           ; Number of cases is 3, Range of values is 33 to 35
  8772                           ; switch strategies available:
  8773                           ; Name         Instructions Cycles
  8774                           ; simple_byte           10     6 (average)
  8775                           ; direct_byte           15     9 (fixed)
  8776                           ; jumptable            263     9 (fixed)
  8777                           ;	Chosen strategy is simple_byte
  8778  0707  0870               	movf	??_USBCheckHIDRequest,w
  8779  0708  3A21               	xorlw	33	; case 33
  8780  0709  1903               	skipnz
  8781  070A  2EDE               	goto	i1l2935
  8782  070B  3A03               	xorlw	3	; case 34
  8783  070C  1903               	skipnz
  8784  070D  2EF2               	goto	i1l2941
  8785  070E  3A01               	xorlw	1	; case 35
  8786  070F  1903               	skipnz
  8787  0710  2F12               	goto	i1l2949
  8788  0711  2F12               	goto	i1l2949
  8789  0712                     i1l2949:
  8790                           
  8791                           ;usb_device_hid.c: 209:     if(SetupPkt.RequestType != (0x20>>5))
  8792  0712  0020               	movlb	0	; select bank0
  8793  0713  0E40               	swapf	64,w	;volatile
  8794  0714  0C89               	rrf	9,f
  8795  0715  3903               	andlw	3
  8796  0716  3A01               	xorlw	1
  8797  0717  1903               	skipnz
  8798  0718  2F1A               	goto	u157_21
  8799  0719  2F1B               	goto	u157_20
  8800  071A                     u157_21:
  8801  071A  2F4A               	goto	i1l2971
  8802  071B                     u157_20:
  8803  071B  2F66               	goto	i1l523
  8804  071C                     i1l2953:
  8805                           
  8806                           ;usb_device_hid.c: 227:             { inPipes[0].pSrc.bRam = (uint8_t*)&idle_rate; inPip
      +                          es[0].wCount.Val = 1; inPipes[0].info.Val = 0x40 | 0x80 | 0x01; };
  8807  071C  30B9               	movlw	low _idle_rate
  8808  071D  00E5               	movwf	_inPipes	;volatile
  8809  071E  3001               	movlw	high _idle_rate
  8810  071F  00E6               	movwf	_inPipes+1	;volatile
  8811  0720                     i1l2955:
  8812  0720  3000               	movlw	0
  8813  0721  00E9               	movwf	_inPipes+4	;volatile
  8814  0722  3001               	movlw	1
  8815  0723  00E8               	movwf	_inPipes+3	;volatile
  8816  0724                     i1l2957:
  8817  0724  30C1               	movlw	193
  8818  0725  00F0               	movwf	??_USBCheckHIDRequest
  8819  0726  0870               	movf	??_USBCheckHIDRequest,w
  8820  0727  00E7               	movwf	_inPipes+2	;volatile
  8821                           
  8822                           ;usb_device_hid.c: 231:             break;
  8823  0728  2F66               	goto	i1l523
  8824  0729                     i1l2959:
  8825                           
  8826                           ;usb_device_hid.c: 233:             inPipes[0].info.Val = 0x00 | 0x80;
  8827  0729  3080               	movlw	128
  8828  072A  00F0               	movwf	??_USBCheckHIDRequest
  8829  072B  0870               	movf	??_USBCheckHIDRequest,w
  8830  072C  00E7               	movwf	_inPipes+2	;volatile
  8831                           
  8832                           ;usb_device_hid.c: 234:             idle_rate = SetupPkt.W_Value.byte.HB;
  8833  072D  0843               	movf	67,w	;volatile
  8834  072E  00F0               	movwf	??_USBCheckHIDRequest
  8835  072F  0870               	movf	??_USBCheckHIDRequest,w
  8836  0730  0023               	movlb	3	; select bank3
  8837  0731  00B9               	movwf	_idle_rate^(0+384)
  8838                           
  8839                           ;usb_device_hid.c: 236:             break;
  8840  0732  2F66               	goto	i1l523
  8841  0733                     i1l2961:
  8842                           
  8843                           ;usb_device_hid.c: 238:             { inPipes[0].pSrc.bRam = (uint8_t*)&active_protocol;
      +                           inPipes[0].wCount.Val = 1; inPipes[0].info.Val = 0x00 | 0x80 | 0x01; };
  8844  0733  30B8               	movlw	low _active_protocol
  8845  0734  00E5               	movwf	_inPipes	;volatile
  8846  0735  3001               	movlw	high _active_protocol
  8847  0736  00E6               	movwf	_inPipes+1	;volatile
  8848  0737                     i1l2963:
  8849  0737  3000               	movlw	0
  8850  0738  00E9               	movwf	_inPipes+4	;volatile
  8851  0739  3001               	movlw	1
  8852  073A  00E8               	movwf	_inPipes+3	;volatile
  8853  073B                     i1l2965:
  8854  073B  3081               	movlw	129
  8855  073C  00F0               	movwf	??_USBCheckHIDRequest
  8856  073D  0870               	movf	??_USBCheckHIDRequest,w
  8857  073E  00E7               	movwf	_inPipes+2	;volatile
  8858                           
  8859                           ;usb_device_hid.c: 242:             break;
  8860  073F  2F66               	goto	i1l523
  8861  0740                     i1l2967:
  8862                           
  8863                           ;usb_device_hid.c: 244:             inPipes[0].info.Val = 0x00 | 0x80;
  8864  0740  3080               	movlw	128
  8865  0741  00F0               	movwf	??_USBCheckHIDRequest
  8866  0742  0870               	movf	??_USBCheckHIDRequest,w
  8867  0743  00E7               	movwf	_inPipes+2	;volatile
  8868                           
  8869                           ;usb_device_hid.c: 245:             active_protocol = SetupPkt.W_Value.byte.LB;
  8870  0744  0842               	movf	66,w	;volatile
  8871  0745  00F0               	movwf	??_USBCheckHIDRequest
  8872  0746  0870               	movf	??_USBCheckHIDRequest,w
  8873  0747  0023               	movlb	3	; select bank3
  8874  0748  00B8               	movwf	_active_protocol^(0+384)
  8875                           
  8876                           ;usb_device_hid.c: 246:             break;
  8877  0749  2F66               	goto	i1l523
  8878  074A                     i1l2971:
  8879  074A  0841               	movf	65,w	;volatile
  8880  074B  00F0               	movwf	??_USBCheckHIDRequest
  8881  074C  01F1               	clrf	??_USBCheckHIDRequest+1
  8882                           
  8883                           ; Switch on 2 bytes has been partitioned into a top level switch of size 1, and 1 sub-sw
      +                          itches
  8884                           ; Switch size 1, requested type "simple"
  8885                           ; Number of cases is 1, Range of values is 0 to 0
  8886                           ; switch strategies available:
  8887                           ; Name         Instructions Cycles
  8888                           ; simple_byte            4     3 (average)
  8889                           ; direct_byte            8     6 (fixed)
  8890                           ; jumptable            260     6 (fixed)
  8891                           ;	Chosen strategy is simple_byte
  8892  074D  0871               	movf	??_USBCheckHIDRequest+1,w
  8893  074E  3A00               	xorlw	0	; case 0
  8894  074F  1903               	skipnz
  8895  0750  2F52               	goto	i1l5099
  8896  0751  2F66               	goto	i1l523
  8897  0752                     i1l5099:
  8898                           
  8899                           ; Switch size 1, requested type "simple"
  8900                           ; Number of cases is 6, Range of values is 1 to 11
  8901                           ; switch strategies available:
  8902                           ; Name         Instructions Cycles
  8903                           ; simple_byte           19    10 (average)
  8904                           ; direct_byte           31     9 (fixed)
  8905                           ; jumptable            263     9 (fixed)
  8906                           ;	Chosen strategy is simple_byte
  8907  0752  0870               	movf	??_USBCheckHIDRequest,w
  8908  0753  3A01               	xorlw	1	; case 1
  8909  0754  1903               	skipnz
  8910  0755  2F66               	goto	i1l523
  8911  0756  3A03               	xorlw	3	; case 2
  8912  0757  1903               	skipnz
  8913  0758  2F1C               	goto	i1l2953
  8914  0759  3A01               	xorlw	1	; case 3
  8915  075A  1903               	skipnz
  8916  075B  2F33               	goto	i1l2961
  8917  075C  3A0A               	xorlw	10	; case 9
  8918  075D  1903               	skipnz
  8919  075E  2F66               	goto	i1l523
  8920  075F  3A03               	xorlw	3	; case 10
  8921  0760  1903               	skipnz
  8922  0761  2F29               	goto	i1l2959
  8923  0762  3A01               	xorlw	1	; case 11
  8924  0763  1903               	skipnz
  8925  0764  2F40               	goto	i1l2967
  8926  0765  2F66               	goto	i1l523
  8927  0766                     i1l523:
  8928  0766  0008               	return
  8929  0767                     __end_of_USBCheckHIDRequest:
  8930                           
  8931                           	psect	text36
  8932  0850                     __ptext36:	
  8933 ;; *************** function _APP_DeviceCustomHIDInitialize *****************
  8934 ;; Defined at:
  8935 ;;		line 40 in file "app_device_custom_hid.c"
  8936 ;; Parameters:    Size  Location     Type
  8937 ;;		None
  8938 ;; Auto vars:     Size  Location     Type
  8939 ;;		None
  8940 ;; Return value:  Size  Location     Type
  8941 ;;                  1    wreg      void 
  8942 ;; Registers used:
  8943 ;;		wreg, fsr1l, fsr1h, status,2, status,0, pclath, cstack
  8944 ;; Tracked objects:
  8945 ;;		On entry : 0/0
  8946 ;;		On exit  : 0/0
  8947 ;;		Unchanged: 0/0
  8948 ;; Data sizes:     COMMON   BANK0   BANK1   BANK2   BANK3   BANK4   BANK5   BANK6   BANK7   BANK8   BANK9  BANK10  BANK1
      +1  BANK12
  8949 ;;      Params:         0       0       0       0       0       0       0       0       0       0       0       0       
      +0       0
  8950 ;;      Locals:         0       0       0       0       0       0       0       0       0       0       0       0       
      +0       0
  8951 ;;      Temps:          1       0       0       0       0       0       0       0       0       0       0       0       
      +0       0
  8952 ;;      Totals:         1       0       0       0       0       0       0       0       0       0       0       0       
      +0       0
  8953 ;;Total ram usage:        1 bytes
  8954 ;; Hardware stack levels used: 1
  8955 ;; Hardware stack levels required when called: 2
  8956 ;; This function calls:
  8957 ;;		_USBEnableEndpoint
  8958 ;;		i1_USBTransferOnePacket
  8959 ;; This function is called by:
  8960 ;;		_USER_USB_CALLBACK_EVENT_HANDLER
  8961 ;; This function uses a non-reentrant model
  8962 ;;
  8963                           
  8964  0850                     _APP_DeviceCustomHIDInitialize:	
  8965                           ;psect for function _APP_DeviceCustomHIDInitialize
  8966                           
  8967  0850                     i1l2917:	
  8968                           ;incstack = 0
  8969                           ; Regs used in _APP_DeviceCustomHIDInitialize: [wreg+fsr1l+fsr1h+status,2+status,0+pclat
      +                          h+cstack]
  8970                           
  8971                           
  8972                           ;app_device_custom_hid.c: 44:     USBInHandle = 0;
  8973  0850  0023               	movlb	3	; select bank3
  8974  0851  01AA               	clrf	_USBInHandle^(0+384)
  8975  0852  01AB               	clrf	(_USBInHandle+1)^(0+384)
  8976  0853                     i1l2919:
  8977                           
  8978                           ;app_device_custom_hid.c: 47:     USBEnableEndpoint(1, 0x02|0x04|0x10|0x08);
  8979  0853  301E               	movlw	30
  8980  0854  00FD               	movwf	??_APP_DeviceCustomHIDInitialize
  8981  0855  087D               	movf	??_APP_DeviceCustomHIDInitialize,w
  8982  0856  00F7               	movwf	USBEnableEndpoint@options
  8983  0857  3001               	movlw	1
  8984  0858  3188  20D0  3188   	fcall	_USBEnableEndpoint
  8985  085B                     i1l2921:
  8986                           
  8987                           ;app_device_custom_hid.c: 50:     USBOutHandle = (volatile void*)USBTransferOnePacket(1,
      +                          0,(uint8_t*)&ReceivedDataBuffer[0],64);
  8988  085B  01F0               	clrf	i1USBTransferOnePacket@dir
  8989  085C  30A0               	movlw	160
  8990  085D  00F1               	movwf	i1USBTransferOnePacket@data
  8991  085E  3000               	movlw	0
  8992  085F  00F2               	movwf	i1USBTransferOnePacket@data+1
  8993  0860  3040               	movlw	64
  8994  0861  00FD               	movwf	??_APP_DeviceCustomHIDInitialize
  8995  0862  087D               	movf	??_APP_DeviceCustomHIDInitialize,w
  8996  0863  00F3               	movwf	i1USBTransferOnePacket@len
  8997  0864  3001               	movlw	1
  8998  0865  318E  26F1  3188   	fcall	i1_USBTransferOnePacket
  8999  0868  0871               	movf	?i1_USBTransferOnePacket+1,w
  9000  0869  0023               	movlb	3	; select bank3
  9001  086A  00AD               	movwf	(_USBOutHandle+1)^(0+384)
  9002  086B  0870               	movf	?i1_USBTransferOnePacket,w
  9003  086C  00AC               	movwf	_USBOutHandle^(0+384)
  9004  086D                     i1l25:
  9005  086D  0008               	return
  9006  086E                     __end_of_APP_DeviceCustomHIDInitialize:
  9007                           
  9008                           	psect	text37
  9009  0EF1                     __ptext37:	
  9010 ;; *************** function i1_USBTransferOnePacket *****************
  9011 ;; Defined at:
  9012 ;;		line 999 in file "usb_device.c"
  9013 ;; Parameters:    Size  Location     Type
  9014 ;;  ep              1    wreg     unsigned char 
  9015 ;;  dir             1    0[COMMON] unsigned char 
  9016 ;;  data            2    1[COMMON] PTR unsigned char 
  9017 ;;		 -> ToSendDataBuffer(64), ReceivedDataBuffer(64), 
  9018 ;;  len             1    3[COMMON] unsigned char 
  9019 ;; Auto vars:     Size  Location     Type
  9020 ;;  ep              1    8[COMMON] unsigned char 
  9021 ;;  handle          2    9[COMMON] PTR volatile struct __BD
  9022 ;;		 -> RAM(4096), BDT(32), NULL(0), 
  9023 ;; Return value:  Size  Location     Type
  9024 ;;                  2    0[COMMON] PTR void 
  9025 ;; Registers used:
  9026 ;;		wreg, fsr1l, fsr1h, status,2, status,0
  9027 ;; Tracked objects:
  9028 ;;		On entry : 0/0
  9029 ;;		On exit  : 0/0
  9030 ;;		Unchanged: 0/0
  9031 ;; Data sizes:     COMMON   BANK0   BANK1   BANK2   BANK3   BANK4   BANK5   BANK6   BANK7   BANK8   BANK9  BANK10  BANK1
      +1  BANK12
  9032 ;;      Params:         4       0       0       0       0       0       0       0       0       0       0       0       
      +0       0
  9033 ;;      Locals:         3       0       0       0       0       0       0       0       0       0       0       0       
      +0       0
  9034 ;;      Temps:          4       0       0       0       0       0       0       0       0       0       0       0       
      +0       0
  9035 ;;      Totals:        11       0       0       0       0       0       0       0       0       0       0       0       
      +0       0
  9036 ;;Total ram usage:       11 bytes
  9037 ;; Hardware stack levels used: 1
  9038 ;; This function calls:
  9039 ;;		Nothing
  9040 ;; This function is called by:
  9041 ;;		_APP_DeviceCustomHIDInitialize
  9042 ;; This function uses a non-reentrant model
  9043 ;;
  9044                           
  9045  0EF1                     i1_USBTransferOnePacket:	
  9046                           ;psect for function i1_USBTransferOnePacket
  9047                           
  9048                           
  9049                           ;incstack = 0
  9050                           ; Regs used in i1_USBTransferOnePacket: [wreg+fsr1l+fsr1h+status,2+status,0]
  9051                           ;i1USBTransferOnePacket@ep stored from wreg
  9052  0EF1  00F8               	movwf	i1USBTransferOnePacket@ep
  9053  0EF2                     i1l2875:
  9054                           
  9055                           ;usb_device.c: 999: void* USBTransferOnePacket(uint8_t ep,uint8_t dir,uint8_t* data,uint
      +                          8_t len);usb_device.c: 1000: {;usb_device.c: 1001:     volatile BDT_ENTRY* handle;;usb_d
      +                          evice.c: 1004:     if(dir != 0)
  9056  0EF2  0870               	movf	i1USBTransferOnePacket@dir,w
  9057  0EF3  1903               	btfsc	3,2
  9058  0EF4  2EF6               	goto	u150_21
  9059  0EF5  2EF7               	goto	u150_20
  9060  0EF6                     u150_21:
  9061  0EF6  2F00               	goto	i1l2879
  9062  0EF7                     u150_20:
  9063  0EF7                     i1l2877:
  9064                           
  9065                           ;usb_device.c: 1005:     {;usb_device.c: 1007:         handle = pBDTEntryIn[ep];
  9066  0EF7  3578               	lslf	i1USBTransferOnePacket@ep,w
  9067  0EF8  3E6A               	addlw	(low (_pBDTEntryIn| 0))& (0+255)
  9068  0EF9  0086               	movwf	6
  9069  0EFA  0187               	clrf	7
  9070  0EFB  3F40               	moviw [0]fsr1
  9071  0EFC  00F9               	movwf	i1USBTransferOnePacket@handle
  9072  0EFD  3F41               	moviw [1]fsr1
  9073  0EFE  00FA               	movwf	i1USBTransferOnePacket@handle+1
  9074                           
  9075                           ;usb_device.c: 1008:     }
  9076  0EFF  2F09               	goto	i1l2881
  9077  0F00                     i1l2879:
  9078                           
  9079                           ;usb_device.c: 1010:     {;usb_device.c: 1012:         handle = pBDTEntryOut[ep];
  9080  0F00  3578               	lslf	i1USBTransferOnePacket@ep,w
  9081  0F01  3EA4               	addlw	(low (_pBDTEntryOut| (0+256)))& (0+255)
  9082  0F02  0086               	movwf	6
  9083  0F03  3001               	movlw	1	; select bank3/4
  9084  0F04  0087               	movwf	7
  9085  0F05  3F40               	moviw [0]fsr1
  9086  0F06  00F9               	movwf	i1USBTransferOnePacket@handle
  9087  0F07  3F41               	moviw [1]fsr1
  9088  0F08  00FA               	movwf	i1USBTransferOnePacket@handle+1
  9089  0F09                     i1l2881:
  9090                           
  9091                           ;usb_device.c: 1017:     if(handle == 0)
  9092  0F09  0879               	movf	i1USBTransferOnePacket@handle,w
  9093  0F0A  047A               	iorwf	i1USBTransferOnePacket@handle+1,w
  9094  0F0B  1D03               	btfss	3,2
  9095  0F0C  2F0E               	goto	u151_21
  9096  0F0D  2F0F               	goto	u151_20
  9097  0F0E                     u151_21:
  9098  0F0E  2F12               	goto	i1l2887
  9099  0F0F                     u151_20:
  9100  0F0F                     i1l2883:
  9101                           
  9102                           ;usb_device.c: 1018:     {;usb_device.c: 1019:         return 0;
  9103  0F0F  01F0               	clrf	?i1_USBTransferOnePacket
  9104  0F10  01F1               	clrf	?i1_USBTransferOnePacket+1
  9105  0F11  2F77               	goto	i1l285
  9106  0F12                     i1l2887:
  9107                           
  9108                           ;usb_device.c: 1033:     handle->ADR = (((uint16_t)(data)) & 0x7FFF);
  9109  0F12  30FF               	movlw	255
  9110  0F13  0571               	andwf	i1USBTransferOnePacket@data,w
  9111  0F14  00F4               	movwf	??i1_USBTransferOnePacket
  9112  0F15  307F               	movlw	127
  9113  0F16  0572               	andwf	i1USBTransferOnePacket@data+1,w
  9114  0F17  00F5               	movwf	??i1_USBTransferOnePacket+1
  9115  0F18  0879               	movf	i1USBTransferOnePacket@handle,w
  9116  0F19  0086               	movwf	6
  9117  0F1A  087A               	movf	i1USBTransferOnePacket@handle+1,w
  9118  0F1B  0087               	movwf	7
  9119  0F1C  3142               	addfsr 1,2
  9120  0F1D  0874               	movf	??i1_USBTransferOnePacket,w
  9121  0F1E  3FC0               	movwi [0]fsr1
  9122  0F1F  0875               	movf	??i1_USBTransferOnePacket+1,w
  9123  0F20  3FC1               	movwi [1]fsr1
  9124  0F21                     i1l2889:
  9125                           
  9126                           ;usb_device.c: 1034:     handle->CNT = len;
  9127  0F21  0879               	movf	i1USBTransferOnePacket@handle,w
  9128  0F22  3E01               	addlw	1
  9129  0F23  00F4               	movwf	??i1_USBTransferOnePacket
  9130  0F24  3000               	movlw	0
  9131  0F25  3D7A               	addwfc	i1USBTransferOnePacket@handle+1,w
  9132  0F26  00F5               	movwf	??i1_USBTransferOnePacket+1
  9133  0F27  0874               	movf	??i1_USBTransferOnePacket,w
  9134  0F28  0086               	movwf	6
  9135  0F29  0875               	movf	??i1_USBTransferOnePacket+1,w
  9136  0F2A  0087               	movwf	7
  9137  0F2B  0873               	movf	i1USBTransferOnePacket@len,w
  9138  0F2C  0081               	movwf	1
  9139  0F2D                     i1l2891:
  9140                           
  9141                           ;usb_device.c: 1035:     handle->STAT.Val &= 0x40;
  9142  0F2D  3040               	movlw	64
  9143  0F2E  00F4               	movwf	??i1_USBTransferOnePacket
  9144  0F2F  0879               	movf	i1USBTransferOnePacket@handle,w
  9145  0F30  0086               	movwf	6
  9146  0F31  087A               	movf	i1USBTransferOnePacket@handle+1,w
  9147  0F32  0087               	movwf	7
  9148  0F33  0874               	movf	??i1_USBTransferOnePacket,w
  9149  0F34  0581               	andwf	1,f
  9150                           
  9151                           ;usb_device.c: 1036:     handle->STAT.Val |= (0x08 & 0x08);
  9152  0F35  0879               	movf	i1USBTransferOnePacket@handle,w
  9153  0F36  0086               	movwf	6
  9154  0F37  087A               	movf	i1USBTransferOnePacket@handle+1,w
  9155  0F38  0087               	movwf	7
  9156  0F39  1581               	bsf	1,3
  9157                           
  9158                           ;usb_device.c: 1037:     handle->STAT.Val |= 0x80;
  9159  0F3A  0879               	movf	i1USBTransferOnePacket@handle,w
  9160  0F3B  0086               	movwf	6
  9161  0F3C  087A               	movf	i1USBTransferOnePacket@handle+1,w
  9162  0F3D  0087               	movwf	7
  9163  0F3E  1781               	bsf	1,7
  9164  0F3F                     i1l2893:
  9165                           
  9166                           ;usb_device.c: 1040:     if(dir != 0)
  9167  0F3F  0870               	movf	i1USBTransferOnePacket@dir,w
  9168  0F40  1903               	btfsc	3,2
  9169  0F41  2F43               	goto	u152_21
  9170  0F42  2F44               	goto	u152_20
  9171  0F43                     u152_21:
  9172  0F43  2F5B               	goto	i1l2897
  9173  0F44                     u152_20:
  9174  0F44                     i1l2895:
  9175                           
  9176                           ;usb_device.c: 1041:     {;usb_device.c: 1043:         pBDTEntryIn[ep] = (BDT_ENTRY*)(((
      +                          uint16_t)pBDTEntryIn[ep]) ^ 0x0004);
  9177  0F44  3578               	lslf	i1USBTransferOnePacket@ep,w
  9178  0F45  3E6A               	addlw	(low (_pBDTEntryIn| 0))& (0+255)
  9179  0F46  0086               	movwf	6
  9180  0F47  0187               	clrf	7
  9181  0F48  3F40               	moviw [0]fsr1
  9182  0F49  00F4               	movwf	??i1_USBTransferOnePacket
  9183  0F4A  3F41               	moviw [1]fsr1
  9184  0F4B  00F5               	movwf	??i1_USBTransferOnePacket+1
  9185  0F4C  3004               	movlw	4
  9186  0F4D  0674               	xorwf	??i1_USBTransferOnePacket,w
  9187  0F4E  00F6               	movwf	??i1_USBTransferOnePacket+2
  9188  0F4F  3000               	movlw	0
  9189  0F50  0675               	xorwf	??i1_USBTransferOnePacket+1,w
  9190  0F51  00F7               	movwf	??i1_USBTransferOnePacket+3
  9191  0F52  3578               	lslf	i1USBTransferOnePacket@ep,w
  9192  0F53  3E6A               	addlw	(low (_pBDTEntryIn| 0))& (0+255)
  9193  0F54  0086               	movwf	6
  9194  0F55  0187               	clrf	7
  9195  0F56  0876               	movf	??i1_USBTransferOnePacket+2,w
  9196  0F57  3FC0               	movwi [0]fsr1
  9197  0F58  0877               	movf	??i1_USBTransferOnePacket+3,w
  9198  0F59  3FC1               	movwi [1]fsr1
  9199                           
  9200                           ;usb_device.c: 1044:     }
  9201  0F5A  2F73               	goto	i1l2899
  9202  0F5B                     i1l2897:
  9203                           
  9204                           ;usb_device.c: 1046:     {;usb_device.c: 1048:         pBDTEntryOut[ep] = (BDT_ENTRY*)((
      +                          (uint16_t)pBDTEntryOut[ep]) ^ 0x0004);
  9205  0F5B  3578               	lslf	i1USBTransferOnePacket@ep,w
  9206  0F5C  3EA4               	addlw	(low (_pBDTEntryOut| (0+256)))& (0+255)
  9207  0F5D  0086               	movwf	6
  9208  0F5E  3001               	movlw	1	; select bank3/4
  9209  0F5F  0087               	movwf	7
  9210  0F60  3F40               	moviw [0]fsr1
  9211  0F61  00F4               	movwf	??i1_USBTransferOnePacket
  9212  0F62  3F41               	moviw [1]fsr1
  9213  0F63  00F5               	movwf	??i1_USBTransferOnePacket+1
  9214  0F64  3004               	movlw	4
  9215  0F65  0674               	xorwf	??i1_USBTransferOnePacket,w
  9216  0F66  00F6               	movwf	??i1_USBTransferOnePacket+2
  9217  0F67  3000               	movlw	0
  9218  0F68  0675               	xorwf	??i1_USBTransferOnePacket+1,w
  9219  0F69  00F7               	movwf	??i1_USBTransferOnePacket+3
  9220  0F6A  3578               	lslf	i1USBTransferOnePacket@ep,w
  9221  0F6B  3EA4               	addlw	(low (_pBDTEntryOut| (0+256)))& (0+255)
  9222  0F6C  0086               	movwf	6
  9223  0F6D  3001               	movlw	1	; select bank3/4
  9224  0F6E  0087               	movwf	7
  9225  0F6F  0876               	movf	??i1_USBTransferOnePacket+2,w
  9226  0F70  3FC0               	movwi [0]fsr1
  9227  0F71  0877               	movf	??i1_USBTransferOnePacket+3,w
  9228  0F72  3FC1               	movwi [1]fsr1
  9229  0F73                     i1l2899:
  9230                           
  9231                           ;usb_device.c: 1050:     return (void*)handle;
  9232  0F73  087A               	movf	i1USBTransferOnePacket@handle+1,w
  9233  0F74  00F1               	movwf	?i1_USBTransferOnePacket+1
  9234  0F75  0879               	movf	i1USBTransferOnePacket@handle,w
  9235  0F76  00F0               	movwf	?i1_USBTransferOnePacket
  9236  0F77                     i1l285:
  9237  0F77  0008               	return
  9238  0F78                     __end_ofi1_USBTransferOnePacket:
  9239                           
  9240                           	psect	text38
  9241  08D0                     __ptext38:	
  9242 ;; *************** function _USBEnableEndpoint *****************
  9243 ;; Defined at:
  9244 ;;		line 882 in file "usb_device.c"
  9245 ;; Parameters:    Size  Location     Type
  9246 ;;  ep              1    wreg     unsigned char 
  9247 ;;  options         1    7[COMMON] unsigned char 
  9248 ;; Auto vars:     Size  Location     Type
  9249 ;;  ep              1   12[COMMON] unsigned char 
  9250 ;;  p               2   10[COMMON] PTR unsigned char 
  9251 ;;		 -> UEP0(1), 
  9252 ;; Return value:  Size  Location     Type
  9253 ;;                  1    wreg      void 
  9254 ;; Registers used:
  9255 ;;		wreg, fsr1l, fsr1h, status,2, status,0, pclath, cstack
  9256 ;; Tracked objects:
  9257 ;;		On entry : 0/0
  9258 ;;		On exit  : 0/0
  9259 ;;		Unchanged: 0/0
  9260 ;; Data sizes:     COMMON   BANK0   BANK1   BANK2   BANK3   BANK4   BANK5   BANK6   BANK7   BANK8   BANK9  BANK10  BANK1
      +1  BANK12
  9261 ;;      Params:         1       0       0       0       0       0       0       0       0       0       0       0       
      +0       0
  9262 ;;      Locals:         3       0       0       0       0       0       0       0       0       0       0       0       
      +0       0
  9263 ;;      Temps:          2       0       0       0       0       0       0       0       0       0       0       0       
      +0       0
  9264 ;;      Totals:         6       0       0       0       0       0       0       0       0       0       0       0       
      +0       0
  9265 ;;Total ram usage:        6 bytes
  9266 ;; Hardware stack levels used: 1
  9267 ;; Hardware stack levels required when called: 1
  9268 ;; This function calls:
  9269 ;;		_USBConfigureEndpoint
  9270 ;; This function is called by:
  9271 ;;		_APP_DeviceCustomHIDInitialize
  9272 ;; This function uses a non-reentrant model
  9273 ;;
  9274                           
  9275  08D0                     _USBEnableEndpoint:	
  9276                           ;psect for function _USBEnableEndpoint
  9277                           
  9278                           
  9279                           ;incstack = 0
  9280                           ; Regs used in _USBEnableEndpoint: [wreg+fsr1l+fsr1h+status,2+status,0+pclath+cstack]
  9281                           ;USBEnableEndpoint@ep stored from wreg
  9282  08D0  00FC               	movwf	USBEnableEndpoint@ep
  9283  08D1                     i1l2863:
  9284                           
  9285                           ;usb_device.c: 882: void USBEnableEndpoint(uint8_t ep, uint8_t options);usb_device.c: 88
      +                          3: {;usb_device.c: 884:     unsigned char* p;;usb_device.c: 888:     if(options & 0x04)
  9286  08D1  1D77               	btfss	USBEnableEndpoint@options,2
  9287  08D2  28D4               	goto	u148_21
  9288  08D3  28D5               	goto	u148_20
  9289  08D4                     u148_21:
  9290  08D4  28DA               	goto	i1l2867
  9291  08D5                     u148_20:
  9292  08D5                     i1l2865:
  9293                           
  9294                           ;usb_device.c: 889:     {;usb_device.c: 890:         USBConfigureEndpoint(ep, 0);
  9295  08D5  01F0               	clrf	USBConfigureEndpoint@direction
  9296  08D6  087C               	movf	USBEnableEndpoint@ep,w
  9297  08D7  318A  2282  3188   	fcall	_USBConfigureEndpoint
  9298  08DA                     i1l2867:
  9299                           
  9300                           ;usb_device.c: 892:     if(options & 0x02)
  9301  08DA  1CF7               	btfss	USBEnableEndpoint@options,1
  9302  08DB  28DD               	goto	u149_21
  9303  08DC  28DE               	goto	u149_20
  9304  08DD                     u149_21:
  9305  08DD  28E4               	goto	i1l2871
  9306  08DE                     u149_20:
  9307  08DE                     i1l2869:
  9308                           
  9309                           ;usb_device.c: 893:     {;usb_device.c: 894:         USBConfigureEndpoint(ep, 1);
  9310  08DE  01F0               	clrf	USBConfigureEndpoint@direction
  9311  08DF  0AF0               	incf	USBConfigureEndpoint@direction,f
  9312  08E0  087C               	movf	USBEnableEndpoint@ep,w
  9313  08E1  318A  2282  3188   	fcall	_USBConfigureEndpoint
  9314  08E4                     i1l2871:
  9315                           
  9316                           ;usb_device.c: 903:         p = (unsigned char*)(&UEP0+ep);
  9317  08E4  087C               	movf	USBEnableEndpoint@ep,w
  9318  08E5  3E98               	addlw	152
  9319  08E6  00F8               	movwf	??_USBEnableEndpoint
  9320  08E7  01F9               	clrf	??_USBEnableEndpoint+1
  9321  08E8  300E               	movlw	14
  9322  08E9  3DF9               	addwfc	??_USBEnableEndpoint+1,f
  9323  08EA  0878               	movf	??_USBEnableEndpoint,w
  9324  08EB  00FA               	movwf	USBEnableEndpoint@p
  9325  08EC  0879               	movf	??_USBEnableEndpoint+1,w
  9326  08ED  00FB               	movwf	USBEnableEndpoint@p+1
  9327  08EE                     i1l2873:
  9328                           
  9329                           ;usb_device.c: 905:     *p = options;
  9330  08EE  087A               	movf	USBEnableEndpoint@p,w
  9331  08EF  0086               	movwf	6
  9332  08F0  087B               	movf	USBEnableEndpoint@p+1,w
  9333  08F1  0087               	movwf	7
  9334  08F2  0877               	movf	USBEnableEndpoint@options,w
  9335  08F3  0081               	movwf	1
  9336  08F4                     i1l279:
  9337  08F4  0008               	return
  9338  08F5                     __end_of_USBEnableEndpoint:
  9339                           
  9340                           	psect	text39
  9341  0A82                     __ptext39:	
  9342 ;; *************** function _USBConfigureEndpoint *****************
  9343 ;; Defined at:
  9344 ;;		line 1547 in file "usb_device.c"
  9345 ;; Parameters:    Size  Location     Type
  9346 ;;  EPNum           1    wreg     unsigned char 
  9347 ;;  direction       1    0[COMMON] unsigned char 
  9348 ;; Auto vars:     Size  Location     Type
  9349 ;;  EPNum           1    5[COMMON] unsigned char 
  9350 ;;  handle          1    6[COMMON] PTR volatile struct __BD
  9351 ;;		 -> BDT(32), 
  9352 ;; Return value:  Size  Location     Type
  9353 ;;                  1    wreg      void 
  9354 ;; Registers used:
  9355 ;;		wreg, fsr1l, fsr1h, status,2, status,0
  9356 ;; Tracked objects:
  9357 ;;		On entry : 0/0
  9358 ;;		On exit  : 0/0
  9359 ;;		Unchanged: 0/0
  9360 ;; Data sizes:     COMMON   BANK0   BANK1   BANK2   BANK3   BANK4   BANK5   BANK6   BANK7   BANK8   BANK9  BANK10  BANK1
      +1  BANK12
  9361 ;;      Params:         1       0       0       0       0       0       0       0       0       0       0       0       
      +0       0
  9362 ;;      Locals:         2       0       0       0       0       0       0       0       0       0       0       0       
      +0       0
  9363 ;;      Temps:          4       0       0       0       0       0       0       0       0       0       0       0       
      +0       0
  9364 ;;      Totals:         7       0       0       0       0       0       0       0       0       0       0       0       
      +0       0
  9365 ;;Total ram usage:        7 bytes
  9366 ;; Hardware stack levels used: 1
  9367 ;; This function calls:
  9368 ;;		Nothing
  9369 ;; This function is called by:
  9370 ;;		_USBEnableEndpoint
  9371 ;; This function uses a non-reentrant model
  9372 ;;
  9373                           
  9374  0A82                     _USBConfigureEndpoint:	
  9375                           ;psect for function _USBConfigureEndpoint
  9376                           
  9377                           
  9378                           ;incstack = 0
  9379                           ; Regs used in _USBConfigureEndpoint: [wreg+fsr1l+fsr1h+status,2+status,0]
  9380                           ;USBConfigureEndpoint@EPNum stored from wreg
  9381  0A82  00F5               	movwf	USBConfigureEndpoint@EPNum
  9382  0A83                     i1l2847:
  9383                           
  9384                           ;usb_device.c: 1547: static void USBConfigureEndpoint(uint8_t EPNum, uint8_t direction);
      +                          usb_device.c: 1548: {;usb_device.c: 1549:     volatile BDT_ENTRY* handle;;usb_device.c: 
      +                          1553:     handle = (volatile BDT_ENTRY*)&BDT[0];
  9385  0A83  3020               	movlw	32
  9386  0A84  00F1               	movwf	??_USBConfigureEndpoint
  9387  0A85  0871               	movf	??_USBConfigureEndpoint,w
  9388  0A86  00F6               	movwf	USBConfigureEndpoint@handle
  9389  0A87                     i1l2849:
  9390                           
  9391                           ;usb_device.c: 1554:     handle += (4*EPNum+2*direction+0u);
  9392  0A87  0870               	movf	USBConfigureEndpoint@direction,w
  9393  0A88  00F1               	movwf	??_USBConfigureEndpoint
  9394  0A89  3001               	movlw	1
  9395  0A8A                     u144_25:
  9396  0A8A  35F1               	lslf	??_USBConfigureEndpoint,f
  9397  0A8B  0B89               	decfsz	9,f
  9398  0A8C  2A8A               	goto	u144_25
  9399  0A8D  0875               	movf	USBConfigureEndpoint@EPNum,w
  9400  0A8E  00F2               	movwf	??_USBConfigureEndpoint+1
  9401  0A8F  3001               	movlw	1
  9402  0A90                     u145_25:
  9403  0A90  35F2               	lslf	??_USBConfigureEndpoint+1,f
  9404  0A91  3EFF               	addlw	-1
  9405  0A92  1D03               	skipz
  9406  0A93  2A90               	goto	u145_25
  9407  0A94  3572               	lslf	??_USBConfigureEndpoint+1,w
  9408  0A95  0771               	addwf	??_USBConfigureEndpoint,w
  9409  0A96  00F3               	movwf	??_USBConfigureEndpoint+2
  9410  0A97  3001               	movlw	1
  9411  0A98                     u146_25:
  9412  0A98  35F3               	lslf	??_USBConfigureEndpoint+2,f
  9413  0A99  3EFF               	addlw	-1
  9414  0A9A  1D03               	skipz
  9415  0A9B  2A98               	goto	u146_25
  9416  0A9C  3573               	lslf	??_USBConfigureEndpoint+2,w
  9417  0A9D  00F4               	movwf	??_USBConfigureEndpoint+3
  9418  0A9E  0874               	movf	??_USBConfigureEndpoint+3,w
  9419  0A9F  07F6               	addwf	USBConfigureEndpoint@handle,f
  9420  0AA0                     i1l2851:
  9421                           
  9422                           ;usb_device.c: 1556:     handle->STAT.UOWN = 0;
  9423  0AA0  0876               	movf	USBConfigureEndpoint@handle,w
  9424  0AA1  0086               	movwf	6
  9425  0AA2  0187               	clrf	7
  9426  0AA3  1381               	bcf	1,7
  9427  0AA4                     i1l2853:
  9428                           
  9429                           ;usb_device.c: 1561:     if(direction == 0)
  9430  0AA4  0870               	movf	USBConfigureEndpoint@direction,w
  9431  0AA5  1D03               	btfss	3,2
  9432  0AA6  2AA8               	goto	u147_21
  9433  0AA7  2AA9               	goto	u147_20
  9434  0AA8                     u147_21:
  9435  0AA8  2AB3               	goto	i1l2857
  9436  0AA9                     u147_20:
  9437  0AA9                     i1l2855:
  9438                           
  9439                           ;usb_device.c: 1562:     {;usb_device.c: 1563:         pBDTEntryOut[EPNum] = handle;
  9440  0AA9  3575               	lslf	USBConfigureEndpoint@EPNum,w
  9441  0AAA  3EA4               	addlw	(low (_pBDTEntryOut| (0+256)))& (0+255)
  9442  0AAB  0086               	movwf	6
  9443  0AAC  3001               	movlw	1	; select bank3/4
  9444  0AAD  0087               	movwf	7
  9445  0AAE  0876               	movf	USBConfigureEndpoint@handle,w
  9446  0AAF  3FC0               	movwi [0]fsr1
  9447  0AB0  3000               	movlw	0
  9448  0AB1  3FC1               	movwi [1]fsr1
  9449                           
  9450                           ;usb_device.c: 1564:     }
  9451  0AB2  2ABB               	goto	i1l2859
  9452  0AB3                     i1l2857:
  9453                           
  9454                           ;usb_device.c: 1566:     {;usb_device.c: 1567:         pBDTEntryIn[EPNum] = handle;
  9455  0AB3  3575               	lslf	USBConfigureEndpoint@EPNum,w
  9456  0AB4  3E6A               	addlw	(low (_pBDTEntryIn| 0))& (0+255)
  9457  0AB5  0086               	movwf	6
  9458  0AB6  0187               	clrf	7
  9459  0AB7  0876               	movf	USBConfigureEndpoint@handle,w
  9460  0AB8  3FC0               	movwi [0]fsr1
  9461  0AB9  3000               	movlw	0
  9462  0ABA  3FC1               	movwi [1]fsr1
  9463  0ABB                     i1l2859:
  9464                           
  9465                           ;usb_device.c: 1571:         handle->STAT.DTS = 0;
  9466  0ABB  0876               	movf	USBConfigureEndpoint@handle,w
  9467  0ABC  0086               	movwf	6
  9468  0ABD  0187               	clrf	7
  9469  0ABE  1301               	bcf	1,6
  9470  0ABF                     i1l2861:
  9471                           
  9472                           ;usb_device.c: 1572:         (handle+1)->STAT.DTS = 1;
  9473  0ABF  0876               	movf	USBConfigureEndpoint@handle,w
  9474  0AC0  3E04               	addlw	4
  9475  0AC1  0086               	movwf	6
  9476  0AC2  0187               	clrf	7
  9477  0AC3  1701               	bsf	1,6
  9478  0AC4                     i1l326:
  9479  0AC4  0008               	return
  9480  0AC5                     __end_of_USBConfigureEndpoint:
  9481                           
  9482                           	psect	text40
  9483  0A48                     __ptext40:	
  9484 ;; *************** function _USBCtrlTrfOutHandler *****************
  9485 ;; Defined at:
  9486 ;;		line 2545 in file "usb_device.c"
  9487 ;; Parameters:    Size  Location     Type
  9488 ;;		None
  9489 ;; Auto vars:     Size  Location     Type
  9490 ;;		None
  9491 ;; Return value:  Size  Location     Type
  9492 ;;                  1    wreg      void 
  9493 ;; Registers used:
  9494 ;;		wreg, fsr1l, fsr1h, status,2, status,0, pclath, cstack
  9495 ;; Tracked objects:
  9496 ;;		On entry : 0/0
  9497 ;;		On exit  : 0/0
  9498 ;;		Unchanged: 0/0
  9499 ;; Data sizes:     COMMON   BANK0   BANK1   BANK2   BANK3   BANK4   BANK5   BANK6   BANK7   BANK8   BANK9  BANK10  BANK1
      +1  BANK12
  9500 ;;      Params:         0       0       0       0       0       0       0       0       0       0       0       0       
      +0       0
  9501 ;;      Locals:         0       0       0       0       0       0       0       0       0       0       0       0       
      +0       0
  9502 ;;      Temps:          2       0       0       0       0       0       0       0       0       0       0       0       
      +0       0
  9503 ;;      Totals:         2       0       0       0       0       0       0       0       0       0       0       0       
      +0       0
  9504 ;;Total ram usage:        2 bytes
  9505 ;; Hardware stack levels used: 1
  9506 ;; Hardware stack levels required when called: 2
  9507 ;; This function calls:
  9508 ;;		_USBCtrlTrfRxService
  9509 ;; This function is called by:
  9510 ;;		_USBCtrlEPService
  9511 ;; This function uses a non-reentrant model
  9512 ;;
  9513                           
  9514  0A48                     _USBCtrlTrfOutHandler:	
  9515                           ;psect for function _USBCtrlTrfOutHandler
  9516                           
  9517  0A48                     i1l3565:	
  9518                           ;incstack = 0
  9519                           ; Regs used in _USBCtrlTrfOutHandler: [wreg+fsr1l+fsr1h+status,2+status,0+pclath+cstack]
  9520                           
  9521                           
  9522                           ;usb_device.c: 2547:     if(controlTransferState == 2)
  9523  0A48  3002               	movlw	2
  9524  0A49  0022               	movlb	2	; select bank2
  9525  0A4A  066B               	xorwf	_controlTransferState^(0+256),w	;volatile
  9526  0A4B  1D03               	btfss	3,2
  9527  0A4C  2A4E               	goto	u219_21
  9528  0A4D  2A4F               	goto	u219_20
  9529  0A4E                     u219_21:
  9530  0A4E  2A53               	goto	i1l3569
  9531  0A4F                     u219_20:
  9532  0A4F                     i1l3567:
  9533                           
  9534                           ;usb_device.c: 2548:     {;usb_device.c: 2549:         USBCtrlTrfRxService();
  9535  0A4F  3184  2423  318A   	fcall	_USBCtrlTrfRxService
  9536                           
  9537                           ;usb_device.c: 2550:     }
  9538  0A52  2A81               	goto	i1l437
  9539  0A53                     i1l3569:
  9540                           
  9541                           ;usb_device.c: 2552:     {;usb_device.c: 2555:         controlTransferState = 0;
  9542  0A53  01EB               	clrf	_controlTransferState^(0+256)	;volatile
  9543  0A54                     i1l3571:
  9544                           
  9545                           ;usb_device.c: 2562:         if(BothEP0OutUOWNsSet == 0)
  9546  0A54  0023               	movlb	3	; select bank3
  9547  0A55  0834               	movf	_BothEP0OutUOWNsSet^(0+384),w	;volatile
  9548  0A56  1D03               	btfss	3,2
  9549  0A57  2A59               	goto	u220_21
  9550  0A58  2A5A               	goto	u220_20
  9551  0A59                     u220_21:
  9552  0A59  2A80               	goto	i1l3581
  9553  0A5A                     u220_20:
  9554  0A5A                     i1l3573:
  9555                           
  9556                           ;usb_device.c: 2563:         {;usb_device.c: 2564:             pBDTEntryEP0OutNext->CNT 
      +                          = 8;
  9557  0A5A  0020               	movlb	0	; select bank0
  9558  0A5B  086E               	movf	_pBDTEntryEP0OutNext,w
  9559  0A5C  3E01               	addlw	1
  9560  0A5D  00F6               	movwf	??_USBCtrlTrfOutHandler
  9561  0A5E  3000               	movlw	0
  9562  0A5F  3D6F               	addwfc	_pBDTEntryEP0OutNext+1,w
  9563  0A60  00F7               	movwf	??_USBCtrlTrfOutHandler+1
  9564  0A61  0876               	movf	??_USBCtrlTrfOutHandler,w
  9565  0A62  0086               	movwf	6
  9566  0A63  0877               	movf	??_USBCtrlTrfOutHandler+1,w
  9567  0A64  0087               	movwf	7
  9568  0A65  3008               	movlw	8
  9569  0A66  0081               	movwf	1
  9570  0A67                     i1l3575:
  9571                           
  9572                           ;usb_device.c: 2565:             pBDTEntryEP0OutNext->ADR = (((uint16_t)(&SetupPkt)) & 0
      +                          x7FFF);
  9573  0A67  3040               	movlw	64
  9574  0A68  00F6               	movwf	??_USBCtrlTrfOutHandler
  9575  0A69  3000               	movlw	0
  9576  0A6A  00F7               	movwf	??_USBCtrlTrfOutHandler+1
  9577  0A6B  086E               	movf	_pBDTEntryEP0OutNext,w
  9578  0A6C  0086               	movwf	6
  9579  0A6D  086F               	movf	_pBDTEntryEP0OutNext+1,w
  9580  0A6E  0087               	movwf	7
  9581  0A6F  3142               	addfsr 1,2
  9582  0A70  0876               	movf	??_USBCtrlTrfOutHandler,w
  9583  0A71  3FC0               	movwi [0]fsr1
  9584  0A72  0877               	movf	??_USBCtrlTrfOutHandler+1,w
  9585  0A73  3FC1               	movwi [1]fsr1
  9586  0A74                     i1l3577:
  9587                           
  9588                           ;usb_device.c: 2566:             pBDTEntryEP0OutNext->STAT.Val = 0x00|(0x08 & 0x08)|0x04
      +                          ;
  9589  0A74  086E               	movf	_pBDTEntryEP0OutNext,w
  9590  0A75  0086               	movwf	6
  9591  0A76  086F               	movf	_pBDTEntryEP0OutNext+1,w
  9592  0A77  0087               	movwf	7
  9593  0A78  300C               	movlw	12
  9594  0A79  0081               	movwf	1
  9595  0A7A                     i1l3579:
  9596                           
  9597                           ;usb_device.c: 2567:             pBDTEntryEP0OutNext->STAT.Val |= 0x80;
  9598  0A7A  086E               	movf	_pBDTEntryEP0OutNext,w
  9599  0A7B  0086               	movwf	6
  9600  0A7C  086F               	movf	_pBDTEntryEP0OutNext+1,w
  9601  0A7D  0087               	movwf	7
  9602  0A7E  1781               	bsf	1,7
  9603                           
  9604                           ;usb_device.c: 2568:         }
  9605  0A7F  2A81               	goto	i1l437
  9606  0A80                     i1l3581:
  9607                           
  9608                           ;usb_device.c: 2570:         {;usb_device.c: 2571:             BothEP0OutUOWNsSet = 0;
  9609  0A80  01B4               	clrf	_BothEP0OutUOWNsSet^(0+384)	;volatile
  9610  0A81                     i1l437:
  9611  0A81  0008               	return
  9612  0A82                     __end_of_USBCtrlTrfOutHandler:
  9613                           
  9614                           	psect	text41
  9615  0423                     __ptext41:	
  9616 ;; *************** function _USBCtrlTrfRxService *****************
  9617 ;; Defined at:
  9618 ;;		line 1856 in file "usb_device.c"
  9619 ;; Parameters:    Size  Location     Type
  9620 ;;		None
  9621 ;; Auto vars:     Size  Location     Type
  9622 ;;  byteToRead      1    5[COMMON] unsigned char 
  9623 ;;  i               1    4[COMMON] unsigned char 
  9624 ;; Return value:  Size  Location     Type
  9625 ;;                  1    wreg      void 
  9626 ;; Registers used:
  9627 ;;		wreg, fsr1l, fsr1h, status,2, status,0, pclath, cstack
  9628 ;; Tracked objects:
  9629 ;;		On entry : 0/0
  9630 ;;		On exit  : 0/0
  9631 ;;		Unchanged: 0/0
  9632 ;; Data sizes:     COMMON   BANK0   BANK1   BANK2   BANK3   BANK4   BANK5   BANK6   BANK7   BANK8   BANK9  BANK10  BANK1
      +1  BANK12
  9633 ;;      Params:         0       0       0       0       0       0       0       0       0       0       0       0       
      +0       0
  9634 ;;      Locals:         2       0       0       0       0       0       0       0       0       0       0       0       
      +0       0
  9635 ;;      Temps:          2       0       0       0       0       0       0       0       0       0       0       0       
      +0       0
  9636 ;;      Totals:         4       0       0       0       0       0       0       0       0       0       0       0       
      +0       0
  9637 ;;Total ram usage:        4 bytes
  9638 ;; Hardware stack levels used: 1
  9639 ;; Hardware stack levels required when called: 1
  9640 ;; This function calls:
  9641 ;;		_USBCtrlEPAllowStatusStage
  9642 ;; This function is called by:
  9643 ;;		_USBCtrlTrfOutHandler
  9644 ;; This function uses a non-reentrant model
  9645 ;;
  9646                           
  9647  0423                     _USBCtrlTrfRxService:	
  9648                           ;psect for function _USBCtrlTrfRxService
  9649                           
  9650  0423                     i1l3443:	
  9651                           ;incstack = 0
  9652                           ; Regs used in _USBCtrlTrfRxService: [wreg+fsr1l+fsr1h+status,2+status,0+pclath+cstack]
  9653                           
  9654                           
  9655                           ;usb_device.c: 1858:     uint8_t byteToRead;;usb_device.c: 1859:     uint8_t i;;usb_devi
      +                          ce.c: 1863:     byteToRead = pBDTEntryEP0OutCurrent->CNT;
  9656  0423  0021               	movlb	1	; select bank1
  9657  0424  086E               	movf	_pBDTEntryEP0OutCurrent^(0+128),w
  9658  0425  0086               	movwf	6
  9659  0426  0187               	clrf	7
  9660  0427  3F41               	moviw [1]fsr1
  9661  0428  00F5               	movwf	USBCtrlTrfRxService@byteToRead
  9662  0429                     i1l3445:
  9663                           
  9664                           ;usb_device.c: 1869:     if(byteToRead > outPipes[0].wCount.Val)
  9665  0429  0875               	movf	USBCtrlTrfRxService@byteToRead,w
  9666  042A  00F2               	movwf	??_USBCtrlTrfRxService
  9667  042B  01F3               	clrf	??_USBCtrlTrfRxService+1
  9668  042C  0873               	movf	??_USBCtrlTrfRxService+1,w
  9669  042D  0022               	movlb	2	; select bank2
  9670  042E  0264               	subwf	((_outPipes+1)^(0+256)+3),w	;volatile
  9671  042F  1D03               	skipz
  9672  0430  2C33               	goto	u212_25
  9673  0431  0872               	movf	??_USBCtrlTrfRxService,w
  9674  0432  0263               	subwf	(_outPipes^(0+256)+3),w	;volatile
  9675  0433                     u212_25:
  9676  0433  1803               	skipnc
  9677  0434  2C36               	goto	u212_21
  9678  0435  2C37               	goto	u212_20
  9679  0436                     u212_21:
  9680  0436  2C3B               	goto	i1l357
  9681  0437                     u212_20:
  9682  0437                     i1l3447:
  9683                           
  9684                           ;usb_device.c: 1870:     {;usb_device.c: 1871:         byteToRead = outPipes[0].wCount.V
      +                          al;
  9685  0437  0863               	movf	(_outPipes^(0+256)+3),w	;volatile
  9686  0438  00F2               	movwf	??_USBCtrlTrfRxService
  9687  0439  0872               	movf	??_USBCtrlTrfRxService,w
  9688  043A  00F5               	movwf	USBCtrlTrfRxService@byteToRead
  9689  043B                     i1l357:	
  9690                           ;usb_device.c: 1872:     }
  9691                           
  9692                           
  9693                           ;usb_device.c: 1874:     outPipes[0].wCount.Val -= byteToRead;
  9694  043B  0875               	movf	USBCtrlTrfRxService@byteToRead,w
  9695  043C  00F2               	movwf	??_USBCtrlTrfRxService
  9696  043D  01F3               	clrf	??_USBCtrlTrfRxService+1
  9697  043E  0872               	movf	??_USBCtrlTrfRxService,w
  9698  043F  02E3               	subwf	(_outPipes^(0+256)+3),f	;volatile
  9699  0440  0873               	movf	??_USBCtrlTrfRxService+1,w
  9700  0441  3BE4               	subwfb	((_outPipes+1)^(0+256)+3),f	;volatile
  9701  0442                     i1l3449:
  9702                           
  9703                           ;usb_device.c: 1878:     for(i=0;i<byteToRead;i++)
  9704  0442  01F4               	clrf	USBCtrlTrfRxService@i
  9705  0443  2C57               	goto	i1l3457
  9706  0444                     i1l3451:
  9707                           
  9708                           ;usb_device.c: 1879:     {;usb_device.c: 1880:         *outPipes[0].pDst.bRam++ = CtrlTr
      +                          fData[i];
  9709  0444  0874               	movf	USBCtrlTrfRxService@i,w
  9710  0445  3E48               	addlw	72
  9711  0446  0086               	movwf	6
  9712  0447  0187               	clrf	7
  9713  0448  0801               	movf	1,w
  9714  0449  00F2               	movwf	??_USBCtrlTrfRxService
  9715  044A  0860               	movf	_outPipes^(0+256),w	;volatile
  9716  044B  0086               	movwf	6
  9717  044C  0187               	clrf	7
  9718  044D  0872               	movf	??_USBCtrlTrfRxService,w
  9719  044E  0081               	movwf	1
  9720  044F                     i1l3453:
  9721  044F  3001               	movlw	1
  9722  0450  00F2               	movwf	??_USBCtrlTrfRxService
  9723  0451  0872               	movf	??_USBCtrlTrfRxService,w
  9724  0452  07E0               	addwf	_outPipes^(0+256),f	;volatile
  9725  0453                     i1l3455:
  9726                           
  9727                           ;usb_device.c: 1881:     }
  9728  0453  3001               	movlw	1
  9729  0454  00F2               	movwf	??_USBCtrlTrfRxService
  9730  0455  0872               	movf	??_USBCtrlTrfRxService,w
  9731  0456  07F4               	addwf	USBCtrlTrfRxService@i,f
  9732  0457                     i1l3457:
  9733  0457  0875               	movf	USBCtrlTrfRxService@byteToRead,w
  9734  0458  0274               	subwf	USBCtrlTrfRxService@i,w
  9735  0459  1C03               	skipc
  9736  045A  2C5C               	goto	u213_21
  9737  045B  2C5D               	goto	u213_20
  9738  045C                     u213_21:
  9739  045C  2C44               	goto	i1l3451
  9740  045D                     u213_20:
  9741  045D                     i1l3459:
  9742                           
  9743                           ;usb_device.c: 1885:     if(outPipes[0].wCount.Val > 0)
  9744  045D  0863               	movf	(_outPipes^(0+256)+3),w	;volatile
  9745  045E  0464               	iorwf	((_outPipes+1)^(0+256)+3),w	;volatile
  9746  045F  1903               	btfsc	3,2
  9747  0460  2C62               	goto	u214_21
  9748  0461  2C63               	goto	u214_20
  9749  0462                     u214_21:
  9750  0462  2C9F               	goto	i1l3471
  9751  0463                     u214_20:
  9752  0463                     i1l3461:
  9753                           
  9754                           ;usb_device.c: 1886:     {;usb_device.c: 1887:         pBDTEntryEP0OutNext->CNT = 8;
  9755  0463  0020               	movlb	0	; select bank0
  9756  0464  086E               	movf	_pBDTEntryEP0OutNext,w
  9757  0465  3E01               	addlw	1
  9758  0466  00F2               	movwf	??_USBCtrlTrfRxService
  9759  0467  3000               	movlw	0
  9760  0468  3D6F               	addwfc	_pBDTEntryEP0OutNext+1,w
  9761  0469  00F3               	movwf	??_USBCtrlTrfRxService+1
  9762  046A  0872               	movf	??_USBCtrlTrfRxService,w
  9763  046B  0086               	movwf	6
  9764  046C  0873               	movf	??_USBCtrlTrfRxService+1,w
  9765  046D  0087               	movwf	7
  9766  046E  3008               	movlw	8
  9767  046F  0081               	movwf	1
  9768  0470                     i1l3463:
  9769                           
  9770                           ;usb_device.c: 1888:         pBDTEntryEP0OutNext->ADR = (((uint16_t)(&CtrlTrfData)) & 0x
      +                          7FFF);
  9771  0470  3048               	movlw	72
  9772  0471  00F2               	movwf	??_USBCtrlTrfRxService
  9773  0472  3000               	movlw	0
  9774  0473  00F3               	movwf	??_USBCtrlTrfRxService+1
  9775  0474  086E               	movf	_pBDTEntryEP0OutNext,w
  9776  0475  0086               	movwf	6
  9777  0476  086F               	movf	_pBDTEntryEP0OutNext+1,w
  9778  0477  0087               	movwf	7
  9779  0478  3142               	addfsr 1,2
  9780  0479  0872               	movf	??_USBCtrlTrfRxService,w
  9781  047A  3FC0               	movwi [0]fsr1
  9782  047B  0873               	movf	??_USBCtrlTrfRxService+1,w
  9783  047C  3FC1               	movwi [1]fsr1
  9784  047D                     i1l3465:
  9785                           
  9786                           ;usb_device.c: 1889:         if(pBDTEntryEP0OutCurrent->STAT.DTS == 0)
  9787  047D  0021               	movlb	1	; select bank1
  9788  047E  086E               	movf	_pBDTEntryEP0OutCurrent^(0+128),w
  9789  047F  0086               	movwf	6
  9790  0480  0187               	clrf	7
  9791  0481  1B01               	btfsc	1,6
  9792  0482  2C84               	goto	u215_21
  9793  0483  2C85               	goto	u215_20
  9794  0484                     u215_21:
  9795  0484  2C92               	goto	i1l3469
  9796  0485                     u215_20:
  9797  0485                     i1l3467:
  9798                           
  9799                           ;usb_device.c: 1890:         {;usb_device.c: 1891:             pBDTEntryEP0OutNext->STAT
      +                          .Val = 0x40|(0x08 & 0x08);
  9800  0485  0020               	movlb	0	; select bank0
  9801  0486  086E               	movf	_pBDTEntryEP0OutNext,w
  9802  0487  0086               	movwf	6
  9803  0488  086F               	movf	_pBDTEntryEP0OutNext+1,w
  9804  0489  0087               	movwf	7
  9805  048A  3048               	movlw	72
  9806  048B  0081               	movwf	1
  9807                           
  9808                           ;usb_device.c: 1892:             pBDTEntryEP0OutNext->STAT.Val |= 0x80;
  9809  048C  086E               	movf	_pBDTEntryEP0OutNext,w
  9810  048D  0086               	movwf	6
  9811  048E  086F               	movf	_pBDTEntryEP0OutNext+1,w
  9812  048F  0087               	movwf	7
  9813  0490  1781               	bsf	1,7
  9814                           
  9815                           ;usb_device.c: 1893:         }
  9816  0491  2CD0               	goto	i1l367
  9817  0492                     i1l3469:
  9818                           
  9819                           ;usb_device.c: 1895:         {;usb_device.c: 1896:             pBDTEntryEP0OutNext->STAT
      +                          .Val = 0x00|(0x08 & 0x08);
  9820  0492  0020               	movlb	0	; select bank0
  9821  0493  086E               	movf	_pBDTEntryEP0OutNext,w
  9822  0494  0086               	movwf	6
  9823  0495  086F               	movf	_pBDTEntryEP0OutNext+1,w
  9824  0496  0087               	movwf	7
  9825  0497  3008               	movlw	8
  9826  0498  0081               	movwf	1
  9827                           
  9828                           ;usb_device.c: 1897:             pBDTEntryEP0OutNext->STAT.Val |= 0x80;
  9829  0499  086E               	movf	_pBDTEntryEP0OutNext,w
  9830  049A  0086               	movwf	6
  9831  049B  086F               	movf	_pBDTEntryEP0OutNext+1,w
  9832  049C  0087               	movwf	7
  9833  049D  1781               	bsf	1,7
  9834  049E  2CD0               	goto	i1l367
  9835  049F                     i1l3471:
  9836                           
  9837                           ;usb_device.c: 1901:     {;usb_device.c: 1905:         pBDTEntryEP0OutNext->CNT = 8;
  9838  049F  0020               	movlb	0	; select bank0
  9839  04A0  086E               	movf	_pBDTEntryEP0OutNext,w
  9840  04A1  3E01               	addlw	1
  9841  04A2  00F2               	movwf	??_USBCtrlTrfRxService
  9842  04A3  3000               	movlw	0
  9843  04A4  3D6F               	addwfc	_pBDTEntryEP0OutNext+1,w
  9844  04A5  00F3               	movwf	??_USBCtrlTrfRxService+1
  9845  04A6  0872               	movf	??_USBCtrlTrfRxService,w
  9846  04A7  0086               	movwf	6
  9847  04A8  0873               	movf	??_USBCtrlTrfRxService+1,w
  9848  04A9  0087               	movwf	7
  9849  04AA  3008               	movlw	8
  9850  04AB  0081               	movwf	1
  9851  04AC                     i1l3473:
  9852                           
  9853                           ;usb_device.c: 1906:         pBDTEntryEP0OutNext->ADR = (((uint16_t)(&SetupPkt)) & 0x7FF
      +                          F);
  9854  04AC  3040               	movlw	64
  9855  04AD  00F2               	movwf	??_USBCtrlTrfRxService
  9856  04AE  3000               	movlw	0
  9857  04AF  00F3               	movwf	??_USBCtrlTrfRxService+1
  9858  04B0  086E               	movf	_pBDTEntryEP0OutNext,w
  9859  04B1  0086               	movwf	6
  9860  04B2  086F               	movf	_pBDTEntryEP0OutNext+1,w
  9861  04B3  0087               	movwf	7
  9862  04B4  3142               	addfsr 1,2
  9863  04B5  0872               	movf	??_USBCtrlTrfRxService,w
  9864  04B6  3FC0               	movwi [0]fsr1
  9865  04B7  0873               	movf	??_USBCtrlTrfRxService+1,w
  9866  04B8  3FC1               	movwi [1]fsr1
  9867  04B9                     i1l3475:
  9868                           
  9869                           ;usb_device.c: 1910:         pBDTEntryEP0OutNext->STAT.Val = 0x04;
  9870  04B9  086E               	movf	_pBDTEntryEP0OutNext,w
  9871  04BA  0086               	movwf	6
  9872  04BB  086F               	movf	_pBDTEntryEP0OutNext+1,w
  9873  04BC  0087               	movwf	7
  9874  04BD  3004               	movlw	4
  9875  04BE  0081               	movwf	1
  9876  04BF                     i1l3477:
  9877                           
  9878                           ;usb_device.c: 1911:         pBDTEntryEP0OutNext->STAT.Val |= 0x80;
  9879  04BF  086E               	movf	_pBDTEntryEP0OutNext,w
  9880  04C0  0086               	movwf	6
  9881  04C1  086F               	movf	_pBDTEntryEP0OutNext+1,w
  9882  04C2  0087               	movwf	7
  9883  04C3  1781               	bsf	1,7
  9884  04C4                     i1l3479:
  9885                           
  9886                           ;usb_device.c: 1919:         {
  9887  04C4  0022               	movlb	2	; select bank2
  9888  04C5  0865               	movf	(low ((_outPipes| (0+256)+5)))^0,w	;volatile
  9889  04C6  0866               	movf	((low ((_outPipes| (0+256)+5))+1))^0,w	;volatile
  9890  04C7                     i1l365:
  9891  04C7  13E2               	bcf	(_outPipes^(0+256)+2),7	;volatile
  9892  04C8                     i1l3481:
  9893                           
  9894                           ;usb_device.c: 1945:         if(USBDeferStatusStagePacket == 0)
  9895  04C8  0869               	movf	_USBDeferStatusStagePacket^(0+256),w	;volatile
  9896  04C9  1D03               	btfss	3,2
  9897  04CA  2CCC               	goto	u216_21
  9898  04CB  2CCD               	goto	u216_20
  9899  04CC                     u216_21:
  9900  04CC  2CD0               	goto	i1l367
  9901  04CD                     u216_20:
  9902  04CD                     i1l3483:
  9903                           
  9904                           ;usb_device.c: 1946:         {;usb_device.c: 1947:             USBCtrlEPAllowStatusStage
      +                          ();
  9905  04CD  318C  2475  3184   	fcall	_USBCtrlEPAllowStatusStage
  9906  04D0                     i1l367:
  9907  04D0  0008               	return
  9908  04D1                     __end_of_USBCtrlTrfRxService:
  9909                           
  9910                           	psect	text42
  9911  0C75                     __ptext42:	
  9912 ;; *************** function _USBCtrlEPAllowStatusStage *****************
  9913 ;; Defined at:
  9914 ;;		line 1420 in file "usb_device.c"
  9915 ;; Parameters:    Size  Location     Type
  9916 ;;		None
  9917 ;; Auto vars:     Size  Location     Type
  9918 ;;		None
  9919 ;; Return value:  Size  Location     Type
  9920 ;;                  1    wreg      void 
  9921 ;; Registers used:
  9922 ;;		wreg, fsr1l, fsr1h, status,2, status,0
  9923 ;; Tracked objects:
  9924 ;;		On entry : 0/0
  9925 ;;		On exit  : 0/0
  9926 ;;		Unchanged: 0/0
  9927 ;; Data sizes:     COMMON   BANK0   BANK1   BANK2   BANK3   BANK4   BANK5   BANK6   BANK7   BANK8   BANK9  BANK10  BANK1
      +1  BANK12
  9928 ;;      Params:         0       0       0       0       0       0       0       0       0       0       0       0       
      +0       0
  9929 ;;      Locals:         0       0       0       0       0       0       0       0       0       0       0       0       
      +0       0
  9930 ;;      Temps:          2       0       0       0       0       0       0       0       0       0       0       0       
      +0       0
  9931 ;;      Totals:         2       0       0       0       0       0       0       0       0       0       0       0       
      +0       0
  9932 ;;Total ram usage:        2 bytes
  9933 ;; Hardware stack levels used: 1
  9934 ;; This function calls:
  9935 ;;		Nothing
  9936 ;; This function is called by:
  9937 ;;		_USBDeviceTasks
  9938 ;;		_USBCtrlEPServiceComplete
  9939 ;;		_USBCtrlTrfRxService
  9940 ;; This function uses a non-reentrant model
  9941 ;;
  9942                           
  9943  0C75                     _USBCtrlEPAllowStatusStage:	
  9944                           ;psect for function _USBCtrlEPAllowStatusStage
  9945                           
  9946  0C75                     i1l3119:	
  9947                           ;incstack = 0
  9948                           ; Regs used in _USBCtrlEPAllowStatusStage: [wreg+fsr1l+fsr1h+status,2+status,0]
  9949                           
  9950                           
  9951                           ;usb_device.c: 1427:     if(USBStatusStageEnabledFlag1 == 0)
  9952  0C75  0023               	movlb	3	; select bank3
  9953  0C76  0832               	movf	_USBStatusStageEnabledFlag1^(0+384),w	;volatile
  9954  0C77  1D03               	btfss	3,2
  9955  0C78  2C7A               	goto	u169_21
  9956  0C79  2C7B               	goto	u169_20
  9957  0C7A                     u169_21:
  9958  0C7A  2CEE               	goto	i1l315
  9959  0C7B                     u169_20:
  9960  0C7B                     i1l3121:
  9961                           
  9962                           ;usb_device.c: 1428:     {;usb_device.c: 1429:         USBStatusStageEnabledFlag1 = 1;
  9963  0C7B  3001               	movlw	1
  9964  0C7C  00F0               	movwf	??_USBCtrlEPAllowStatusStage
  9965  0C7D  0870               	movf	??_USBCtrlEPAllowStatusStage,w
  9966  0C7E  00B2               	movwf	_USBStatusStageEnabledFlag1^(0+384)	;volatile
  9967  0C7F                     i1l3123:
  9968                           
  9969                           ;usb_device.c: 1430:         if(USBStatusStageEnabledFlag2 == 0)
  9970  0C7F  0831               	movf	_USBStatusStageEnabledFlag2^(0+384),w	;volatile
  9971  0C80  1D03               	btfss	3,2
  9972  0C81  2C83               	goto	u170_21
  9973  0C82  2C84               	goto	u170_20
  9974  0C83                     u170_21:
  9975  0C83  2CEE               	goto	i1l315
  9976  0C84                     u170_20:
  9977  0C84                     i1l3125:
  9978                           
  9979                           ;usb_device.c: 1431:         {;usb_device.c: 1432:             USBStatusStageEnabledFlag
      +                          2 = 1;
  9980  0C84  3001               	movlw	1
  9981  0C85  00F0               	movwf	??_USBCtrlEPAllowStatusStage
  9982  0C86  0870               	movf	??_USBCtrlEPAllowStatusStage,w
  9983  0C87  00B1               	movwf	_USBStatusStageEnabledFlag2^(0+384)	;volatile
  9984  0C88                     i1l3127:
  9985                           
  9986                           ;usb_device.c: 1436:             if(controlTransferState == 2)
  9987  0C88  3002               	movlw	2
  9988  0C89  0022               	movlb	2	; select bank2
  9989  0C8A  066B               	xorwf	_controlTransferState^(0+256),w	;volatile
  9990  0C8B  1D03               	btfss	3,2
  9991  0C8C  2C8E               	goto	u171_21
  9992  0C8D  2C8F               	goto	u171_20
  9993  0C8E                     u171_21:
  9994  0C8E  2CA2               	goto	i1l3135
  9995  0C8F                     u171_20:
  9996  0C8F                     i1l3129:
  9997                           
  9998                           ;usb_device.c: 1437:             {;usb_device.c: 1438:                 pBDTEntryIn[0]->C
      +                          NT = 0;
  9999  0C8F  0020               	movlb	0	; select bank0
 10000  0C90  086A               	movf	_pBDTEntryIn,w
 10001  0C91  0086               	movwf	6
 10002  0C92  086B               	movf	_pBDTEntryIn+1,w
 10003  0C93  0087               	movwf	7
 10004  0C94  3141               	addfsr 1,1
 10005  0C95  0181               	clrf	1
 10006  0C96                     i1l3131:
 10007                           
 10008                           ;usb_device.c: 1439:                 pBDTEntryIn[0]->STAT.Val = 0x40|(0x08 & 0x08);
 10009  0C96  086A               	movf	_pBDTEntryIn,w
 10010  0C97  0086               	movwf	6
 10011  0C98  086B               	movf	_pBDTEntryIn+1,w
 10012  0C99  0087               	movwf	7
 10013  0C9A  3048               	movlw	72
 10014  0C9B  0081               	movwf	1
 10015  0C9C                     i1l3133:
 10016                           
 10017                           ;usb_device.c: 1440:                 pBDTEntryIn[0]->STAT.Val |= 0x80;
 10018  0C9C  086A               	movf	_pBDTEntryIn,w
 10019  0C9D  0086               	movwf	6
 10020  0C9E  086B               	movf	_pBDTEntryIn+1,w
 10021  0C9F  0087               	movwf	7
 10022  0CA0  1781               	bsf	1,7
 10023                           
 10024                           ;usb_device.c: 1441:             }
 10025  0CA1  2CEE               	goto	i1l315
 10026  0CA2                     i1l3135:
 10027  0CA2  036B               	decf	_controlTransferState^(0+256),w	;volatile
 10028  0CA3  1D03               	btfss	3,2
 10029  0CA4  2CA6               	goto	u172_21
 10030  0CA5  2CA7               	goto	u172_20
 10031  0CA6                     u172_21:
 10032  0CA6  2CEE               	goto	i1l311
 10033  0CA7                     u172_20:
 10034  0CA7                     i1l3137:
 10035                           
 10036                           ;usb_device.c: 1443:             {;usb_device.c: 1444:                 BothEP0OutUOWNsSe
      +                          t = 0;
 10037  0CA7  0023               	movlb	3	; select bank3
 10038  0CA8  01B4               	clrf	_BothEP0OutUOWNsSet^(0+384)	;volatile
 10039  0CA9                     i1l3139:
 10040                           
 10041                           ;usb_device.c: 1449:                     pBDTEntryEP0OutCurrent->CNT = 8;
 10042  0CA9  3008               	movlw	8
 10043  0CAA  00F0               	movwf	??_USBCtrlEPAllowStatusStage
 10044  0CAB  0021               	movlb	1	; select bank1
 10045  0CAC  0A6E               	incf	_pBDTEntryEP0OutCurrent^(0+128),w
 10046  0CAD  0086               	movwf	6
 10047  0CAE  0187               	clrf	7
 10048  0CAF  0870               	movf	??_USBCtrlEPAllowStatusStage,w
 10049  0CB0  0081               	movwf	1
 10050  0CB1                     i1l3141:
 10051                           
 10052                           ;usb_device.c: 1450:                     pBDTEntryEP0OutCurrent->ADR = (((uint16_t)(&Set
      +                          upPkt)) & 0x7FFF);
 10053  0CB1  3040               	movlw	64
 10054  0CB2  00F0               	movwf	??_USBCtrlEPAllowStatusStage
 10055  0CB3  3000               	movlw	0
 10056  0CB4  00F1               	movwf	??_USBCtrlEPAllowStatusStage+1
 10057  0CB5  086E               	movf	_pBDTEntryEP0OutCurrent^(0+128),w
 10058  0CB6  3E02               	addlw	2
 10059  0CB7  0086               	movwf	6
 10060  0CB8  0187               	clrf	7
 10061  0CB9  0870               	movf	??_USBCtrlEPAllowStatusStage,w
 10062  0CBA  3FC0               	movwi [0]fsr1
 10063  0CBB  0871               	movf	??_USBCtrlEPAllowStatusStage+1,w
 10064  0CBC  3FC1               	movwi [1]fsr1
 10065  0CBD                     i1l3143:
 10066                           
 10067                           ;usb_device.c: 1451:                     pBDTEntryEP0OutCurrent->STAT.Val = 0x04;
 10068  0CBD  3004               	movlw	4
 10069  0CBE  00F0               	movwf	??_USBCtrlEPAllowStatusStage
 10070  0CBF  086E               	movf	_pBDTEntryEP0OutCurrent^(0+128),w
 10071  0CC0  0086               	movwf	6
 10072  0CC1  0187               	clrf	7
 10073  0CC2  0870               	movf	??_USBCtrlEPAllowStatusStage,w
 10074  0CC3  0081               	movwf	1
 10075  0CC4                     i1l3145:
 10076                           
 10077                           ;usb_device.c: 1452:                     pBDTEntryEP0OutCurrent->STAT.Val |= 0x80;
 10078  0CC4  086E               	movf	_pBDTEntryEP0OutCurrent^(0+128),w
 10079  0CC5  0086               	movwf	6
 10080  0CC6  0187               	clrf	7
 10081  0CC7  1781               	bsf	1,7
 10082  0CC8                     i1l3147:
 10083                           
 10084                           ;usb_device.c: 1453:                     BothEP0OutUOWNsSet = 1;
 10085  0CC8  3001               	movlw	1
 10086  0CC9  00F0               	movwf	??_USBCtrlEPAllowStatusStage
 10087  0CCA  0870               	movf	??_USBCtrlEPAllowStatusStage,w
 10088  0CCB  0023               	movlb	3	; select bank3
 10089  0CCC  00B4               	movwf	_BothEP0OutUOWNsSet^(0+384)	;volatile
 10090  0CCD                     i1l3149:
 10091                           
 10092                           ;usb_device.c: 1457:                 pBDTEntryEP0OutNext->CNT = 8;
 10093  0CCD  0020               	movlb	0	; select bank0
 10094  0CCE  086E               	movf	_pBDTEntryEP0OutNext,w
 10095  0CCF  3E01               	addlw	1
 10096  0CD0  00F0               	movwf	??_USBCtrlEPAllowStatusStage
 10097  0CD1  3000               	movlw	0
 10098  0CD2  3D6F               	addwfc	_pBDTEntryEP0OutNext+1,w
 10099  0CD3  00F1               	movwf	??_USBCtrlEPAllowStatusStage+1
 10100  0CD4  0870               	movf	??_USBCtrlEPAllowStatusStage,w
 10101  0CD5  0086               	movwf	6
 10102  0CD6  0871               	movf	??_USBCtrlEPAllowStatusStage+1,w
 10103  0CD7  0087               	movwf	7
 10104  0CD8  3008               	movlw	8
 10105  0CD9  0081               	movwf	1
 10106  0CDA                     i1l3151:
 10107                           
 10108                           ;usb_device.c: 1458:                 pBDTEntryEP0OutNext->ADR = (((uint16_t)(&SetupPkt))
      +                           & 0x7FFF);
 10109  0CDA  3040               	movlw	64
 10110  0CDB  00F0               	movwf	??_USBCtrlEPAllowStatusStage
 10111  0CDC  3000               	movlw	0
 10112  0CDD  00F1               	movwf	??_USBCtrlEPAllowStatusStage+1
 10113  0CDE  086E               	movf	_pBDTEntryEP0OutNext,w
 10114  0CDF  0086               	movwf	6
 10115  0CE0  086F               	movf	_pBDTEntryEP0OutNext+1,w
 10116  0CE1  0087               	movwf	7
 10117  0CE2  3142               	addfsr 1,2
 10118  0CE3  0870               	movf	??_USBCtrlEPAllowStatusStage,w
 10119  0CE4  3FC0               	movwi [0]fsr1
 10120  0CE5  0871               	movf	??_USBCtrlEPAllowStatusStage+1,w
 10121  0CE6  3FC1               	movwi [1]fsr1
 10122  0CE7                     i1l3153:
 10123                           
 10124                           ;usb_device.c: 1459:                 pBDTEntryEP0OutNext->STAT.Val = 0x80;
 10125  0CE7  086E               	movf	_pBDTEntryEP0OutNext,w
 10126  0CE8  0086               	movwf	6
 10127  0CE9  086F               	movf	_pBDTEntryEP0OutNext+1,w
 10128  0CEA  0087               	movwf	7
 10129  0CEB  3080               	movlw	128
 10130  0CEC  0081               	movwf	1
 10131  0CED  2CEE               	goto	i1l315
 10132  0CEE                     i1l311:	
 10133                           ;usb_device.c: 1461:         }
 10134                           
 10135  0CEE                     i1l315:
 10136  0CEE  0008               	return
 10137  0CEF                     __end_of_USBCtrlEPAllowStatusStage:
 10138                           
 10139                           	psect	text43
 10140  0CEF                     __ptext43:	
 10141 ;; *************** function _USBCtrlTrfInHandler *****************
 10142 ;; Defined at:
 10143 ;;		line 2599 in file "usb_device.c"
 10144 ;; Parameters:    Size  Location     Type
 10145 ;;		None
 10146 ;; Auto vars:     Size  Location     Type
 10147 ;;  lastDTS         1    5[COMMON] unsigned char 
 10148 ;; Return value:  Size  Location     Type
 10149 ;;                  1    wreg      void 
 10150 ;; Registers used:
 10151 ;;		wreg, fsr0l, fsr0h, fsr1l, fsr1h, status,2, status,0, pclath, cstack
 10152 ;; Tracked objects:
 10153 ;;		On entry : 0/0
 10154 ;;		On exit  : 0/0
 10155 ;;		Unchanged: 0/0
 10156 ;; Data sizes:     COMMON   BANK0   BANK1   BANK2   BANK3   BANK4   BANK5   BANK6   BANK7   BANK8   BANK9  BANK10  BANK1
      +1  BANK12
 10157 ;;      Params:         0       0       0       0       0       0       0       0       0       0       0       0       
      +0       0
 10158 ;;      Locals:         1       0       0       0       0       0       0       0       0       0       0       0       
      +0       0
 10159 ;;      Temps:          2       0       0       0       0       0       0       0       0       0       0       0       
      +0       0
 10160 ;;      Totals:         3       0       0       0       0       0       0       0       0       0       0       0       
      +0       0
 10161 ;;Total ram usage:        3 bytes
 10162 ;; Hardware stack levels used: 1
 10163 ;; Hardware stack levels required when called: 1
 10164 ;; This function calls:
 10165 ;;		_USBCtrlTrfTxService
 10166 ;; This function is called by:
 10167 ;;		_USBCtrlEPService
 10168 ;; This function uses a non-reentrant model
 10169 ;;
 10170                           
 10171  0CEF                     _USBCtrlTrfInHandler:	
 10172                           ;psect for function _USBCtrlTrfInHandler
 10173                           
 10174  0CEF                     i1l3583:	
 10175                           ;incstack = 0
 10176                           ; Regs used in _USBCtrlTrfInHandler: [wreg-fsr1h+status,2+status,0+pclath+cstack]
 10177                           
 10178                           
 10179                           ;usb_device.c: 2601:     uint8_t lastDTS;;usb_device.c: 2603:     lastDTS = pBDTEntryIn[
      +                          0]->STAT.DTS;
 10180  0CEF  0020               	movlb	0	; select bank0
 10181  0CF0  086A               	movf	_pBDTEntryIn,w
 10182  0CF1  0086               	movwf	6
 10183  0CF2  086B               	movf	_pBDTEntryIn+1,w
 10184  0CF3  0087               	movwf	7
 10185  0CF4  3000               	movlw	0
 10186  0CF5  1B01               	btfsc	1,6
 10187  0CF6  3001               	movlw	1
 10188  0CF7  00F5               	movwf	USBCtrlTrfInHandler@lastDTS
 10189  0CF8                     i1l3585:
 10190                           
 10191                           ;usb_device.c: 2606:     pBDTEntryIn[0] = (volatile BDT_ENTRY*)(((uint16_t)pBDTEntryIn[0
      +                          ]) ^ 0x0004);
 10192  0CF8  3004               	movlw	4
 10193  0CF9  066A               	xorwf	_pBDTEntryIn,w
 10194  0CFA  00EA               	movwf	_pBDTEntryIn
 10195  0CFB  3000               	movlw	0
 10196  0CFC  066B               	xorwf	_pBDTEntryIn+1,w
 10197  0CFD  00EB               	movwf	_pBDTEntryIn+1
 10198  0CFE                     i1l3587:
 10199                           
 10200                           ;usb_device.c: 2611:     if(USBDeviceState == ADR_PENDING_STATE)
 10201  0CFE  3008               	movlw	8
 10202  0CFF  0021               	movlb	1	; select bank1
 10203  0D00  066F               	xorwf	_USBDeviceState^(0+128),w	;volatile
 10204  0D01  1D03               	btfss	3,2
 10205  0D02  2D04               	goto	u221_21
 10206  0D03  2D05               	goto	u221_20
 10207  0D04                     u221_21:
 10208  0D04  2D1A               	goto	i1l3597
 10209  0D05                     u221_20:
 10210  0D05                     i1l3589:
 10211                           
 10212                           ;usb_device.c: 2612:     {;usb_device.c: 2613:         UADDR = (SetupPkt.bDevADR & 0x7F)
      +                          ;
 10213  0D05  0020               	movlb	0	; select bank0
 10214  0D06  0842               	movf	66,w	;volatile
 10215  0D07  397F               	andlw	127
 10216  0D08  003D               	movlb	29	; select bank29
 10217  0D09  0096               	movwf	22	;volatile
 10218  0D0A                     i1l3591:
 10219                           
 10220                           ;usb_device.c: 2614:         if(UADDR != 0u)
 10221  0D0A  0816               	movf	22,w	;volatile
 10222  0D0B  1903               	btfsc	3,2
 10223  0D0C  2D0E               	goto	u222_21
 10224  0D0D  2D0F               	goto	u222_20
 10225  0D0E                     u222_21:
 10226  0D0E  2D15               	goto	i1l3595
 10227  0D0F                     u222_20:
 10228  0D0F                     i1l3593:
 10229                           
 10230                           ;usb_device.c: 2615:         {;usb_device.c: 2616:             USBDeviceState=ADDRESS_ST
      +                          ATE;
 10231  0D0F  3010               	movlw	16
 10232  0D10  00F3               	movwf	??_USBCtrlTrfInHandler
 10233  0D11  0873               	movf	??_USBCtrlTrfInHandler,w
 10234  0D12  0021               	movlb	1	; select bank1
 10235  0D13  00EF               	movwf	_USBDeviceState^(0+128)	;volatile
 10236                           
 10237                           ;usb_device.c: 2617:         }
 10238  0D14  2D1A               	goto	i1l3597
 10239  0D15                     i1l3595:
 10240                           
 10241                           ;usb_device.c: 2619:         {;usb_device.c: 2620:             USBDeviceState=DEFAULT_ST
      +                          ATE;
 10242  0D15  3004               	movlw	4
 10243  0D16  00F3               	movwf	??_USBCtrlTrfInHandler
 10244  0D17  0873               	movf	??_USBCtrlTrfInHandler,w
 10245  0D18  0021               	movlb	1	; select bank1
 10246  0D19  00EF               	movwf	_USBDeviceState^(0+128)	;volatile
 10247  0D1A                     i1l3597:
 10248                           
 10249                           ;usb_device.c: 2625:     if(controlTransferState == 1)
 10250  0D1A  0022               	movlb	2	; select bank2
 10251  0D1B  036B               	decf	_controlTransferState^(0+256),w	;volatile
 10252  0D1C  1D03               	btfss	3,2
 10253  0D1D  2D1F               	goto	u223_21
 10254  0D1E  2D20               	goto	u223_20
 10255  0D1F                     u223_21:
 10256  0D1F  2D64               	goto	i1l443
 10257  0D20                     u223_20:
 10258  0D20                     i1l3599:
 10259                           
 10260                           ;usb_device.c: 2626:     {;usb_device.c: 2627:         pBDTEntryIn[0]->ADR = (((uint16_t
      +                          )(CtrlTrfData)) & 0x7FFF);
 10261  0D20  3048               	movlw	72
 10262  0D21  00F3               	movwf	??_USBCtrlTrfInHandler
 10263  0D22  3000               	movlw	0
 10264  0D23  00F4               	movwf	??_USBCtrlTrfInHandler+1
 10265  0D24  0020               	movlb	0	; select bank0
 10266  0D25  086A               	movf	_pBDTEntryIn,w
 10267  0D26  0086               	movwf	6
 10268  0D27  086B               	movf	_pBDTEntryIn+1,w
 10269  0D28  0087               	movwf	7
 10270  0D29  3142               	addfsr 1,2
 10271  0D2A  0873               	movf	??_USBCtrlTrfInHandler,w
 10272  0D2B  3FC0               	movwi [0]fsr1
 10273  0D2C  0874               	movf	??_USBCtrlTrfInHandler+1,w
 10274  0D2D  3FC1               	movwi [1]fsr1
 10275  0D2E                     i1l3601:
 10276                           
 10277                           ;usb_device.c: 2628:         USBCtrlTrfTxService();
 10278  0D2E  318D  25EB  318C   	fcall	_USBCtrlTrfTxService
 10279  0D31                     i1l3603:
 10280                           
 10281                           ;usb_device.c: 2634:         if(shortPacketStatus == 2)
 10282  0D31  3002               	movlw	2
 10283  0D32  0022               	movlb	2	; select bank2
 10284  0D33  066C               	xorwf	_shortPacketStatus^(0+256),w	;volatile
 10285  0D34  1D03               	btfss	3,2
 10286  0D35  2D37               	goto	u224_21
 10287  0D36  2D38               	goto	u224_20
 10288  0D37                     u224_21:
 10289  0D37  2D45               	goto	i1l3607
 10290  0D38                     u224_20:
 10291  0D38                     i1l3605:
 10292                           
 10293                           ;usb_device.c: 2635:         {;usb_device.c: 2638:             pBDTEntryIn[0]->STAT.Val 
      +                          = 0x04;
 10294  0D38  0020               	movlb	0	; select bank0
 10295  0D39  086A               	movf	_pBDTEntryIn,w
 10296  0D3A  0086               	movwf	6
 10297  0D3B  086B               	movf	_pBDTEntryIn+1,w
 10298  0D3C  0087               	movwf	7
 10299  0D3D  3004               	movlw	4
 10300  0D3E  0081               	movwf	1
 10301                           
 10302                           ;usb_device.c: 2639:             pBDTEntryIn[0]->STAT.Val |= 0x80;
 10303  0D3F  086A               	movf	_pBDTEntryIn,w
 10304  0D40  0086               	movwf	6
 10305  0D41  086B               	movf	_pBDTEntryIn+1,w
 10306  0D42  0087               	movwf	7
 10307  0D43  1781               	bsf	1,7
 10308                           
 10309                           ;usb_device.c: 2640:         }
 10310  0D44  2D6C               	goto	i1l451
 10311  0D45                     i1l3607:
 10312                           
 10313                           ;usb_device.c: 2642:         {;usb_device.c: 2643:             if(lastDTS == 0)
 10314  0D45  0875               	movf	USBCtrlTrfInHandler@lastDTS,w
 10315  0D46  1D03               	btfss	3,2
 10316  0D47  2D49               	goto	u225_21
 10317  0D48  2D4A               	goto	u225_20
 10318  0D49                     u225_21:
 10319  0D49  2D57               	goto	i1l3611
 10320  0D4A                     u225_20:
 10321  0D4A                     i1l3609:
 10322                           
 10323                           ;usb_device.c: 2644:             {;usb_device.c: 2645:                 pBDTEntryIn[0]->S
      +                          TAT.Val = 0x40|(0x08 & 0x08);
 10324  0D4A  0020               	movlb	0	; select bank0
 10325  0D4B  086A               	movf	_pBDTEntryIn,w
 10326  0D4C  0086               	movwf	6
 10327  0D4D  086B               	movf	_pBDTEntryIn+1,w
 10328  0D4E  0087               	movwf	7
 10329  0D4F  3048               	movlw	72
 10330  0D50  0081               	movwf	1
 10331                           
 10332                           ;usb_device.c: 2646:                 pBDTEntryIn[0]->STAT.Val |= 0x80;
 10333  0D51  086A               	movf	_pBDTEntryIn,w
 10334  0D52  0086               	movwf	6
 10335  0D53  086B               	movf	_pBDTEntryIn+1,w
 10336  0D54  0087               	movwf	7
 10337  0D55  1781               	bsf	1,7
 10338                           
 10339                           ;usb_device.c: 2647:             }
 10340  0D56  2D6C               	goto	i1l451
 10341  0D57                     i1l3611:
 10342                           
 10343                           ;usb_device.c: 2649:             {;usb_device.c: 2650:                 pBDTEntryIn[0]->S
      +                          TAT.Val = 0x00|(0x08 & 0x08);
 10344  0D57  0020               	movlb	0	; select bank0
 10345  0D58  086A               	movf	_pBDTEntryIn,w
 10346  0D59  0086               	movwf	6
 10347  0D5A  086B               	movf	_pBDTEntryIn+1,w
 10348  0D5B  0087               	movwf	7
 10349  0D5C  3008               	movlw	8
 10350  0D5D  0081               	movwf	1
 10351                           
 10352                           ;usb_device.c: 2651:                 pBDTEntryIn[0]->STAT.Val |= 0x80;
 10353  0D5E  086A               	movf	_pBDTEntryIn,w
 10354  0D5F  0086               	movwf	6
 10355  0D60  086B               	movf	_pBDTEntryIn+1,w
 10356  0D61  0087               	movwf	7
 10357  0D62  1781               	bsf	1,7
 10358  0D63  2D6C               	goto	i1l451
 10359  0D64                     i1l443:	
 10360                           ;usb_device.c: 2655:  else
 10361                           
 10362                           
 10363                           ;usb_device.c: 2656:  {;usb_device.c: 2660:         if(outPipes[0].info.bits.busy == 1)
 10364  0D64  1FE2               	btfss	(_outPipes^(0+256)+2),7	;volatile
 10365  0D65  2D67               	goto	u226_21
 10366  0D66  2D68               	goto	u226_20
 10367  0D67                     u226_21:
 10368  0D67  2D6B               	goto	i1l3615
 10369  0D68                     u226_20:
 10370  0D68                     i1l3613:
 10371                           
 10372                           ;usb_device.c: 2663:             {;usb_device.c: 2664:                 outPipes[0].pFunc
      +                          ();
 10373  0D68  0865               	movf	(low ((_outPipes| (0+256)+5)))^0,w	;volatile
 10374  0D69  0866               	movf	((low ((_outPipes| (0+256)+5))+1))^0,w	;volatile
 10375  0D6A                     i1l450:	
 10376                           ;usb_device.c: 2665:             }
 10377                           
 10378                           
 10379                           ;usb_device.c: 2666:             outPipes[0].info.bits.busy = 0;
 10380  0D6A  13E2               	bcf	(_outPipes^(0+256)+2),7	;volatile
 10381  0D6B                     i1l3615:
 10382                           
 10383                           ;usb_device.c: 2669:         controlTransferState = 0;
 10384  0D6B  01EB               	clrf	_controlTransferState^(0+256)	;volatile
 10385  0D6C                     i1l451:
 10386  0D6C  0008               	return
 10387  0D6D                     __end_of_USBCtrlTrfInHandler:
 10388                           
 10389                           	psect	text44
 10390  0DEB                     __ptext44:	
 10391 ;; *************** function _USBCtrlTrfTxService *****************
 10392 ;; Defined at:
 10393 ;;		line 1775 in file "usb_device.c"
 10394 ;; Parameters:    Size  Location     Type
 10395 ;;		None
 10396 ;; Auto vars:     Size  Location     Type
 10397 ;;  byteToSend      1    2[COMMON] unsigned char 
 10398 ;; Return value:  Size  Location     Type
 10399 ;;                  1    wreg      void 
 10400 ;; Registers used:
 10401 ;;		wreg, fsr0l, fsr0h, fsr1l, fsr1h, status,2, status,0, pclath
 10402 ;; Tracked objects:
 10403 ;;		On entry : 0/0
 10404 ;;		On exit  : 0/0
 10405 ;;		Unchanged: 0/0
 10406 ;; Data sizes:     COMMON   BANK0   BANK1   BANK2   BANK3   BANK4   BANK5   BANK6   BANK7   BANK8   BANK9  BANK10  BANK1
      +1  BANK12
 10407 ;;      Params:         0       0       0       0       0       0       0       0       0       0       0       0       
      +0       0
 10408 ;;      Locals:         1       0       0       0       0       0       0       0       0       0       0       0       
      +0       0
 10409 ;;      Temps:          2       0       0       0       0       0       0       0       0       0       0       0       
      +0       0
 10410 ;;      Totals:         3       0       0       0       0       0       0       0       0       0       0       0       
      +0       0
 10411 ;;Total ram usage:        3 bytes
 10412 ;; Hardware stack levels used: 1
 10413 ;; This function calls:
 10414 ;;		Nothing
 10415 ;; This function is called by:
 10416 ;;		_USBCtrlEPAllowDataStage
 10417 ;;		_USBCtrlTrfInHandler
 10418 ;; This function uses a non-reentrant model
 10419 ;;
 10420                           
 10421  0DEB                     _USBCtrlTrfTxService:	
 10422                           ;psect for function _USBCtrlTrfTxService
 10423                           
 10424  0DEB                     i1l3037:	
 10425                           ;incstack = 0
 10426                           ; Regs used in _USBCtrlTrfTxService: [wreg-fsr1h+status,2+status,0+pclath]
 10427                           
 10428                           
 10429                           ;usb_device.c: 1777:     uint8_t byteToSend;;usb_device.c: 1781:     byteToSend = 8;
 10430  0DEB  3008               	movlw	8
 10431  0DEC  00F0               	movwf	??_USBCtrlTrfTxService
 10432  0DED  0870               	movf	??_USBCtrlTrfTxService,w
 10433  0DEE  00F2               	movwf	USBCtrlTrfTxService@byteToSend
 10434                           
 10435                           ;usb_device.c: 1782:     if(inPipes[0].wCount.Val < (uint8_t)8)
 10436  0DEF  3000               	movlw	0
 10437  0DF0  0020               	movlb	0	; select bank0
 10438  0DF1  0269               	subwf	_inPipes+4,w	;volatile
 10439  0DF2  3008               	movlw	8
 10440  0DF3  1903               	skipnz
 10441  0DF4  0268               	subwf	_inPipes+3,w	;volatile
 10442  0DF5  1803               	skipnc
 10443  0DF6  2DF8               	goto	u158_21
 10444  0DF7  2DF9               	goto	u158_20
 10445  0DF8                     u158_21:
 10446  0DF8  2E11               	goto	i1l342
 10447  0DF9                     u158_20:
 10448  0DF9                     i1l3039:
 10449                           
 10450                           ;usb_device.c: 1783:     {;usb_device.c: 1784:         byteToSend = inPipes[0].wCount.Va
      +                          l;
 10451  0DF9  0868               	movf	_inPipes+3,w	;volatile
 10452  0DFA  00F0               	movwf	??_USBCtrlTrfTxService
 10453  0DFB  0870               	movf	??_USBCtrlTrfTxService,w
 10454  0DFC  00F2               	movwf	USBCtrlTrfTxService@byteToSend
 10455  0DFD                     i1l3041:
 10456                           
 10457                           ;usb_device.c: 1791:         if(shortPacketStatus == 0)
 10458  0DFD  0022               	movlb	2	; select bank2
 10459  0DFE  086C               	movf	_shortPacketStatus^(0+256),w	;volatile
 10460  0DFF  1D03               	btfss	3,2
 10461  0E00  2E02               	goto	u159_21
 10462  0E01  2E03               	goto	u159_20
 10463  0E02                     u159_21:
 10464  0E02  2E08               	goto	i1l3045
 10465  0E03                     u159_20:
 10466  0E03                     i1l3043:
 10467                           
 10468                           ;usb_device.c: 1792:         {;usb_device.c: 1793:             shortPacketStatus = 1;
 10469  0E03  3001               	movlw	1
 10470  0E04  00F0               	movwf	??_USBCtrlTrfTxService
 10471  0E05  0870               	movf	??_USBCtrlTrfTxService,w
 10472  0E06  00EC               	movwf	_shortPacketStatus^(0+256)	;volatile
 10473                           
 10474                           ;usb_device.c: 1794:         }
 10475  0E07  2E11               	goto	i1l342
 10476  0E08                     i1l3045:
 10477  0E08  036C               	decf	_shortPacketStatus^(0+256),w	;volatile
 10478  0E09  1D03               	btfss	3,2
 10479  0E0A  2E0C               	goto	u160_21
 10480  0E0B  2E0D               	goto	u160_20
 10481  0E0C                     u160_21:
 10482  0E0C  2E11               	goto	i1l342
 10483  0E0D                     u160_20:
 10484  0E0D                     i1l3047:
 10485                           
 10486                           ;usb_device.c: 1796:         {;usb_device.c: 1797:             shortPacketStatus = 2;
 10487  0E0D  3002               	movlw	2
 10488  0E0E  00F0               	movwf	??_USBCtrlTrfTxService
 10489  0E0F  0870               	movf	??_USBCtrlTrfTxService,w
 10490  0E10  00EC               	movwf	_shortPacketStatus^(0+256)	;volatile
 10491  0E11                     i1l342:	
 10492                           ;usb_device.c: 1799:     }
 10493                           
 10494                           
 10495                           ;usb_device.c: 1803:     inPipes[0].wCount.Val -= byteToSend;
 10496  0E11  0872               	movf	USBCtrlTrfTxService@byteToSend,w
 10497  0E12  00F0               	movwf	??_USBCtrlTrfTxService
 10498  0E13  01F1               	clrf	??_USBCtrlTrfTxService+1
 10499  0E14  0870               	movf	??_USBCtrlTrfTxService,w
 10500  0E15  0020               	movlb	0	; select bank0
 10501  0E16  02E8               	subwf	_inPipes+3,f	;volatile
 10502  0E17  0871               	movf	??_USBCtrlTrfTxService+1,w
 10503  0E18  3BE9               	subwfb	_inPipes+4,f	;volatile
 10504  0E19                     i1l3049:
 10505                           
 10506                           ;usb_device.c: 1808:     pBDTEntryIn[0]->CNT = byteToSend;
 10507  0E19  086A               	movf	_pBDTEntryIn,w
 10508  0E1A  3E01               	addlw	1
 10509  0E1B  00F0               	movwf	??_USBCtrlTrfTxService
 10510  0E1C  3000               	movlw	0
 10511  0E1D  3D6B               	addwfc	_pBDTEntryIn+1,w
 10512  0E1E  00F1               	movwf	??_USBCtrlTrfTxService+1
 10513  0E1F  0870               	movf	??_USBCtrlTrfTxService,w
 10514  0E20  0086               	movwf	6
 10515  0E21  0871               	movf	??_USBCtrlTrfTxService+1,w
 10516  0E22  0087               	movwf	7
 10517  0E23  0872               	movf	USBCtrlTrfTxService@byteToSend,w
 10518  0E24  0081               	movwf	1
 10519  0E25                     i1l3051:
 10520                           
 10521                           ;usb_device.c: 1812:     pDst = (volatile uint8_t*)CtrlTrfData;
 10522  0E25  3048               	movlw	72
 10523  0E26  00F0               	movwf	??_USBCtrlTrfTxService
 10524  0E27  0870               	movf	??_USBCtrlTrfTxService,w
 10525  0E28  0023               	movlb	3	; select bank3
 10526  0E29  00B7               	movwf	_pDst^(0+384)
 10527  0E2A                     i1l3053:
 10528                           
 10529                           ;usb_device.c: 1813:     if(inPipes[0].info.bits.ctrl_trf_mem == 0x00)
 10530  0E2A  0020               	movlb	0	; select bank0
 10531  0E2B  1867               	btfsc	_inPipes+2,0	;volatile
 10532  0E2C  2E2E               	goto	u161_21
 10533  0E2D  2E2F               	goto	u161_20
 10534  0E2E                     u161_21:
 10535  0E2E  2E68               	goto	i1l3075
 10536  0E2F                     u161_20:
 10537  0E2F  2E49               	goto	i1l3065
 10538  0E30                     i1l3057:
 10539                           
 10540                           ;usb_device.c: 1816:         {;usb_device.c: 1817:             *pDst++ = *inPipes[0].pSr
      +                          c.bRom++;
 10541  0E30  0020               	movlb	0	; select bank0
 10542  0E31  0865               	movf	_inPipes,w	;volatile
 10543  0E32  0084               	movwf	4
 10544  0E33  0866               	movf	_inPipes+1,w	;volatile
 10545  0E34  0085               	movwf	5
 10546  0E35  0800               	movf	0,w	;code access
 10547  0E36  00F0               	movwf	??_USBCtrlTrfTxService
 10548  0E37  0023               	movlb	3	; select bank3
 10549  0E38  0837               	movf	_pDst^(0+384),w
 10550  0E39  0086               	movwf	6
 10551  0E3A  0187               	clrf	7
 10552  0E3B  0870               	movf	??_USBCtrlTrfTxService,w
 10553  0E3C  0081               	movwf	1
 10554  0E3D                     i1l3059:
 10555  0E3D  3001               	movlw	1
 10556  0E3E  0020               	movlb	0	; select bank0
 10557  0E3F  07E5               	addwf	_inPipes,f	;volatile
 10558  0E40  3000               	movlw	0
 10559  0E41  3DE6               	addwfc	_inPipes+1,f	;volatile
 10560  0E42                     i1l3061:
 10561  0E42  3001               	movlw	1
 10562  0E43  00F0               	movwf	??_USBCtrlTrfTxService
 10563  0E44  0870               	movf	??_USBCtrlTrfTxService,w
 10564  0E45  0023               	movlb	3	; select bank3
 10565  0E46  07B7               	addwf	_pDst^(0+384),f
 10566  0E47                     i1l3063:
 10567                           
 10568                           ;usb_device.c: 1818:             byteToSend--;
 10569  0E47  3001               	movlw	1
 10570  0E48  02F2               	subwf	USBCtrlTrfTxService@byteToSend,f
 10571  0E49                     i1l3065:
 10572                           
 10573                           ;usb_device.c: 1815:         while(byteToSend)
 10574  0E49  0872               	movf	USBCtrlTrfTxService@byteToSend,w
 10575  0E4A  1D03               	btfss	3,2
 10576  0E4B  2E4D               	goto	u162_21
 10577  0E4C  2E4E               	goto	u162_20
 10578  0E4D                     u162_21:
 10579  0E4D  2E30               	goto	i1l3057
 10580  0E4E                     u162_20:
 10581  0E4E  2E6D               	goto	i1l354
 10582  0E4F                     i1l3067:
 10583                           
 10584                           ;usb_device.c: 1824:         {;usb_device.c: 1825:             *pDst++ = *inPipes[0].pSr
      +                          c.bRam++;
 10585  0E4F  0020               	movlb	0	; select bank0
 10586  0E50  0865               	movf	_inPipes,w	;volatile
 10587  0E51  0084               	movwf	4
 10588  0E52  0866               	movf	_inPipes+1,w	;volatile
 10589  0E53  0085               	movwf	5
 10590  0E54  0800               	movf	0,w	;code access
 10591  0E55  00F0               	movwf	??_USBCtrlTrfTxService
 10592  0E56  0023               	movlb	3	; select bank3
 10593  0E57  0837               	movf	_pDst^(0+384),w
 10594  0E58  0086               	movwf	6
 10595  0E59  0187               	clrf	7
 10596  0E5A  0870               	movf	??_USBCtrlTrfTxService,w
 10597  0E5B  0081               	movwf	1
 10598  0E5C                     i1l3069:
 10599  0E5C  3001               	movlw	1
 10600  0E5D  0020               	movlb	0	; select bank0
 10601  0E5E  07E5               	addwf	_inPipes,f	;volatile
 10602  0E5F  3000               	movlw	0
 10603  0E60  3DE6               	addwfc	_inPipes+1,f	;volatile
 10604  0E61                     i1l3071:
 10605  0E61  3001               	movlw	1
 10606  0E62  00F0               	movwf	??_USBCtrlTrfTxService
 10607  0E63  0870               	movf	??_USBCtrlTrfTxService,w
 10608  0E64  0023               	movlb	3	; select bank3
 10609  0E65  07B7               	addwf	_pDst^(0+384),f
 10610  0E66                     i1l3073:
 10611                           
 10612                           ;usb_device.c: 1826:             byteToSend--;
 10613  0E66  3001               	movlw	1
 10614  0E67  02F2               	subwf	USBCtrlTrfTxService@byteToSend,f
 10615  0E68                     i1l3075:
 10616                           
 10617                           ;usb_device.c: 1823:         while(byteToSend)
 10618  0E68  0872               	movf	USBCtrlTrfTxService@byteToSend,w
 10619  0E69  1D03               	btfss	3,2
 10620  0E6A  2E6C               	goto	u163_21
 10621  0E6B  2E6D               	goto	u163_20
 10622  0E6C                     u163_21:
 10623  0E6C  2E4F               	goto	i1l3067
 10624  0E6D                     u163_20:
 10625  0E6D                     i1l354:
 10626  0E6D  0008               	return
 10627  0E6E                     __end_of_USBCtrlTrfTxService:
 10628  007E                     btemp	set	126	;btemp
 10629  007E                     int$flags	set	126
 10630  007E                     wtemp0	set	126
 10631                           
 10632                           	psect	config
 10633                           
 10634                           ;Config register CONFIG1 @ 0x8007
 10635                           ;	Oscillator Selection Bits
 10636                           ;	FOSC = INTOSC, INTOSC oscillator: I/O function on CLKIN pin
 10637                           ;	Watchdog Timer Enable
 10638                           ;	WDTE = OFF, WDT disabled
 10639                           ;	Power-up Timer Enable
 10640                           ;	PWRTE = OFF, PWRT disabled
 10641                           ;	MCLR Pin Function Select
 10642                           ;	MCLRE = OFF, MCLR/VPP pin function is digital input
 10643                           ;	Flash Program Memory Code Protection
 10644                           ;	CP = OFF, Program memory code protection is disabled
 10645                           ;	Brown-out Reset Enable
 10646                           ;	BOREN = ON, Brown-out Reset enabled
 10647                           ;	Clock Out Enable
 10648                           ;	CLKOUTEN = OFF, CLKOUT function is disabled. I/O or oscillator function on the CLKOUT 
      +                          pin
 10649                           ;	Internal/External Switchover Mode
 10650                           ;	IESO = OFF, Internal/External Switchover Mode is disabled
 10651                           ;	Fail-Safe Clock Monitor Enable
 10652                           ;	FCMEN = OFF, Fail-Safe Clock Monitor is disabled
 10653  8007                     	org	32775
 10654  8007  0FA4               	dw	4004
 10655                           
 10656                           ;Config register CONFIG2 @ 0x8008
 10657                           ;	Flash Memory Self-Write Protection
 10658                           ;	WRT = OFF, Write protection off
 10659                           ;	CPU System Clock Selection Bit
 10660                           ;	CPUDIV = NOCLKDIV, NO CPU system divide
 10661                           ;	USB Low SPeed Clock Selection bit
 10662                           ;	USBLSCLK = 48MHz, System clock expects 48 MHz, FS/LS USB CLKENs divide-by is set to 8.
 10663                           ;	PLL Multipler Selection Bit
 10664                           ;	PLLMULT = 3x, 3x Output Frequency Selected
 10665                           ;	PLL Enable Bit
 10666                           ;	PLLEN = ENABLED, 3x or 4x PLL Enabled
 10667                           ;	Stack Overflow/Underflow Reset Enable
 10668                           ;	STVREN = ON, Stack Overflow or Underflow will cause a Reset
 10669                           ;	Brown-out Reset Voltage Selection
 10670                           ;	BORV = LO, Brown-out Reset Voltage (Vbor), low trip point selected.
 10671                           ;	Low-Power Brown Out Reset
 10672                           ;	LPBOR = OFF, Low-Power BOR is disabled
 10673                           ;	Low-Voltage Programming Enable
 10674                           ;	LVP = OFF, High-voltage on MCLR/VPP must be used for programming
 10675  8008                     	org	32776
 10676  8008  1FCF               	dw	8143

Data Sizes:
    Strings     0
    Constant    160
    Data        0
    BSS         55
    Persistent  32
    Stack       0

Auto Spaces:
    Space          Size  Autos    Used
    COMMON           14     14      14
    BANK0            32     21      32
    BANK1            16     14      16
    BANK2            16      0      16
    BANK3            80      0      26
    BANK4            80      0       0
    BANK5            80      0       0
    BANK6            80      0       0
    BANK7            80      0       0
    BANK8            80      0       0
    BANK9            80      0       0
    BANK10           80      0       0
    BANK11           80      0       0
    BANK12           48      0       0

Pointer List with Targets:

    USER_USB_CALLBACK_EVENT_HANDLER@pdata	PTR void  size(2) Largest target is 4096
		 -> RAM(DATA[4096]), USTATcopy(BANK2[1]), USBActiveConfiguration(BANK2[1]), BDT(BANK0[32]), 
		 -> NULL(NULL[0]), 

    memset@dest	PTR void  size(2) Largest target is 32
		 -> USBAlternateInterface(BANK2[1]), BDT(BANK0[32]), 

    memset@s	PTR unsigned char  size(2) Largest target is 32
		 -> USBAlternateInterface(BANK2[1]), BDT(BANK0[32]), 

    memcpy@d1	PTR void  size(1) Largest target is 8
		 -> SetupPkt(BANK0[8]), 

    memcpy@d	PTR unsigned char  size(1) Largest target is 8
		 -> SetupPkt(BANK0[8]), 

    memcpy@s1	PTR const void  size(2) Largest target is 4096
		 -> CtrlTrfData(BANK0[8]), RAM(DATA[4096]), SetupPkt(BANK0[8]), 

    memcpy@s	PTR const unsigned char  size(2) Largest target is 4096
		 -> CtrlTrfData(BANK0[8]), RAM(DATA[4096]), SetupPkt(BANK0[8]), 

    USBStdFeatureReqHandler@pUEP	PTR unsigned char  size(2) Largest target is 1
		 -> UEP0(SFR29[1]), 

    USBStdFeatureReqHandler@p	PTR struct __BDT size(2) Largest target is 4096
		 -> RAM(DATA[4096]), BDT(BANK0[32]), NULL(NULL[0]), 

    sp__memcpy	PTR void  size(1) Largest target is 8
		 -> SetupPkt(BANK0[8]), 

    USBStdGetStatusHandler@p	PTR struct __BDT size(2) Largest target is 4096
		 -> RAM(DATA[4096]), BDT(BANK0[32]), NULL(NULL[0]), 

    sp__memset	PTR void  size(2) Largest target is 32
		 -> USBAlternateInterface(BANK2[1]), BDT(BANK0[32]), 

    USBStdSetCfgHandler@p	PTR unsigned char  size(2) Largest target is 1
		 -> UEP1(SFR29[1]), 

    pDst	PTR volatile unsigned char  size(1) Largest target is 8
		 -> CtrlTrfData(BANK0[8]), NULL(NULL[0]), 

    USBConfigureEndpoint@handle	PTR volatile struct __BDT size(1) Largest target is 32
		 -> BDT(BANK0[32]), 

    pBDTEntryEP0OutCurrent	PTR volatile struct __BDT size(1) Largest target is 32
		 -> BDT(BANK0[32]), NULL(NULL[0]), 

    pBDTEntryEP0OutNext	PTR volatile struct __BDT size(2) Largest target is 4096
		 -> RAM(DATA[4096]), BDT(BANK0[32]), NULL(NULL[0]), 

    USBTransferOnePacket@data	PTR unsigned char  size(2) Largest target is 64
		 -> ToSendDataBuffer(BANK2[64]), ReceivedDataBuffer(BANK1[64]), 

    USBTransferOnePacket@handle	PTR volatile struct __BDT size(2) Largest target is 4096
		 -> RAM(DATA[4096]), BDT(BANK0[32]), NULL(NULL[0]), 

    USBEnableEndpoint@p	PTR unsigned char  size(2) Largest target is 1
		 -> UEP0(SFR29[1]), 

    pBDTEntryOut	PTR volatile struct __BDT[2] size(2) Largest target is 4096
		 -> RAM(DATA[4096]), BDT(BANK0[32]), NULL(NULL[0]), 

    pBDTEntryIn	PTR volatile struct __BDT[2] size(2) Largest target is 4096
		 -> RAM(DATA[4096]), BDT(BANK0[32]), NULL(NULL[0]), 

    S306$pFunc	PTR FTN()void  size(2) Largest target is 0

    outPipes.pFunc	PTR FTN()void  size(2) Largest target is 0

    S296$wRam	PTR unsigned short  size(1) Largest target is 0

    outPipes.pDst.wRam	PTR unsigned short  size(1) Largest target is 0

    S296$bRam	PTR unsigned char  size(1) Largest target is 0

    outPipes.pDst.bRam	PTR unsigned char  size(1) Largest target is 0

    S272$wRom	PTR const unsigned short  size(1) Largest target is 0

    inPipes.pSrc.wRom	PTR const unsigned short  size(1) Largest target is 0

    S272$wRam	PTR unsigned short  size(1) Largest target is 0

    inPipes.pSrc.wRam	PTR unsigned short  size(1) Largest target is 0

    S272$bRom	PTR const unsigned char  size(1) Largest target is 0

    inPipes.pSrc.bRom	PTR const unsigned char  size(1) Largest target is 0

    S272$bRam	PTR unsigned char  size(1) Largest target is 0

    inPipes.pSrc.bRam	PTR unsigned char  size(1) Largest target is 0

    USBDeviceInit@p	PTR unsigned char  size(2) Largest target is 1
		 -> UEP1(SFR29[1]), 

    USB_SD_Ptr	const PTR const unsigned char [3] size(2) Largest target is 32
		 -> sd002(CODE[28]), sd001(CODE[32]), sd000(CODE[4]), 

    USB_CD_Ptr	const PTR const unsigned char [1] size(2) Largest target is 41
		 -> configDescriptor1(CODE[41]), 

    sp__USBTransferOnePacket	PTR void  size(2) Largest target is 4096
		 -> RAM(DATA[4096]), BDT(BANK0[32]), NULL(NULL[0]), 

    USBOutHandle	PTR volatile void  size(2) Largest target is 4096
		 -> RAM(DATA[4096]), BDT(BANK0[32]), NULL(NULL[0]), 

    USBInHandle	PTR volatile void  size(2) Largest target is 4096
		 -> RAM(DATA[4096]), BDT(BANK0[32]), NULL(NULL[0]), 


Critical Paths under _main in COMMON

    None.

Critical Paths under _SYS_InterruptHigh in COMMON

    _USBCtrlEPServiceComplete->_USBCtrlEPAllowDataStage
    _USBCtrlEPAllowDataStage->_USBCtrlTrfTxService
    _USBStdSetCfgHandler->_memset
    _USER_USB_CALLBACK_EVENT_HANDLER->_APP_DeviceCustomHIDInitialize
    i1_SYSTEM_Initialize->i1_LED_Off
    _APP_DeviceCustomHIDInitialize->_USBEnableEndpoint
    _USBEnableEndpoint->_USBConfigureEndpoint
    _USBCtrlTrfOutHandler->_USBCtrlTrfRxService
    _USBCtrlTrfRxService->_USBCtrlEPAllowStatusStage
    _USBCtrlTrfInHandler->_USBCtrlTrfTxService

Critical Paths under _main in BANK0

    None.

Critical Paths under _SYS_InterruptHigh in BANK0

    _SYS_InterruptHigh->_USBDeviceTasks
    _USBDeviceTasks->_USBCtrlEPService
    _USBWakeFromSuspend->_USER_USB_CALLBACK_EVENT_HANDLER
    _USBSuspend->_USER_USB_CALLBACK_EVENT_HANDLER
    _USBCtrlEPService->_USBCtrlTrfSetupHandler
    _USBCtrlTrfSetupHandler->_USBCheckStdRequest
    _USBCheckStdRequest->_USBStdFeatureReqHandler
    _USBStdSetCfgHandler->_USER_USB_CALLBACK_EVENT_HANDLER
    _USBStdFeatureReqHandler->_USER_USB_CALLBACK_EVENT_HANDLER

Critical Paths under _main in BANK1

    _main->_APP_DeviceCustomHIDTasks
    _SYSTEM_Initialize->_LED_Off
    _APP_DeviceCustomHIDTasks->_USBTransferOnePacket

Critical Paths under _SYS_InterruptHigh in BANK1

    None.

Critical Paths under _main in BANK2

    None.

Critical Paths under _SYS_InterruptHigh in BANK2

    None.

Critical Paths under _main in BANK3

    None.

Critical Paths under _SYS_InterruptHigh in BANK3

    None.

Critical Paths under _main in BANK4

    None.

Critical Paths under _SYS_InterruptHigh in BANK4

    None.

Critical Paths under _main in BANK5

    None.

Critical Paths under _SYS_InterruptHigh in BANK5

    None.

Critical Paths under _main in BANK6

    None.

Critical Paths under _SYS_InterruptHigh in BANK6

    None.

Critical Paths under _main in BANK7

    None.

Critical Paths under _SYS_InterruptHigh in BANK7

    None.

Critical Paths under _main in BANK8

    None.

Critical Paths under _SYS_InterruptHigh in BANK8

    None.

Critical Paths under _main in BANK9

    None.

Critical Paths under _SYS_InterruptHigh in BANK9

    None.

Critical Paths under _main in BANK10

    None.

Critical Paths under _SYS_InterruptHigh in BANK10

    None.

Critical Paths under _main in BANK11

    None.

Critical Paths under _SYS_InterruptHigh in BANK11

    None.

Critical Paths under _main in BANK12

    None.

Critical Paths under _SYS_InterruptHigh in BANK12

    None.

Call Graph Tables:

 ---------------------------------------------------------------------------------
 (Depth) Function   	        Calls       Base Space   Used Autos Params    Refs
 ---------------------------------------------------------------------------------
 (0) _main                                                 0     0      0    1552
           _APP_DeviceCustomHIDTasks
                  _SYSTEM_Initialize
                    _USBDeviceAttach
                      _USBDeviceInit
 ---------------------------------------------------------------------------------
 (1) _USBDeviceInit                                        5     5      0     272
                                              0 BANK1      5     5      0
 ---------------------------------------------------------------------------------
 (1) _USBDeviceAttach                                      1     1      0       0
                                              0 BANK1      1     1      0
 ---------------------------------------------------------------------------------
 (1) _SYSTEM_Initialize                                    3     3      0      44
                                              3 BANK1      3     3      0
                           _LED_Init
                            _LED_Off
                       _init_alcohol
 ---------------------------------------------------------------------------------
 (2) _init_alcohol                                         0     0      0       0
 ---------------------------------------------------------------------------------
 (2) _LED_Init                                             0     0      0       0
 ---------------------------------------------------------------------------------
 (1) _APP_DeviceCustomHIDTasks                             3     3      0    1236
                                             11 BANK1      3     3      0
                            _LED_Off
                             _LED_On
               _USBTransferOnePacket
                      _check_alcohol
 ---------------------------------------------------------------------------------
 (2) _check_alcohol                                        3     3      0      70
                                              0 BANK1      3     3      0
 ---------------------------------------------------------------------------------
 (2) _USBTransferOnePacket                                11     7      4    1099
                                              0 BANK1     11     7      4
 ---------------------------------------------------------------------------------
 (2) _LED_On                                               3     3      0      22
                                              0 BANK1      3     3      0
 ---------------------------------------------------------------------------------
 (2) _LED_Off                                              3     3      0      22
                                              0 BANK1      3     3      0
 ---------------------------------------------------------------------------------
 Estimated maximum stack depth 2
 ---------------------------------------------------------------------------------
 (Depth) Function   	        Calls       Base Space   Used Autos Params    Refs
 ---------------------------------------------------------------------------------
 (3) _SYS_InterruptHigh                                    0     0      0   30441
                     _USBDeviceTasks
 ---------------------------------------------------------------------------------
 (4) _USBDeviceTasks                                       3     3      0   30441
                                             18 BANK0      3     3      0
          _USBCtrlEPAllowStatusStage
                   _USBCtrlEPService
      _USBIncrement1msInternalTimers
                    _USBStallHandler
                         _USBSuspend
                 _USBWakeFromSuspend
    _USER_USB_CALLBACK_EVENT_HANDLER
                    i1_USBDeviceInit
 ---------------------------------------------------------------------------------
 (5) i1_USBDeviceInit                                      5     5      0     272
                                              0 COMMON     5     5      0
 ---------------------------------------------------------------------------------
 (5) _USBWakeFromSuspend                                   1     1      0    3878
                                              6 BANK0      1     1      0
    _USER_USB_CALLBACK_EVENT_HANDLER
 ---------------------------------------------------------------------------------
 (5) _USBSuspend                                           1     1      0    3878
                                              6 BANK0      1     1      0
    _USER_USB_CALLBACK_EVENT_HANDLER
 ---------------------------------------------------------------------------------
 (5) _USBStallHandler                                      1     1      0       0
                                              0 COMMON     1     1      0
 ---------------------------------------------------------------------------------
 (5) _USBIncrement1msInternalTimers                        1     1      0       0
                                              0 COMMON     1     1      0
 ---------------------------------------------------------------------------------
 (5) _USBCtrlEPService                                     2     2      0   18467
                                             16 BANK0      2     2      0
                _USBCtrlTrfInHandler
               _USBCtrlTrfOutHandler
             _USBCtrlTrfSetupHandler
                             _memcpy
 ---------------------------------------------------------------------------------
 (6) _memcpy                                              10     6      4     363
                                              0 COMMON    10     6      4
 ---------------------------------------------------------------------------------
 (6) _USBCtrlTrfSetupHandler                               1     1      0   17875
                                             15 BANK0      1     1      0
                 _USBCheckStdRequest
           _USBCtrlEPServiceComplete
    _USER_USB_CALLBACK_EVENT_HANDLER
 ---------------------------------------------------------------------------------
 (7) _USBCtrlEPServiceComplete                             2     2      0      92
                                              5 COMMON     2     2      0
            _USBCtrlEPAllowDataStage
          _USBCtrlEPAllowStatusStage
 ---------------------------------------------------------------------------------
 (8) _USBCtrlEPAllowDataStage                              2     2      0      92
                                              3 COMMON     2     2      0
                _USBCtrlTrfTxService
 ---------------------------------------------------------------------------------
 (7) _USBCheckStdRequest                                   2     2      0   13905
                                             13 BANK0      2     2      0
            _USBStdFeatureReqHandler
                _USBStdGetDscHandler
             _USBStdGetStatusHandler
                _USBStdSetCfgHandler
    _USER_USB_CALLBACK_EVENT_HANDLER
 ---------------------------------------------------------------------------------
 (8) _USBStdSetCfgHandler                                  5     5      0    5632
                                              6 BANK0      5     5      0
    _USER_USB_CALLBACK_EVENT_HANDLER
                             _memset
 ---------------------------------------------------------------------------------
 (9) _memset                                              14     8      6    1519
                                              0 COMMON    14     8      6
 ---------------------------------------------------------------------------------
 (8) _USBStdGetStatusHandler                               4     4      0      46
                                              0 COMMON     4     4      0
 ---------------------------------------------------------------------------------
 (8) _USBStdGetDscHandler                                  3     3      0       0
                                              0 COMMON     3     3      0
 ---------------------------------------------------------------------------------
 (8) _USBStdFeatureReqHandler                              7     7      0    4349
                                              6 BANK0      7     7      0
    _USER_USB_CALLBACK_EVENT_HANDLER
 ---------------------------------------------------------------------------------
 (5) _USER_USB_CALLBACK_EVENT_HANDLER                      6     0      6    3878
                                              0 BANK0      6     0      6
      _APP_DeviceCustomHIDInitialize
                 _USBCheckHIDRequest
                          i1_LED_Off
                           i1_LED_On
                i1_SYSTEM_Initialize
 ---------------------------------------------------------------------------------
 (6) i1_SYSTEM_Initialize                                  3     3      0      44
                                              3 COMMON     3     3      0
                         i1_LED_Init
                          i1_LED_Off
                     i1_init_alcohol
 ---------------------------------------------------------------------------------
 (7) i1_init_alcohol                                       0     0      0       0
 ---------------------------------------------------------------------------------
 (7) i1_LED_Off                                            3     3      0      22
                                              0 COMMON     3     3      0
 ---------------------------------------------------------------------------------
 (7) i1_LED_Init                                           0     0      0       0
 ---------------------------------------------------------------------------------
 (6) i1_LED_On                                             3     3      0      22
                                              0 COMMON     3     3      0
 ---------------------------------------------------------------------------------
 (6) _USBCheckHIDRequest                                   2     2      0       0
                                              0 COMMON     2     2      0
 ---------------------------------------------------------------------------------
 (6) _APP_DeviceCustomHIDInitialize                        1     1      0    1098
                                             13 COMMON     1     1      0
                  _USBEnableEndpoint
             i1_USBTransferOnePacket
 ---------------------------------------------------------------------------------
 (7) i1_USBTransferOnePacket                              11     7      4     454
                                              0 COMMON    11     7      4
 ---------------------------------------------------------------------------------
 (7) _USBEnableEndpoint                                    6     5      1     644
                                              7 COMMON     6     5      1
               _USBConfigureEndpoint
 ---------------------------------------------------------------------------------
 (8) _USBConfigureEndpoint                                 7     6      1     400
                                              0 COMMON     7     6      1
 ---------------------------------------------------------------------------------
 (6) _USBCtrlTrfOutHandler                                 2     2      0     114
                                              6 COMMON     2     2      0
                _USBCtrlTrfRxService
 ---------------------------------------------------------------------------------
 (7) _USBCtrlTrfRxService                                  4     4      0     114
                                              2 COMMON     4     4      0
          _USBCtrlEPAllowStatusStage
 ---------------------------------------------------------------------------------
 (8) _USBCtrlEPAllowStatusStage                            2     2      0       0
                                              0 COMMON     2     2      0
 ---------------------------------------------------------------------------------
 (6) _USBCtrlTrfInHandler                                  3     3      0     115
                                              3 COMMON     3     3      0
                _USBCtrlTrfTxService
 ---------------------------------------------------------------------------------
 (9) _USBCtrlTrfTxService                                  3     3      0      92
                                              0 COMMON     3     3      0
 ---------------------------------------------------------------------------------
 Estimated maximum stack depth 9
 ---------------------------------------------------------------------------------

 Call Graph Graphs:

 _main (ROOT)
   _APP_DeviceCustomHIDTasks
     _LED_Off
     _LED_On
     _USBTransferOnePacket
     _check_alcohol
   _SYSTEM_Initialize
     _LED_Init
     _LED_Off
     _init_alcohol
   _USBDeviceAttach
   _USBDeviceInit

 _SYS_InterruptHigh (ROOT)
   _USBDeviceTasks
     _USBCtrlEPAllowStatusStage
     _USBCtrlEPService
       _USBCtrlTrfInHandler
         _USBCtrlTrfTxService
       _USBCtrlTrfOutHandler
         _USBCtrlTrfRxService
           _USBCtrlEPAllowStatusStage
       _USBCtrlTrfSetupHandler
         _USBCheckStdRequest
           _USBStdFeatureReqHandler
             _USER_USB_CALLBACK_EVENT_HANDLER
               _APP_DeviceCustomHIDInitialize
                 _USBEnableEndpoint
                   _USBConfigureEndpoint
                 i1_USBTransferOnePacket
               _USBCheckHIDRequest
               i1_LED_Off
               i1_LED_On
               i1_SYSTEM_Initialize
                 i1_LED_Init
                 i1_LED_Off
                 i1_init_alcohol
           _USBStdGetDscHandler
           _USBStdGetStatusHandler
           _USBStdSetCfgHandler
             _USER_USB_CALLBACK_EVENT_HANDLER
             _memset
           _USER_USB_CALLBACK_EVENT_HANDLER
         _USBCtrlEPServiceComplete
           _USBCtrlEPAllowDataStage
             _USBCtrlTrfTxService
           _USBCtrlEPAllowStatusStage
         _USER_USB_CALLBACK_EVENT_HANDLER
       _memcpy
     _USBIncrement1msInternalTimers
     _USBStallHandler
     _USBSuspend
       _USER_USB_CALLBACK_EVENT_HANDLER
     _USBWakeFromSuspend
       _USER_USB_CALLBACK_EVENT_HANDLER
     _USER_USB_CALLBACK_EVENT_HANDLER
     i1_USBDeviceInit

 Address spaces:
Name               Size   Autos  Total    Cost      Usage
BIGRAM             3F0      0       0       0        0.0%
NULL                 0      0       0       0        0.0%
CODE                 0      0       0       0        0.0%
BITCOMMON            E      0       0       1        0.0%
BITSFR0              0      0       0       1        0.0%
SFR0                 0      0       0       1        0.0%
COMMON               E      E       E       2      100.0%
BITSFR1              0      0       0       2        0.0%
SFR1                 0      0       0       2        0.0%
BITSFR2              0      0       0       3        0.0%
SFR2                 0      0       0       3        0.0%
STACK                0      0       0       3        0.0%
BITBANK0            20      0       0       4        0.0%
BITSFR3              0      0       0       4        0.0%
SFR3                 0      0       0       4        0.0%
BANK0               20     15      20       5      100.0%
BITSFR4              0      0       0       5        0.0%
SFR4                 0      0       0       5        0.0%
BITBANK1            10      0       0       6        0.0%
BITSFR5              0      0       0       6        0.0%
SFR5                 0      0       0       6        0.0%
BANK1               10      E      10       7      100.0%
BITSFR6              0      0       0       7        0.0%
SFR6                 0      0       0       7        0.0%
BITBANK2            10      0       0       8        0.0%
BITSFR7              0      0       0       8        0.0%
SFR7                 0      0       0       8        0.0%
BANK2               10      0      10       9      100.0%
BITSFR8              0      0       0       9        0.0%
SFR8                 0      0       0       9        0.0%
BITBANK3            50      0       0      10        0.0%
BITSFR9              0      0       0      10        0.0%
SFR9                 0      0       0      10        0.0%
BANK3               50      0      1A      11       32.5%
BITSFR10             0      0       0      11        0.0%
SFR10                0      0       0      11        0.0%
BITBANK4            50      0       0      12        0.0%
BITSFR11             0      0       0      12        0.0%
SFR11                0      0       0      12        0.0%
BANK4               50      0       0      13        0.0%
BITSFR12             0      0       0      13        0.0%
SFR12                0      0       0      13        0.0%
BITBANK5            50      0       0      14        0.0%
BITSFR13             0      0       0      14        0.0%
SFR13                0      0       0      14        0.0%
BANK5               50      0       0      15        0.0%
BITSFR14             0      0       0      15        0.0%
SFR14                0      0       0      15        0.0%
BITBANK6            50      0       0      16        0.0%
BITSFR15             0      0       0      16        0.0%
SFR15                0      0       0      16        0.0%
BANK6               50      0       0      17        0.0%
BITSFR16             0      0       0      17        0.0%
SFR16                0      0       0      17        0.0%
BITBANK7            50      0       0      18        0.0%
BITSFR17             0      0       0      18        0.0%
SFR17                0      0       0      18        0.0%
BANK7               50      0       0      19        0.0%
BITSFR18             0      0       0      19        0.0%
SFR18                0      0       0      19        0.0%
BITSFR19             0      0       0      20        0.0%
SFR19                0      0       0      20        0.0%
ABS                  0      0      68      20        0.0%
BITBANK8            50      0       0      21        0.0%
BITSFR20             0      0       0      21        0.0%
SFR20                0      0       0      21        0.0%
BANK8               50      0       0      22        0.0%
BITSFR21             0      0       0      22        0.0%
SFR21                0      0       0      22        0.0%
BITBANK9            50      0       0      23        0.0%
BITSFR22             0      0       0      23        0.0%
SFR22                0      0       0      23        0.0%
BANK9               50      0       0      24        0.0%
BITSFR23             0      0       0      24        0.0%
SFR23                0      0       0      24        0.0%
BITBANK10           50      0       0      25        0.0%
BITSFR24             0      0       0      25        0.0%
SFR24                0      0       0      25        0.0%
BANK10              50      0       0      26        0.0%
BITSFR25             0      0       0      26        0.0%
SFR25                0      0       0      26        0.0%
BITBANK11           50      0       0      27        0.0%
BITSFR26             0      0       0      27        0.0%
SFR26                0      0       0      27        0.0%
BANK11              50      0       0      28        0.0%
BITSFR27             0      0       0      28        0.0%
SFR27                0      0       0      28        0.0%
BITBANK12           30      0       0      29        0.0%
BITSFR28             0      0       0      29        0.0%
SFR28                0      0       0      29        0.0%
BANK12              30      0       0      30        0.0%
BITSFR29             0      0       0      30        0.0%
SFR29                0      0       0      30        0.0%
BITSFR30             0      0       0      31        0.0%
SFR30                0      0       0      31        0.0%
DATA                 0      0      68      31        0.0%
BITSFR31             0      0       0      32        0.0%
SFR31                0      0       0      32        0.0%


Microchip Technology PIC Macro Assembler V2.35 build 20211206165544 
Symbol Table                                                                                   Fri May 06 00:56:41 2022

                             _USB_SD_Ptr 1094                                       l28 04D9  
                                     l29 057C                                       l58 0815  
                                     l85 09EC                            _USBDeviceInit 0370  
                     _USBCheckHIDRequest 06C8     USER_USB_CALLBACK_EVENT_HANDLER@event 0050  
   USER_USB_CALLBACK_EVENT_HANDLER@pdata 0052                                      l304 08A3  
                                    l305 08A2                                      l307 08AD  
                                    l244 03B2              __end_of_USBStdGetDscHandler 0EF1  
                                    l249 0422                                      l602 081F  
                                    l285 0FFF                                      l605 0833  
                                    l573 0971                                      l583 0948  
                                    l575 0974                                      l576 0977  
                                    l592 07FB                                      l585 094B  
                                    l577 097A                                      l586 094E  
                                    l587 0951                                      l579 0996  
                                    _BDT 0020                                      l589 096D  
                                    l599 07FE                                      _UIE 0E92  
                                    _UIR 0E90                               _USBSuspend 086E  
                   USBStdSetCfgHandler@i 005A                     USBStdSetCfgHandler@p 0057  
            __end_ofi1_SYSTEM_Initialize 09C2                                      wreg 0009  
                         _USBDeviceTasks 0182                      ?_USBCheckHIDRequest 0070  
                         _USBDeviceState 00EF                    __end_of_check_alcohol 0834  
                  ??_USBCtrlTrfRxService 0072                 USBEnableEndpoint@options 0077  
                        __end_of_LED_Off 096E                                     l4001 0420  
                                   l4011 089B                                     l4003 088E  
                                   l4013 089D                                     l4005 0894  
                                   l4015 089F                                     l4007 0897  
                                   l4017 08A0                                     l4009 0899  
                                   l4019 08A8                                     l4123 080B  
             USBConfigureEndpoint@handle 0076                                     l4125 080F  
                                   l4127 0812                                     l3621 0F88  
                                   l3631 0FA9                                     l3623 0F91  
                                   l3641 0FFB                                     l3633 0FB5  
                                   l3625 0F97                                     l3617 0F7A  
                                   l5073 09E1                                     l3635 0FC7  
                                   l3619 0F7F                                     l5075 055E  
                                   l5077 0985                                     l3645 0970  
                                   l3637 0FCC                                     l3629 0F9A  
                                   l3901 09CD                                     l5079 095C  
                                   l3639 0FE3                                     l3671 0832  
                                   l3903 09D0                                     l3649 097D  
                                   l3665 0824                                     l3657 081B  
                                   l3905 09D4                                     l3921 0376  
                                   l3675 0947                                     l3667 0827  
                                   l3659 081E                                     l3851 04DF  
                                   l3931 0385                                     l3669 082C  
                                   l3861 0502                                     l3853 04E6  
                                   l3845 04D1                                     l3909 09D9  
                                   l3933 0389                                     l3917 0370  
                                   l3679 0954                                     l3871 051D  
                                   l3863 0509                                     l3855 04EF  
                                   l3687 07F1                                     l3951 03B5  
                                   l3943 0397                                     l3935 038E  
                                   l3927 037C                                     l3919 0372  
                                   l3881 054C                                     l3873 0521  
                                   l3865 050E                                     l3857 04F6  
                                   l3689 07FC                                     l3961 03C1  
                                   l3953 03B6                                     l3945 03A8  
                                   l3937 0395                                     l3929 0381  
                                   l3875 0538                                     l3867 0513  
                                   l3859 04FE                                     l3971 03D6  
                                   l3963 03C3                                     l3955 03B7  
                                   l3947 03AC                                     l3877 053D  
                                   l3869 0518                                     l3885 0555  
                                   l3893 09C4                                     l3981 03F8  
                                   l3973 03D7                                     l3965 03C8  
                                   l3957 03BD                                     l3949 03B4  
                                   l3879 0544                                     l3887 0566  
                                   l3895 09C5                                     l3991 040D  
                                   l3983 03FE                                     l3967 03D4  
                                   l3959 03BF                                     l3897 09CA  
                                   l3993 0413                                     l3985 0403  
                                   l3977 03D9                                     l3969 03D5  
                                   l3899 09CC                                     l3995 0414  
                                   l3987 0406                                     l3979 03F4  
                                   l3997 0416                                     l3989 040B  
                                   l3999 041F                                     u2300 0824  
                                   u2301 0823                                     u2310 0832  
                                   u2311 0831                                     u2500 04EE  
                                   u2501 04ED                                     u2270 0F7F  
                                   u2510 04F6                                     u2271 0F7E  
                                   u2511 04F5                                     u2280 0F97  
                                   u2520 04FE                                     u2600 03FE  
                                   u2281 0F96                                     u2521 04FD  
                                   u2601 03FD                                     u2290 0FCC  
                                   u2530 050E                                     u2610 0894  
                                   u2291 0FCB                                     u2531 050D  
                                   u2611 0893                                     u2540 0544  
                                   u2620 08A8                                     u2541 0543  
                                   u2621 08A7                                     u2550 054C  
                                   u2470 04D8                                     u2551 054B  
                                   u2471 04D7                                     u2480 04DE  
                                   u2560 038E                                     u2481 04DD  
                                   u2561 038D                                     u2490 04E6  
                                   u2491 04E5                                     u2580 03B2  
                                   u2581 03B1                                     u2590 03C8  
                                   u2591 03C7                                     u2575 039A  
                                   i1l25 086D                                     i1l90 0009  
                                   i1l85 09C1                    ??_USBCtrlTrfTxService 0070  
                            ?i1_LED_Init 0070                                     _UCFG 0E91  
                                   _UEP0 0E98                                     _UEP1 0E99  
                                   _UEIE 0E97                                     _UEIR 0E93  
                                   _UCON 0E8E   USBStdFeatureReqHandler@current_ep_data 005A  
                                   _pDst 01B7                                     _main 080B  
                                   fsr0h 0005                                     fsr1h 0007  
                                   indf0 0000                                     fsr0l 0004  
                                   indf1 0001                                     fsr1l 0006  
                        _USBDeviceAttach 088E                                     btemp 007E  
                                   start 000B                     ??_USBCheckHIDRequest 0070  
             __end_of_USBCheckStdRequest 0DEB                   ??_USBCtrlTrfOutHandler 0076  
              ??_USBStdFeatureReqHandler 0056                             _USBOutHandle 01AC  
               ??_USBStdGetStatusHandler 0070                           ?_USBDeviceInit 0070  
                       __end_of_LED_Init 07FC                                    ?_main 0070  
                       __end_ofi1_LED_On 091D                   __end_of_USBDeviceTasks 02A6  
              ?_USBCtrlEPServiceComplete 0070                                    i1l311 0CEE  
                                  i1l321 0C0A                                    i1l410 0A19  
                                  i1l315 0CEE                                    i1l500 084F  
                                  i1l244 05BD                                    i1l405 0C74  
                                  i1l413 088D                                    i1l261 01FE  
                                  i1l342 0E11                                    i1l326 0AC4  
                                  i1l430 0B53                                    i1l255 01B0  
                                  i1l256 02A5                                    i1l329 0674  
                                  i1l249 0625                                    i1l265 0237  
                                  i1l354 0E6D                                    i1l450 0D6A  
                                  i1l266 02A3                                    i1l451 0D6C  
                                  i1l443 0D64                                    i1l523 0766  
                                  i1l339 06C7                                    i1l427 0BAE  
                                  i1l419 08CF                                    i1l267 023E  
                                  i1l365 04C7                                    i1l357 043B  
                                  i1l437 0A81                                    i1l285 0F77  
                                  i1l390 0EF0                                    i1l367 04D0  
                                  i1l279 08F4                                    i1l455 0DEA  
                                  i1l376 07F0                                    i1l457 0D77  
                                  i1l394 0C0F                                    i1l466 0DA5  
                                  i1l491 013A                                    i1l573 08F7  
                                  i1l565 0B08                                    i1l493 014D  
                                  i1l397 0C66                                    i1l398 0C19  
                                  i1l575 08FA                                    i1l583 091F  
                                  i1l495 0181                                    i1l399 0C1B  
                                  i1l576 08FD                                    i1l592 080A  
                                  i1l577 0900                                    i1l585 0922  
                                  i1l586 0925                                    i1l579 091C  
                                  i1l587 0928                                    i1l589 0944  
                                  i1l599 17F9                                    _UADDR 0E96  
                                  _USTAT 0E8F                         ??i1_init_alcohol 0070  
        __end_of_USBCtrlEPAllowDataStage 0C0B                                    _sd000 1800  
                                  _sd001 1029                                    _sd002 1066  
         ?_USBIncrement1msInternalTimers 0070                                    status 0003  
                                  wtemp0 007E                          __initialization 000D  
                           __end_of_main 081B                                   ??_main 00EE  
                        ?_USBDeviceTasks 0070                              ?_USBSuspend 0070  
                              ??_LED_Off 00E0                          i1_USBDeviceInit 057D  
                __end_of_USBDeviceAttach 08AE                                   _ACTCON 039B  
                          ?_init_alcohol 0070                                   _ANSELA 018C  
                                 _ANSELC 018E                        __end_ofi1_LED_Off 0945  
                 SYSTEM_Initialize@state 00E5                                   i1l1135 0A47  
                                 i1l3003 08F6                                   i1l1139 036F  
                                 i1l3021 0AD7                                   i1l3013 0AC5  
                                 i1l3007 0903                                   i1l3023 0ADC  
                                 i1l3015 0AC6                                   u200_20 00DD  
                                 i1l3041 0DFD                                   i1l3121 0C7B  
                                 i1l3017 0ACF                                   u200_21 00DC  
                                 i1l3051 0E25                                   i1l3043 0E03  
                                 i1l3131 0C96                                   i1l3123 0C7F  
                                 i1l3019 0AD4                                   i1l3027 0AE0  
                                 i1l3061 0E42                                   i1l3053 0E2A  
                                 i1l3045 0E08                                   i1l3037 0DEB  
                                 i1l3141 0CB1                                   i1l3133 0C9C  
                                 i1l3125 0C84                                   i1l3071 0E61  
                                 i1l3063 0E47                                   i1l3047 0E0D  
                                 i1l3039 0DF9                                   i1l3151 0CDA  
                                 i1l3143 0CBD                                   i1l3135 0CA2  
                                 i1l3127 0C88                                   i1l3119 0C75  
                                 i1l3311 0040                                   i1l3303 002C  
                                 i1l3231 0E6E                                   u201_20 0105  
                                 i1l3073 0E66                                   i1l3057 0E30  
                                 i1l3065 0E49                                   i1l3049 0E19  
                                 i1l3153 0CE7                                   i1l3145 0CC4  
                                 i1l3137 0CA7                                   i1l3129 0C8F  
                                 u201_21 0104                                   i1l3321 005C  
                                 i1l3313 0046                                   i1l3305 0032  
                                 i1l3241 0E88                                   i1l3233 0E75  
                                 i1l3161 0BC6                                   i1l3401 0643  
                                 i1l3067 0E4F                                   i1l3059 0E3D  
                                 i1l3075 0E68                                   i1l3147 0CC8  
                                 i1l3139 0CA9                                   i1l3331 009C  
                                 i1l3323 0065                                   i1l3307 0039  
                                 i1l3315 0048                                   i1l3251 0EBE  
                                 i1l3243 0E97                                   i1l3235 0E7A  
                                 i1l3171 0BEE                                   i1l3163 0BD3  
                                 i1l3155 0BAF                                   i1l3411 066E  
                                 i1l3403 0650                                   i1l3069 0E5C  
                                 i1l3149 0CCD                                   i1l3341 00C1  
                                 i1l3333 00A0                                   i1l3325 006C  
                                 i1l3317 004E                                   i1l3309 003A  
                                 i1l3253 0ECD                                   i1l3245 0EA6  
                                 i1l3237 0E7E                                   i1l3261 0EDD  
                                 i1l3173 0BF1                                   i1l3165 0BD9  
                                 i1l3157 0BB2                                   i1l3421 0688  
                                 i1l3413 0678                                   i1l3405 065D  
                                 i1l3351 00E5                                   i1l3343 00CB  
                                 i1l3335 00AB                                   i1l3327 0072  
                                 i1l3319 0055                                   i1l3255 0ED9  
                                 i1l3247 0EB6                                   i1l3239 0E83  
                                 i1l3271 0C10                                   i1l3175 0BFF  
                                 i1l3159 0BB9                                   i1l3167 0BDF  
                                 i1l3431 06A5                                   i1l3423 0689  
                                 i1l3415 067D                                   i1l3407 0663  
                                 u202_20 0132                                   u210_20 068F  
                                 i1l3601 0D2E                                   u202_21 0131  
                                 i1l3361 0105                                   i1l3353 00EC  
                                 i1l3345 00D1                                   i1l3337 00B1  
                                 i1l3329 0088                                   i1l3257 0EDB  
                                 i1l3249 0EB8                                   i1l3281 0C33  
                                 i1l3273 0C16                                   i1l3177 0C05  
                                 i1l3169 0BEA                                   i1l3433 06B2  
                                 i1l3425 068F                                   u210_21 068E  
                                 i1l3417 0683                                   i1l3409 0668  
                                 i1l3611 0D57                                   i1l3603 0D31  
                                 i1l3451 0444                                   i1l3443 0423  
                                 i1l3371 012E                                   i1l3363 010D  
                                 i1l3355 00F1                                   i1l3347 00D9  
                                 i1l3339 00B5                                   i1l3283 0C3D  
                                 i1l3275 0C1C                                   i1l3291 0C52  
                                 i1l3267 0C0B                                   i1l3435 06B8  
                                 i1l3419 0686                                   i1l3427 0693  
                                 i1l3531 0A2C                                   i1l3613 0D68  
                                 i1l3605 0D38                                   i1l3461 0463  
                                 i1l3453 044F                                   i1l3445 0429  
                                 i1l3381 0165                                   i1l3373 0132  
                                 i1l3365 0112                                   i1l3349 00DD  
                                 i1l3357 00F7                                   i1l3293 0C6B  
                                 i1l3285 0C45                                   i1l3277 0C23  
                                 i1l4501 0341                                   i1l3437 06BD  
                                 i1l3429 0698                                   i1l3533 0A30  
                                 i1l3701 08C9                                   i1l3615 0D6B  
                                 i1l3607 0D45                                   i1l3463 0470  
                                 i1l3471 049F                                   i1l3455 0453  
                                 i1l3447 0437                                   i1l2903 091E  
                                 i1l3383 016D                                   i1l3375 013E  
                                 i1l3367 0122                                   i1l3359 00FD  
                                 i1l3295 0C6F                                   i1l3287 0C4D  
                                 i1l3279 0C27                                   i1l4511 0361  
                                 i1l4503 034E                                   i1l3439 06BF  
                                 i1l3391 0632                                   i1l3535 0A37  
                                 i1l3527 0A1B                                   i1l3711 0877  
                                 i1l3703 08CD                                   u203_20 013A  
                                 u211_20 06C6                                   i1l3609 0D4A  
                                 i1l3481 04C8                                   i1l3473 04AC  
                                 i1l3465 047D                                   i1l3457 0457  
                                 i1l3449 0442                                   i1l2921 085B  
                                 i1l2913 0800                                   i1l3385 0179  
                                 i1l3377 0146                                   u203_21 0139  
                                 i1l3369 0127                                   i1l3297 0C70  
                                 i1l4513 0365                                   i1l4505 0352  
                                 i1l5081 0DC7                                   i1l4601 0DB0  
                                 u211_21 06C5                                   i1l3393 0636  
                                 i1l3529 0A24                                   i1l3537 0A3B  
                                 i1l3721 0842                                   i1l3713 087D  
                                 i1l3705 086E                                   i1l3801 05C8  
                                 i1l3483 04CD                                   i1l3475 04B9  
                                 i1l3467 0485                                   i1l3459 045D  
                                 i1l3571 0A54                                   i1l2851 0AA0  
                                 i1l2931 06D7                                   i1l2923 06C8  
                                 i1l2907 092B                                   i1l2915 17F7  
                                 i1l5091 09B6                                   i1l3379 0155  
                                 i1l5083 0C5B                                   i1l4515 0369  
                                 i1l4507 0356                                   i1l4531 077B  
                                 i1l3395 063C                                   i1l3387 0626  
                                 i1l4611 0B09                                   i1l3723 084B  
                                 i1l3731 0A07                                   i1l3715 087E  
                                 i1l3707 0870                                   i1l3811 05DB  
                                 i1l3803 05CA                                   i1l3477 04BF  
                                 i1l3469 0492                                   i1l3573 0A5A  
                                 i1l3581 0A80                                   i1l3565 0A48  
                                 i1l2861 0ABF                                   i1l2853 0AA4  
                                 i1l2917 0850                                   i1l2941 06F2  
                                 i1l5093 0933                                   i1l5085 0EE5  
                                 i1l4509 035B                                   i1l4533 0780  
                                 i1l4525 076E                                   i1l4517 0767  
                                 i1l4605 0DBF                                   i1l3397 063F  
                                 i1l3389 062D                                   i1l4621 0B2F  
                                 i1l4613 0B12                                   i1l3717 0834  
                                 i1l3733 0A13                                   i1l3725 09ED  
                                 i1l3709 0876                                   i1l3821 05F9  
                                 i1l3813 05DC                                   i1l3805 05CC  
                                 i1l4701 01D9                                   i1l3591 0D0A  
                                 i1l3583 0CEF                                   i1l3479 04C4  
                                 i1l3575 0A67                                   i1l3567 0A4F  
                                 i1l2855 0AA9                                   i1l2847 0A83  
                                 i1l2871 08E4                                   i1l2863 08D1  
                                 i1l2919 0853                                   i1l2943 06F6  
                                 i1l2935 06DE                                   i1l2927 06D1  
                                 i1l5095 090B                                   i1l5087 0AE9  
                                 i1l4551 07B6                                   i1l4543 0792  
                                 i1l4535 078E                                   i1l4527 0773  
                                 i1l4519 076D                                   i1l3399 0641  
                                 i1l4631 0B3E                                   i1l4623 0B37  
                                 i1l4615 0B1B                                   i1l3719 083D  
                                 i1l3727 09F2                                   i1l3735 0A15  
                                 i1l3831 0610                                   i1l3823 05FD  
                                 i1l3815 05DD                                   i1l3807 05D1  
                                 i1l4711 01FC                                   i1l4703 01DD  
                                 u212_20 0437                                   u220_20 0A5A  
                                 u204_20 013E                                   u300_20 07D3  
                                 i1l3593 0D0F                                   i1l3585 0CF8  
                                 u212_21 0436                                   i1l3577 0A74  
                                 u220_21 0A59                                   i1l3569 0A53  
                                 i1l2857 0AB3                                   i1l2849 0A87  
                                 i1l2873 08EE                                   i1l2865 08D5  
                                 i1l2881 0F09                                   i1l2961 0733  
                                 i1l2953 071C                                   i1l5097 0707  
                                 i1l2937 06E4                                   i1l5089 0B03  
                                 u204_21 013D                                   i1l4481 02B1  
                                 u300_21 07D2                                   i1l4561 07CE  
                                 i1l4553 07B8                                   i1l4545 079E  
                                 i1l4537 0790                                   i1l4529 0777  
                                 i1l4633 0B41                                   i1l4625 0B38  
                                 i1l4617 0B21                                   i1l4641 0B61  
                                 i1l3729 09FC                                   i1l3841 0622  
                                 i1l3833 0612                                   i1l3825 0603  
                                 i1l3809 05DA                                   i1l3761 057F  
                                 i1l4721 0212                                   i1l4713 0203  
                                 i1l4705 01ED                                   i1l3595 0D15  
                                 i1l3587 0CFE                                   i1l3579 0A7A  
                                 i1l2859 0ABB                                   i1l2867 08DA  
                                 i1l2891 0F2D                                   i1l2883 0F0F  
                                 i1l2875 0EF2                                   i1l5099 0752  
                                 i1l2963 0737                                   i1l2955 0720  
                                 i1l2971 074A                                   i1l2939 06E9  
                                 i1l2947 06FF                                   i1l4491 030F  
                                 i1l4483 02B7                                   i1l4475 02A6  
                                 i1l4563 07D3                                   i1l4555 07BD  
                                 i1l4547 07A2                                   i1l4635 0B50  
                                 i1l4627 0B3A                                   i1l4619 0B29  
                                 i1l4651 0B99                                   i1l4643 0B70  
                                 i1l3691 08AE                                   i1l3843 0623  
                                 i1l3835 0616                                   i1l3827 0608  
                                 i1l3819 05DE                                   i1l3771 058D  
                                 i1l3763 0583                                   i1l4731 0234  
                                 i1l4723 0217                                   i1l4707 01F3  
                                 i1l4715 0206                                   i1l3589 0D05  
                                 i1l3597 0D1A                                   u212_25 0433  
                                 i1l2869 08DE                                   i1l2893 0F3F  
                                 i1l2877 0EF7                                   i1l2965 073B  
                                 i1l2957 0724                                   i1l2949 0712  
                                 i1l2981 0998                                   i1l4485 02C9  
                                 i1l4477 02AA                                   i1l4565 07DA  
                                 i1l4557 07C2                                   i1l4549 07A8  
                                 i1l4581 0D8A                                   i1l4573 0D78  
                                 i1l4629 0B3C                                   i1l4653 0B9D  
                                 i1l4645 0B77                                   i1l4637 0B54  
                                 i1l3693 08B0                                   i1l3837 0617  
                                 i1l3829 060B                                   i1l3773 0591  
                                 i1l4741 0249                                   i1l4733 023C  
                                 i1l4725 021B                                   i1l4717 020B  
                                 i1l4709 01F6                                   i1l4661 0188  
                                 i1l3599 0D20                                   i1l2895 0F44  
                                 i1l2887 0F12                                   i1l2879 0F00  
                                 i1l2967 0740                                   i1l2959 0729  
                                 i1l2991 09A5                                   i1l2983 0999  
                                 i1l4495 0319                                   i1l4567 07EA  
                                 i1l4559 07C9                                   i1l4591 0D99  
                                 i1l4583 0D8B                                   i1l4575 0D7E  
                                 i1l4647 0B7D                                   i1l4655 0BA1  
                                 i1l4639 0B5A                                   i1l3695 08BF  
                                 i1l3839 0619                                   i1l3791 05BF  
                                 i1l3775 0595                                   i1l3759 057D  
                                 i1l4751 027F                                   i1l4743 0253  
                                 i1l4727 022B                                   i1l4719 020F  
                                 i1l4663 018D                                   i1l4671 0196  
                                 u221_20 0D05                                   u213_20 045D  
                                 u301_20 0D76                                   u205_20 062D  
                                 _LED_On 096E                                   u221_21 0D04  
                                 u213_21 045C                                   i1l2897 0F5B  
                                 i1l2889 0F21                                   i1l2993 09A9  
                                 i1l2985 099F                                   i1l4497 0337  
                                 i1l4489 02D3                                   i1l4593 0D9E  
                                 i1l4585 0D8F                                   i1l4577 0D82  
                                 u301_21 0D75                                   i1l4569 0D6D  
                                 u205_21 062C                                   i1l4657 0BAB  
                                 i1l4649 0B89                                   i1l3697 08C1  
                                 i1l3793 05C0                                   i1l3785 05A2  
                                 i1l3777 059A                                   i1l3769 0588  
                                 i1l4753 0285                                   i1l4745 0259  
                                 i1l4729 022D                                   i1l4681 01AD  
                                 i1l4673 019B                                   i1l4665 018E  
                                 i1l4761 0006                                   i1l2899 0F73  
                                 i1l2987 09A1                                   i1l4595 0D9F  
                                 i1l4587 0D91                                   i1l4579 0D86  
                                 i1l3699 08C3                                   i1l3795 05C1  
                                 i1l3787 05B3                                   i1l3779 05A1  
                                 i1l4755 0289                                   i1l4747 025E  
                                 i1l4739 0243                                   i1l4691 01C3  
                                 i1l4683 01B4                                   i1l4675 019F  
                                 i1l4667 018F                                   i1l4659 0182  
                                 i1l2989 09A2                                   i1l2997 09AE  
                                 i1l4597 0DA3                                   i1l4589 0D95  
                                 i1l3797 05C2                                   i1l3789 05B7  
                                 i1l4757 0298                                   i1l4749 026F  
                                 i1l4685 01B8                                   i1l4693 01C9  
                                 i1l4677 01A5                                   i1l4669 0190  
                                 i1l4599 0DA6                                   i1l3799 05C6  
                                 i1l4759 029D                                   i1l4695 01CD  
                                 i1l4687 01BB                                   i1l4679 01A8  
                                 u222_20 0D0F                                   u214_20 0463  
                                 u150_20 0EF7                                   u206_20 0632  
                                 u302_20 0B61                                   u310_20 01AD  
                                 u222_21 0D0E                                   u214_21 0462  
                                 u150_21 0EF6                                   u206_21 0631  
                                 u302_21 0B60                                   i1l4697 01D1  
                                 i1l4689 01BD                                   u310_21 01AC  
                                 i1l4699 01D4                                   u223_20 0D20  
                                 u215_20 0485                                   u151_20 0F0F  
                                 u207_20 063C                                   u311_20 01B4  
                                 u223_21 0D1F                                   u215_21 0484  
                                 u151_21 0F0E                                   u207_21 063B  
                                 u311_21 01B3                                   u303_25 0B66  
                                 u160_20 0E0D                                   u224_20 0D38  
                                 u216_20 04CD                                   u152_20 0F44  
                                 u208_20 0678                                   u304_20 0B89  
                                 u232_20 08CD                                   u320_20 020F  
                                 u312_20 01B8                                   u160_21 0E0C  
                                 u224_21 0D37                                   u216_21 04CC  
                                 u152_21 0F43                                   u208_21 0677  
                                 u304_21 0B88                                   u232_21 08CC  
                                 u320_21 020E                                   u312_21 01B7  
                                 u144_25 0A8A                                   u161_20 0E2F  
                                 u225_20 0D4A                                   u153_20 06D0  
                                 u209_20 0683                                   u305_20 0BAB  
                                 u233_20 0842                                   u321_20 0217  
                                 u313_20 01CD                                   u161_21 0E2E  
                                 u225_21 0D49                                   u153_21 06CF  
                                 u209_21 0682                                   u305_21 0BAA  
                                 u233_21 0841                                   u321_21 0216  
                                 u313_21 01CC                                   u145_25 0A90  
                                 u162_20 0E4E                                   u226_20 0D68  
                                 u170_20 0C84                                   u154_20 06D6  
                                 u218_20 0A47                                   u234_20 084B  
                                 u242_20 059A                                   u322_20 021B  
                                 u314_20 01D1                                   u306_20 0188  
                                 u162_21 0E4D                                   u226_21 0D67  
                                 u170_21 0C83                                   u154_21 06D5  
                                 u218_21 0A46                                   u234_21 084A  
                                 u242_21 0599                                   u322_21 021A  
                                 u314_21 01D0                                   u306_21 0187  
                                 u146_25 0A98                                   u163_20 0E6D  
                                 u171_20 0C8F                                   u219_20 0A4F  
                                 u147_20 0AA9                                   u155_20 06DD  
                                 u235_20 09F2                                   u323_20 0234  
                                 u315_20 01D9                                   u307_20 018D  
                                 u163_21 0E6C                                   u171_21 0C8E  
                                 u219_21 0A4E                                   u147_21 0AA8  
                                 u155_21 06DC                                   u235_21 09F1  
                                 u323_21 0233                                   u315_21 01D8  
                                 u307_21 018C                                   u243_25 05A5  
                                 u172_20 0CA7                                   u148_20 08D5  
                                 u156_20 06E4                                   u180_20 0EBE  
                                 u236_20 09FC                                   u244_20 05BD  
                                 u324_20 023C                                   u316_20 01DD  
                                 u308_20 019B                                   u172_21 0CA6  
                                 u148_21 08D4                                   u156_21 06E3  
                                 u180_21 0EBD                                   u236_21 09FB  
                                 u244_21 05BC                                   u324_21 023B  
                                 u316_21 01DC                                   u308_21 019A  
                                 u149_20 08DE                                   u157_20 071B  
                                 u181_20 0C16                                   u173_20 0BB9  
                                 u237_20 0A07                                   u245_20 05D1  
                                 u325_20 0243                                   u317_20 01FC  
                                 u309_20 019F                                   u149_21 08DD  
                                 u157_21 071A                                   u181_21 0C15  
                                 u173_21 0BB8                                   u237_21 0A06  
                                 u245_21 05D0                                   u325_21 0242  
                                 u317_21 01FB                                   u309_21 019E  
                                 u158_20 0DF9                                   u190_20 004E  
                                 u182_20 0C23                                   u174_20 0BEA  
                                 u246_20 0603                                   u326_20 025E  
                                 u318_20 0203                                   u158_21 0DF8  
                                 u190_21 004D                                   u182_21 0C22  
                                 u174_21 0BE9                                   u246_21 0602  
                                 u326_21 025D                                   u318_21 0202  
                                 u174_25 0BE6                                   u159_20 0E03  
                                 u191_20 0055                                   u183_20 0C27  
                                 u327_20 0285                                   u319_20 020B  
                                 u159_21 0E02                                   u191_21 0054  
                                 u183_21 0C26                                   u327_21 0284  
                                 u319_21 020A                                   u192_20 005C  
                                 u184_20 0C45                                   u328_20 02A3  
                                 u192_21 005B                                   u184_21 0C44  
                                 u328_21 02A2                                   u169_20 0C7B  
                                 u193_20 0065                                   u185_20 0C4D  
                                 u169_21 0C7A                                   u193_21 0064  
                                 u185_21 0C4C                                   u194_20 006C  
                                 u178_20 0E75                                   u186_20 0C6B  
                                 u194_21 006B                                   u178_21 0E74  
                                 u186_21 0C6A                                   u195_20 0072  
                                 u187_20 0032                                   u179_20 0E88  
                                 u195_21 0071                                   u187_21 0031  
                                 u179_21 0E87          ??_APP_DeviceCustomHIDInitialize 007D  
                                 u196_20 00A0                                   u188_20 0039  
                                 u196_21 009F                                   u188_21 0038  
                                 u197_20 00B5                                   u189_20 0040  
                                 u293_20 02B0                                   u197_21 00B4  
                                 u189_21 003F                                   u293_21 02AF  
                                 u198_20 00D1                                   u294_20 02D2  
                                 u198_21 00D0                                   u294_21 02D1  
                                 u199_20 00D9                                   u295_20 0318  
                                 u199_21 00D8                                   u295_21 0317  
                                 u296_20 0340                                   u296_21 033F  
                                 u297_20 036F                                   u297_21 036E  
                                 u298_20 0780                                   _OSCCON 0099  
                                 u298_21 077F                                   u299_20 07A8  
                                 u299_21 07A7             i1USBTransferOnePacket@handle 0079  
                      _shortPacketStatus 016C                          USBDeviceTasks@i 0064  
            USBStdFeatureReqHandler@pUEP 0058                 USBTransferOnePacket@data 00E1  
             USBCtrlTrfInHandler@lastDTS 0075                          ??_USBDeviceInit 00E0  
                      _USBEnableEndpoint 08D0           APP_DeviceCustomHIDTasks@result 00ED  
                                 _memcpy 0A1A                                   _memset 02A6  
                     ?_USBEnableEndpoint 0077                      ??_USBEnableEndpoint 0078  
                         ??_init_alcohol 00E0                         check_alcohol@ret 00E1  
                            _CtrlTrfData 0048                     _controlTransferState 016B  
             ??_APP_DeviceCustomHIDTasks 00EB                        _SYSTEM_Initialize 09C2  
                __end_of__initialization 0028               i1USBTransferOnePacket@data 0071  
                              ?_LED_Init 0070                       ?_SYSTEM_Initialize 0070  
                              ?i1_LED_On 0070                     i1USBDeviceInit@i_878 0073  
                         __pcstackCOMMON 0070                __end_of_USBEnableEndpoint 08F5  
                          __end_of_sd000 1804                            __end_of_sd001 1049  
                          __end_of_sd002 1082                      ??_SYSTEM_Initialize 00E3  
                              LED_On@led 00E2                          _active_protocol 01B8  
                __end_ofi1_USBDeviceInit 0626              __end_of_USBCtrlTrfInHandler 0D6D  
               ??_USBCtrlTrfSetupHandler 005F                  _USBTicksSinceSuspendEnd 01AE  
                       ?_USBDeviceAttach 0070                __end_of_SYSTEM_Initialize 09ED  
                 _USBStdGetStatusHandler 0C0B                             ??i1_LED_Init 0070  
                             __pbssBANK0 0065                               __pbssBANK1 00EE  
                             __pbssBANK2 0160                               __pbssBANK3 01A0  
                                ?_LED_On 0070                             i1LED_Off@led 0072  
                             ??_LED_Init 00E0                              _pBDTEntryIn 006A  
                             ??i1_LED_On 0070         __end_of_USBCtrlEPServiceComplete 06C8  
  __end_of_APP_DeviceCustomHIDInitialize 086E            _APP_DeviceCustomHIDInitialize 0850  
                             __pmaintext 080B                     USBCtrlTrfRxService@i 0074  
                             __pintentry 0004                                  ?_memcpy 0070  
                                ?_memset 0070                               _device_dsc 1082  
                       _USBCtrlEPService 0B54                               _ep_data_in 0167  
                     __end_ofi1_LED_Init 080B              __end_of_USBCtrlTrfRxService 04D1  
                     _USBCheckStdRequest 0D6D                        _configDescriptor1 1000  
                                _LED_Off 0945              __end_of_USBCtrlTrfTxService 0E6E  
                    _USBStdSetCfgHandler 0767                      ?_USBCheckStdRequest 0070  
                                _UIEbits 0E92                                  _UIRbits 0E90  
               ??i1_USBTransferOnePacket 0074          ??_USBIncrement1msInternalTimers 0070  
                   ?_USBStdSetCfgHandler 0070                        __end_of_hid_rpt01 1066  
                   ??_USBCheckStdRequest 005D                         _ToSendDataBuffer 0120  
                       ??_USBDeviceTasks 0062                     __end_of_init_alcohol 07FF  
                      ??_USBStallHandler 0070                         ?i1_USBDeviceInit 0070  
              __end_of_configDescriptor1 1029                                  __ptext1 0370  
                                __ptext2 088E                                  __ptext3 09C2  
                                __ptext4 07FC                                  __ptext5 07F1  
                                __ptext6 04D1                                  __ptext7 081B  
                                __ptext8 0F78                                  __ptext9 096E  
                                _inPipes 0065              _USBDeferOUTDataStagePackets 01AF  
                           ??_USBSuspend 0056                       __end_of_USB_CD_Ptr 1806  
                                clrloop0 17FB                     end_of_initialization 0028  
                     __end_of_USB_SD_Ptr 109A                                  memcpy@d 0079  
                                memcpy@n 0072                                  memcpy@s 0075  
                    _pBDTEntryEP0OutNext 006E                                  memset@c 0072  
                                memset@k 007A                                  memset@n 0074  
                                memset@s 007C                          _USB1msTickCount 01A0  
                              i1_LED_Off 091D                 ?_USBStdFeatureReqHandler 0070  
                  ??_USBStdSetCfgHandler 0056                       __end_of_USBSuspend 088E  
                _USBCtrlEPAllowDataStage 0BAF                 _USBCtrlEPServiceComplete 0626  
             _USBStatusStageEnabledFlag1 01B2               _USBStatusStageEnabledFlag2 01B1  
                     USBEnableEndpoint@p 007A                                _PORTAbits 000C  
                              _TRISAbits 008C                                _TRISCbits 008E  
                     _ReceivedDataBuffer 00A0                       _BothEP0OutUOWNsSet 01B4  
              USBStdSetCfgHandler@i_1611 0059                            _check_alcohol 081B  
              USBConfigureEndpoint@EPNum 0075               ?_USBCtrlEPAllowStatusStage 0070  
    USER_USB_CALLBACK_EVENT_HANDLER@size 0054                                _USTATcopy 016D  
               i1USBTransferOnePacket@ep 0078             __end_of_USBTransferOnePacket 1000  
                         __end_of_LED_On 0997                               ?i1_LED_Off 0070  
                     USBDeviceInit@i_878 00E3                   _USBCtrlTrfSetupHandler 0B09  
                  __end_of_USBDeviceInit 0423    __end_of_USBIncrement1msInternalTimers 0850  
          _USBIncrement1msInternalTimers 0834                               LED_Off@led 00E2  
                         __end_of_memcpy 0A48                           __end_of_memset 0370  
                      _USBBusIsSuspended 01B5                           check_alcohol@i 00E2  
                    start_initialization 000D                  ?_USBStdGetStatusHandler 0070  
          USBCtrlTrfRxService@byteToRead 0075                           ?_check_alcohol 0070  
           __end_of_USBConfigureEndpoint 0AC5          __end_of_USBStdFeatureReqHandler 0182  
                               ??_LED_On 00E0        __end_of_USBCtrlEPAllowStatusStage 0CEF  
               __end_of_USBCtrlEPService 0BAF                ??_USBCtrlEPAllowDataStage 0073  
                         USBDeviceInit@i 00E4                           USBDeviceInit@p 00E1  
                 _pBDTEntryEP0OutCurrent 00EE                  USBTransferOnePacket@dir 00E0  
                USBTransferOnePacket@len 00E3                      _USBStdGetDscHandler 0E6E  
              ?_APP_DeviceCustomHIDTasks 0070                                 ??_memcpy 0074  
                               ??_memset 0076                      i1_SYSTEM_Initialize 0997  
                             memset@dest 0070                   i1_USBTransferOnePacket 0EF1  
                 _USBActiveConfiguration 016F           __end_of_USBStdGetStatusHandler 0C75  
              i1USBTransferOnePacket@dir 0070                i1USBTransferOnePacket@len 0073  
                               ?_LED_Off 0070                                ___latbits 0002  
                          __pcstackBANK0 0050                            __pcstackBANK1 00E0  
                   ?_USBStdGetDscHandler 0070                             _init_alcohol 07FC  
                   ?i1_SYSTEM_Initialize 0070               __end_of_USBWakeFromSuspend 08D0  
                        _USBStallHandler 09ED                             _pBDTEntryOut 01A4  
                            ??i1_LED_Off 0070                              i1LED_On@led 0072  
                              _hid_rpt01 1049                                _idle_rate 01B9  
                   _USBTransferOnePacket 0F78                          ??_check_alcohol 00E0  
           __end_of_USBCtrlTrfOutHandler 0A82                    ??_USBStdGetDscHandler 0070  
                            _ep_data_out 01A8            USBConfigureEndpoint@direction 0070  
                  ??i1_SYSTEM_Initialize 0073                           i1_init_alcohol 17F7  
                               _LED_Init 07F1                                 _LATCbits 010E  
             __end_of_USBCheckHIDRequest 0767               ??_USBCtrlEPServiceComplete 0075  
                              clear_ram0 17FA                                 _PIE2bits 0092  
                               i1_LED_On 08F5                                 _PIR2bits 0012  
                               _UEP0bits 0E98               _USBDeferINDataStagePackets 01B0  
                               _UCONbits 0E8E                     _USBConfigureEndpoint 0A82  
                  ?_USBTransferOnePacket 00E0                        _SYS_InterruptHigh 0004  
                           _RemoteWakeup 01B6                       ?_SYS_InterruptHigh 0070  
                __end_of_USBStallHandler 0A1A                   __end_ofi1_init_alcohol 17FA  
            ??_USBCtrlEPAllowStatusStage 0070              __end_of_USBStdSetCfgHandler 07F1  
                    ??_SYS_InterruptHigh 007E                       __end_of_device_dsc 1094  
                ?_USBCtrlTrfSetupHandler 0070                  USBStdGetStatusHandler@p 0072  
                              memcpy@tmp 0077                   USBTransferOnePacket@ep 00E8  
                               _SetupPkt 0040                    ?_USBConfigureEndpoint 0070  
                      ??_USBDeviceAttach 00E0                __end_of_SYS_InterruptHigh 000B  
                               __ptext10 0945                                 __ptext20 0B09  
                               __ptext12 0182                                 __ptext21 0626  
                               __ptext13 057D                                 __ptext30 0997  
                               __ptext22 0BAF                                 __ptext14 08AE  
                               __ptext31 17F7                                 __ptext23 0D6D  
                               __ptext15 086E                                 __ptext40 0A48  
                               __ptext32 091D                                 __ptext24 0767  
                               __ptext16 09ED                                 __ptext41 0423  
                               __ptext33 0800                                 __ptext25 02A6  
                               __ptext17 0834                                 __ptext42 0C75  
                               __ptext34 08F5                                 __ptext26 0C0B  
                               __ptext18 0B54                                 __ptext43 0CEF  
                               __ptext35 06C8                                 __ptext27 0E6E  
                               __ptext19 0A1A                                 __ptext44 0DEB  
                               __ptext36 0850                                 __ptext28 002C  
                               __ptext37 0EF1                                 __ptext29 0AC5  
                               __ptext38 08D0                                 __ptext39 0A82  
                        ?i1_init_alcohol 0070         __end_of_APP_DeviceCustomHIDTasks 057D  
         __end_of_USBCtrlTrfSetupHandler 0B54                        ?_USBCtrlEPService 0070  
                     ??_USBCtrlEPService 0060                      _USBCtrlTrfInHandler 0CEF  
                               _outPipes 0160                     _USBCtrlTrfOutHandler 0A48  
                               int$flags 007E                  ?i1_USBTransferOnePacket 0070  
              _USBCtrlEPAllowStatusStage 0C75                   ??_USBTransferOnePacket 00E4  
         ?_APP_DeviceCustomHIDInitialize 0070                _USBDeferStatusStagePacket 0169  
                       i1USBDeviceInit@i 0074                         i1USBDeviceInit@p 0071  
                             _INTCONbits 000B                 i1SYSTEM_Initialize@state 0075  
                   ?_USBCtrlTrfInHandler 0070                                 memcpy@d1 0078  
                               memcpy@s1 0070            USBCtrlTrfTxService@byteToSend 0072  
                       ?_USBStallHandler 0070                 USBStdFeatureReqHandler@p 005B  
                               intlevel1 0000                               i1_LED_Init 0800  
__end_of_USER_USB_CALLBACK_EVENT_HANDLER 0B09         ?_USER_USB_CALLBACK_EVENT_HANDLER 0050  
      ??_USER_USB_CALLBACK_EVENT_HANDLER 007E          _USER_USB_CALLBACK_EVENT_HANDLER 0AC5  
                      ??i1_USBDeviceInit 0070           __end_ofi1_USBTransferOnePacket 0F78  
                 ??_USBConfigureEndpoint 0071                    ?_USBCtrlTrfOutHandler 0070  
                    _USBCtrlTrfRxService 0423                       _USBWakeFromSuspend 08AE  
                _USBStdFeatureReqHandler 002C                      _USBCtrlTrfTxService 0DEB  
                          __pstringtext1 1094                            __pstringtext2 1804  
                          __pstringtext3 1000                            __pstringtext4 1029  
                          __pstringtext5 1049                            __pstringtext6 1066  
                          __pstringtext7 1082                            __pstringtext8 1800  
                    ?_USBWakeFromSuspend 0070                    ??_USBCtrlTrfInHandler 0073  
                  _USBAlternateInterface 016E                      USBEnableEndpoint@ep 007C  
                        _endpoint_number 016A                     ?_USBCtrlTrfRxService 0070  
               ?_USBCtrlEPAllowDataStage 0070                     ?_USBCtrlTrfTxService 0070  
           _USBStatusStageTimeoutCounter 01B3                     ??_USBWakeFromSuspend 0056  
             USBTransferOnePacket@handle 00E9                               _USB_CD_Ptr 1804  
                            _USBInHandle 01AA                 _APP_DeviceCustomHIDTasks 04D1  
