

Microchip MPLAB XC8 Assembler V2.35 build 20211206165544 
                                                                                               Thu May 19 15:16:02 2022

Microchip MPLAB XC8 C Compiler v2.35 (Free license) build 20211206165544 Og1 
     1                           	processor	16F1459
     2                           	pagewidth 120
     3                           	opt	flic
     4                           	psect	stringtext1,global,class=STRCODE,delta=2,noexec
     5                           	psect	stringtext2,global,class=STRCODE,delta=2,noexec
     6                           	psect	stringtext3,global,class=STRCODE,delta=2,noexec
     7                           	psect	stringtext4,global,class=STRCODE,delta=2,noexec
     8                           	psect	stringtext5,global,class=STRCODE,delta=2,noexec
     9                           	psect	stringtext6,global,class=STRCODE,delta=2,noexec
    10                           	psect	stringtext7,global,class=STRCODE,delta=2,noexec
    11                           	psect	stringtext8,global,class=STRCODE,delta=2,noexec
    12                           	psect	cinit,global,class=CODE,merge=1,delta=2
    13                           	psect	bssBANK0,global,class=BANK0,space=1,delta=1,noexec
    14                           	psect	bssBANK1,global,class=BANK1,space=1,delta=1,noexec
    15                           	psect	bssBANK2,global,class=BANK2,space=1,delta=1,noexec
    16                           	psect	bssBANK3,global,class=BANK3,space=1,delta=1,noexec
    17                           	psect	clrtext,global,class=CODE,delta=2
    18                           	psect	cstackBANK1,global,class=BANK1,space=1,delta=1,noexec
    19                           	psect	cstackCOMMON,global,class=COMMON,space=1,delta=1,noexec
    20                           	psect	cstackBANK0,global,class=BANK0,space=1,delta=1,noexec
    21                           	psect	maintext,global,class=CODE,merge=1,split=1,delta=2
    22                           	psect	text1,local,class=CODE,merge=1,delta=2
    23                           	psect	text2,local,class=CODE,merge=1,delta=2
    24                           	psect	text3,local,class=CODE,merge=1,delta=2
    25                           	psect	text4,local,class=CODE,merge=1,delta=2
    26                           	psect	text5,local,class=CODE,merge=1,delta=2
    27                           	psect	text6,local,class=CODE,merge=1,delta=2
    28                           	psect	text7,local,class=CODE,merge=1,delta=2
    29                           	psect	text8,local,class=CODE,merge=1,delta=2
    30                           	psect	text9,local,class=CODE,merge=1,delta=2
    31                           	psect	text10,local,class=CODE,merge=1,delta=2
    32                           	psect	intentry,global,class=CODE,delta=2
    33                           	psect	text12,local,class=CODE,merge=1,delta=2
    34                           	psect	text13,local,class=CODE,merge=1,delta=2
    35                           	psect	text14,local,class=CODE,merge=1,delta=2
    36                           	psect	text15,local,class=CODE,merge=1,delta=2
    37                           	psect	text16,local,class=CODE,merge=1,delta=2
    38                           	psect	text17,local,class=CODE,merge=1,delta=2
    39                           	psect	text18,local,class=CODE,merge=1,delta=2
    40                           	psect	text19,local,class=CODE,merge=1,delta=2,group=2
    41                           	psect	text20,local,class=CODE,merge=1,delta=2
    42                           	psect	text21,local,class=CODE,merge=1,delta=2
    43                           	psect	text22,local,class=CODE,merge=1,delta=2
    44                           	psect	text23,local,class=CODE,merge=1,delta=2
    45                           	psect	text24,local,class=CODE,merge=1,delta=2
    46                           	psect	text25,local,class=CODE,merge=1,delta=2,group=2
    47                           	psect	text26,local,class=CODE,merge=1,delta=2
    48                           	psect	text27,local,class=CODE,merge=1,delta=2
    49                           	psect	text28,local,class=CODE,merge=1,delta=2
    50                           	psect	text29,local,class=CODE,merge=1,delta=2
    51                           	psect	text30,local,class=CODE,merge=1,delta=2
    52                           	psect	text31,local,class=CODE,merge=1,delta=2
    53                           	psect	text32,local,class=CODE,merge=1,delta=2
    54                           	psect	text33,local,class=CODE,merge=1,delta=2
    55                           	psect	text34,local,class=CODE,merge=1,delta=2
    56                           	psect	text35,local,class=CODE,merge=1,delta=2
    57                           	psect	text36,local,class=CODE,merge=1,delta=2
    58                           	psect	text37,local,class=CODE,merge=1,delta=2
    59                           	psect	text38,local,class=CODE,merge=1,delta=2
    60                           	psect	text39,local,class=CODE,merge=1,delta=2
    61                           	psect	text40,local,class=CODE,merge=1,delta=2
    62                           	psect	text41,local,class=CODE,merge=1,delta=2
    63                           	psect	text42,local,class=CODE,merge=1,delta=2
    64                           	psect	text43,local,class=CODE,merge=1,delta=2
    65                           	psect	text44,local,class=CODE,merge=1,delta=2
    66                           	psect	config,global,abs,ovrld,class=CONFIG,space=4,delta=2,noexec
    67                           	dabs	1,0x20,32,_BDT
    68                           	dabs	1,0x48,8,_CtrlTrfData
    69                           	dabs	1,0x40,8,_SetupPkt
    70                           	dabs	1,0xA0,64,_ReceivedDataBuffer
    71                           	dabs	1,0x120,64,_ToSendDataBuffer
    72                           	dabs	1,0x7E,2
    73  0000                     
    74                           ; Version 2.20
    75                           ; Generated 12/02/2020 GMT
    76                           ; 
    77                           ; Copyright © 2020, Microchip Technology Inc. and its subsidiaries ("Microchip")
    78                           ; All rights reserved.
    79                           ; 
    80                           ; This software is developed by Microchip Technology Inc. and its subsidiaries ("Microch
      +                          ip").
    81                           ; 
    82                           ; Redistribution and use in source and binary forms, with or without modification, are
    83                           ; permitted provided that the following conditions are met:
    84                           ; 
    85                           ;     1. Redistributions of source code must retain the above copyright notice, this lis
      +                          t of
    86                           ;        conditions and the following disclaimer.
    87                           ; 
    88                           ;     2. Redistributions in binary form must reproduce the above copyright notice, this 
      +                          list
    89                           ;        of conditions and the following disclaimer in the documentation and/or other
    90                           ;        materials provided with the distribution.
    91                           ; 
    92                           ;     3. Microchip's name may not be used to endorse or promote products derived from th
      +                          is
    93                           ;        software without specific prior written permission.
    94                           ; 
    95                           ; THIS SOFTWARE IS PROVIDED BY MICROCHIP "AS IS" AND ANY EXPRESS OR IMPLIED WARRANTIES,
    96                           ; INCLUDING, BUT NOT LIMITED TO, THE IMPLIED WARRANTIES OF MERCHANTABILITY AND FITNESS F
      +                          OR
    97                           ; PURPOSE ARE DISCLAIMED.  IN NO EVENT SHALL MICROCHIP BE LIABLE FOR ANY DIRECT, INDIREC
      +                          T,
    98                           ; INCIDENTAL, SPECIAL, EXEMPLARY, OR CONSEQUENTIAL DAMAGES (INCLUDING BUT NOT LIMITED TO
    99                           ; PROCUREMENT OF SUBSTITUTE GOODS OR SERVICES; LOSS OF USE, DATA OR PROFITS; OR BUSINESS
   100                           ; INTERRUPTION) HOWSOEVER CAUSED AND ON ANY THEORY OF LIABILITY, WHETHER IN CONTRACT, ST
      +                          RICT
   101                           ; LIABILITY, OR TORT (INCLUDING NEGLIGENCE OR OTHERWISE) ARISING IN ANY WAY OUT OF THE U
      +                          SE OF
   102                           ; THIS SOFTWARE, EVEN IF ADVISED OF THE POSSIBILITY OF SUCH DAMAGE.
   103                           ; 
   104                           ; 
   105                           ; Code-generator required, PIC16F1459 Definitions
   106                           ; 
   107                           ; SFR Addresses
   108  0000                     	;# 
   109  0001                     	;# 
   110  0002                     	;# 
   111  0003                     	;# 
   112  0004                     	;# 
   113  0005                     	;# 
   114  0006                     	;# 
   115  0007                     	;# 
   116  0008                     	;# 
   117  0009                     	;# 
   118  000A                     	;# 
   119  000B                     	;# 
   120  000C                     	;# 
   121  000D                     	;# 
   122  000E                     	;# 
   123  0011                     	;# 
   124  0012                     	;# 
   125  0015                     	;# 
   126  0016                     	;# 
   127  0016                     	;# 
   128  0017                     	;# 
   129  0018                     	;# 
   130  0019                     	;# 
   131  001A                     	;# 
   132  001B                     	;# 
   133  001C                     	;# 
   134  008C                     	;# 
   135  008D                     	;# 
   136  008E                     	;# 
   137  0091                     	;# 
   138  0092                     	;# 
   139  0095                     	;# 
   140  0096                     	;# 
   141  0097                     	;# 
   142  0098                     	;# 
   143  0099                     	;# 
   144  009A                     	;# 
   145  009B                     	;# 
   146  009B                     	;# 
   147  009C                     	;# 
   148  009D                     	;# 
   149  009E                     	;# 
   150  009F                     	;# 
   151  010C                     	;# 
   152  010D                     	;# 
   153  010E                     	;# 
   154  0111                     	;# 
   155  0112                     	;# 
   156  0113                     	;# 
   157  0114                     	;# 
   158  0115                     	;# 
   159  0116                     	;# 
   160  0117                     	;# 
   161  0118                     	;# 
   162  0119                     	;# 
   163  011D                     	;# 
   164  018C                     	;# 
   165  018D                     	;# 
   166  018E                     	;# 
   167  0191                     	;# 
   168  0191                     	;# 
   169  0192                     	;# 
   170  0193                     	;# 
   171  0193                     	;# 
   172  0194                     	;# 
   173  0195                     	;# 
   174  0196                     	;# 
   175  0197                     	;# 
   176  0199                     	;# 
   177  019A                     	;# 
   178  019B                     	;# 
   179  019B                     	;# 
   180  019C                     	;# 
   181  019D                     	;# 
   182  019E                     	;# 
   183  019F                     	;# 
   184  020C                     	;# 
   185  020D                     	;# 
   186  0211                     	;# 
   187  0211                     	;# 
   188  0212                     	;# 
   189  0212                     	;# 
   190  0213                     	;# 
   191  0213                     	;# 
   192  0214                     	;# 
   193  0214                     	;# 
   194  0215                     	;# 
   195  0215                     	;# 
   196  0215                     	;# 
   197  0216                     	;# 
   198  0216                     	;# 
   199  0217                     	;# 
   200  0217                     	;# 
   201  0391                     	;# 
   202  0392                     	;# 
   203  0393                     	;# 
   204  0394                     	;# 
   205  0395                     	;# 
   206  0396                     	;# 
   207  039A                     	;# 
   208  039B                     	;# 
   209  0611                     	;# 
   210  0612                     	;# 
   211  0613                     	;# 
   212  0613                     	;# 
   213  0614                     	;# 
   214  0615                     	;# 
   215  0616                     	;# 
   216  0616                     	;# 
   217  0691                     	;# 
   218  0692                     	;# 
   219  0693                     	;# 
   220  0694                     	;# 
   221  0695                     	;# 
   222  0E8E                     	;# 
   223  0E8F                     	;# 
   224  0E90                     	;# 
   225  0E91                     	;# 
   226  0E92                     	;# 
   227  0E93                     	;# 
   228  0E94                     	;# 
   229  0E94                     	;# 
   230  0E95                     	;# 
   231  0E96                     	;# 
   232  0E97                     	;# 
   233  0E98                     	;# 
   234  0E99                     	;# 
   235  0E9A                     	;# 
   236  0E9B                     	;# 
   237  0E9C                     	;# 
   238  0E9D                     	;# 
   239  0E9E                     	;# 
   240  0E9F                     	;# 
   241  0FE4                     	;# 
   242  0FE5                     	;# 
   243  0FE6                     	;# 
   244  0FE7                     	;# 
   245  0FE8                     	;# 
   246  0FE9                     	;# 
   247  0FEA                     	;# 
   248  0FEB                     	;# 
   249  0FED                     	;# 
   250  0FEE                     	;# 
   251  0FEF                     	;# 
   252  0000                     	;# 
   253  0001                     	;# 
   254  0002                     	;# 
   255  0003                     	;# 
   256  0004                     	;# 
   257  0005                     	;# 
   258  0006                     	;# 
   259  0007                     	;# 
   260  0008                     	;# 
   261  0009                     	;# 
   262  000A                     	;# 
   263  000B                     	;# 
   264  000C                     	;# 
   265  000D                     	;# 
   266  000E                     	;# 
   267  0011                     	;# 
   268  0012                     	;# 
   269  0015                     	;# 
   270  0016                     	;# 
   271  0016                     	;# 
   272  0017                     	;# 
   273  0018                     	;# 
   274  0019                     	;# 
   275  001A                     	;# 
   276  001B                     	;# 
   277  001C                     	;# 
   278  008C                     	;# 
   279  008D                     	;# 
   280  008E                     	;# 
   281  0091                     	;# 
   282  0092                     	;# 
   283  0095                     	;# 
   284  0096                     	;# 
   285  0097                     	;# 
   286  0098                     	;# 
   287  0099                     	;# 
   288  009A                     	;# 
   289  009B                     	;# 
   290  009B                     	;# 
   291  009C                     	;# 
   292  009D                     	;# 
   293  009E                     	;# 
   294  009F                     	;# 
   295  010C                     	;# 
   296  010D                     	;# 
   297  010E                     	;# 
   298  0111                     	;# 
   299  0112                     	;# 
   300  0113                     	;# 
   301  0114                     	;# 
   302  0115                     	;# 
   303  0116                     	;# 
   304  0117                     	;# 
   305  0118                     	;# 
   306  0119                     	;# 
   307  011D                     	;# 
   308  018C                     	;# 
   309  018D                     	;# 
   310  018E                     	;# 
   311  0191                     	;# 
   312  0191                     	;# 
   313  0192                     	;# 
   314  0193                     	;# 
   315  0193                     	;# 
   316  0194                     	;# 
   317  0195                     	;# 
   318  0196                     	;# 
   319  0197                     	;# 
   320  0199                     	;# 
   321  019A                     	;# 
   322  019B                     	;# 
   323  019B                     	;# 
   324  019C                     	;# 
   325  019D                     	;# 
   326  019E                     	;# 
   327  019F                     	;# 
   328  020C                     	;# 
   329  020D                     	;# 
   330  0211                     	;# 
   331  0211                     	;# 
   332  0212                     	;# 
   333  0212                     	;# 
   334  0213                     	;# 
   335  0213                     	;# 
   336  0214                     	;# 
   337  0214                     	;# 
   338  0215                     	;# 
   339  0215                     	;# 
   340  0215                     	;# 
   341  0216                     	;# 
   342  0216                     	;# 
   343  0217                     	;# 
   344  0217                     	;# 
   345  0391                     	;# 
   346  0392                     	;# 
   347  0393                     	;# 
   348  0394                     	;# 
   349  0395                     	;# 
   350  0396                     	;# 
   351  039A                     	;# 
   352  039B                     	;# 
   353  0611                     	;# 
   354  0612                     	;# 
   355  0613                     	;# 
   356  0613                     	;# 
   357  0614                     	;# 
   358  0615                     	;# 
   359  0616                     	;# 
   360  0616                     	;# 
   361  0691                     	;# 
   362  0692                     	;# 
   363  0693                     	;# 
   364  0694                     	;# 
   365  0695                     	;# 
   366  0E8E                     	;# 
   367  0E8F                     	;# 
   368  0E90                     	;# 
   369  0E91                     	;# 
   370  0E92                     	;# 
   371  0E93                     	;# 
   372  0E94                     	;# 
   373  0E94                     	;# 
   374  0E95                     	;# 
   375  0E96                     	;# 
   376  0E97                     	;# 
   377  0E98                     	;# 
   378  0E99                     	;# 
   379  0E9A                     	;# 
   380  0E9B                     	;# 
   381  0E9C                     	;# 
   382  0E9D                     	;# 
   383  0E9E                     	;# 
   384  0E9F                     	;# 
   385  0FE4                     	;# 
   386  0FE5                     	;# 
   387  0FE6                     	;# 
   388  0FE7                     	;# 
   389  0FE8                     	;# 
   390  0FE9                     	;# 
   391  0FEA                     	;# 
   392  0FEB                     	;# 
   393  0FED                     	;# 
   394  0FEE                     	;# 
   395  0FEF                     	;# 
   396  0000                     	;# 
   397  0001                     	;# 
   398  0002                     	;# 
   399  0003                     	;# 
   400  0004                     	;# 
   401  0005                     	;# 
   402  0006                     	;# 
   403  0007                     	;# 
   404  0008                     	;# 
   405  0009                     	;# 
   406  000A                     	;# 
   407  000B                     	;# 
   408  000C                     	;# 
   409  000D                     	;# 
   410  000E                     	;# 
   411  0011                     	;# 
   412  0012                     	;# 
   413  0015                     	;# 
   414  0016                     	;# 
   415  0016                     	;# 
   416  0017                     	;# 
   417  0018                     	;# 
   418  0019                     	;# 
   419  001A                     	;# 
   420  001B                     	;# 
   421  001C                     	;# 
   422  008C                     	;# 
   423  008D                     	;# 
   424  008E                     	;# 
   425  0091                     	;# 
   426  0092                     	;# 
   427  0095                     	;# 
   428  0096                     	;# 
   429  0097                     	;# 
   430  0098                     	;# 
   431  0099                     	;# 
   432  009A                     	;# 
   433  009B                     	;# 
   434  009B                     	;# 
   435  009C                     	;# 
   436  009D                     	;# 
   437  009E                     	;# 
   438  009F                     	;# 
   439  010C                     	;# 
   440  010D                     	;# 
   441  010E                     	;# 
   442  0111                     	;# 
   443  0112                     	;# 
   444  0113                     	;# 
   445  0114                     	;# 
   446  0115                     	;# 
   447  0116                     	;# 
   448  0117                     	;# 
   449  0118                     	;# 
   450  0119                     	;# 
   451  011D                     	;# 
   452  018C                     	;# 
   453  018D                     	;# 
   454  018E                     	;# 
   455  0191                     	;# 
   456  0191                     	;# 
   457  0192                     	;# 
   458  0193                     	;# 
   459  0193                     	;# 
   460  0194                     	;# 
   461  0195                     	;# 
   462  0196                     	;# 
   463  0197                     	;# 
   464  0199                     	;# 
   465  019A                     	;# 
   466  019B                     	;# 
   467  019B                     	;# 
   468  019C                     	;# 
   469  019D                     	;# 
   470  019E                     	;# 
   471  019F                     	;# 
   472  020C                     	;# 
   473  020D                     	;# 
   474  0211                     	;# 
   475  0211                     	;# 
   476  0212                     	;# 
   477  0212                     	;# 
   478  0213                     	;# 
   479  0213                     	;# 
   480  0214                     	;# 
   481  0214                     	;# 
   482  0215                     	;# 
   483  0215                     	;# 
   484  0215                     	;# 
   485  0216                     	;# 
   486  0216                     	;# 
   487  0217                     	;# 
   488  0217                     	;# 
   489  0391                     	;# 
   490  0392                     	;# 
   491  0393                     	;# 
   492  0394                     	;# 
   493  0395                     	;# 
   494  0396                     	;# 
   495  039A                     	;# 
   496  039B                     	;# 
   497  0611                     	;# 
   498  0612                     	;# 
   499  0613                     	;# 
   500  0613                     	;# 
   501  0614                     	;# 
   502  0615                     	;# 
   503  0616                     	;# 
   504  0616                     	;# 
   505  0691                     	;# 
   506  0692                     	;# 
   507  0693                     	;# 
   508  0694                     	;# 
   509  0695                     	;# 
   510  0E8E                     	;# 
   511  0E8F                     	;# 
   512  0E90                     	;# 
   513  0E91                     	;# 
   514  0E92                     	;# 
   515  0E93                     	;# 
   516  0E94                     	;# 
   517  0E94                     	;# 
   518  0E95                     	;# 
   519  0E96                     	;# 
   520  0E97                     	;# 
   521  0E98                     	;# 
   522  0E99                     	;# 
   523  0E9A                     	;# 
   524  0E9B                     	;# 
   525  0E9C                     	;# 
   526  0E9D                     	;# 
   527  0E9E                     	;# 
   528  0E9F                     	;# 
   529  0FE4                     	;# 
   530  0FE5                     	;# 
   531  0FE6                     	;# 
   532  0FE7                     	;# 
   533  0FE8                     	;# 
   534  0FE9                     	;# 
   535  0FEA                     	;# 
   536  0FEB                     	;# 
   537  0FED                     	;# 
   538  0FEE                     	;# 
   539  0FEF                     	;# 
   540  0000                     	;# 
   541  0001                     	;# 
   542  0002                     	;# 
   543  0003                     	;# 
   544  0004                     	;# 
   545  0005                     	;# 
   546  0006                     	;# 
   547  0007                     	;# 
   548  0008                     	;# 
   549  0009                     	;# 
   550  000A                     	;# 
   551  000B                     	;# 
   552  000C                     	;# 
   553  000D                     	;# 
   554  000E                     	;# 
   555  0011                     	;# 
   556  0012                     	;# 
   557  0015                     	;# 
   558  0016                     	;# 
   559  0016                     	;# 
   560  0017                     	;# 
   561  0018                     	;# 
   562  0019                     	;# 
   563  001A                     	;# 
   564  001B                     	;# 
   565  001C                     	;# 
   566  008C                     	;# 
   567  008D                     	;# 
   568  008E                     	;# 
   569  0091                     	;# 
   570  0092                     	;# 
   571  0095                     	;# 
   572  0096                     	;# 
   573  0097                     	;# 
   574  0098                     	;# 
   575  0099                     	;# 
   576  009A                     	;# 
   577  009B                     	;# 
   578  009B                     	;# 
   579  009C                     	;# 
   580  009D                     	;# 
   581  009E                     	;# 
   582  009F                     	;# 
   583  010C                     	;# 
   584  010D                     	;# 
   585  010E                     	;# 
   586  0111                     	;# 
   587  0112                     	;# 
   588  0113                     	;# 
   589  0114                     	;# 
   590  0115                     	;# 
   591  0116                     	;# 
   592  0117                     	;# 
   593  0118                     	;# 
   594  0119                     	;# 
   595  011D                     	;# 
   596  018C                     	;# 
   597  018D                     	;# 
   598  018E                     	;# 
   599  0191                     	;# 
   600  0191                     	;# 
   601  0192                     	;# 
   602  0193                     	;# 
   603  0193                     	;# 
   604  0194                     	;# 
   605  0195                     	;# 
   606  0196                     	;# 
   607  0197                     	;# 
   608  0199                     	;# 
   609  019A                     	;# 
   610  019B                     	;# 
   611  019B                     	;# 
   612  019C                     	;# 
   613  019D                     	;# 
   614  019E                     	;# 
   615  019F                     	;# 
   616  020C                     	;# 
   617  020D                     	;# 
   618  0211                     	;# 
   619  0211                     	;# 
   620  0212                     	;# 
   621  0212                     	;# 
   622  0213                     	;# 
   623  0213                     	;# 
   624  0214                     	;# 
   625  0214                     	;# 
   626  0215                     	;# 
   627  0215                     	;# 
   628  0215                     	;# 
   629  0216                     	;# 
   630  0216                     	;# 
   631  0217                     	;# 
   632  0217                     	;# 
   633  0391                     	;# 
   634  0392                     	;# 
   635  0393                     	;# 
   636  0394                     	;# 
   637  0395                     	;# 
   638  0396                     	;# 
   639  039A                     	;# 
   640  039B                     	;# 
   641  0611                     	;# 
   642  0612                     	;# 
   643  0613                     	;# 
   644  0613                     	;# 
   645  0614                     	;# 
   646  0615                     	;# 
   647  0616                     	;# 
   648  0616                     	;# 
   649  0691                     	;# 
   650  0692                     	;# 
   651  0693                     	;# 
   652  0694                     	;# 
   653  0695                     	;# 
   654  0E8E                     	;# 
   655  0E8F                     	;# 
   656  0E90                     	;# 
   657  0E91                     	;# 
   658  0E92                     	;# 
   659  0E93                     	;# 
   660  0E94                     	;# 
   661  0E94                     	;# 
   662  0E95                     	;# 
   663  0E96                     	;# 
   664  0E97                     	;# 
   665  0E98                     	;# 
   666  0E99                     	;# 
   667  0E9A                     	;# 
   668  0E9B                     	;# 
   669  0E9C                     	;# 
   670  0E9D                     	;# 
   671  0E9E                     	;# 
   672  0E9F                     	;# 
   673  0FE4                     	;# 
   674  0FE5                     	;# 
   675  0FE6                     	;# 
   676  0FE7                     	;# 
   677  0FE8                     	;# 
   678  0FE9                     	;# 
   679  0FEA                     	;# 
   680  0FEB                     	;# 
   681  0FED                     	;# 
   682  0FEE                     	;# 
   683  0FEF                     	;# 
   684  0000                     	;# 
   685  0001                     	;# 
   686  0002                     	;# 
   687  0003                     	;# 
   688  0004                     	;# 
   689  0005                     	;# 
   690  0006                     	;# 
   691  0007                     	;# 
   692  0008                     	;# 
   693  0009                     	;# 
   694  000A                     	;# 
   695  000B                     	;# 
   696  000C                     	;# 
   697  000D                     	;# 
   698  000E                     	;# 
   699  0011                     	;# 
   700  0012                     	;# 
   701  0015                     	;# 
   702  0016                     	;# 
   703  0016                     	;# 
   704  0017                     	;# 
   705  0018                     	;# 
   706  0019                     	;# 
   707  001A                     	;# 
   708  001B                     	;# 
   709  001C                     	;# 
   710  008C                     	;# 
   711  008D                     	;# 
   712  008E                     	;# 
   713  0091                     	;# 
   714  0092                     	;# 
   715  0095                     	;# 
   716  0096                     	;# 
   717  0097                     	;# 
   718  0098                     	;# 
   719  0099                     	;# 
   720  009A                     	;# 
   721  009B                     	;# 
   722  009B                     	;# 
   723  009C                     	;# 
   724  009D                     	;# 
   725  009E                     	;# 
   726  009F                     	;# 
   727  010C                     	;# 
   728  010D                     	;# 
   729  010E                     	;# 
   730  0111                     	;# 
   731  0112                     	;# 
   732  0113                     	;# 
   733  0114                     	;# 
   734  0115                     	;# 
   735  0116                     	;# 
   736  0117                     	;# 
   737  0118                     	;# 
   738  0119                     	;# 
   739  011D                     	;# 
   740  018C                     	;# 
   741  018D                     	;# 
   742  018E                     	;# 
   743  0191                     	;# 
   744  0191                     	;# 
   745  0192                     	;# 
   746  0193                     	;# 
   747  0193                     	;# 
   748  0194                     	;# 
   749  0195                     	;# 
   750  0196                     	;# 
   751  0197                     	;# 
   752  0199                     	;# 
   753  019A                     	;# 
   754  019B                     	;# 
   755  019B                     	;# 
   756  019C                     	;# 
   757  019D                     	;# 
   758  019E                     	;# 
   759  019F                     	;# 
   760  020C                     	;# 
   761  020D                     	;# 
   762  0211                     	;# 
   763  0211                     	;# 
   764  0212                     	;# 
   765  0212                     	;# 
   766  0213                     	;# 
   767  0213                     	;# 
   768  0214                     	;# 
   769  0214                     	;# 
   770  0215                     	;# 
   771  0215                     	;# 
   772  0215                     	;# 
   773  0216                     	;# 
   774  0216                     	;# 
   775  0217                     	;# 
   776  0217                     	;# 
   777  0391                     	;# 
   778  0392                     	;# 
   779  0393                     	;# 
   780  0394                     	;# 
   781  0395                     	;# 
   782  0396                     	;# 
   783  039A                     	;# 
   784  039B                     	;# 
   785  0611                     	;# 
   786  0612                     	;# 
   787  0613                     	;# 
   788  0613                     	;# 
   789  0614                     	;# 
   790  0615                     	;# 
   791  0616                     	;# 
   792  0616                     	;# 
   793  0691                     	;# 
   794  0692                     	;# 
   795  0693                     	;# 
   796  0694                     	;# 
   797  0695                     	;# 
   798  0E8E                     	;# 
   799  0E8F                     	;# 
   800  0E90                     	;# 
   801  0E91                     	;# 
   802  0E92                     	;# 
   803  0E93                     	;# 
   804  0E94                     	;# 
   805  0E94                     	;# 
   806  0E95                     	;# 
   807  0E96                     	;# 
   808  0E97                     	;# 
   809  0E98                     	;# 
   810  0E99                     	;# 
   811  0E9A                     	;# 
   812  0E9B                     	;# 
   813  0E9C                     	;# 
   814  0E9D                     	;# 
   815  0E9E                     	;# 
   816  0E9F                     	;# 
   817  0FE4                     	;# 
   818  0FE5                     	;# 
   819  0FE6                     	;# 
   820  0FE7                     	;# 
   821  0FE8                     	;# 
   822  0FE9                     	;# 
   823  0FEA                     	;# 
   824  0FEB                     	;# 
   825  0FED                     	;# 
   826  0FEE                     	;# 
   827  0FEF                     	;# 
   828  0000                     	;# 
   829  0001                     	;# 
   830  0002                     	;# 
   831  0003                     	;# 
   832  0004                     	;# 
   833  0005                     	;# 
   834  0006                     	;# 
   835  0007                     	;# 
   836  0008                     	;# 
   837  0009                     	;# 
   838  000A                     	;# 
   839  000B                     	;# 
   840  000C                     	;# 
   841  000D                     	;# 
   842  000E                     	;# 
   843  0011                     	;# 
   844  0012                     	;# 
   845  0015                     	;# 
   846  0016                     	;# 
   847  0016                     	;# 
   848  0017                     	;# 
   849  0018                     	;# 
   850  0019                     	;# 
   851  001A                     	;# 
   852  001B                     	;# 
   853  001C                     	;# 
   854  008C                     	;# 
   855  008D                     	;# 
   856  008E                     	;# 
   857  0091                     	;# 
   858  0092                     	;# 
   859  0095                     	;# 
   860  0096                     	;# 
   861  0097                     	;# 
   862  0098                     	;# 
   863  0099                     	;# 
   864  009A                     	;# 
   865  009B                     	;# 
   866  009B                     	;# 
   867  009C                     	;# 
   868  009D                     	;# 
   869  009E                     	;# 
   870  009F                     	;# 
   871  010C                     	;# 
   872  010D                     	;# 
   873  010E                     	;# 
   874  0111                     	;# 
   875  0112                     	;# 
   876  0113                     	;# 
   877  0114                     	;# 
   878  0115                     	;# 
   879  0116                     	;# 
   880  0117                     	;# 
   881  0118                     	;# 
   882  0119                     	;# 
   883  011D                     	;# 
   884  018C                     	;# 
   885  018D                     	;# 
   886  018E                     	;# 
   887  0191                     	;# 
   888  0191                     	;# 
   889  0192                     	;# 
   890  0193                     	;# 
   891  0193                     	;# 
   892  0194                     	;# 
   893  0195                     	;# 
   894  0196                     	;# 
   895  0197                     	;# 
   896  0199                     	;# 
   897  019A                     	;# 
   898  019B                     	;# 
   899  019B                     	;# 
   900  019C                     	;# 
   901  019D                     	;# 
   902  019E                     	;# 
   903  019F                     	;# 
   904  020C                     	;# 
   905  020D                     	;# 
   906  0211                     	;# 
   907  0211                     	;# 
   908  0212                     	;# 
   909  0212                     	;# 
   910  0213                     	;# 
   911  0213                     	;# 
   912  0214                     	;# 
   913  0214                     	;# 
   914  0215                     	;# 
   915  0215                     	;# 
   916  0215                     	;# 
   917  0216                     	;# 
   918  0216                     	;# 
   919  0217                     	;# 
   920  0217                     	;# 
   921  0391                     	;# 
   922  0392                     	;# 
   923  0393                     	;# 
   924  0394                     	;# 
   925  0395                     	;# 
   926  0396                     	;# 
   927  039A                     	;# 
   928  039B                     	;# 
   929  0611                     	;# 
   930  0612                     	;# 
   931  0613                     	;# 
   932  0613                     	;# 
   933  0614                     	;# 
   934  0615                     	;# 
   935  0616                     	;# 
   936  0616                     	;# 
   937  0691                     	;# 
   938  0692                     	;# 
   939  0693                     	;# 
   940  0694                     	;# 
   941  0695                     	;# 
   942  0E8E                     	;# 
   943  0E8F                     	;# 
   944  0E90                     	;# 
   945  0E91                     	;# 
   946  0E92                     	;# 
   947  0E93                     	;# 
   948  0E94                     	;# 
   949  0E94                     	;# 
   950  0E95                     	;# 
   951  0E96                     	;# 
   952  0E97                     	;# 
   953  0E98                     	;# 
   954  0E99                     	;# 
   955  0E9A                     	;# 
   956  0E9B                     	;# 
   957  0E9C                     	;# 
   958  0E9D                     	;# 
   959  0E9E                     	;# 
   960  0E9F                     	;# 
   961  0FE4                     	;# 
   962  0FE5                     	;# 
   963  0FE6                     	;# 
   964  0FE7                     	;# 
   965  0FE8                     	;# 
   966  0FE9                     	;# 
   967  0FEA                     	;# 
   968  0FEB                     	;# 
   969  0FED                     	;# 
   970  0FEE                     	;# 
   971  0FEF                     	;# 
   972  0000                     	;# 
   973  0001                     	;# 
   974  0002                     	;# 
   975  0003                     	;# 
   976  0004                     	;# 
   977  0005                     	;# 
   978  0006                     	;# 
   979  0007                     	;# 
   980  0008                     	;# 
   981  0009                     	;# 
   982  000A                     	;# 
   983  000B                     	;# 
   984  000C                     	;# 
   985  000D                     	;# 
   986  000E                     	;# 
   987  0011                     	;# 
   988  0012                     	;# 
   989  0015                     	;# 
   990  0016                     	;# 
   991  0016                     	;# 
   992  0017                     	;# 
   993  0018                     	;# 
   994  0019                     	;# 
   995  001A                     	;# 
   996  001B                     	;# 
   997  001C                     	;# 
   998  008C                     	;# 
   999  008D                     	;# 
  1000  008E                     	;# 
  1001  0091                     	;# 
  1002  0092                     	;# 
  1003  0095                     	;# 
  1004  0096                     	;# 
  1005  0097                     	;# 
  1006  0098                     	;# 
  1007  0099                     	;# 
  1008  009A                     	;# 
  1009  009B                     	;# 
  1010  009B                     	;# 
  1011  009C                     	;# 
  1012  009D                     	;# 
  1013  009E                     	;# 
  1014  009F                     	;# 
  1015  010C                     	;# 
  1016  010D                     	;# 
  1017  010E                     	;# 
  1018  0111                     	;# 
  1019  0112                     	;# 
  1020  0113                     	;# 
  1021  0114                     	;# 
  1022  0115                     	;# 
  1023  0116                     	;# 
  1024  0117                     	;# 
  1025  0118                     	;# 
  1026  0119                     	;# 
  1027  011D                     	;# 
  1028  018C                     	;# 
  1029  018D                     	;# 
  1030  018E                     	;# 
  1031  0191                     	;# 
  1032  0191                     	;# 
  1033  0192                     	;# 
  1034  0193                     	;# 
  1035  0193                     	;# 
  1036  0194                     	;# 
  1037  0195                     	;# 
  1038  0196                     	;# 
  1039  0197                     	;# 
  1040  0199                     	;# 
  1041  019A                     	;# 
  1042  019B                     	;# 
  1043  019B                     	;# 
  1044  019C                     	;# 
  1045  019D                     	;# 
  1046  019E                     	;# 
  1047  019F                     	;# 
  1048  020C                     	;# 
  1049  020D                     	;# 
  1050  0211                     	;# 
  1051  0211                     	;# 
  1052  0212                     	;# 
  1053  0212                     	;# 
  1054  0213                     	;# 
  1055  0213                     	;# 
  1056  0214                     	;# 
  1057  0214                     	;# 
  1058  0215                     	;# 
  1059  0215                     	;# 
  1060  0215                     	;# 
  1061  0216                     	;# 
  1062  0216                     	;# 
  1063  0217                     	;# 
  1064  0217                     	;# 
  1065  0391                     	;# 
  1066  0392                     	;# 
  1067  0393                     	;# 
  1068  0394                     	;# 
  1069  0395                     	;# 
  1070  0396                     	;# 
  1071  039A                     	;# 
  1072  039B                     	;# 
  1073  0611                     	;# 
  1074  0612                     	;# 
  1075  0613                     	;# 
  1076  0613                     	;# 
  1077  0614                     	;# 
  1078  0615                     	;# 
  1079  0616                     	;# 
  1080  0616                     	;# 
  1081  0691                     	;# 
  1082  0692                     	;# 
  1083  0693                     	;# 
  1084  0694                     	;# 
  1085  0695                     	;# 
  1086  0E8E                     	;# 
  1087  0E8F                     	;# 
  1088  0E90                     	;# 
  1089  0E91                     	;# 
  1090  0E92                     	;# 
  1091  0E93                     	;# 
  1092  0E94                     	;# 
  1093  0E94                     	;# 
  1094  0E95                     	;# 
  1095  0E96                     	;# 
  1096  0E97                     	;# 
  1097  0E98                     	;# 
  1098  0E99                     	;# 
  1099  0E9A                     	;# 
  1100  0E9B                     	;# 
  1101  0E9C                     	;# 
  1102  0E9D                     	;# 
  1103  0E9E                     	;# 
  1104  0E9F                     	;# 
  1105  0FE4                     	;# 
  1106  0FE5                     	;# 
  1107  0FE6                     	;# 
  1108  0FE7                     	;# 
  1109  0FE8                     	;# 
  1110  0FE9                     	;# 
  1111  0FEA                     	;# 
  1112  0FEB                     	;# 
  1113  0FED                     	;# 
  1114  0FEE                     	;# 
  1115  0FEF                     	;# 
  1116  0000                     	;# 
  1117  0001                     	;# 
  1118  0002                     	;# 
  1119  0003                     	;# 
  1120  0004                     	;# 
  1121  0005                     	;# 
  1122  0006                     	;# 
  1123  0007                     	;# 
  1124  0008                     	;# 
  1125  0009                     	;# 
  1126  000A                     	;# 
  1127  000B                     	;# 
  1128  000C                     	;# 
  1129  000D                     	;# 
  1130  000E                     	;# 
  1131  0011                     	;# 
  1132  0012                     	;# 
  1133  0015                     	;# 
  1134  0016                     	;# 
  1135  0016                     	;# 
  1136  0017                     	;# 
  1137  0018                     	;# 
  1138  0019                     	;# 
  1139  001A                     	;# 
  1140  001B                     	;# 
  1141  001C                     	;# 
  1142  008C                     	;# 
  1143  008D                     	;# 
  1144  008E                     	;# 
  1145  0091                     	;# 
  1146  0092                     	;# 
  1147  0095                     	;# 
  1148  0096                     	;# 
  1149  0097                     	;# 
  1150  0098                     	;# 
  1151  0099                     	;# 
  1152  009A                     	;# 
  1153  009B                     	;# 
  1154  009B                     	;# 
  1155  009C                     	;# 
  1156  009D                     	;# 
  1157  009E                     	;# 
  1158  009F                     	;# 
  1159  010C                     	;# 
  1160  010D                     	;# 
  1161  010E                     	;# 
  1162  0111                     	;# 
  1163  0112                     	;# 
  1164  0113                     	;# 
  1165  0114                     	;# 
  1166  0115                     	;# 
  1167  0116                     	;# 
  1168  0117                     	;# 
  1169  0118                     	;# 
  1170  0119                     	;# 
  1171  011D                     	;# 
  1172  018C                     	;# 
  1173  018D                     	;# 
  1174  018E                     	;# 
  1175  0191                     	;# 
  1176  0191                     	;# 
  1177  0192                     	;# 
  1178  0193                     	;# 
  1179  0193                     	;# 
  1180  0194                     	;# 
  1181  0195                     	;# 
  1182  0196                     	;# 
  1183  0197                     	;# 
  1184  0199                     	;# 
  1185  019A                     	;# 
  1186  019B                     	;# 
  1187  019B                     	;# 
  1188  019C                     	;# 
  1189  019D                     	;# 
  1190  019E                     	;# 
  1191  019F                     	;# 
  1192  020C                     	;# 
  1193  020D                     	;# 
  1194  0211                     	;# 
  1195  0211                     	;# 
  1196  0212                     	;# 
  1197  0212                     	;# 
  1198  0213                     	;# 
  1199  0213                     	;# 
  1200  0214                     	;# 
  1201  0214                     	;# 
  1202  0215                     	;# 
  1203  0215                     	;# 
  1204  0215                     	;# 
  1205  0216                     	;# 
  1206  0216                     	;# 
  1207  0217                     	;# 
  1208  0217                     	;# 
  1209  0391                     	;# 
  1210  0392                     	;# 
  1211  0393                     	;# 
  1212  0394                     	;# 
  1213  0395                     	;# 
  1214  0396                     	;# 
  1215  039A                     	;# 
  1216  039B                     	;# 
  1217  0611                     	;# 
  1218  0612                     	;# 
  1219  0613                     	;# 
  1220  0613                     	;# 
  1221  0614                     	;# 
  1222  0615                     	;# 
  1223  0616                     	;# 
  1224  0616                     	;# 
  1225  0691                     	;# 
  1226  0692                     	;# 
  1227  0693                     	;# 
  1228  0694                     	;# 
  1229  0695                     	;# 
  1230  0E8E                     	;# 
  1231  0E8F                     	;# 
  1232  0E90                     	;# 
  1233  0E91                     	;# 
  1234  0E92                     	;# 
  1235  0E93                     	;# 
  1236  0E94                     	;# 
  1237  0E94                     	;# 
  1238  0E95                     	;# 
  1239  0E96                     	;# 
  1240  0E97                     	;# 
  1241  0E98                     	;# 
  1242  0E99                     	;# 
  1243  0E9A                     	;# 
  1244  0E9B                     	;# 
  1245  0E9C                     	;# 
  1246  0E9D                     	;# 
  1247  0E9E                     	;# 
  1248  0E9F                     	;# 
  1249  0FE4                     	;# 
  1250  0FE5                     	;# 
  1251  0FE6                     	;# 
  1252  0FE7                     	;# 
  1253  0FE8                     	;# 
  1254  0FE9                     	;# 
  1255  0FEA                     	;# 
  1256  0FEB                     	;# 
  1257  0FED                     	;# 
  1258  0FEE                     	;# 
  1259  0FEF                     	;# 
  1260  0000                     	;# 
  1261  0001                     	;# 
  1262  0002                     	;# 
  1263  0003                     	;# 
  1264  0004                     	;# 
  1265  0005                     	;# 
  1266  0006                     	;# 
  1267  0007                     	;# 
  1268  0008                     	;# 
  1269  0009                     	;# 
  1270  000A                     	;# 
  1271  000B                     	;# 
  1272  000C                     	;# 
  1273  000D                     	;# 
  1274  000E                     	;# 
  1275  0011                     	;# 
  1276  0012                     	;# 
  1277  0015                     	;# 
  1278  0016                     	;# 
  1279  0016                     	;# 
  1280  0017                     	;# 
  1281  0018                     	;# 
  1282  0019                     	;# 
  1283  001A                     	;# 
  1284  001B                     	;# 
  1285  001C                     	;# 
  1286  008C                     	;# 
  1287  008D                     	;# 
  1288  008E                     	;# 
  1289  0091                     	;# 
  1290  0092                     	;# 
  1291  0095                     	;# 
  1292  0096                     	;# 
  1293  0097                     	;# 
  1294  0098                     	;# 
  1295  0099                     	;# 
  1296  009A                     	;# 
  1297  009B                     	;# 
  1298  009B                     	;# 
  1299  009C                     	;# 
  1300  009D                     	;# 
  1301  009E                     	;# 
  1302  009F                     	;# 
  1303  010C                     	;# 
  1304  010D                     	;# 
  1305  010E                     	;# 
  1306  0111                     	;# 
  1307  0112                     	;# 
  1308  0113                     	;# 
  1309  0114                     	;# 
  1310  0115                     	;# 
  1311  0116                     	;# 
  1312  0117                     	;# 
  1313  0118                     	;# 
  1314  0119                     	;# 
  1315  011D                     	;# 
  1316  018C                     	;# 
  1317  018D                     	;# 
  1318  018E                     	;# 
  1319  0191                     	;# 
  1320  0191                     	;# 
  1321  0192                     	;# 
  1322  0193                     	;# 
  1323  0193                     	;# 
  1324  0194                     	;# 
  1325  0195                     	;# 
  1326  0196                     	;# 
  1327  0197                     	;# 
  1328  0199                     	;# 
  1329  019A                     	;# 
  1330  019B                     	;# 
  1331  019B                     	;# 
  1332  019C                     	;# 
  1333  019D                     	;# 
  1334  019E                     	;# 
  1335  019F                     	;# 
  1336  020C                     	;# 
  1337  020D                     	;# 
  1338  0211                     	;# 
  1339  0211                     	;# 
  1340  0212                     	;# 
  1341  0212                     	;# 
  1342  0213                     	;# 
  1343  0213                     	;# 
  1344  0214                     	;# 
  1345  0214                     	;# 
  1346  0215                     	;# 
  1347  0215                     	;# 
  1348  0215                     	;# 
  1349  0216                     	;# 
  1350  0216                     	;# 
  1351  0217                     	;# 
  1352  0217                     	;# 
  1353  0391                     	;# 
  1354  0392                     	;# 
  1355  0393                     	;# 
  1356  0394                     	;# 
  1357  0395                     	;# 
  1358  0396                     	;# 
  1359  039A                     	;# 
  1360  039B                     	;# 
  1361  0611                     	;# 
  1362  0612                     	;# 
  1363  0613                     	;# 
  1364  0613                     	;# 
  1365  0614                     	;# 
  1366  0615                     	;# 
  1367  0616                     	;# 
  1368  0616                     	;# 
  1369  0691                     	;# 
  1370  0692                     	;# 
  1371  0693                     	;# 
  1372  0694                     	;# 
  1373  0695                     	;# 
  1374  0E8E                     	;# 
  1375  0E8F                     	;# 
  1376  0E90                     	;# 
  1377  0E91                     	;# 
  1378  0E92                     	;# 
  1379  0E93                     	;# 
  1380  0E94                     	;# 
  1381  0E94                     	;# 
  1382  0E95                     	;# 
  1383  0E96                     	;# 
  1384  0E97                     	;# 
  1385  0E98                     	;# 
  1386  0E99                     	;# 
  1387  0E9A                     	;# 
  1388  0E9B                     	;# 
  1389  0E9C                     	;# 
  1390  0E9D                     	;# 
  1391  0E9E                     	;# 
  1392  0E9F                     	;# 
  1393  0FE4                     	;# 
  1394  0FE5                     	;# 
  1395  0FE6                     	;# 
  1396  0FE7                     	;# 
  1397  0FE8                     	;# 
  1398  0FE9                     	;# 
  1399  0FEA                     	;# 
  1400  0FEB                     	;# 
  1401  0FED                     	;# 
  1402  0FEE                     	;# 
  1403  0FEF                     	;# 
  1404                           
  1405                           	psect	stringtext1
  1406  1812                     __pstringtext1:
  1407  1812                     _USB_SD_Ptr:
  1408  1812  3418               	retlw	low (_sd000| (0+32768))
  1409  1813  3498               	retlw	high (_sd000| (0+32768))
  1410  1814  3453               	retlw	low (_sd001| (0+32768))
  1411  1815  3490               	retlw	high (_sd001| (0+32768))
  1412  1816  3400               	retlw	low (_sd002| (0+32768))
  1413  1817  3490               	retlw	high (_sd002| (0+32768))
  1414  1818                     __end_of_USB_SD_Ptr:
  1415                           
  1416                           	psect	stringtext2
  1417  181C                     __pstringtext2:
  1418  181C                     _USB_CD_Ptr:
  1419  181C  342A               	retlw	low (_configDescriptor1| (0+32768))
  1420  181D  3490               	retlw	high (_configDescriptor1| (0+32768))
  1421  181E                     __end_of_USB_CD_Ptr:
  1422                           
  1423                           	psect	stringtext3
  1424  1000                     __pstringtext3:
  1425  1000                     _sd002:
  1426  1000  342A               	retlw	42
  1427  1001  3403               	retlw	3
  1428  1002  3441               	retlw	65
  1429  1003  3400               	retlw	0
  1430  1004  346C               	retlw	108
  1431  1005  3400               	retlw	0
  1432  1006  3463               	retlw	99
  1433  1007  3400               	retlw	0
  1434  1008  346F               	retlw	111
  1435  1009  3400               	retlw	0
  1436  100A  3468               	retlw	104
  1437  100B  3400               	retlw	0
  1438  100C  346F               	retlw	111
  1439  100D  3400               	retlw	0
  1440  100E  346C               	retlw	108
  1441  100F  3400               	retlw	0
  1442  1010  3420               	retlw	32
  1443  1011  3400               	retlw	0
  1444  1012  3444               	retlw	68
  1445  1013  3400               	retlw	0
  1446  1014  3472               	retlw	114
  1447  1015  3400               	retlw	0
  1448  1016  3469               	retlw	105
  1449  1017  3400               	retlw	0
  1450  1018  3476               	retlw	118
  1451  1019  3400               	retlw	0
  1452  101A  3465               	retlw	101
  1453  101B  3400               	retlw	0
  1454  101C  3420               	retlw	32
  1455  101D  3400               	retlw	0
  1456  101E  3441               	retlw	65
  1457  101F  3400               	retlw	0
  1458  1020  344C               	retlw	76
  1459  1021  3400               	retlw	0
  1460  1022  3443               	retlw	67
  1461  1023  3400               	retlw	0
  1462  1024  3430               	retlw	48
  1463  1025  3400               	retlw	0
  1464  1026  3430               	retlw	48
  1465  1027  3400               	retlw	0
  1466  1028  3431               	retlw	49
  1467  1029  3400               	retlw	0
  1468  102A                     __end_of_sd002:
  1469                           
  1470                           	psect	stringtext4
  1471  102A                     __pstringtext4:
  1472  102A                     _configDescriptor1:
  1473  102A  3409               	retlw	9
  1474  102B  3402               	retlw	2
  1475  102C  3429               	retlw	41
  1476  102D  3400               	retlw	0
  1477  102E  3401               	retlw	1
  1478  102F  3401               	retlw	1
  1479  1030  3400               	retlw	0
  1480  1031  34C0               	retlw	192
  1481  1032  3432               	retlw	50
  1482  1033  3409               	retlw	9
  1483  1034  3404               	retlw	4
  1484  1035  3400               	retlw	0
  1485  1036  3400               	retlw	0
  1486  1037  3402               	retlw	2
  1487  1038  3403               	retlw	3
  1488  1039  3400               	retlw	0
  1489  103A  3400               	retlw	0
  1490  103B  3400               	retlw	0
  1491  103C  3409               	retlw	9
  1492  103D  3421               	retlw	33
  1493  103E  3411               	retlw	17
  1494  103F  3401               	retlw	1
  1495  1040  3400               	retlw	0
  1496  1041  3401               	retlw	1
  1497  1042  3422               	retlw	34
  1498  1043  341D               	retlw	29
  1499  1044  3400               	retlw	0
  1500  1045  3407               	retlw	7
  1501  1046  3405               	retlw	5
  1502  1047  3481               	retlw	129
  1503  1048  3403               	retlw	3
  1504  1049  3440               	retlw	64
  1505  104A  3400               	retlw	0
  1506  104B  3401               	retlw	1
  1507  104C  3407               	retlw	7
  1508  104D  3405               	retlw	5
  1509  104E  3401               	retlw	1
  1510  104F  3403               	retlw	3
  1511  1050  3440               	retlw	64
  1512  1051  3400               	retlw	0
  1513  1052  3401               	retlw	1
  1514  1053                     __end_of_configDescriptor1:
  1515                           
  1516                           	psect	stringtext5
  1517  1053                     __pstringtext5:
  1518  1053                     _sd001:
  1519  1053  3422               	retlw	34
  1520  1054  3403               	retlw	3
  1521  1055  3447               	retlw	71
  1522  1056  3400               	retlw	0
  1523  1057  3465               	retlw	101
  1524  1058  3400               	retlw	0
  1525  1059  346F               	retlw	111
  1526  105A  3400               	retlw	0
  1527  105B  3472               	retlw	114
  1528  105C  3400               	retlw	0
  1529  105D  3467               	retlw	103
  1530  105E  3400               	retlw	0
  1531  105F  3465               	retlw	101
  1532  1060  3400               	retlw	0
  1533  1061  3420               	retlw	32
  1534  1062  3400               	retlw	0
  1535  1063  3454               	retlw	84
  1536  1064  3400               	retlw	0
  1537  1065  3465               	retlw	101
  1538  1066  3400               	retlw	0
  1539  1067  3463               	retlw	99
  1540  1068  3400               	retlw	0
  1541  1069  3468               	retlw	104
  1542  106A  3400               	retlw	0
  1543  106B  3420               	retlw	32
  1544  106C  3400               	retlw	0
  1545  106D  3449               	retlw	73
  1546  106E  3400               	retlw	0
  1547  106F  346E               	retlw	110
  1548  1070  3400               	retlw	0
  1549  1071  3463               	retlw	99
  1550  1072  3400               	retlw	0
  1551  1073  342E               	retlw	46
  1552  1074  3400               	retlw	0
  1553  1075                     __end_of_sd001:
  1554                           
  1555                           	psect	stringtext6
  1556  1075                     __pstringtext6:
  1557  1075                     _hid_rpt01:
  1558  1075  3406               	retlw	6
  1559  1076  3400               	retlw	0
  1560  1077  34FF               	retlw	255
  1561  1078  3409               	retlw	9
  1562  1079  3401               	retlw	1
  1563  107A  34A1               	retlw	161
  1564  107B  3401               	retlw	1
  1565  107C  3419               	retlw	25
  1566  107D  3401               	retlw	1
  1567  107E  3429               	retlw	41
  1568  107F  3440               	retlw	64
  1569  1080  3415               	retlw	21
  1570  1081  3400               	retlw	0
  1571  1082  3426               	retlw	38
  1572  1083  34FF               	retlw	255
  1573  1084  3400               	retlw	0
  1574  1085  3475               	retlw	117
  1575  1086  3408               	retlw	8
  1576  1087  3495               	retlw	149
  1577  1088  3440               	retlw	64
  1578  1089  3481               	retlw	129
  1579  108A  3400               	retlw	0
  1580  108B  3419               	retlw	25
  1581  108C  3401               	retlw	1
  1582  108D  3429               	retlw	41
  1583  108E  3440               	retlw	64
  1584  108F  3491               	retlw	145
  1585  1090  3400               	retlw	0
  1586  1091  34C0               	retlw	192
  1587  1092                     __end_of_hid_rpt01:
  1588                           
  1589                           	psect	stringtext7
  1590  1800                     __pstringtext7:
  1591  1800                     _device_dsc:
  1592  1800  3412               	retlw	18
  1593  1801  3401               	retlw	1
  1594  1802  3400               	retlw	0
  1595  1803  3402               	retlw	2
  1596  1804  3400               	retlw	0
  1597  1805  3400               	retlw	0
  1598  1806  3400               	retlw	0
  1599  1807  3408               	retlw	8
  1600  1808  34D8               	retlw	216
  1601  1809  3404               	retlw	4
  1602  180A  343F               	retlw	63
  1603  180B  3400               	retlw	0
  1604  180C  3400               	retlw	0
  1605  180D  3401               	retlw	1
  1606  180E  3401               	retlw	1
  1607  180F  3402               	retlw	2
  1608  1810  3400               	retlw	0
  1609  1811  3401               	retlw	1
  1610  1812                     __end_of_device_dsc:
  1611                           
  1612                           	psect	stringtext8
  1613  1818                     __pstringtext8:
  1614  1818                     _sd000:
  1615  1818  3404               	retlw	4
  1616  1819  3403               	retlw	3
  1617  181A  3409               	retlw	9
  1618  181B  3404               	retlw	4
  1619  181C                     __end_of_sd000:
  1620  000C                     _PORTAbits	set	12
  1621  000B                     _INTCONbits	set	11
  1622  0012                     _PIR2bits	set	18
  1623  008C                     _TRISAbits	set	140
  1624  008E                     _TRISCbits	set	142
  1625  0092                     _PIE2bits	set	146
  1626  0099                     _OSCCON	set	153
  1627  010E                     _LATCbits	set	270
  1628  018E                     _ANSELC	set	398
  1629  018C                     _ANSELA	set	396
  1630  039B                     _ACTCON	set	923
  1631  0E98                     _UEP0bits	set	3736
  1632  0E8E                     _UCON	set	3726
  1633  0E8F                     _USTAT	set	3727
  1634  0E92                     _UIEbits	set	3730
  1635  0E90                     _UIRbits	set	3728
  1636  0E96                     _UADDR	set	3734
  1637  0E92                     _UIE	set	3730
  1638  0E97                     _UEIE	set	3735
  1639  0E91                     _UCFG	set	3729
  1640  0E90                     _UIR	set	3728
  1641  0E93                     _UEIR	set	3731
  1642  0E8E                     _UCONbits	set	3726
  1643  0E99                     _UEP1	set	3737
  1644  0E98                     _UEP0	set	3736
  1645                           
  1646                           	psect	cinit
  1647  000D                     start_initialization:	
  1648                           ; #config settings
  1649                           
  1650  000D                     __initialization:
  1651                           
  1652                           ; Clear objects allocated to BANK0
  1653  000D  3065               	movlw	low __pbssBANK0
  1654  000E  0084               	movwf	4
  1655  000F  3000               	movlw	high __pbssBANK0
  1656  0010  0085               	movwf	5
  1657  0011  300B               	movlw	11
  1658  0012  3197  27DE  3180   	fcall	clear_ram0
  1659                           
  1660                           ; Clear objects allocated to BANK1
  1661  0015  0021               	movlb	1	; select bank1
  1662  0016  01EE               	clrf	__pbssBANK1& (0+127)
  1663  0017  01EF               	clrf	(__pbssBANK1+1)& (0+127)
  1664                           
  1665                           ; Clear objects allocated to BANK2
  1666  0018  3060               	movlw	low __pbssBANK2
  1667  0019  0084               	movwf	4
  1668  001A  3001               	movlw	high __pbssBANK2
  1669  001B  0085               	movwf	5
  1670  001C  3010               	movlw	16
  1671  001D  3197  27DE  3180   	fcall	clear_ram0
  1672                           
  1673                           ; Clear objects allocated to BANK3
  1674  0020  30A0               	movlw	low __pbssBANK3
  1675  0021  0084               	movwf	4
  1676  0022  3001               	movlw	high __pbssBANK3
  1677  0023  0085               	movwf	5
  1678  0024  301A               	movlw	26
  1679  0025  3197  27DE  3180   	fcall	clear_ram0
  1680  0028                     end_of_initialization:	
  1681                           ;End of C runtime variable initialization code
  1682                           
  1683  0028                     __end_of__initialization:
  1684  0028  107E               	bcf	int$flags,0	;clear compiler interrupt flag (level 1)
  1685  0029  0020               	movlb	0
  1686  002A  3187  2FEE         	ljmp	_main	;jump to C main() function
  1687                           
  1688                           	psect	bssBANK0
  1689  0065                     __pbssBANK0:
  1690  0065                     _inPipes:
  1691  0065                     	ds	5
  1692  006A                     _pBDTEntryIn:
  1693  006A                     	ds	4
  1694  006E                     _pBDTEntryEP0OutNext:
  1695  006E                     	ds	2
  1696                           
  1697                           	psect	bssBANK1
  1698  00EE                     __pbssBANK1:
  1699  00EE                     _pBDTEntryEP0OutCurrent:
  1700  00EE                     	ds	1
  1701  00EF                     _USBDeviceState:
  1702  00EF                     	ds	1
  1703                           
  1704                           	psect	bssBANK2
  1705  0160                     __pbssBANK2:
  1706  0160                     _outPipes:
  1707  0160                     	ds	7
  1708  0167                     _ep_data_in:
  1709  0167                     	ds	2
  1710  0169                     _USBDeferStatusStagePacket:
  1711  0169                     	ds	1
  1712  016A                     _endpoint_number:
  1713  016A                     	ds	1
  1714  016B                     _controlTransferState:
  1715  016B                     	ds	1
  1716  016C                     _shortPacketStatus:
  1717  016C                     	ds	1
  1718  016D                     _USTATcopy:
  1719  016D                     	ds	1
  1720  016E                     _USBAlternateInterface:
  1721  016E                     	ds	1
  1722  016F                     _USBActiveConfiguration:
  1723  016F                     	ds	1
  1724                           
  1725                           	psect	bssBANK3
  1726  01A0                     __pbssBANK3:
  1727  01A0                     _USB1msTickCount:
  1728  01A0                     	ds	4
  1729  01A4                     _pBDTEntryOut:
  1730  01A4                     	ds	4
  1731  01A8                     _ep_data_out:
  1732  01A8                     	ds	2
  1733  01AA                     _USBInHandle:
  1734  01AA                     	ds	2
  1735  01AC                     _USBOutHandle:
  1736  01AC                     	ds	2
  1737  01AE                     _USBTicksSinceSuspendEnd:
  1738  01AE                     	ds	1
  1739  01AF                     _USBDeferOUTDataStagePackets:
  1740  01AF                     	ds	1
  1741  01B0                     _USBDeferINDataStagePackets:
  1742  01B0                     	ds	1
  1743  01B1                     _USBStatusStageEnabledFlag2:
  1744  01B1                     	ds	1
  1745  01B2                     _USBStatusStageEnabledFlag1:
  1746  01B2                     	ds	1
  1747  01B3                     _USBStatusStageTimeoutCounter:
  1748  01B3                     	ds	1
  1749  01B4                     _BothEP0OutUOWNsSet:
  1750  01B4                     	ds	1
  1751  01B5                     _USBBusIsSuspended:
  1752  01B5                     	ds	1
  1753  01B6                     _RemoteWakeup:
  1754  01B6                     	ds	1
  1755  01B7                     _pDst:
  1756  01B7                     	ds	1
  1757  01B8                     _active_protocol:
  1758  01B8                     	ds	1
  1759  01B9                     _idle_rate:
  1760  01B9                     	ds	1
  1761                           
  1762                           	psect	clrtext
  1763  17DE                     clear_ram0:	
  1764                           ;	Called with FSR0 containing the base address, and
  1765                           ;	WREG with the size to clear
  1766                           
  1767  17DE  0064               	clrwdt	;clear the watchdog before getting into this loop
  1768  17DF                     clrloop0:
  1769  17DF  0180               	clrf	0	;clear RAM location pointed to by FSR
  1770  17E0  3101               	addfsr 0,1
  1771  17E1  0B89               	decfsz	9,f	;Have we reached the end of clearing yet?
  1772  17E2  2FDF               	goto	clrloop0	;have we reached the end yet?
  1773  17E3  3400               	retlw	0	;all done for this memory range, return
  1774                           
  1775                           	psect	cstackBANK1
  1776  00E0                     __pcstackBANK1:
  1777  00E0                     ??_LED_Off:
  1778  00E0                     ??_LED_On:	
  1779                           ; 1 bytes @ 0x0
  1780                           
  1781  00E0                     ??_check_alcohol:	
  1782                           ; 1 bytes @ 0x0
  1783                           
  1784  00E0                     ??_USBDeviceInit:	
  1785                           ; 1 bytes @ 0x0
  1786                           
  1787  00E0                     ??_USBDeviceAttach:	
  1788                           ; 1 bytes @ 0x0
  1789                           
  1790  00E0                     ??_LED_Init:	
  1791                           ; 1 bytes @ 0x0
  1792                           
  1793  00E0                     ??_init_alcohol:	
  1794                           ; 1 bytes @ 0x0
  1795                           
  1796  00E0                     ?_USBTransferOnePacket:	
  1797                           ; 1 bytes @ 0x0
  1798                           
  1799  00E0                     USBTransferOnePacket@dir:	
  1800                           ; 2 bytes @ 0x0
  1801                           
  1802                           
  1803                           ; 1 bytes @ 0x0
  1804  00E0                     	ds	1
  1805  00E1                     USBDeviceInit@p:
  1806  00E1                     USBTransferOnePacket@data:	
  1807                           ; 2 bytes @ 0x1
  1808                           
  1809  00E1                     check_alcohol@max:	
  1810                           ; 2 bytes @ 0x1
  1811                           
  1812                           
  1813                           ; 2 bytes @ 0x1
  1814  00E1                     	ds	1
  1815  00E2                     LED_On@led:
  1816  00E2                     LED_Off@led:	
  1817                           ; 1 bytes @ 0x2
  1818                           
  1819                           
  1820                           ; 1 bytes @ 0x2
  1821  00E2                     	ds	1
  1822  00E3                     ??_SYSTEM_Initialize:
  1823  00E3                     USBDeviceInit@i_878:	
  1824                           ; 1 bytes @ 0x3
  1825                           
  1826  00E3                     USBTransferOnePacket@len:	
  1827                           ; 1 bytes @ 0x3
  1828                           
  1829  00E3                     check_alcohol@i:	
  1830                           ; 1 bytes @ 0x3
  1831                           
  1832                           
  1833                           ; 2 bytes @ 0x3
  1834  00E3                     	ds	1
  1835  00E4                     ??_USBTransferOnePacket:
  1836  00E4                     USBDeviceInit@i:	
  1837                           ; 1 bytes @ 0x4
  1838                           
  1839                           
  1840                           ; 1 bytes @ 0x4
  1841  00E4                     	ds	1
  1842  00E5                     SYSTEM_Initialize@state:
  1843  00E5                     check_alcohol@ret:	
  1844                           ; 1 bytes @ 0x5
  1845                           
  1846                           
  1847                           ; 1 bytes @ 0x5
  1848  00E5                     	ds	3
  1849  00E8                     USBTransferOnePacket@ep:
  1850                           
  1851                           ; 1 bytes @ 0x8
  1852  00E8                     	ds	1
  1853  00E9                     USBTransferOnePacket@handle:
  1854                           
  1855                           ; 2 bytes @ 0x9
  1856  00E9                     	ds	2
  1857  00EB                     ??_APP_DeviceCustomHIDTasks:
  1858                           
  1859                           ; 1 bytes @ 0xB
  1860  00EB                     	ds	2
  1861  00ED                     APP_DeviceCustomHIDTasks@result:
  1862                           
  1863                           ; 1 bytes @ 0xD
  1864  00ED                     	ds	1
  1865  00EE                     ??_main:
  1866                           
  1867                           	psect	cstackCOMMON
  1868  0070                     __pcstackCOMMON:	
  1869                           ; 1 bytes @ 0xE
  1870                           
  1871  0070                     ?_LED_Off:
  1872  0070                     ?_LED_On:	
  1873                           ; 1 bytes @ 0x0
  1874                           
  1875  0070                     ?_check_alcohol:	
  1876                           ; 1 bytes @ 0x0
  1877                           
  1878  0070                     ?_SYSTEM_Initialize:	
  1879                           ; 1 bytes @ 0x0
  1880                           
  1881  0070                     ?_USBDeviceInit:	
  1882                           ; 1 bytes @ 0x0
  1883                           
  1884  0070                     ?_USBDeviceAttach:	
  1885                           ; 1 bytes @ 0x0
  1886                           
  1887  0070                     ?_LED_Init:	
  1888                           ; 1 bytes @ 0x0
  1889                           
  1890  0070                     ?_init_alcohol:	
  1891                           ; 1 bytes @ 0x0
  1892                           
  1893  0070                     ?_USBDeviceTasks:	
  1894                           ; 1 bytes @ 0x0
  1895                           
  1896  0070                     ?_USBWakeFromSuspend:	
  1897                           ; 1 bytes @ 0x0
  1898                           
  1899  0070                     ?_USBSuspend:	
  1900                           ; 1 bytes @ 0x0
  1901                           
  1902  0070                     ?_USBIncrement1msInternalTimers:	
  1903                           ; 1 bytes @ 0x0
  1904                           
  1905  0070                     ??_USBIncrement1msInternalTimers:	
  1906                           ; 1 bytes @ 0x0
  1907                           
  1908  0070                     ?_USBCtrlEPAllowStatusStage:	
  1909                           ; 1 bytes @ 0x0
  1910                           
  1911  0070                     ??_USBCtrlEPAllowStatusStage:	
  1912                           ; 1 bytes @ 0x0
  1913                           
  1914  0070                     ?_USBStallHandler:	
  1915                           ; 1 bytes @ 0x0
  1916                           
  1917  0070                     ??_USBStallHandler:	
  1918                           ; 1 bytes @ 0x0
  1919                           
  1920  0070                     ?_USBCtrlEPService:	
  1921                           ; 1 bytes @ 0x0
  1922                           
  1923  0070                     ?_USBConfigureEndpoint:	
  1924                           ; 1 bytes @ 0x0
  1925                           
  1926  0070                     ?_USBCtrlTrfTxService:	
  1927                           ; 1 bytes @ 0x0
  1928                           
  1929  0070                     ??_USBCtrlTrfTxService:	
  1930                           ; 1 bytes @ 0x0
  1931                           
  1932  0070                     ?_memcpy:	
  1933                           ; 1 bytes @ 0x0
  1934                           
  1935  0070                     ?_USBCtrlTrfSetupHandler:	
  1936                           ; 1 bytes @ 0x0
  1937                           
  1938  0070                     ?_USBCtrlTrfOutHandler:	
  1939                           ; 1 bytes @ 0x0
  1940                           
  1941  0070                     ?_USBCtrlTrfInHandler:	
  1942                           ; 1 bytes @ 0x0
  1943                           
  1944  0070                     ?_USBCheckStdRequest:	
  1945                           ; 1 bytes @ 0x0
  1946                           
  1947  0070                     ?_USBStdFeatureReqHandler:	
  1948                           ; 1 bytes @ 0x0
  1949                           
  1950  0070                     ?_APP_DeviceCustomHIDInitialize:	
  1951                           ; 1 bytes @ 0x0
  1952                           
  1953  0070                     ?_APP_DeviceCustomHIDTasks:	
  1954                           ; 1 bytes @ 0x0
  1955                           
  1956  0070                     ?_main:	
  1957                           ; 1 bytes @ 0x0
  1958                           
  1959  0070                     ?_SYS_InterruptHigh:	
  1960                           ; 1 bytes @ 0x0
  1961                           
  1962  0070                     ?_USBCtrlEPAllowDataStage:	
  1963                           ; 1 bytes @ 0x0
  1964                           
  1965  0070                     ?_USBCtrlEPServiceComplete:	
  1966                           ; 1 bytes @ 0x0
  1967                           
  1968  0070                     ?_USBCtrlTrfRxService:	
  1969                           ; 1 bytes @ 0x0
  1970                           
  1971  0070                     ?_USBStdSetCfgHandler:	
  1972                           ; 1 bytes @ 0x0
  1973                           
  1974  0070                     ?_USBStdGetDscHandler:	
  1975                           ; 1 bytes @ 0x0
  1976                           
  1977  0070                     ??_USBStdGetDscHandler:	
  1978                           ; 1 bytes @ 0x0
  1979                           
  1980  0070                     ?_USBStdGetStatusHandler:	
  1981                           ; 1 bytes @ 0x0
  1982                           
  1983  0070                     ??_USBStdGetStatusHandler:	
  1984                           ; 1 bytes @ 0x0
  1985                           
  1986  0070                     ?_USBCheckHIDRequest:	
  1987                           ; 1 bytes @ 0x0
  1988                           
  1989  0070                     ??_USBCheckHIDRequest:	
  1990                           ; 1 bytes @ 0x0
  1991                           
  1992  0070                     ?i1_SYSTEM_Initialize:	
  1993                           ; 1 bytes @ 0x0
  1994                           
  1995  0070                     ?i1_USBDeviceInit:	
  1996                           ; 1 bytes @ 0x0
  1997                           
  1998  0070                     ??i1_USBDeviceInit:	
  1999                           ; 1 bytes @ 0x0
  2000                           
  2001  0070                     ?i1_LED_On:	
  2002                           ; 1 bytes @ 0x0
  2003                           
  2004  0070                     ??i1_LED_On:	
  2005                           ; 1 bytes @ 0x0
  2006                           
  2007  0070                     ?i1_LED_Off:	
  2008                           ; 1 bytes @ 0x0
  2009                           
  2010  0070                     ??i1_LED_Off:	
  2011                           ; 1 bytes @ 0x0
  2012                           
  2013  0070                     ?i1_LED_Init:	
  2014                           ; 1 bytes @ 0x0
  2015                           
  2016  0070                     ??i1_LED_Init:	
  2017                           ; 1 bytes @ 0x0
  2018                           
  2019  0070                     ?i1_init_alcohol:	
  2020                           ; 1 bytes @ 0x0
  2021                           
  2022  0070                     ??i1_init_alcohol:	
  2023                           ; 1 bytes @ 0x0
  2024                           
  2025  0070                     ?_memset:	
  2026                           ; 1 bytes @ 0x0
  2027                           
  2028  0070                     ?i1_USBTransferOnePacket:	
  2029                           ; 2 bytes @ 0x0
  2030                           
  2031  0070                     USBConfigureEndpoint@direction:	
  2032                           ; 2 bytes @ 0x0
  2033                           
  2034  0070                     i1USBTransferOnePacket@dir:	
  2035                           ; 1 bytes @ 0x0
  2036                           
  2037  0070                     memcpy@s1:	
  2038                           ; 1 bytes @ 0x0
  2039                           
  2040  0070                     memset@dest:	
  2041                           ; 2 bytes @ 0x0
  2042                           
  2043                           
  2044                           ; 2 bytes @ 0x0
  2045  0070                     	ds	1
  2046  0071                     ??_USBConfigureEndpoint:
  2047  0071                     i1USBDeviceInit@p:	
  2048                           ; 1 bytes @ 0x1
  2049                           
  2050  0071                     i1USBTransferOnePacket@data:	
  2051                           ; 2 bytes @ 0x1
  2052                           
  2053                           
  2054                           ; 2 bytes @ 0x1
  2055  0071                     	ds	1
  2056  0072                     ??_USBCtrlTrfRxService:
  2057  0072                     USBCtrlTrfTxService@byteToSend:	
  2058                           ; 1 bytes @ 0x2
  2059                           
  2060  0072                     i1LED_On@led:	
  2061                           ; 1 bytes @ 0x2
  2062                           
  2063  0072                     i1LED_Off@led:	
  2064                           ; 1 bytes @ 0x2
  2065                           
  2066  0072                     USBStdGetStatusHandler@p:	
  2067                           ; 1 bytes @ 0x2
  2068                           
  2069  0072                     memcpy@n:	
  2070                           ; 2 bytes @ 0x2
  2071                           
  2072  0072                     memset@c:	
  2073                           ; 2 bytes @ 0x2
  2074                           
  2075                           
  2076                           ; 2 bytes @ 0x2
  2077  0072                     	ds	1
  2078  0073                     ??_USBCtrlTrfInHandler:
  2079  0073                     ??_USBCtrlEPAllowDataStage:	
  2080                           ; 1 bytes @ 0x3
  2081                           
  2082  0073                     ??i1_SYSTEM_Initialize:	
  2083                           ; 1 bytes @ 0x3
  2084                           
  2085  0073                     i1USBDeviceInit@i_878:	
  2086                           ; 1 bytes @ 0x3
  2087                           
  2088  0073                     i1USBTransferOnePacket@len:	
  2089                           ; 1 bytes @ 0x3
  2090                           
  2091                           
  2092                           ; 1 bytes @ 0x3
  2093  0073                     	ds	1
  2094  0074                     ??_memcpy:
  2095  0074                     ??i1_USBTransferOnePacket:	
  2096                           ; 1 bytes @ 0x4
  2097                           
  2098  0074                     USBCtrlTrfRxService@i:	
  2099                           ; 1 bytes @ 0x4
  2100                           
  2101  0074                     i1USBDeviceInit@i:	
  2102                           ; 1 bytes @ 0x4
  2103                           
  2104  0074                     memset@n:	
  2105                           ; 1 bytes @ 0x4
  2106                           
  2107                           
  2108                           ; 2 bytes @ 0x4
  2109  0074                     	ds	1
  2110  0075                     ??_USBCtrlEPServiceComplete:
  2111  0075                     USBConfigureEndpoint@EPNum:	
  2112                           ; 1 bytes @ 0x5
  2113                           
  2114  0075                     USBCtrlTrfRxService@byteToRead:	
  2115                           ; 1 bytes @ 0x5
  2116                           
  2117  0075                     USBCtrlTrfInHandler@lastDTS:	
  2118                           ; 1 bytes @ 0x5
  2119                           
  2120  0075                     i1SYSTEM_Initialize@state:	
  2121                           ; 1 bytes @ 0x5
  2122                           
  2123  0075                     memcpy@s:	
  2124                           ; 1 bytes @ 0x5
  2125                           
  2126                           
  2127                           ; 2 bytes @ 0x5
  2128  0075                     	ds	1
  2129  0076                     ??_memset:
  2130  0076                     ??_USBCtrlTrfOutHandler:	
  2131                           ; 1 bytes @ 0x6
  2132                           
  2133  0076                     USBConfigureEndpoint@handle:	
  2134                           ; 1 bytes @ 0x6
  2135                           
  2136                           
  2137                           ; 1 bytes @ 0x6
  2138  0076                     	ds	1
  2139  0077                     ?_USBEnableEndpoint:
  2140  0077                     USBEnableEndpoint@options:	
  2141                           ; 1 bytes @ 0x7
  2142                           
  2143  0077                     memcpy@tmp:	
  2144                           ; 1 bytes @ 0x7
  2145                           
  2146                           
  2147                           ; 1 bytes @ 0x7
  2148  0077                     	ds	1
  2149  0078                     ??_USBEnableEndpoint:
  2150  0078                     memcpy@d1:	
  2151                           ; 1 bytes @ 0x8
  2152                           
  2153  0078                     i1USBTransferOnePacket@ep:	
  2154                           ; 1 bytes @ 0x8
  2155                           
  2156                           
  2157                           ; 1 bytes @ 0x8
  2158  0078                     	ds	1
  2159  0079                     memcpy@d:
  2160  0079                     i1USBTransferOnePacket@handle:	
  2161                           ; 1 bytes @ 0x9
  2162                           
  2163                           
  2164                           ; 2 bytes @ 0x9
  2165  0079                     	ds	1
  2166  007A                     USBEnableEndpoint@p:
  2167  007A                     memset@k:	
  2168                           ; 2 bytes @ 0xA
  2169                           
  2170                           
  2171                           ; 2 bytes @ 0xA
  2172  007A                     	ds	2
  2173  007C                     USBEnableEndpoint@ep:
  2174  007C                     memset@s:	
  2175                           ; 1 bytes @ 0xC
  2176                           
  2177                           
  2178                           ; 2 bytes @ 0xC
  2179  007C                     	ds	1
  2180  007D                     ??_APP_DeviceCustomHIDInitialize:
  2181                           
  2182                           ; 1 bytes @ 0xD
  2183  007D                     	ds	1
  2184  007E                     ??_USER_USB_CALLBACK_EVENT_HANDLER:
  2185  007E                     ??_SYS_InterruptHigh:	
  2186                           ; 1 bytes @ 0xE
  2187                           
  2188                           
  2189                           	psect	cstackBANK0
  2190  0050                     __pcstackBANK0:	
  2191                           ; 1 bytes @ 0xE
  2192                           
  2193  0050                     ?_USER_USB_CALLBACK_EVENT_HANDLER:
  2194  0050                     USER_USB_CALLBACK_EVENT_HANDLER@event:	
  2195                           ; 1 bytes @ 0x0
  2196                           
  2197                           
  2198                           ; 2 bytes @ 0x0
  2199  0050                     	ds	2
  2200  0052                     USER_USB_CALLBACK_EVENT_HANDLER@pdata:
  2201                           
  2202                           ; 2 bytes @ 0x2
  2203  0052                     	ds	2
  2204  0054                     USER_USB_CALLBACK_EVENT_HANDLER@size:
  2205                           
  2206                           ; 2 bytes @ 0x4
  2207  0054                     	ds	2
  2208  0056                     ??_USBWakeFromSuspend:
  2209  0056                     ??_USBSuspend:	
  2210                           ; 1 bytes @ 0x6
  2211                           
  2212  0056                     ??_USBStdFeatureReqHandler:	
  2213                           ; 1 bytes @ 0x6
  2214                           
  2215  0056                     ??_USBStdSetCfgHandler:	
  2216                           ; 1 bytes @ 0x6
  2217                           
  2218                           
  2219                           ; 1 bytes @ 0x6
  2220  0056                     	ds	1
  2221  0057                     USBStdSetCfgHandler@p:
  2222                           
  2223                           ; 2 bytes @ 0x7
  2224  0057                     	ds	1
  2225  0058                     USBStdFeatureReqHandler@pUEP:
  2226                           
  2227                           ; 2 bytes @ 0x8
  2228  0058                     	ds	1
  2229  0059                     USBStdSetCfgHandler@i_1611:
  2230                           
  2231                           ; 1 bytes @ 0x9
  2232  0059                     	ds	1
  2233  005A                     USBStdSetCfgHandler@i:
  2234  005A                     USBStdFeatureReqHandler@current_ep_data:	
  2235                           ; 1 bytes @ 0xA
  2236                           
  2237                           
  2238                           ; 1 bytes @ 0xA
  2239  005A                     	ds	1
  2240  005B                     USBStdFeatureReqHandler@p:
  2241                           
  2242                           ; 2 bytes @ 0xB
  2243  005B                     	ds	2
  2244  005D                     ??_USBCheckStdRequest:
  2245                           
  2246                           ; 1 bytes @ 0xD
  2247  005D                     	ds	2
  2248  005F                     ??_USBCtrlTrfSetupHandler:
  2249                           
  2250                           ; 1 bytes @ 0xF
  2251  005F                     	ds	1
  2252  0060                     ??_USBCtrlEPService:
  2253                           
  2254                           ; 1 bytes @ 0x10
  2255  0060                     	ds	2
  2256  0062                     ??_USBDeviceTasks:
  2257                           
  2258                           ; 1 bytes @ 0x12
  2259  0062                     	ds	2
  2260  0064                     USBDeviceTasks@i:
  2261                           
  2262                           ; 1 bytes @ 0x14
  2263  0064                     	ds	1
  2264                           
  2265                           	psect	maintext
  2266  07EE                     __pmaintext:	
  2267 ;;
  2268 ;;Main: autosize = 0, tempsize = 0, incstack = 0, save=0
  2269 ;;
  2270 ;; *************** function _main *****************
  2271 ;; Defined at:
  2272 ;;		line 30 in file "main.c"
  2273 ;; Parameters:    Size  Location     Type
  2274 ;;		None
  2275 ;; Auto vars:     Size  Location     Type
  2276 ;;		None
  2277 ;; Return value:  Size  Location     Type
  2278 ;;                  1    wreg      void 
  2279 ;; Registers used:
  2280 ;;		wreg, fsr0l, fsr0h, fsr1l, fsr1h, status,2, status,0, pclath, cstack
  2281 ;; Tracked objects:
  2282 ;;		On entry : B1F/0
  2283 ;;		On exit  : 0/0
  2284 ;;		Unchanged: 0/0
  2285 ;; Data sizes:     COMMON   BANK0   BANK1   BANK2   BANK3   BANK4   BANK5   BANK6   BANK7   BANK8   BANK9  BANK10  BANK1
      +1  BANK12
  2286 ;;      Params:         0       0       0       0       0       0       0       0       0       0       0       0       
      +0       0
  2287 ;;      Locals:         0       0       0       0       0       0       0       0       0       0       0       0       
      +0       0
  2288 ;;      Temps:          0       0       0       0       0       0       0       0       0       0       0       0       
      +0       0
  2289 ;;      Totals:         0       0       0       0       0       0       0       0       0       0       0       0       
      +0       0
  2290 ;;Total ram usage:        0 bytes
  2291 ;; Hardware stack levels required when called: 12
  2292 ;; This function calls:
  2293 ;;		_APP_DeviceCustomHIDTasks
  2294 ;;		_SYSTEM_Initialize
  2295 ;;		_USBDeviceAttach
  2296 ;;		_USBDeviceInit
  2297 ;; This function is called by:
  2298 ;;		Startup code after reset
  2299 ;; This function uses a non-reentrant model
  2300 ;;
  2301                           
  2302  07EE                     _main:	
  2303                           ;psect for function _main
  2304                           
  2305  07EE                     l4118:	
  2306                           ;incstack = 0
  2307                           ; Regs used in _main: [wreg-fsr1h+status,2+status,0+pclath+cstack]
  2308                           
  2309                           
  2310                           ;main.c: 32:     SYSTEM_Initialize(SYSTEM_STATE_USB_START);
  2311  07EE  3000               	movlw	0
  2312  07EF  3189  21B6  3187   	fcall	_SYSTEM_Initialize
  2313  07F2                     l4120:
  2314                           
  2315                           ;main.c: 34:     USBDeviceInit();
  2316  07F2  3183  2370  3187   	fcall	_USBDeviceInit
  2317  07F5                     l4122:
  2318                           
  2319                           ;main.c: 35:     USBDeviceAttach();
  2320  07F5  3188  2058  3187   	fcall	_USBDeviceAttach
  2321  07F8                     l58:	
  2322                           ;main.c: 37:     while(1)
  2323                           
  2324                           
  2325                           ;main.c: 38:     {;main.c: 58:         APP_DeviceCustomHIDTasks();
  2326  07F8  3184  24D1  3187   	fcall	_APP_DeviceCustomHIDTasks
  2327  07FB  2FF8               	goto	l58
  2328  07FC  3180  280B         	ljmp	start
  2329  07FE                     __end_of_main:
  2330                           
  2331                           	psect	text1
  2332  0370                     __ptext1:	
  2333 ;; *************** function _USBDeviceInit *****************
  2334 ;; Defined at:
  2335 ;;		line 281 in file "usb_device.c"
  2336 ;; Parameters:    Size  Location     Type
  2337 ;;		None
  2338 ;; Auto vars:     Size  Location     Type
  2339 ;;  p               2    1[BANK1 ] PTR unsigned char 
  2340 ;;		 -> UEP1(1), 
  2341 ;;  i               1    3[BANK1 ] unsigned char 
  2342 ;;  i               1    4[BANK1 ] unsigned char 
  2343 ;; Return value:  Size  Location     Type
  2344 ;;                  1    wreg      void 
  2345 ;; Registers used:
  2346 ;;		wreg, fsr1l, fsr1h, status,2, status,0
  2347 ;; Tracked objects:
  2348 ;;		On entry : 0/0
  2349 ;;		On exit  : 0/0
  2350 ;;		Unchanged: 0/0
  2351 ;; Data sizes:     COMMON   BANK0   BANK1   BANK2   BANK3   BANK4   BANK5   BANK6   BANK7   BANK8   BANK9  BANK10  BANK1
      +1  BANK12
  2352 ;;      Params:         0       0       0       0       0       0       0       0       0       0       0       0       
      +0       0
  2353 ;;      Locals:         0       0       4       0       0       0       0       0       0       0       0       0       
      +0       0
  2354 ;;      Temps:          0       0       1       0       0       0       0       0       0       0       0       0       
      +0       0
  2355 ;;      Totals:         0       0       5       0       0       0       0       0       0       0       0       0       
      +0       0
  2356 ;;Total ram usage:        5 bytes
  2357 ;; Hardware stack levels used: 1
  2358 ;; Hardware stack levels required when called: 10
  2359 ;; This function calls:
  2360 ;;		Nothing
  2361 ;; This function is called by:
  2362 ;;		_main
  2363 ;; This function uses a non-reentrant model
  2364 ;;
  2365                           
  2366  0370                     _USBDeviceInit:	
  2367                           ;psect for function _USBDeviceInit
  2368                           
  2369  0370                     l3912:	
  2370                           ;incstack = 0
  2371                           ; Regs used in _USBDeviceInit: [wreg+fsr1l+fsr1h+status,2+status,0]
  2372                           
  2373                           
  2374                           ;usb_device.c: 283:     uint8_t i;;usb_device.c: 285:     {PIE2bits.USBIE = 0;};
  2375  0370  0021               	movlb	1	; select bank1
  2376  0371  1112               	bcf	18,2	;volatile
  2377  0372                     l3914:
  2378                           
  2379                           ;usb_device.c: 292:     {UEIR = 0;};
  2380  0372  003D               	movlb	29	; select bank29
  2381  0373  0193               	clrf	19	;volatile
  2382                           
  2383                           ;usb_device.c: 295:     {UIR = 0;};
  2384  0374  0190               	clrf	16	;volatile
  2385                           
  2386                           ;usb_device.c: 298:     UEP0 = 0;
  2387  0375  0198               	clrf	24	;volatile
  2388  0376                     l3916:
  2389                           
  2390                           ;usb_device.c: 300:     { uint8_t i; uint8_t* p = (uint8_t*)&UEP1; for(i=0;i<1;i++) *p++
      +                           = 0; };
  2391  0376  300E               	movlw	14
  2392  0377  0021               	movlb	1	; select bank1
  2393  0378  00E2               	movwf	(USBDeviceInit@p+1)^(0+128)
  2394  0379  3099               	movlw	153
  2395  037A  00E1               	movwf	USBDeviceInit@p^(0+128)
  2396  037B  01E3               	clrf	USBDeviceInit@i_878^(0+128)
  2397  037C                     l3922:
  2398  037C  0861               	movf	USBDeviceInit@p^(0+128),w
  2399  037D  0086               	movwf	6
  2400  037E  0862               	movf	(USBDeviceInit@p+1)^(0+128),w
  2401  037F  0087               	movwf	7
  2402  0380  0181               	clrf	1
  2403  0381                     l3924:
  2404  0381  3001               	movlw	1
  2405  0382  07E1               	addwf	USBDeviceInit@p^(0+128),f
  2406  0383  3000               	movlw	0
  2407  0384  3DE2               	addwfc	(USBDeviceInit@p+1)^(0+128),f
  2408  0385                     l3926:
  2409  0385  3001               	movlw	1
  2410  0386  00E0               	movwf	??_USBDeviceInit^(0+128)
  2411  0387  0860               	movf	??_USBDeviceInit^(0+128),w
  2412  0388  07E3               	addwf	USBDeviceInit@i_878^(0+128),f
  2413  0389                     l3928:
  2414  0389  0863               	movf	USBDeviceInit@i_878^(0+128),w
  2415  038A  1903               	btfsc	3,2
  2416  038B  2B8D               	goto	u2541
  2417  038C  2B8E               	goto	u2540
  2418  038D                     u2541:
  2419  038D  2B7C               	goto	l3922
  2420  038E                     u2540:
  2421  038E                     l3930:
  2422                           
  2423                           ;usb_device.c: 302:     { UCFG = 0x10 | 0x00 | 0x04 | 0x02; UEIE = 0x9F; UIE = 0x39 | 0x
      +                          40 | 0x02; };
  2424  038E  3016               	movlw	22
  2425  038F  003D               	movlb	29	; select bank29
  2426  0390  0091               	movwf	17	;volatile
  2427  0391  309F               	movlw	159
  2428  0392  0097               	movwf	23	;volatile
  2429  0393  307B               	movlw	123
  2430  0394  0092               	movwf	18	;volatile
  2431  0395                     l3932:
  2432                           
  2433                           ;usb_device.c: 311:     for(i = 0; i < (sizeof(BDT)/sizeof(BDT_ENTRY)); i++)
  2434  0395  0021               	movlb	1	; select bank1
  2435  0396  01E4               	clrf	USBDeviceInit@i^(0+128)
  2436  0397                     l3938:
  2437                           
  2438                           ;usb_device.c: 312:     {;usb_device.c: 313:         BDT[i].Val = 0x00;
  2439  0397  0864               	movf	USBDeviceInit@i^(0+128),w
  2440  0398  00E0               	movwf	??_USBDeviceInit^(0+128)
  2441  0399  3001               	movlw	1
  2442  039A                     u2555:
  2443  039A  35E0               	lslf	??_USBDeviceInit^(0+128),f
  2444  039B  3EFF               	addlw	-1
  2445  039C  1D03               	skipz
  2446  039D  2B9A               	goto	u2555
  2447  039E  3560               	lslf	??_USBDeviceInit^(0+128),w
  2448  039F  3E20               	addlw	32
  2449  03A0  0086               	movwf	6
  2450  03A1  0187               	clrf	7
  2451  03A2  3000               	movlw	0
  2452  03A3  3FC0               	movwi [0]fsr1
  2453  03A4  3000               	movlw	0
  2454  03A5  3FC1               	movwi [1]fsr1
  2455  03A6  3FC2               	movwi [2]fsr1
  2456  03A7  3FC3               	movwi [3]fsr1
  2457  03A8                     l3940:
  2458                           
  2459                           ;usb_device.c: 314:     }
  2460  03A8  3001               	movlw	1
  2461  03A9  00E0               	movwf	??_USBDeviceInit^(0+128)
  2462  03AA  0860               	movf	??_USBDeviceInit^(0+128),w
  2463  03AB  07E4               	addwf	USBDeviceInit@i^(0+128),f
  2464  03AC                     l3942:
  2465  03AC  3008               	movlw	8
  2466  03AD  0264               	subwf	USBDeviceInit@i^(0+128),w
  2467  03AE  1C03               	skipc
  2468  03AF  2BB1               	goto	u2561
  2469  03B0  2BB2               	goto	u2560
  2470  03B1                     u2561:
  2471  03B1  2B97               	goto	l3938
  2472  03B2                     u2560:
  2473  03B2                     l244:
  2474                           
  2475                           ;usb_device.c: 317:     UCONbits.PPBRST = 1;
  2476  03B2  003D               	movlb	29	; select bank29
  2477  03B3  170E               	bsf	14,6	;volatile
  2478  03B4                     l3944:
  2479                           
  2480                           ;usb_device.c: 320:     UADDR = 0x00;
  2481  03B4  0196               	clrf	22	;volatile
  2482  03B5                     l3946:
  2483                           
  2484                           ;usb_device.c: 323:     UCONbits.PKTDIS = 0;
  2485  03B5  120E               	bcf	14,4	;volatile
  2486  03B6                     l3948:
  2487                           
  2488                           ;usb_device.c: 326:     UCONbits.PPBRST = 0;
  2489  03B6  130E               	bcf	14,6	;volatile
  2490  03B7                     l3950:
  2491                           
  2492                           ;usb_device.c: 330:     {;usb_device.c: 331:         (UIR &= 0xF7);
  2493  03B7  30F7               	movlw	247
  2494  03B8  0021               	movlb	1	; select bank1
  2495  03B9  00E0               	movwf	??_USBDeviceInit^(0+128)
  2496  03BA  0860               	movf	??_USBDeviceInit^(0+128),w
  2497  03BB  003D               	movlb	29	; select bank29
  2498  03BC  0590               	andwf	16,f	;volatile
  2499  03BD                     l3952:
  2500                           
  2501                           ;usb_device.c: 333:         inPipes[0].info.Val = 0;
  2502  03BD  0020               	movlb	0	; select bank0
  2503  03BE  01E7               	clrf	_inPipes+2	;volatile
  2504  03BF                     l3954:
  2505                           
  2506                           ;usb_device.c: 334:         outPipes[0].info.Val = 0;
  2507  03BF  0022               	movlb	2	; select bank2
  2508  03C0  01E2               	clrf	(_outPipes^(0+256)+2)	;volatile
  2509  03C1                     l3956:
  2510                           
  2511                           ;usb_device.c: 335:         outPipes[0].wCount.Val = 0;
  2512  03C1  01E3               	clrf	(_outPipes^(0+256)+3)	;volatile
  2513  03C2  01E4               	clrf	((_outPipes+1)^(0+256)+3)	;volatile
  2514  03C3                     l3958:
  2515                           
  2516                           ;usb_device.c: 336:     }while(UIRbits.TRNIF == 1);
  2517  03C3  003D               	movlb	29	; select bank29
  2518  03C4  1990               	btfsc	16,3	;volatile
  2519  03C5  2BC7               	goto	u2571
  2520  03C6  2BC8               	goto	u2570
  2521  03C7                     u2571:
  2522  03C7  2BB7               	goto	l3950
  2523  03C8                     u2570:
  2524  03C8                     l3960:
  2525                           
  2526                           ;usb_device.c: 340:     USBStatusStageEnabledFlag1 = 1;
  2527  03C8  3001               	movlw	1
  2528  03C9  0021               	movlb	1	; select bank1
  2529  03CA  00E0               	movwf	??_USBDeviceInit^(0+128)
  2530  03CB  0860               	movf	??_USBDeviceInit^(0+128),w
  2531  03CC  0023               	movlb	3	; select bank3
  2532  03CD  00B2               	movwf	_USBStatusStageEnabledFlag1^(0+384)	;volatile
  2533                           
  2534                           ;usb_device.c: 341:     USBStatusStageEnabledFlag2 = 1;
  2535  03CE  3001               	movlw	1
  2536  03CF  0021               	movlb	1	; select bank1
  2537  03D0  00E0               	movwf	??_USBDeviceInit^(0+128)
  2538  03D1  0860               	movf	??_USBDeviceInit^(0+128),w
  2539  03D2  0023               	movlb	3	; select bank3
  2540  03D3  00B1               	movwf	_USBStatusStageEnabledFlag2^(0+384)	;volatile
  2541  03D4                     l3962:
  2542                           
  2543                           ;usb_device.c: 343:     USBDeferINDataStagePackets = 0;
  2544  03D4  01B0               	clrf	_USBDeferINDataStagePackets^(0+384)	;volatile
  2545  03D5                     l3964:
  2546                           
  2547                           ;usb_device.c: 344:     USBDeferOUTDataStagePackets = 0;
  2548  03D5  01AF               	clrf	_USBDeferOUTDataStagePackets^(0+384)	;volatile
  2549  03D6                     l3966:
  2550                           
  2551                           ;usb_device.c: 345:     USBBusIsSuspended = 0;
  2552  03D6  01B5               	clrf	_USBBusIsSuspended^(0+384)	;volatile
  2553  03D7                     l3968:
  2554                           
  2555                           ;usb_device.c: 349:     for(i = 0; i < (uint8_t)(1 +1u); i++)
  2556  03D7  0021               	movlb	1	; select bank1
  2557  03D8  01E4               	clrf	USBDeviceInit@i^(0+128)
  2558  03D9                     l3972:
  2559                           
  2560                           ;usb_device.c: 350:     {;usb_device.c: 351:         pBDTEntryIn[i] = 0u;
  2561  03D9  3564               	lslf	USBDeviceInit@i^(0+128),w
  2562  03DA  3E6A               	addlw	(low (_pBDTEntryIn| 0))& (0+255)
  2563  03DB  0086               	movwf	6
  2564  03DC  0187               	clrf	7
  2565  03DD  3000               	movlw	0
  2566  03DE  3FC0               	movwi [0]fsr1
  2567  03DF  3FC1               	movwi [1]fsr1
  2568                           
  2569                           ;usb_device.c: 352:         pBDTEntryOut[i] = 0u;
  2570  03E0  3564               	lslf	USBDeviceInit@i^(0+128),w
  2571  03E1  3EA4               	addlw	(low (_pBDTEntryOut| (0+256)))& (0+255)
  2572  03E2  0086               	movwf	6
  2573  03E3  3001               	movlw	1	; select bank3/4
  2574  03E4  0087               	movwf	7
  2575  03E5  3000               	movlw	0
  2576  03E6  3FC0               	movwi [0]fsr1
  2577  03E7  3FC1               	movwi [1]fsr1
  2578                           
  2579                           ;usb_device.c: 353:         ep_data_in[i].Val = 0u;
  2580  03E8  0864               	movf	USBDeviceInit@i^(0+128),w
  2581  03E9  3E67               	addlw	(low (_ep_data_in| (0+256)))& (0+255)
  2582  03EA  0086               	movwf	6
  2583  03EB  3001               	movlw	1	; select bank2/3
  2584  03EC  0087               	movwf	7
  2585  03ED  0181               	clrf	1
  2586                           
  2587                           ;usb_device.c: 354:         ep_data_out[i].Val = 0u;
  2588  03EE  0864               	movf	USBDeviceInit@i^(0+128),w
  2589  03EF  3EA8               	addlw	(low (_ep_data_out| (0+256)))& (0+255)
  2590  03F0  0086               	movwf	6
  2591  03F1  3001               	movlw	1	; select bank3/4
  2592  03F2  0087               	movwf	7
  2593  03F3  0181               	clrf	1
  2594  03F4                     l3974:
  2595                           
  2596                           ;usb_device.c: 355:     }
  2597  03F4  3001               	movlw	1
  2598  03F5  00E0               	movwf	??_USBDeviceInit^(0+128)
  2599  03F6  0860               	movf	??_USBDeviceInit^(0+128),w
  2600  03F7  07E4               	addwf	USBDeviceInit@i^(0+128),f
  2601  03F8                     l3976:
  2602  03F8  3002               	movlw	2
  2603  03F9  0264               	subwf	USBDeviceInit@i^(0+128),w
  2604  03FA  1C03               	skipc
  2605  03FB  2BFD               	goto	u2581
  2606  03FC  2BFE               	goto	u2580
  2607  03FD                     u2581:
  2608  03FD  2BD9               	goto	l3972
  2609  03FE                     u2580:
  2610  03FE                     l3978:
  2611                           
  2612                           ;usb_device.c: 358:     pBDTEntryIn[0] = (volatile BDT_ENTRY*)&BDT[2];
  2613  03FE  3028               	movlw	40
  2614  03FF  0020               	movlb	0	; select bank0
  2615  0400  00EA               	movwf	_pBDTEntryIn
  2616  0401  3000               	movlw	0
  2617  0402  00EB               	movwf	_pBDTEntryIn+1
  2618  0403                     l3980:
  2619                           
  2620                           ;usb_device.c: 360:     UEP0 = 0x06|0x10;
  2621  0403  3016               	movlw	22
  2622  0404  003D               	movlb	29	; select bank29
  2623  0405  0098               	movwf	24	;volatile
  2624  0406                     l3982:
  2625                           
  2626                           ;usb_device.c: 362:     BDT[0].ADR = (((uint16_t)(&SetupPkt)) & 0x7FFF);
  2627  0406  3000               	movlw	0
  2628  0407  0020               	movlb	0	; select bank0
  2629  0408  00A3               	movwf	35	;volatile
  2630  0409  3040               	movlw	64
  2631  040A  00A2               	movwf	34	;volatile
  2632  040B                     l3984:
  2633                           
  2634                           ;usb_device.c: 363:     BDT[0].CNT = 8;
  2635  040B  3008               	movlw	8
  2636  040C  00A1               	movwf	33	;volatile
  2637  040D                     l3986:
  2638                           
  2639                           ;usb_device.c: 364:     BDT[0].STAT.Val = 0x00|0x04;
  2640  040D  3004               	movlw	4
  2641  040E  0021               	movlb	1	; select bank1
  2642  040F  00E0               	movwf	??_USBDeviceInit^(0+128)
  2643  0410  0860               	movf	??_USBDeviceInit^(0+128),w
  2644  0411  0020               	movlb	0	; select bank0
  2645  0412  00A0               	movwf	32	;volatile
  2646  0413                     l3988:
  2647                           
  2648                           ;usb_device.c: 365:     BDT[0].STAT.Val |= 0x80;
  2649  0413  17A0               	bsf	32,7	;volatile
  2650  0414                     l3990:
  2651                           
  2652                           ;usb_device.c: 368:     USBActiveConfiguration = 0;
  2653  0414  0022               	movlb	2	; select bank2
  2654  0415  01EF               	clrf	_USBActiveConfiguration^(0+256)	;volatile
  2655  0416                     l3992:
  2656                           
  2657                           ;usb_device.c: 370:     USB1msTickCount = 0;
  2658  0416  3000               	movlw	0
  2659  0417  0023               	movlb	3	; select bank3
  2660  0418  00A3               	movwf	(_USB1msTickCount+3)^(0+384)	;volatile
  2661  0419  3000               	movlw	0
  2662  041A  00A2               	movwf	(_USB1msTickCount+2)^(0+384)	;volatile
  2663  041B  3000               	movlw	0
  2664  041C  00A1               	movwf	(_USB1msTickCount+1)^(0+384)	;volatile
  2665  041D  3000               	movlw	0
  2666  041E  00A0               	movwf	_USB1msTickCount^(0+384)	;volatile
  2667  041F                     l3994:
  2668                           
  2669                           ;usb_device.c: 371:     USBTicksSinceSuspendEnd = 0;
  2670  041F  01AE               	clrf	_USBTicksSinceSuspendEnd^(0+384)	;volatile
  2671  0420                     l3996:
  2672                           
  2673                           ;usb_device.c: 374:     USBDeviceState = DETACHED_STATE;
  2674  0420  0021               	movlb	1	; select bank1
  2675  0421  01EF               	clrf	_USBDeviceState^(0+128)	;volatile
  2676  0422                     l249:
  2677  0422  0008               	return
  2678  0423                     __end_of_USBDeviceInit:
  2679                           
  2680                           	psect	text2
  2681  0858                     __ptext2:	
  2682 ;; *************** function _USBDeviceAttach *****************
  2683 ;; Defined at:
  2684 ;;		line 1356 in file "usb_device.c"
  2685 ;; Parameters:    Size  Location     Type
  2686 ;;		None
  2687 ;; Auto vars:     Size  Location     Type
  2688 ;;		None
  2689 ;; Return value:  Size  Location     Type
  2690 ;;                  1    wreg      void 
  2691 ;; Registers used:
  2692 ;;		wreg, status,2, status,0
  2693 ;; Tracked objects:
  2694 ;;		On entry : 0/0
  2695 ;;		On exit  : 0/0
  2696 ;;		Unchanged: 0/0
  2697 ;; Data sizes:     COMMON   BANK0   BANK1   BANK2   BANK3   BANK4   BANK5   BANK6   BANK7   BANK8   BANK9  BANK10  BANK1
      +1  BANK12
  2698 ;;      Params:         0       0       0       0       0       0       0       0       0       0       0       0       
      +0       0
  2699 ;;      Locals:         0       0       0       0       0       0       0       0       0       0       0       0       
      +0       0
  2700 ;;      Temps:          0       0       1       0       0       0       0       0       0       0       0       0       
      +0       0
  2701 ;;      Totals:         0       0       1       0       0       0       0       0       0       0       0       0       
      +0       0
  2702 ;;Total ram usage:        1 bytes
  2703 ;; Hardware stack levels used: 1
  2704 ;; Hardware stack levels required when called: 10
  2705 ;; This function calls:
  2706 ;;		Nothing
  2707 ;; This function is called by:
  2708 ;;		_main
  2709 ;; This function uses a non-reentrant model
  2710 ;;
  2711                           
  2712  0858                     _USBDeviceAttach:	
  2713                           ;psect for function _USBDeviceAttach
  2714                           
  2715  0858                     l3998:	
  2716                           ;incstack = 0
  2717                           ; Regs used in _USBDeviceAttach: [wreg+status,2+status,0]
  2718                           
  2719                           
  2720                           ;usb_device.c: 1360:     {;usb_device.c: 1361:         if(1 == 1)
  2721  0858  0021               	movlb	1	; select bank1
  2722  0859  086F               	movf	_USBDeviceState^(0+128),w	;volatile
  2723  085A  1D03               	btfss	3,2
  2724  085B  285D               	goto	u2591
  2725  085C  285E               	goto	u2590
  2726  085D                     u2591:
  2727  085D  2877               	goto	l307
  2728  085E                     u2590:
  2729  085E                     l4000:
  2730                           
  2731                           ;usb_device.c: 1362:         {;usb_device.c: 1364:             UCON = 0;
  2732  085E  003D               	movlb	29	; select bank29
  2733  085F  018E               	clrf	14	;volatile
  2734                           
  2735                           ;usb_device.c: 1367:             UIE = 0;
  2736  0860  0192               	clrf	18	;volatile
  2737  0861                     l4002:
  2738                           
  2739                           ;usb_device.c: 1371:             { UCFG = 0x10 | 0x00 | 0x04 | 0x02; UEIE = 0x9F; UIE = 
      +                          0x39 | 0x40 | 0x02; };
  2740  0861  3016               	movlw	22
  2741  0862  0091               	movwf	17	;volatile
  2742  0863                     l4004:
  2743  0863  309F               	movlw	159
  2744  0864  0097               	movwf	23	;volatile
  2745  0865                     l4006:
  2746  0865  307B               	movlw	123
  2747  0866  0092               	movwf	18	;volatile
  2748  0867                     l4008:
  2749                           
  2750                           ;usb_device.c: 1373:             {PIE2bits.USBIE = 1;INTCONbits.PEIE = 1; INTCONbits.GIE
      +                           = 1;};
  2751  0867  0021               	movlb	1	; select bank1
  2752  0868  1512               	bsf	18,2	;volatile
  2753  0869                     l4010:
  2754  0869  170B               	bsf	11,6	;volatile
  2755  086A                     l4012:
  2756  086A  178B               	bsf	11,7	;volatile
  2757                           
  2758                           ;usb_device.c: 1376:             while(!UCONbits.USBEN){UCONbits.USBEN = 1;}
  2759  086B  286D               	goto	l304
  2760  086C                     l305:
  2761  086C  158E               	bsf	14,3	;volatile
  2762  086D                     l304:
  2763  086D  003D               	movlb	29	; select bank29
  2764  086E  1D8E               	btfss	14,3	;volatile
  2765  086F  2871               	goto	u2601
  2766  0870  2872               	goto	u2600
  2767  0871                     u2601:
  2768  0871  286C               	goto	l305
  2769  0872                     u2600:
  2770  0872                     l4014:
  2771                           
  2772                           ;usb_device.c: 1379:             USBDeviceState = ATTACHED_STATE;
  2773  0872  3001               	movlw	1
  2774  0873  0021               	movlb	1	; select bank1
  2775  0874  00E0               	movwf	??_USBDeviceAttach^(0+128)
  2776  0875  0860               	movf	??_USBDeviceAttach^(0+128),w
  2777  0876  00EF               	movwf	_USBDeviceState^(0+128)	;volatile
  2778  0877                     l307:
  2779  0877  0008               	return
  2780  0878                     __end_of_USBDeviceAttach:
  2781                           
  2782                           	psect	text3
  2783  09B6                     __ptext3:	
  2784 ;; *************** function _SYSTEM_Initialize *****************
  2785 ;; Defined at:
  2786 ;;		line 85 in file "system.c"
  2787 ;; Parameters:    Size  Location     Type
  2788 ;;  state           1    wreg     enum E2309
  2789 ;; Auto vars:     Size  Location     Type
  2790 ;;  state           1    5[BANK1 ] enum E2309
  2791 ;; Return value:  Size  Location     Type
  2792 ;;                  1    wreg      void 
  2793 ;; Registers used:
  2794 ;;		wreg, fsr0l, fsr0h, status,2, status,0, pclath, cstack
  2795 ;; Tracked objects:
  2796 ;;		On entry : 0/0
  2797 ;;		On exit  : 0/0
  2798 ;;		Unchanged: 0/0
  2799 ;; Data sizes:     COMMON   BANK0   BANK1   BANK2   BANK3   BANK4   BANK5   BANK6   BANK7   BANK8   BANK9  BANK10  BANK1
      +1  BANK12
  2800 ;;      Params:         0       0       0       0       0       0       0       0       0       0       0       0       
      +0       0
  2801 ;;      Locals:         0       0       1       0       0       0       0       0       0       0       0       0       
      +0       0
  2802 ;;      Temps:          0       0       2       0       0       0       0       0       0       0       0       0       
      +0       0
  2803 ;;      Totals:         0       0       3       0       0       0       0       0       0       0       0       0       
      +0       0
  2804 ;;Total ram usage:        3 bytes
  2805 ;; Hardware stack levels used: 1
  2806 ;; Hardware stack levels required when called: 11
  2807 ;; This function calls:
  2808 ;;		_LED_Init
  2809 ;;		_LED_Off
  2810 ;;		_init_alcohol
  2811 ;; This function is called by:
  2812 ;;		_main
  2813 ;; This function uses a non-reentrant model
  2814 ;;
  2815                           
  2816  09B6                     _SYSTEM_Initialize:	
  2817                           ;psect for function _SYSTEM_Initialize
  2818                           
  2819                           
  2820                           ;incstack = 0
  2821                           ; Regs used in _SYSTEM_Initialize: [wreg-fsr0h+status,2+status,0+pclath+cstack]
  2822                           ;SYSTEM_Initialize@state stored from wreg
  2823  09B6  0021               	movlb	1	; select bank1
  2824  09B7  00E5               	movwf	SYSTEM_Initialize@state^(0+128)
  2825  09B8                     l3888:
  2826                           
  2827                           ;system.c: 85: void SYSTEM_Initialize( SYSTEM_STATE state );system.c: 86: {;system.c: 87
      +                          :     switch(state)
  2828  09B8  29CD               	goto	l3904
  2829  09B9                     l3890:
  2830                           
  2831                           ;system.c: 93:                 OSCCON = 0xFC;
  2832  09B9  30FC               	movlw	252
  2833  09BA  0099               	movwf	25	;volatile
  2834                           
  2835                           ;system.c: 94:                 ACTCON = 0x90;
  2836  09BB  3090               	movlw	144
  2837  09BC  0027               	movlb	7	; select bank7
  2838  09BD  009B               	movwf	27	;volatile
  2839  09BE                     l3892:
  2840                           
  2841                           ;system.c: 96:             ANSELA = 0x00;
  2842  09BE  0023               	movlb	3	; select bank3
  2843  09BF  018C               	clrf	12	;volatile
  2844  09C0                     l3894:
  2845                           
  2846                           ;system.c: 97:             ANSELC = 0x00;
  2847  09C0  018E               	clrf	14	;volatile
  2848  09C1                     l3896:
  2849                           
  2850                           ;system.c: 99:             LED_Init();
  2851  09C1  3188  200F  3189   	fcall	_LED_Init
  2852  09C4                     l3898:
  2853                           
  2854                           ;system.c: 101:             init_alcohol();
  2855  09C4  3188  2001  3189   	fcall	_init_alcohol
  2856                           
  2857                           ;system.c: 102:             break;
  2858  09C7  29E0               	goto	l85
  2859  09C8                     l3900:
  2860                           
  2861                           ;system.c: 105:             LED_Off(LED_CONNECT);
  2862  09C8  3001               	movlw	1
  2863  09C9  3189  210F  3189   	fcall	_LED_Off
  2864                           
  2865                           ;system.c: 106:             break;
  2866  09CC  29E0               	goto	l85
  2867  09CD                     l3904:
  2868  09CD  0865               	movf	SYSTEM_Initialize@state^(0+128),w
  2869  09CE  00E3               	movwf	??_SYSTEM_Initialize^(0+128)
  2870  09CF  01E4               	clrf	(??_SYSTEM_Initialize^(0+128)+1)
  2871                           
  2872                           ; Switch on 2 bytes has been partitioned into a top level switch of size 1, and 1 sub-sw
      +                          itches
  2873                           ; Switch size 1, requested type "simple"
  2874                           ; Number of cases is 1, Range of values is 0 to 0
  2875                           ; switch strategies available:
  2876                           ; Name         Instructions Cycles
  2877                           ; simple_byte            4     3 (average)
  2878                           ; direct_byte            8     6 (fixed)
  2879                           ; jumptable            260     6 (fixed)
  2880                           ;	Chosen strategy is simple_byte
  2881  09D0  0864               	movf	(??_SYSTEM_Initialize+1)^(0+128),w
  2882  09D1  3A00               	xorlw	0	; case 0
  2883  09D2  1903               	skipnz
  2884  09D3  29D5               	goto	l5068
  2885  09D4  29E0               	goto	l85
  2886  09D5                     l5068:
  2887                           
  2888                           ; Switch size 1, requested type "simple"
  2889                           ; Number of cases is 3, Range of values is 0 to 2
  2890                           ; switch strategies available:
  2891                           ; Name         Instructions Cycles
  2892                           ; simple_byte           10     6 (average)
  2893                           ; direct_byte           12     6 (fixed)
  2894                           ; jumptable            260     6 (fixed)
  2895                           ;	Chosen strategy is simple_byte
  2896  09D5  0863               	movf	??_SYSTEM_Initialize^(0+128),w
  2897  09D6  3A00               	xorlw	0	; case 0
  2898  09D7  1903               	skipnz
  2899  09D8  29B9               	goto	l3890
  2900  09D9  3A01               	xorlw	1	; case 1
  2901  09DA  1903               	skipnz
  2902  09DB  29C8               	goto	l3900
  2903  09DC  3A03               	xorlw	3	; case 2
  2904  09DD  1903               	skipnz
  2905  09DE  29E0               	goto	l85
  2906  09DF  29E0               	goto	l85
  2907  09E0                     l85:
  2908  09E0  0008               	return
  2909  09E1                     __end_of_SYSTEM_Initialize:
  2910                           
  2911                           	psect	text4
  2912  0801                     __ptext4:	
  2913 ;; *************** function _init_alcohol *****************
  2914 ;; Defined at:
  2915 ;;		line 10 in file "alcohol_drive.c"
  2916 ;; Parameters:    Size  Location     Type
  2917 ;;		None
  2918 ;; Auto vars:     Size  Location     Type
  2919 ;;		None
  2920 ;; Return value:  Size  Location     Type
  2921 ;;                  1    wreg      void 
  2922 ;; Registers used:
  2923 ;;		None
  2924 ;; Tracked objects:
  2925 ;;		On entry : 0/0
  2926 ;;		On exit  : 0/0
  2927 ;;		Unchanged: 0/0
  2928 ;; Data sizes:     COMMON   BANK0   BANK1   BANK2   BANK3   BANK4   BANK5   BANK6   BANK7   BANK8   BANK9  BANK10  BANK1
      +1  BANK12
  2929 ;;      Params:         0       0       0       0       0       0       0       0       0       0       0       0       
      +0       0
  2930 ;;      Locals:         0       0       0       0       0       0       0       0       0       0       0       0       
      +0       0
  2931 ;;      Temps:          0       0       0       0       0       0       0       0       0       0       0       0       
      +0       0
  2932 ;;      Totals:         0       0       0       0       0       0       0       0       0       0       0       0       
      +0       0
  2933 ;;Total ram usage:        0 bytes
  2934 ;; Hardware stack levels used: 1
  2935 ;; Hardware stack levels required when called: 10
  2936 ;; This function calls:
  2937 ;;		Nothing
  2938 ;; This function is called by:
  2939 ;;		_SYSTEM_Initialize
  2940 ;; This function uses a non-reentrant model
  2941 ;;
  2942                           
  2943  0801                     _init_alcohol:	
  2944                           ;psect for function _init_alcohol
  2945                           
  2946  0801                     l3688:	
  2947                           ;incstack = 0
  2948                           ; Regs used in _init_alcohol: []
  2949                           
  2950                           
  2951                           ;alcohol_drive.c: 11:     TRISAbits.TRISA5 = 1;
  2952  0801  0021               	movlb	1	; select bank1
  2953  0802  168C               	bsf	12,5	;volatile
  2954  0803                     l601:
  2955  0803  0008               	return
  2956  0804                     __end_of_init_alcohol:
  2957                           
  2958                           	psect	text5
  2959  080F                     __ptext5:	
  2960 ;; *************** function _LED_Init *****************
  2961 ;; Defined at:
  2962 ;;		line 75 in file "leds.c"
  2963 ;; Parameters:    Size  Location     Type
  2964 ;;		None
  2965 ;; Auto vars:     Size  Location     Type
  2966 ;;		None
  2967 ;; Return value:  Size  Location     Type
  2968 ;;                  1    wreg      void 
  2969 ;; Registers used:
  2970 ;;		None
  2971 ;; Tracked objects:
  2972 ;;		On entry : 0/0
  2973 ;;		On exit  : 0/0
  2974 ;;		Unchanged: 0/0
  2975 ;; Data sizes:     COMMON   BANK0   BANK1   BANK2   BANK3   BANK4   BANK5   BANK6   BANK7   BANK8   BANK9  BANK10  BANK1
      +1  BANK12
  2976 ;;      Params:         0       0       0       0       0       0       0       0       0       0       0       0       
      +0       0
  2977 ;;      Locals:         0       0       0       0       0       0       0       0       0       0       0       0       
      +0       0
  2978 ;;      Temps:          0       0       0       0       0       0       0       0       0       0       0       0       
      +0       0
  2979 ;;      Totals:         0       0       0       0       0       0       0       0       0       0       0       0       
      +0       0
  2980 ;;Total ram usage:        0 bytes
  2981 ;; Hardware stack levels used: 1
  2982 ;; Hardware stack levels required when called: 10
  2983 ;; This function calls:
  2984 ;;		Nothing
  2985 ;; This function is called by:
  2986 ;;		_SYSTEM_Initialize
  2987 ;; This function uses a non-reentrant model
  2988 ;;
  2989                           
  2990  080F                     _LED_Init:	
  2991                           ;psect for function _LED_Init
  2992                           
  2993  080F                     l3686:	
  2994                           ;incstack = 0
  2995                           ; Regs used in _LED_Init: []
  2996                           
  2997                           
  2998                           ;leds.c: 77:     TRISCbits.TRISC5 = 0;
  2999  080F  0021               	movlb	1	; select bank1
  3000  0810  128E               	bcf	14,5	;volatile
  3001                           
  3002                           ;leds.c: 78:     TRISCbits.TRISC4 = 0;
  3003  0811  120E               	bcf	14,4	;volatile
  3004                           
  3005                           ;leds.c: 79:     TRISCbits.TRISC3 = 0;
  3006  0812  118E               	bcf	14,3	;volatile
  3007                           
  3008                           ;leds.c: 80:     TRISCbits.TRISC6 = 0;
  3009  0813  130E               	bcf	14,6	;volatile
  3010                           
  3011                           ;leds.c: 82:     LATCbits.LATC5 = 0;
  3012  0814  0022               	movlb	2	; select bank2
  3013  0815  128E               	bcf	14,5	;volatile
  3014                           
  3015                           ;leds.c: 83:     LATCbits.LATC4 = 0;
  3016  0816  120E               	bcf	14,4	;volatile
  3017                           
  3018                           ;leds.c: 84:     LATCbits.LATC3 = 0;
  3019  0817  118E               	bcf	14,3	;volatile
  3020                           
  3021                           ;leds.c: 85:     LATCbits.LATC6 = 0;
  3022  0818  130E               	bcf	14,6	;volatile
  3023  0819                     l592:
  3024  0819  0008               	return
  3025  081A                     __end_of_LED_Init:
  3026                           
  3027                           	psect	text6
  3028  04D1                     __ptext6:	
  3029 ;; *************** function _APP_DeviceCustomHIDTasks *****************
  3030 ;; Defined at:
  3031 ;;		line 54 in file "app_device_custom_hid.c"
  3032 ;; Parameters:    Size  Location     Type
  3033 ;;		None
  3034 ;; Auto vars:     Size  Location     Type
  3035 ;;  result          1   13[BANK1 ] _Bool 
  3036 ;; Return value:  Size  Location     Type
  3037 ;;                  1    wreg      void 
  3038 ;; Registers used:
  3039 ;;		wreg, fsr0l, fsr0h, fsr1l, fsr1h, status,2, status,0, pclath, cstack
  3040 ;; Tracked objects:
  3041 ;;		On entry : 0/0
  3042 ;;		On exit  : 0/0
  3043 ;;		Unchanged: 0/0
  3044 ;; Data sizes:     COMMON   BANK0   BANK1   BANK2   BANK3   BANK4   BANK5   BANK6   BANK7   BANK8   BANK9  BANK10  BANK1
      +1  BANK12
  3045 ;;      Params:         0       0       0       0       0       0       0       0       0       0       0       0       
      +0       0
  3046 ;;      Locals:         0       0       1       0       0       0       0       0       0       0       0       0       
      +0       0
  3047 ;;      Temps:          0       0       2       0       0       0       0       0       0       0       0       0       
      +0       0
  3048 ;;      Totals:         0       0       3       0       0       0       0       0       0       0       0       0       
      +0       0
  3049 ;;Total ram usage:        3 bytes
  3050 ;; Hardware stack levels used: 1
  3051 ;; Hardware stack levels required when called: 11
  3052 ;; This function calls:
  3053 ;;		_LED_Off
  3054 ;;		_LED_On
  3055 ;;		_USBTransferOnePacket
  3056 ;;		_check_alcohol
  3057 ;; This function is called by:
  3058 ;;		_main
  3059 ;; This function uses a non-reentrant model
  3060 ;;
  3061                           
  3062  04D1                     _APP_DeviceCustomHIDTasks:	
  3063                           ;psect for function _APP_DeviceCustomHIDTasks
  3064                           
  3065  04D1                     l3844:	
  3066                           ;incstack = 0
  3067                           ; Regs used in _APP_DeviceCustomHIDTasks: [wreg-fsr1h+status,2+status,0+pclath+cstack]
  3068                           
  3069                           
  3070                           ;app_device_custom_hid.c: 59:     if( USBDeviceState < CONFIGURED_STATE )
  3071  04D1  3020               	movlw	32
  3072  04D2  0021               	movlb	1	; select bank1
  3073  04D3  026F               	subwf	_USBDeviceState^(0+128),w	;volatile
  3074  04D4  1803               	skipnc
  3075  04D5  2CD7               	goto	u2461
  3076  04D6  2CD8               	goto	u2460
  3077  04D7                     u2461:
  3078  04D7  2CD9               	goto	l28
  3079  04D8                     u2460:
  3080  04D8  2D79               	goto	l29
  3081  04D9                     l28:	
  3082                           ;app_device_custom_hid.c: 62:     }
  3083                           
  3084                           
  3085                           ;app_device_custom_hid.c: 68:     if( UCONbits.SUSPND== 1 )
  3086  04D9  003D               	movlb	29	; select bank29
  3087  04DA  1C8E               	btfss	14,1	;volatile
  3088  04DB  2CDD               	goto	u2471
  3089  04DC  2CDE               	goto	u2470
  3090  04DD                     u2471:
  3091  04DD  2CDF               	goto	l3850
  3092  04DE                     u2470:
  3093  04DE  2D79               	goto	l29
  3094  04DF                     l3850:
  3095                           
  3096                           ;app_device_custom_hid.c: 74:     if(((USBOutHandle != 0x0000) && ((*(volatile uint8_t*)
      +                          USBOutHandle & 0x80) != 0x00)) == 0)
  3097  04DF  0023               	movlb	3	; select bank3
  3098  04E0  082C               	movf	_USBOutHandle^(0+384),w
  3099  04E1  042D               	iorwf	(_USBOutHandle+1)^(0+384),w
  3100  04E2  1903               	btfsc	3,2
  3101  04E3  2CE5               	goto	u2481
  3102  04E4  2CE6               	goto	u2480
  3103  04E5                     u2481:
  3104  04E5  2D52               	goto	l3880
  3105  04E6                     u2480:
  3106  04E6                     l3852:
  3107  04E6  082C               	movf	_USBOutHandle^(0+384),w
  3108  04E7  0086               	movwf	6
  3109  04E8  082D               	movf	(_USBOutHandle+1)^(0+384),w
  3110  04E9  0087               	movwf	7
  3111  04EA  1B81               	btfsc	1,7
  3112  04EB  2CED               	goto	u2491
  3113  04EC  2CEE               	goto	u2490
  3114  04ED                     u2491:
  3115  04ED  2D79               	goto	l29
  3116  04EE                     u2490:
  3117  04EE  2D52               	goto	l3880
  3118  04EF                     l3854:
  3119                           
  3120                           ;app_device_custom_hid.c: 79:                 if(!((USBInHandle != 0x0000) && ((*(volati
      +                          le uint8_t*)USBInHandle & 0x80) != 0x00)))
  3121  04EF  0023               	movlb	3	; select bank3
  3122  04F0  082A               	movf	_USBInHandle^(0+384),w
  3123  04F1  042B               	iorwf	(_USBInHandle+1)^(0+384),w
  3124  04F2  1903               	btfsc	3,2
  3125  04F3  2CF5               	goto	u2501
  3126  04F4  2CF6               	goto	u2500
  3127  04F5                     u2501:
  3128  04F5  2CFE               	goto	l3858
  3129  04F6                     u2500:
  3130  04F6                     l3856:
  3131  04F6  082A               	movf	_USBInHandle^(0+384),w
  3132  04F7  0086               	movwf	6
  3133  04F8  082B               	movf	(_USBInHandle+1)^(0+384),w
  3134  04F9  0087               	movwf	7
  3135  04FA  1B81               	btfsc	1,7
  3136  04FB  2CFD               	goto	u2511
  3137  04FC  2CFE               	goto	u2510
  3138  04FD                     u2511:
  3139  04FD  2D63               	goto	l3882
  3140  04FE                     u2510:
  3141  04FE                     l3858:
  3142                           
  3143                           ;app_device_custom_hid.c: 80:                 {;app_device_custom_hid.c: 82:            
      +                                   LED_Off(LED_NG);
  3144  04FE  3004               	movlw	4
  3145  04FF  3189  210F  3184   	fcall	_LED_Off
  3146                           
  3147                           ;app_device_custom_hid.c: 83:                     LED_Off(LED_OK);
  3148  0502  3003               	movlw	3
  3149  0503  3189  210F  3184   	fcall	_LED_Off
  3150                           
  3151                           ;app_device_custom_hid.c: 84:                     LED_Off(LED_SCANNING);
  3152  0506  3002               	movlw	2
  3153  0507  3189  210F  3184   	fcall	_LED_Off
  3154                           
  3155                           ;app_device_custom_hid.c: 86:                     LED_On(LED_SCANNING);
  3156  050A  3002               	movlw	2
  3157  050B  3189  2138  3184   	fcall	_LED_On
  3158  050E                     l3860:
  3159                           
  3160                           ;app_device_custom_hid.c: 87:                     _Bool result = check_alcohol();
  3161  050E  3189  2161  3184   	fcall	_check_alcohol
  3162  0511  0021               	movlb	1	; select bank1
  3163  0512  00EB               	movwf	??_APP_DeviceCustomHIDTasks^(0+128)
  3164  0513  086B               	movf	??_APP_DeviceCustomHIDTasks^(0+128),w
  3165  0514  00ED               	movwf	APP_DeviceCustomHIDTasks@result^(0+128)
  3166  0515                     l3862:
  3167                           
  3168                           ;app_device_custom_hid.c: 89:                     if(result){
  3169  0515  086D               	movf	APP_DeviceCustomHIDTasks@result^(0+128),w
  3170  0516  1903               	btfsc	3,2
  3171  0517  2D19               	goto	u2521
  3172  0518  2D1A               	goto	u2520
  3173  0519                     u2521:
  3174  0519  2D24               	goto	l3868
  3175  051A                     u2520:
  3176  051A                     l3864:
  3177                           
  3178                           ;app_device_custom_hid.c: 90:                         ToSendDataBuffer[0] = ALCOHOL_OK;
  3179  051A  3081               	movlw	129
  3180  051B  00EB               	movwf	??_APP_DeviceCustomHIDTasks^(0+128)
  3181  051C  086B               	movf	??_APP_DeviceCustomHIDTasks^(0+128),w
  3182  051D  0022               	movlb	2	; select bank2
  3183  051E  00A0               	movwf	32
  3184  051F                     l3866:
  3185                           
  3186                           ;app_device_custom_hid.c: 91:                         LED_On(LED_OK);
  3187  051F  3003               	movlw	3
  3188  0520  3189  2138  3184   	fcall	_LED_On
  3189                           
  3190                           ;app_device_custom_hid.c: 92:                     }else{
  3191  0523  2D2D               	goto	l3872
  3192  0524                     l3868:
  3193                           
  3194                           ;app_device_custom_hid.c: 93:                         ToSendDataBuffer[0] = ALCOHOL_NG;
  3195  0524  3082               	movlw	130
  3196  0525  00EB               	movwf	??_APP_DeviceCustomHIDTasks^(0+128)
  3197  0526  086B               	movf	??_APP_DeviceCustomHIDTasks^(0+128),w
  3198  0527  0022               	movlb	2	; select bank2
  3199  0528  00A0               	movwf	32
  3200  0529                     l3870:
  3201                           
  3202                           ;app_device_custom_hid.c: 94:                         LED_On(LED_NG);
  3203  0529  3004               	movlw	4
  3204  052A  3189  2138  3184   	fcall	_LED_On
  3205  052D                     l3872:
  3206                           
  3207                           ;app_device_custom_hid.c: 98:                     USBInHandle = USBTransferOnePacket(1,1
      +                          ,(uint8_t*)&ToSendDataBuffer[0],64);
  3208  052D  0021               	movlb	1	; select bank1
  3209  052E  01E0               	clrf	USBTransferOnePacket@dir^(0+128)
  3210  052F  0AE0               	incf	USBTransferOnePacket@dir^(0+128),f
  3211  0530  3020               	movlw	32
  3212  0531  00E1               	movwf	USBTransferOnePacket@data^(0+128)
  3213  0532  3001               	movlw	1
  3214  0533  00E2               	movwf	(USBTransferOnePacket@data+1)^(0+128)
  3215  0534  3040               	movlw	64
  3216  0535  00EB               	movwf	??_APP_DeviceCustomHIDTasks^(0+128)
  3217  0536  086B               	movf	??_APP_DeviceCustomHIDTasks^(0+128),w
  3218  0537  00E3               	movwf	USBTransferOnePacket@len^(0+128)
  3219  0538  3001               	movlw	1
  3220  0539  318F  2778  3184   	fcall	_USBTransferOnePacket
  3221  053C  0021               	movlb	1	; select bank1
  3222  053D  0861               	movf	(?_USBTransferOnePacket+1)^(0+128),w
  3223  053E  0023               	movlb	3	; select bank3
  3224  053F  00AB               	movwf	(_USBInHandle+1)^(0+384)
  3225  0540  0021               	movlb	1	; select bank1
  3226  0541  0860               	movf	?_USBTransferOnePacket^(0+128),w
  3227  0542  0023               	movlb	3	; select bank3
  3228  0543  00AA               	movwf	_USBInHandle^(0+384)
  3229  0544  2D63               	goto	l3882
  3230  0545                     l3874:
  3231                           
  3232                           ;app_device_custom_hid.c: 102:                 if(!((USBInHandle != 0x0000) && ((*(volat
      +                          ile uint8_t*)USBInHandle & 0x80) != 0x00)))
  3233  0545  0023               	movlb	3	; select bank3
  3234  0546  082A               	movf	_USBInHandle^(0+384),w
  3235  0547  042B               	iorwf	(_USBInHandle+1)^(0+384),w
  3236  0548  1903               	btfsc	3,2
  3237  0549  2D4B               	goto	u2531
  3238  054A  2D4C               	goto	u2530
  3239  054B                     u2531:
  3240  054B  2D63               	goto	l3882
  3241  054C                     u2530:
  3242  054C                     l3876:
  3243  054C  082A               	movf	_USBInHandle^(0+384),w
  3244  054D  0086               	movwf	6
  3245  054E  082B               	movf	(_USBInHandle+1)^(0+384),w
  3246  054F  0087               	movwf	7
  3247  0550  0801               	movf	1,w
  3248  0551  2D63               	goto	l3882
  3249  0552                     l3880:
  3250  0552  0021               	movlb	1	; select bank1
  3251  0553  0820               	movf	32,w
  3252  0554  00EB               	movwf	??_APP_DeviceCustomHIDTasks^(0+128)
  3253  0555  01EC               	clrf	(??_APP_DeviceCustomHIDTasks^(0+128)+1)
  3254                           
  3255                           ; Switch on 2 bytes has been partitioned into a top level switch of size 1, and 1 sub-sw
      +                          itches
  3256                           ; Switch size 1, requested type "simple"
  3257                           ; Number of cases is 1, Range of values is 0 to 0
  3258                           ; switch strategies available:
  3259                           ; Name         Instructions Cycles
  3260                           ; simple_byte            4     3 (average)
  3261                           ; direct_byte            8     6 (fixed)
  3262                           ; jumptable            260     6 (fixed)
  3263                           ;	Chosen strategy is simple_byte
  3264  0556  086C               	movf	(??_APP_DeviceCustomHIDTasks+1)^(0+128),w
  3265  0557  3A00               	xorlw	0	; case 0
  3266  0558  1903               	skipnz
  3267  0559  2D5B               	goto	l5070
  3268  055A  2D63               	goto	l3882
  3269  055B                     l5070:
  3270                           
  3271                           ; Switch size 1, requested type "simple"
  3272                           ; Number of cases is 2, Range of values is 112 to 128
  3273                           ; switch strategies available:
  3274                           ; Name         Instructions Cycles
  3275                           ; simple_byte            7     4 (average)
  3276                           ; direct_byte           43     9 (fixed)
  3277                           ; jumptable            263     9 (fixed)
  3278                           ;	Chosen strategy is simple_byte
  3279  055B  086B               	movf	??_APP_DeviceCustomHIDTasks^(0+128),w
  3280  055C  3A70               	xorlw	112	; case 112
  3281  055D  1903               	skipnz
  3282  055E  2D45               	goto	l3874
  3283  055F  3AF0               	xorlw	240	; case 128
  3284  0560  1903               	skipnz
  3285  0561  2CEF               	goto	l3854
  3286  0562  2D63               	goto	l3882
  3287  0563                     l3882:
  3288                           
  3289                           ;app_device_custom_hid.c: 111:         USBOutHandle = USBTransferOnePacket(1,0,(uint8_t*
      +                          )&ReceivedDataBuffer[0],64);
  3290  0563  0021               	movlb	1	; select bank1
  3291  0564  01E0               	clrf	USBTransferOnePacket@dir^(0+128)
  3292  0565  30A0               	movlw	160
  3293  0566  00E1               	movwf	USBTransferOnePacket@data^(0+128)
  3294  0567  3000               	movlw	0
  3295  0568  00E2               	movwf	(USBTransferOnePacket@data+1)^(0+128)
  3296  0569  3040               	movlw	64
  3297  056A  00EB               	movwf	??_APP_DeviceCustomHIDTasks^(0+128)
  3298  056B  086B               	movf	??_APP_DeviceCustomHIDTasks^(0+128),w
  3299  056C  00E3               	movwf	USBTransferOnePacket@len^(0+128)
  3300  056D  3001               	movlw	1
  3301  056E  318F  2778  3184   	fcall	_USBTransferOnePacket
  3302  0571  0021               	movlb	1	; select bank1
  3303  0572  0861               	movf	(?_USBTransferOnePacket+1)^(0+128),w
  3304  0573  0023               	movlb	3	; select bank3
  3305  0574  00AD               	movwf	(_USBOutHandle+1)^(0+384)
  3306  0575  0021               	movlb	1	; select bank1
  3307  0576  0860               	movf	?_USBTransferOnePacket^(0+128),w
  3308  0577  0023               	movlb	3	; select bank3
  3309  0578  00AC               	movwf	_USBOutHandle^(0+384)
  3310  0579                     l29:
  3311  0579  0008               	return
  3312  057A                     __end_of_APP_DeviceCustomHIDTasks:
  3313                           
  3314                           	psect	text7
  3315  0961                     __ptext7:	
  3316 ;; *************** function _check_alcohol *****************
  3317 ;; Defined at:
  3318 ;;		line 18 in file "alcohol_drive.c"
  3319 ;; Parameters:    Size  Location     Type
  3320 ;;		None
  3321 ;; Auto vars:     Size  Location     Type
  3322 ;;  i               2    3[BANK1 ] unsigned short 
  3323 ;;  max             2    1[BANK1 ] unsigned short 
  3324 ;;  ret             1    5[BANK1 ] _Bool 
  3325 ;; Return value:  Size  Location     Type
  3326 ;;                  1    wreg      _Bool 
  3327 ;; Registers used:
  3328 ;;		wreg, status,2
  3329 ;; Tracked objects:
  3330 ;;		On entry : 0/0
  3331 ;;		On exit  : 0/0
  3332 ;;		Unchanged: 0/0
  3333 ;; Data sizes:     COMMON   BANK0   BANK1   BANK2   BANK3   BANK4   BANK5   BANK6   BANK7   BANK8   BANK9  BANK10  BANK1
      +1  BANK12
  3334 ;;      Params:         0       0       0       0       0       0       0       0       0       0       0       0       
      +0       0
  3335 ;;      Locals:         0       0       5       0       0       0       0       0       0       0       0       0       
      +0       0
  3336 ;;      Temps:          0       0       1       0       0       0       0       0       0       0       0       0       
      +0       0
  3337 ;;      Totals:         0       0       6       0       0       0       0       0       0       0       0       0       
      +0       0
  3338 ;;Total ram usage:        6 bytes
  3339 ;; Hardware stack levels used: 1
  3340 ;; Hardware stack levels required when called: 10
  3341 ;; This function calls:
  3342 ;;		Nothing
  3343 ;; This function is called by:
  3344 ;;		_APP_DeviceCustomHIDTasks
  3345 ;; This function uses a non-reentrant model
  3346 ;;
  3347                           
  3348  0961                     _check_alcohol:	
  3349                           ;psect for function _check_alcohol
  3350                           
  3351  0961                     l3668:	
  3352                           ;incstack = 0
  3353                           ; Regs used in _check_alcohol: [wreg+status,2]
  3354                           
  3355                           
  3356                           ;alcohol_drive.c: 19:     _Bool ret = 1;
  3357  0961  0021               	movlb	1	; select bank1
  3358  0962  01E5               	clrf	check_alcohol@ret^(0+128)
  3359  0963  0AE5               	incf	check_alcohol@ret^(0+128),f
  3360  0964                     l3670:
  3361                           
  3362                           ;alcohol_drive.c: 20:     uint16_t max = 300;
  3363  0964  302C               	movlw	44
  3364  0965  00E1               	movwf	check_alcohol@max^(0+128)
  3365  0966  3001               	movlw	1
  3366  0967  00E2               	movwf	(check_alcohol@max^(0+128)+1)
  3367  0968                     l3672:
  3368                           
  3369                           ;alcohol_drive.c: 21:     for(uint16_t i = 0; i < max; i++){
  3370  0968  01E3               	clrf	check_alcohol@i^(0+128)
  3371  0969  01E4               	clrf	(check_alcohol@i+1)^(0+128)
  3372  096A  297F               	goto	l3680
  3373  096B                     l605:
  3374                           
  3375                           ;alcohol_drive.c: 23:         if(PORTAbits.RA5 == 0){
  3376  096B  0020               	movlb	0	; select bank0
  3377  096C  1A8C               	btfsc	12,5	;volatile
  3378  096D  296F               	goto	u2291
  3379  096E  2970               	goto	u2290
  3380  096F                     u2291:
  3381  096F  2972               	goto	l3676
  3382  0970                     u2290:
  3383  0970                     l3674:
  3384                           
  3385                           ;alcohol_drive.c: 24:             ret = 0;
  3386  0970  0021               	movlb	1	; select bank1
  3387  0971  01E5               	clrf	check_alcohol@ret^(0+128)
  3388  0972                     l3676:
  3389                           
  3390                           ;alcohol_drive.c: 26:         _delay((unsigned long)((10)*(48000000/4000.0)));
  3391  0972  309C               	movlw	156
  3392  0973  0021               	movlb	1	; select bank1
  3393  0974  00E0               	movwf	??_check_alcohol^(0+128)
  3394  0975  30D7               	movlw	215
  3395  0976                     u3277:
  3396  0976  0B89               	decfsz	9,f
  3397  0977  2976               	goto	u3277
  3398  0978  0BE0               	decfsz	??_check_alcohol^(0+128),f
  3399  0979  2976               	goto	u3277
  3400  097A                     l3678:
  3401                           
  3402                           ;alcohol_drive.c: 27:     }
  3403  097A  3001               	movlw	1
  3404  097B  0021               	movlb	1	; select bank1
  3405  097C  07E3               	addwf	check_alcohol@i^(0+128),f
  3406  097D  3000               	movlw	0
  3407  097E  3DE4               	addwfc	(check_alcohol@i+1)^(0+128),f
  3408  097F                     l3680:
  3409  097F  0862               	movf	(check_alcohol@max+1)^(0+128),w
  3410  0980  0264               	subwf	(check_alcohol@i+1)^(0+128),w
  3411  0981  1D03               	skipz
  3412  0982  2985               	goto	u2305
  3413  0983  0861               	movf	check_alcohol@max^(0+128),w
  3414  0984  0263               	subwf	check_alcohol@i^(0+128),w
  3415  0985                     u2305:
  3416  0985  1C03               	skipc
  3417  0986  2988               	goto	u2301
  3418  0987  2989               	goto	u2300
  3419  0988                     u2301:
  3420  0988  296B               	goto	l605
  3421  0989                     u2300:
  3422  0989                     l3682:
  3423                           
  3424                           ;alcohol_drive.c: 28:     return ret;
  3425  0989  0865               	movf	check_alcohol@ret^(0+128),w
  3426  098A                     l608:
  3427  098A  0008               	return
  3428  098B                     __end_of_check_alcohol:
  3429                           
  3430                           	psect	text8
  3431  0F78                     __ptext8:	
  3432 ;; *************** function _USBTransferOnePacket *****************
  3433 ;; Defined at:
  3434 ;;		line 999 in file "usb_device.c"
  3435 ;; Parameters:    Size  Location     Type
  3436 ;;  ep              1    wreg     unsigned char 
  3437 ;;  dir             1    0[BANK1 ] unsigned char 
  3438 ;;  data            2    1[BANK1 ] PTR unsigned char 
  3439 ;;		 -> ToSendDataBuffer(64), ReceivedDataBuffer(64), 
  3440 ;;  len             1    3[BANK1 ] unsigned char 
  3441 ;; Auto vars:     Size  Location     Type
  3442 ;;  ep              1    8[BANK1 ] unsigned char 
  3443 ;;  handle          2    9[BANK1 ] PTR volatile struct __BD
  3444 ;;		 -> RAM(4096), BDT(32), NULL(0), 
  3445 ;; Return value:  Size  Location     Type
  3446 ;;                  2    0[BANK1 ] PTR void 
  3447 ;; Registers used:
  3448 ;;		wreg, fsr1l, fsr1h, status,2, status,0
  3449 ;; Tracked objects:
  3450 ;;		On entry : 0/0
  3451 ;;		On exit  : 0/0
  3452 ;;		Unchanged: 0/0
  3453 ;; Data sizes:     COMMON   BANK0   BANK1   BANK2   BANK3   BANK4   BANK5   BANK6   BANK7   BANK8   BANK9  BANK10  BANK1
      +1  BANK12
  3454 ;;      Params:         0       0       4       0       0       0       0       0       0       0       0       0       
      +0       0
  3455 ;;      Locals:         0       0       3       0       0       0       0       0       0       0       0       0       
      +0       0
  3456 ;;      Temps:          0       0       4       0       0       0       0       0       0       0       0       0       
      +0       0
  3457 ;;      Totals:         0       0      11       0       0       0       0       0       0       0       0       0       
      +0       0
  3458 ;;Total ram usage:       11 bytes
  3459 ;; Hardware stack levels used: 1
  3460 ;; Hardware stack levels required when called: 10
  3461 ;; This function calls:
  3462 ;;		Nothing
  3463 ;; This function is called by:
  3464 ;;		_APP_DeviceCustomHIDTasks
  3465 ;; This function uses a non-reentrant model
  3466 ;;
  3467                           
  3468  0F78                     _USBTransferOnePacket:	
  3469                           ;psect for function _USBTransferOnePacket
  3470                           
  3471                           
  3472                           ;incstack = 0
  3473                           ; Regs used in _USBTransferOnePacket: [wreg+fsr1l+fsr1h+status,2+status,0]
  3474                           ;USBTransferOnePacket@ep stored from wreg
  3475  0F78  0021               	movlb	1	; select bank1
  3476  0F79  00E8               	movwf	USBTransferOnePacket@ep^(0+128)
  3477  0F7A                     l3616:
  3478                           
  3479                           ;usb_device.c: 999: void* USBTransferOnePacket(uint8_t ep,uint8_t dir,uint8_t* data,uint
      +                          8_t len);usb_device.c: 1000: {;usb_device.c: 1001:     volatile BDT_ENTRY* handle;;usb_d
      +                          evice.c: 1004:     if(dir != 0)
  3480  0F7A  0860               	movf	USBTransferOnePacket@dir^(0+128),w
  3481  0F7B  1903               	btfsc	3,2
  3482  0F7C  2F7E               	goto	u2261
  3483  0F7D  2F7F               	goto	u2260
  3484  0F7E                     u2261:
  3485  0F7E  2F88               	goto	l3620
  3486  0F7F                     u2260:
  3487  0F7F                     l3618:
  3488                           
  3489                           ;usb_device.c: 1005:     {;usb_device.c: 1007:         handle = pBDTEntryIn[ep];
  3490  0F7F  3568               	lslf	USBTransferOnePacket@ep^(0+128),w
  3491  0F80  3E6A               	addlw	(low (_pBDTEntryIn| 0))& (0+255)
  3492  0F81  0086               	movwf	6
  3493  0F82  0187               	clrf	7
  3494  0F83  3F40               	moviw [0]fsr1
  3495  0F84  00E9               	movwf	USBTransferOnePacket@handle^(0+128)
  3496  0F85  3F41               	moviw [1]fsr1
  3497  0F86  00EA               	movwf	(USBTransferOnePacket@handle+1)^(0+128)
  3498                           
  3499                           ;usb_device.c: 1008:     }
  3500  0F87  2F91               	goto	l3622
  3501  0F88                     l3620:
  3502                           
  3503                           ;usb_device.c: 1010:     {;usb_device.c: 1012:         handle = pBDTEntryOut[ep];
  3504  0F88  3568               	lslf	USBTransferOnePacket@ep^(0+128),w
  3505  0F89  3EA4               	addlw	(low (_pBDTEntryOut| (0+256)))& (0+255)
  3506  0F8A  0086               	movwf	6
  3507  0F8B  3001               	movlw	1	; select bank3/4
  3508  0F8C  0087               	movwf	7
  3509  0F8D  3F40               	moviw [0]fsr1
  3510  0F8E  00E9               	movwf	USBTransferOnePacket@handle^(0+128)
  3511  0F8F  3F41               	moviw [1]fsr1
  3512  0F90  00EA               	movwf	(USBTransferOnePacket@handle+1)^(0+128)
  3513  0F91                     l3622:
  3514                           
  3515                           ;usb_device.c: 1017:     if(handle == 0)
  3516  0F91  0869               	movf	USBTransferOnePacket@handle^(0+128),w
  3517  0F92  046A               	iorwf	(USBTransferOnePacket@handle+1)^(0+128),w
  3518  0F93  1D03               	btfss	3,2
  3519  0F94  2F96               	goto	u2271
  3520  0F95  2F97               	goto	u2270
  3521  0F96                     u2271:
  3522  0F96  2F9A               	goto	l3628
  3523  0F97                     u2270:
  3524  0F97                     l3624:
  3525                           
  3526                           ;usb_device.c: 1018:     {;usb_device.c: 1019:         return 0;
  3527  0F97  01E0               	clrf	?_USBTransferOnePacket^(0+128)
  3528  0F98  01E1               	clrf	(?_USBTransferOnePacket+1)^(0+128)
  3529  0F99  2FFF               	goto	l285
  3530  0F9A                     l3628:
  3531                           
  3532                           ;usb_device.c: 1033:     handle->ADR = (((uint16_t)(data)) & 0x7FFF);
  3533  0F9A  30FF               	movlw	255
  3534  0F9B  0561               	andwf	USBTransferOnePacket@data^(0+128),w
  3535  0F9C  00E4               	movwf	??_USBTransferOnePacket^(0+128)
  3536  0F9D  307F               	movlw	127
  3537  0F9E  0562               	andwf	(USBTransferOnePacket@data+1)^(0+128),w
  3538  0F9F  00E5               	movwf	(??_USBTransferOnePacket+1)^(0+128)
  3539  0FA0  0869               	movf	USBTransferOnePacket@handle^(0+128),w
  3540  0FA1  0086               	movwf	6
  3541  0FA2  086A               	movf	(USBTransferOnePacket@handle+1)^(0+128),w
  3542  0FA3  0087               	movwf	7
  3543  0FA4  3142               	addfsr 1,2
  3544  0FA5  0864               	movf	??_USBTransferOnePacket^(0+128),w
  3545  0FA6  3FC0               	movwi [0]fsr1
  3546  0FA7  0865               	movf	(??_USBTransferOnePacket^(0+128)+1),w
  3547  0FA8  3FC1               	movwi [1]fsr1
  3548  0FA9                     l3630:
  3549                           
  3550                           ;usb_device.c: 1034:     handle->CNT = len;
  3551  0FA9  0869               	movf	USBTransferOnePacket@handle^(0+128),w
  3552  0FAA  3E01               	addlw	1
  3553  0FAB  00E4               	movwf	??_USBTransferOnePacket^(0+128)
  3554  0FAC  3000               	movlw	0
  3555  0FAD  3D6A               	addwfc	(USBTransferOnePacket@handle+1)^(0+128),w
  3556  0FAE  00E5               	movwf	(??_USBTransferOnePacket+1)^(0+128)
  3557  0FAF  0864               	movf	??_USBTransferOnePacket^(0+128),w
  3558  0FB0  0086               	movwf	6
  3559  0FB1  0865               	movf	(??_USBTransferOnePacket+1)^(0+128),w
  3560  0FB2  0087               	movwf	7
  3561  0FB3  0863               	movf	USBTransferOnePacket@len^(0+128),w
  3562  0FB4  0081               	movwf	1
  3563  0FB5                     l3632:
  3564                           
  3565                           ;usb_device.c: 1035:     handle->STAT.Val &= 0x40;
  3566  0FB5  3040               	movlw	64
  3567  0FB6  00E4               	movwf	??_USBTransferOnePacket^(0+128)
  3568  0FB7  0869               	movf	USBTransferOnePacket@handle^(0+128),w
  3569  0FB8  0086               	movwf	6
  3570  0FB9  086A               	movf	(USBTransferOnePacket@handle+1)^(0+128),w
  3571  0FBA  0087               	movwf	7
  3572  0FBB  0864               	movf	??_USBTransferOnePacket^(0+128),w
  3573  0FBC  0581               	andwf	1,f
  3574                           
  3575                           ;usb_device.c: 1036:     handle->STAT.Val |= (0x08 & 0x08);
  3576  0FBD  0869               	movf	USBTransferOnePacket@handle^(0+128),w
  3577  0FBE  0086               	movwf	6
  3578  0FBF  086A               	movf	(USBTransferOnePacket@handle+1)^(0+128),w
  3579  0FC0  0087               	movwf	7
  3580  0FC1  1581               	bsf	1,3
  3581                           
  3582                           ;usb_device.c: 1037:     handle->STAT.Val |= 0x80;
  3583  0FC2  0869               	movf	USBTransferOnePacket@handle^(0+128),w
  3584  0FC3  0086               	movwf	6
  3585  0FC4  086A               	movf	(USBTransferOnePacket@handle+1)^(0+128),w
  3586  0FC5  0087               	movwf	7
  3587  0FC6  1781               	bsf	1,7
  3588  0FC7                     l3634:
  3589                           
  3590                           ;usb_device.c: 1040:     if(dir != 0)
  3591  0FC7  0860               	movf	USBTransferOnePacket@dir^(0+128),w
  3592  0FC8  1903               	btfsc	3,2
  3593  0FC9  2FCB               	goto	u2281
  3594  0FCA  2FCC               	goto	u2280
  3595  0FCB                     u2281:
  3596  0FCB  2FE3               	goto	l3638
  3597  0FCC                     u2280:
  3598  0FCC                     l3636:
  3599                           
  3600                           ;usb_device.c: 1041:     {;usb_device.c: 1043:         pBDTEntryIn[ep] = (BDT_ENTRY*)(((
      +                          uint16_t)pBDTEntryIn[ep]) ^ 0x0004);
  3601  0FCC  3568               	lslf	USBTransferOnePacket@ep^(0+128),w
  3602  0FCD  3E6A               	addlw	(low (_pBDTEntryIn| 0))& (0+255)
  3603  0FCE  0086               	movwf	6
  3604  0FCF  0187               	clrf	7
  3605  0FD0  3F40               	moviw [0]fsr1
  3606  0FD1  00E4               	movwf	??_USBTransferOnePacket^(0+128)
  3607  0FD2  3F41               	moviw [1]fsr1
  3608  0FD3  00E5               	movwf	(??_USBTransferOnePacket^(0+128)+1)
  3609  0FD4  3004               	movlw	4
  3610  0FD5  0664               	xorwf	??_USBTransferOnePacket^(0+128),w
  3611  0FD6  00E6               	movwf	(??_USBTransferOnePacket+2)^(0+128)
  3612  0FD7  3000               	movlw	0
  3613  0FD8  0665               	xorwf	(??_USBTransferOnePacket+1)^(0+128),w
  3614  0FD9  00E7               	movwf	(??_USBTransferOnePacket+3)^(0+128)
  3615  0FDA  3568               	lslf	USBTransferOnePacket@ep^(0+128),w
  3616  0FDB  3E6A               	addlw	(low (_pBDTEntryIn| 0))& (0+255)
  3617  0FDC  0086               	movwf	6
  3618  0FDD  0187               	clrf	7
  3619  0FDE  0866               	movf	(??_USBTransferOnePacket+2)^(0+128),w
  3620  0FDF  3FC0               	movwi [0]fsr1
  3621  0FE0  0867               	movf	(??_USBTransferOnePacket+3)^(0+128),w
  3622  0FE1  3FC1               	movwi [1]fsr1
  3623                           
  3624                           ;usb_device.c: 1044:     }
  3625  0FE2  2FFB               	goto	l3640
  3626  0FE3                     l3638:
  3627                           
  3628                           ;usb_device.c: 1046:     {;usb_device.c: 1048:         pBDTEntryOut[ep] = (BDT_ENTRY*)((
      +                          (uint16_t)pBDTEntryOut[ep]) ^ 0x0004);
  3629  0FE3  3568               	lslf	USBTransferOnePacket@ep^(0+128),w
  3630  0FE4  3EA4               	addlw	(low (_pBDTEntryOut| (0+256)))& (0+255)
  3631  0FE5  0086               	movwf	6
  3632  0FE6  3001               	movlw	1	; select bank3/4
  3633  0FE7  0087               	movwf	7
  3634  0FE8  3F40               	moviw [0]fsr1
  3635  0FE9  00E4               	movwf	??_USBTransferOnePacket^(0+128)
  3636  0FEA  3F41               	moviw [1]fsr1
  3637  0FEB  00E5               	movwf	(??_USBTransferOnePacket^(0+128)+1)
  3638  0FEC  3004               	movlw	4
  3639  0FED  0664               	xorwf	??_USBTransferOnePacket^(0+128),w
  3640  0FEE  00E6               	movwf	(??_USBTransferOnePacket+2)^(0+128)
  3641  0FEF  3000               	movlw	0
  3642  0FF0  0665               	xorwf	(??_USBTransferOnePacket+1)^(0+128),w
  3643  0FF1  00E7               	movwf	(??_USBTransferOnePacket+3)^(0+128)
  3644  0FF2  3568               	lslf	USBTransferOnePacket@ep^(0+128),w
  3645  0FF3  3EA4               	addlw	(low (_pBDTEntryOut| (0+256)))& (0+255)
  3646  0FF4  0086               	movwf	6
  3647  0FF5  3001               	movlw	1	; select bank3/4
  3648  0FF6  0087               	movwf	7
  3649  0FF7  0866               	movf	(??_USBTransferOnePacket+2)^(0+128),w
  3650  0FF8  3FC0               	movwi [0]fsr1
  3651  0FF9  0867               	movf	(??_USBTransferOnePacket+3)^(0+128),w
  3652  0FFA  3FC1               	movwi [1]fsr1
  3653  0FFB                     l3640:
  3654                           
  3655                           ;usb_device.c: 1050:     return (void*)handle;
  3656  0FFB  086A               	movf	(USBTransferOnePacket@handle+1)^(0+128),w
  3657  0FFC  00E1               	movwf	(?_USBTransferOnePacket+1)^(0+128)
  3658  0FFD  0869               	movf	USBTransferOnePacket@handle^(0+128),w
  3659  0FFE  00E0               	movwf	?_USBTransferOnePacket^(0+128)
  3660  0FFF                     l285:
  3661  0FFF  0008               	return
  3662  1000                     __end_of_USBTransferOnePacket:
  3663                           
  3664                           	psect	text9
  3665  0938                     __ptext9:	
  3666 ;; *************** function _LED_On *****************
  3667 ;; Defined at:
  3668 ;;		line 26 in file "leds.c"
  3669 ;; Parameters:    Size  Location     Type
  3670 ;;  led             1    wreg     enum E2
  3671 ;; Auto vars:     Size  Location     Type
  3672 ;;  led             1    2[BANK1 ] enum E2
  3673 ;; Return value:  Size  Location     Type
  3674 ;;                  1    wreg      void 
  3675 ;; Registers used:
  3676 ;;		wreg, fsr0l, fsr0h, status,2, status,0
  3677 ;; Tracked objects:
  3678 ;;		On entry : 0/0
  3679 ;;		On exit  : 0/0
  3680 ;;		Unchanged: 0/0
  3681 ;; Data sizes:     COMMON   BANK0   BANK1   BANK2   BANK3   BANK4   BANK5   BANK6   BANK7   BANK8   BANK9  BANK10  BANK1
      +1  BANK12
  3682 ;;      Params:         0       0       0       0       0       0       0       0       0       0       0       0       
      +0       0
  3683 ;;      Locals:         0       0       1       0       0       0       0       0       0       0       0       0       
      +0       0
  3684 ;;      Temps:          0       0       2       0       0       0       0       0       0       0       0       0       
      +0       0
  3685 ;;      Totals:         0       0       3       0       0       0       0       0       0       0       0       0       
      +0       0
  3686 ;;Total ram usage:        3 bytes
  3687 ;; Hardware stack levels used: 1
  3688 ;; Hardware stack levels required when called: 10
  3689 ;; This function calls:
  3690 ;;		Nothing
  3691 ;; This function is called by:
  3692 ;;		_APP_DeviceCustomHIDTasks
  3693 ;; This function uses a non-reentrant model
  3694 ;;
  3695                           
  3696  0938                     _LED_On:	
  3697                           ;psect for function _LED_On
  3698                           
  3699                           
  3700                           ;incstack = 0
  3701                           ; Regs used in _LED_On: [wreg-fsr0h+status,2+status,0]
  3702                           ;LED_On@led stored from wreg
  3703  0938  0021               	movlb	1	; select bank1
  3704  0939  00E2               	movwf	LED_On@led^(0+128)
  3705  093A                     l3656:
  3706                           
  3707                           ;leds.c: 26: void LED_On(LED led);leds.c: 27: {;leds.c: 28:     switch(led)
  3708  093A  2947               	goto	l3660
  3709  093B                     l573:	
  3710                           ;leds.c: 29:     {;leds.c: 30:         case LED_CONNECT:
  3711                           
  3712                           
  3713                           ;leds.c: 31:             LATCbits.LATC5 = 1;
  3714  093B  0022               	movlb	2	; select bank2
  3715  093C  168E               	bsf	14,5	;volatile
  3716                           
  3717                           ;leds.c: 32:             break;
  3718  093D  2960               	goto	l579
  3719  093E                     l575:	
  3720                           ;leds.c: 33:         case LED_SCANNING:
  3721                           
  3722                           
  3723                           ;leds.c: 34:             LATCbits.LATC4 = 1;
  3724  093E  0022               	movlb	2	; select bank2
  3725  093F  160E               	bsf	14,4	;volatile
  3726                           
  3727                           ;leds.c: 35:             break;
  3728  0940  2960               	goto	l579
  3729  0941                     l576:	
  3730                           ;leds.c: 36:         case LED_OK:
  3731                           
  3732                           
  3733                           ;leds.c: 37:             LATCbits.LATC3 = 1;
  3734  0941  0022               	movlb	2	; select bank2
  3735  0942  158E               	bsf	14,3	;volatile
  3736                           
  3737                           ;leds.c: 38:             break;
  3738  0943  2960               	goto	l579
  3739  0944                     l577:	
  3740                           ;leds.c: 39:         case LED_NG:
  3741                           
  3742                           
  3743                           ;leds.c: 40:             LATCbits.LATC6 = 1;
  3744  0944  0022               	movlb	2	; select bank2
  3745  0945  170E               	bsf	14,6	;volatile
  3746                           
  3747                           ;leds.c: 41:             break;
  3748  0946  2960               	goto	l579
  3749  0947                     l3660:
  3750  0947  0862               	movf	LED_On@led^(0+128),w
  3751  0948  00E0               	movwf	??_LED_On^(0+128)
  3752  0949  01E1               	clrf	(??_LED_On^(0+128)+1)
  3753                           
  3754                           ; Switch on 2 bytes has been partitioned into a top level switch of size 1, and 1 sub-sw
      +                          itches
  3755                           ; Switch size 1, requested type "simple"
  3756                           ; Number of cases is 1, Range of values is 0 to 0
  3757                           ; switch strategies available:
  3758                           ; Name         Instructions Cycles
  3759                           ; simple_byte            4     3 (average)
  3760                           ; direct_byte            8     6 (fixed)
  3761                           ; jumptable            260     6 (fixed)
  3762                           ;	Chosen strategy is simple_byte
  3763  094A  0861               	movf	(??_LED_On+1)^(0+128),w
  3764  094B  3A00               	xorlw	0	; case 0
  3765  094C  1903               	skipnz
  3766  094D  294F               	goto	l5072
  3767  094E  2960               	goto	l579
  3768  094F                     l5072:
  3769                           
  3770                           ; Switch size 1, requested type "simple"
  3771                           ; Number of cases is 5, Range of values is 0 to 4
  3772                           ; switch strategies available:
  3773                           ; Name         Instructions Cycles
  3774                           ; direct_byte           16     6 (fixed)
  3775                           ; simple_byte           16     9 (average)
  3776                           ; jumptable            260     6 (fixed)
  3777                           ;	Chosen strategy is simple_byte
  3778  094F  0860               	movf	??_LED_On^(0+128),w
  3779  0950  3A00               	xorlw	0	; case 0
  3780  0951  1903               	skipnz
  3781  0952  2960               	goto	l579
  3782  0953  3A01               	xorlw	1	; case 1
  3783  0954  1903               	skipnz
  3784  0955  293B               	goto	l573
  3785  0956  3A03               	xorlw	3	; case 2
  3786  0957  1903               	skipnz
  3787  0958  293E               	goto	l575
  3788  0959  3A01               	xorlw	1	; case 3
  3789  095A  1903               	skipnz
  3790  095B  2941               	goto	l576
  3791  095C  3A07               	xorlw	7	; case 4
  3792  095D  1903               	skipnz
  3793  095E  2944               	goto	l577
  3794  095F  2960               	goto	l579
  3795  0960                     l579:
  3796  0960  0008               	return
  3797  0961                     __end_of_LED_On:
  3798                           
  3799                           	psect	text10
  3800  090F                     __ptext10:	
  3801 ;; *************** function _LED_Off *****************
  3802 ;; Defined at:
  3803 ;;		line 51 in file "leds.c"
  3804 ;; Parameters:    Size  Location     Type
  3805 ;;  led             1    wreg     enum E2
  3806 ;; Auto vars:     Size  Location     Type
  3807 ;;  led             1    2[BANK1 ] enum E2
  3808 ;; Return value:  Size  Location     Type
  3809 ;;                  1    wreg      void 
  3810 ;; Registers used:
  3811 ;;		wreg, fsr0l, fsr0h, status,2, status,0
  3812 ;; Tracked objects:
  3813 ;;		On entry : 0/0
  3814 ;;		On exit  : 0/0
  3815 ;;		Unchanged: 0/0
  3816 ;; Data sizes:     COMMON   BANK0   BANK1   BANK2   BANK3   BANK4   BANK5   BANK6   BANK7   BANK8   BANK9  BANK10  BANK1
      +1  BANK12
  3817 ;;      Params:         0       0       0       0       0       0       0       0       0       0       0       0       
      +0       0
  3818 ;;      Locals:         0       0       1       0       0       0       0       0       0       0       0       0       
      +0       0
  3819 ;;      Temps:          0       0       2       0       0       0       0       0       0       0       0       0       
      +0       0
  3820 ;;      Totals:         0       0       3       0       0       0       0       0       0       0       0       0       
      +0       0
  3821 ;;Total ram usage:        3 bytes
  3822 ;; Hardware stack levels used: 1
  3823 ;; Hardware stack levels required when called: 10
  3824 ;; This function calls:
  3825 ;;		Nothing
  3826 ;; This function is called by:
  3827 ;;		_APP_DeviceCustomHIDTasks
  3828 ;;		_SYSTEM_Initialize
  3829 ;; This function uses a non-reentrant model
  3830 ;;
  3831                           
  3832  090F                     _LED_Off:	
  3833                           ;psect for function _LED_Off
  3834                           
  3835                           
  3836                           ;incstack = 0
  3837                           ; Regs used in _LED_Off: [wreg-fsr0h+status,2+status,0]
  3838                           ;LED_Off@led stored from wreg
  3839  090F  0021               	movlb	1	; select bank1
  3840  0910  00E2               	movwf	LED_Off@led^(0+128)
  3841  0911                     l3644:
  3842                           
  3843                           ;leds.c: 51: void LED_Off(LED led);leds.c: 52: {;leds.c: 53:     switch(led)
  3844  0911  291E               	goto	l3648
  3845  0912                     l583:	
  3846                           ;leds.c: 54:     {;leds.c: 55:         case LED_CONNECT:
  3847                           
  3848                           
  3849                           ;leds.c: 56:             LATCbits.LATC5 = 0;
  3850  0912  0022               	movlb	2	; select bank2
  3851  0913  128E               	bcf	14,5	;volatile
  3852                           
  3853                           ;leds.c: 57:             break;
  3854  0914  2937               	goto	l589
  3855  0915                     l585:	
  3856                           ;leds.c: 58:         case LED_SCANNING:
  3857                           
  3858                           
  3859                           ;leds.c: 59:             LATCbits.LATC4 = 0;
  3860  0915  0022               	movlb	2	; select bank2
  3861  0916  120E               	bcf	14,4	;volatile
  3862                           
  3863                           ;leds.c: 60:             break;
  3864  0917  2937               	goto	l589
  3865  0918                     l586:	
  3866                           ;leds.c: 61:         case LED_OK:
  3867                           
  3868                           
  3869                           ;leds.c: 62:             LATCbits.LATC3 = 0;
  3870  0918  0022               	movlb	2	; select bank2
  3871  0919  118E               	bcf	14,3	;volatile
  3872                           
  3873                           ;leds.c: 63:             break;
  3874  091A  2937               	goto	l589
  3875  091B                     l587:	
  3876                           ;leds.c: 64:         case LED_NG:
  3877                           
  3878                           
  3879                           ;leds.c: 65:             LATCbits.LATC6 = 0;
  3880  091B  0022               	movlb	2	; select bank2
  3881  091C  130E               	bcf	14,6	;volatile
  3882                           
  3883                           ;leds.c: 66:             break;
  3884  091D  2937               	goto	l589
  3885  091E                     l3648:
  3886  091E  0862               	movf	LED_Off@led^(0+128),w
  3887  091F  00E0               	movwf	??_LED_Off^(0+128)
  3888  0920  01E1               	clrf	(??_LED_Off^(0+128)+1)
  3889                           
  3890                           ; Switch on 2 bytes has been partitioned into a top level switch of size 1, and 1 sub-sw
      +                          itches
  3891                           ; Switch size 1, requested type "simple"
  3892                           ; Number of cases is 1, Range of values is 0 to 0
  3893                           ; switch strategies available:
  3894                           ; Name         Instructions Cycles
  3895                           ; simple_byte            4     3 (average)
  3896                           ; direct_byte            8     6 (fixed)
  3897                           ; jumptable            260     6 (fixed)
  3898                           ;	Chosen strategy is simple_byte
  3899  0921  0861               	movf	(??_LED_Off+1)^(0+128),w
  3900  0922  3A00               	xorlw	0	; case 0
  3901  0923  1903               	skipnz
  3902  0924  2926               	goto	l5074
  3903  0925  2937               	goto	l589
  3904  0926                     l5074:
  3905                           
  3906                           ; Switch size 1, requested type "simple"
  3907                           ; Number of cases is 5, Range of values is 0 to 4
  3908                           ; switch strategies available:
  3909                           ; Name         Instructions Cycles
  3910                           ; direct_byte           16     6 (fixed)
  3911                           ; simple_byte           16     9 (average)
  3912                           ; jumptable            260     6 (fixed)
  3913                           ;	Chosen strategy is simple_byte
  3914  0926  0860               	movf	??_LED_Off^(0+128),w
  3915  0927  3A00               	xorlw	0	; case 0
  3916  0928  1903               	skipnz
  3917  0929  2937               	goto	l589
  3918  092A  3A01               	xorlw	1	; case 1
  3919  092B  1903               	skipnz
  3920  092C  2912               	goto	l583
  3921  092D  3A03               	xorlw	3	; case 2
  3922  092E  1903               	skipnz
  3923  092F  2915               	goto	l585
  3924  0930  3A01               	xorlw	1	; case 3
  3925  0931  1903               	skipnz
  3926  0932  2918               	goto	l586
  3927  0933  3A07               	xorlw	7	; case 4
  3928  0934  1903               	skipnz
  3929  0935  291B               	goto	l587
  3930  0936  2937               	goto	l589
  3931  0937                     l589:
  3932  0937  0008               	return
  3933  0938                     __end_of_LED_Off:
  3934                           
  3935                           	psect	intentry
  3936  0004                     __pintentry:	
  3937 ;; *************** function _SYS_InterruptHigh *****************
  3938 ;; Defined at:
  3939 ;;		line 119 in file "system.c"
  3940 ;; Parameters:    Size  Location     Type
  3941 ;;		None
  3942 ;; Auto vars:     Size  Location     Type
  3943 ;;		None
  3944 ;; Return value:  Size  Location     Type
  3945 ;;                  1    wreg      void 
  3946 ;; Registers used:
  3947 ;;		wreg, fsr0l, fsr0h, fsr1l, fsr1h, status,2, status,0, pclath, cstack
  3948 ;; Tracked objects:
  3949 ;;		On entry : 0/0
  3950 ;;		On exit  : 0/0
  3951 ;;		Unchanged: 0/0
  3952 ;; Data sizes:     COMMON   BANK0   BANK1   BANK2   BANK3   BANK4   BANK5   BANK6   BANK7   BANK8   BANK9  BANK10  BANK1
      +1  BANK12
  3953 ;;      Params:         0       0       0       0       0       0       0       0       0       0       0       0       
      +0       0
  3954 ;;      Locals:         0       0       0       0       0       0       0       0       0       0       0       0       
      +0       0
  3955 ;;      Temps:          0       0       0       0       0       0       0       0       0       0       0       0       
      +0       0
  3956 ;;      Totals:         0       0       0       0       0       0       0       0       0       0       0       0       
      +0       0
  3957 ;;Total ram usage:        0 bytes
  3958 ;; Hardware stack levels used: 1
  3959 ;; Hardware stack levels required when called: 9
  3960 ;; This function calls:
  3961 ;;		_USBDeviceTasks
  3962 ;; This function is called by:
  3963 ;;		Interrupt level 1
  3964 ;; This function uses a non-reentrant model
  3965 ;;
  3966                           
  3967  0004                     _SYS_InterruptHigh:
  3968                           
  3969                           ;incstack = 0
  3970  0004  147E               	bsf	int$flags,0	;set compiler interrupt flag (level 1)
  3971                           
  3972                           ; Regs used in _SYS_InterruptHigh: [wreg-fsr1h+status,2+status,0+pclath+cstack]
  3973  0005  3180               	pagesel	$
  3974  0006                     i1l4756:
  3975                           
  3976                           ;system.c: 122:         USBDeviceTasks();
  3977  0006  3181  2182  3180   	fcall	_USBDeviceTasks
  3978  0009                     i1l90:
  3979  0009  107E               	bcf	int$flags,0	;clear compiler interrupt flag (level 1)
  3980  000A  0009               	retfie
  3981  000B                     __end_of_SYS_InterruptHigh:
  3982                           
  3983                           	psect	text12
  3984  0182                     __ptext12:	
  3985 ;; *************** function _USBDeviceTasks *****************
  3986 ;; Defined at:
  3987 ;;		line 481 in file "usb_device.c"
  3988 ;; Parameters:    Size  Location     Type
  3989 ;;		None
  3990 ;; Auto vars:     Size  Location     Type
  3991 ;;  i               1   20[BANK0 ] unsigned char 
  3992 ;; Return value:  Size  Location     Type
  3993 ;;                  1    wreg      void 
  3994 ;; Registers used:
  3995 ;;		wreg, fsr0l, fsr0h, fsr1l, fsr1h, status,2, status,0, pclath, cstack
  3996 ;; Tracked objects:
  3997 ;;		On entry : 0/0
  3998 ;;		On exit  : 0/0
  3999 ;;		Unchanged: 0/0
  4000 ;; Data sizes:     COMMON   BANK0   BANK1   BANK2   BANK3   BANK4   BANK5   BANK6   BANK7   BANK8   BANK9  BANK10  BANK1
      +1  BANK12
  4001 ;;      Params:         0       0       0       0       0       0       0       0       0       0       0       0       
      +0       0
  4002 ;;      Locals:         0       1       0       0       0       0       0       0       0       0       0       0       
      +0       0
  4003 ;;      Temps:          0       2       0       0       0       0       0       0       0       0       0       0       
      +0       0
  4004 ;;      Totals:         0       3       0       0       0       0       0       0       0       0       0       0       
      +0       0
  4005 ;;Total ram usage:        3 bytes
  4006 ;; Hardware stack levels used: 1
  4007 ;; Hardware stack levels required when called: 8
  4008 ;; This function calls:
  4009 ;;		_USBCtrlEPAllowStatusStage
  4010 ;;		_USBCtrlEPService
  4011 ;;		_USBIncrement1msInternalTimers
  4012 ;;		_USBStallHandler
  4013 ;;		_USBSuspend
  4014 ;;		_USBWakeFromSuspend
  4015 ;;		_USER_USB_CALLBACK_EVENT_HANDLER
  4016 ;;		i1_USBDeviceInit
  4017 ;; This function is called by:
  4018 ;;		_SYS_InterruptHigh
  4019 ;; This function uses a non-reentrant model
  4020 ;;
  4021                           
  4022  0182                     _USBDeviceTasks:	
  4023                           ;psect for function _USBDeviceTasks
  4024                           
  4025  0182                     i1l4654:	
  4026                           ;incstack = 0
  4027                           ; Regs used in _USBDeviceTasks: [wreg-fsr1h+status,2+status,0+pclath+cstack]
  4028                           
  4029                           
  4030                           ;usb_device.c: 483:     uint8_t i;;usb_device.c: 594:     if(USBDeviceState == ATTACHED_
      +                          STATE)
  4031  0182  0021               	movlb	1	; select bank1
  4032  0183  036F               	decf	_USBDeviceState^(0+128),w	;volatile
  4033  0184  1D03               	btfss	3,2
  4034  0185  2987               	goto	u304_21
  4035  0186  2988               	goto	u304_20
  4036  0187                     u304_21:
  4037  0187  2996               	goto	i1l4666
  4038  0188                     u304_20:
  4039  0188                     i1l4656:
  4040                           
  4041                           ;usb_device.c: 595:     {;usb_device.c: 605:         if(!UCONbits.SE0)
  4042  0188  003D               	movlb	29	; select bank29
  4043  0189  1A8E               	btfsc	14,5	;volatile
  4044  018A  298C               	goto	u305_21
  4045  018B  298D               	goto	u305_20
  4046  018C                     u305_21:
  4047  018C  2996               	goto	i1l4666
  4048  018D                     u305_20:
  4049  018D                     i1l4658:
  4050                           
  4051                           ;usb_device.c: 606:         {;usb_device.c: 612:                 {UIR = 0;};
  4052  018D  0190               	clrf	16	;volatile
  4053  018E                     i1l4660:
  4054                           
  4055                           ;usb_device.c: 618:             UIEbits.URSTIE = 1;
  4056  018E  1412               	bsf	18,0	;volatile
  4057  018F                     i1l4662:
  4058                           
  4059                           ;usb_device.c: 619:             UIEbits.IDLEIE = 1;
  4060  018F  1612               	bsf	18,4	;volatile
  4061  0190                     i1l4664:
  4062                           
  4063                           ;usb_device.c: 620:             USBDeviceState = POWERED_STATE;
  4064  0190  3002               	movlw	2
  4065  0191  0020               	movlb	0	; select bank0
  4066  0192  00E2               	movwf	??_USBDeviceTasks
  4067  0193  0862               	movf	??_USBDeviceTasks,w
  4068  0194  0021               	movlb	1	; select bank1
  4069  0195  00EF               	movwf	_USBDeviceState^(0+128)	;volatile
  4070  0196                     i1l4666:
  4071                           
  4072                           ;usb_device.c: 638:     if(UIRbits.ACTVIF && UIEbits.ACTVIE)
  4073  0196  003D               	movlb	29	; select bank29
  4074  0197  1D10               	btfss	16,2	;volatile
  4075  0198  299A               	goto	u306_21
  4076  0199  299B               	goto	u306_20
  4077  019A                     u306_21:
  4078  019A  29A8               	goto	i1l4674
  4079  019B                     u306_20:
  4080  019B                     i1l4668:
  4081  019B  1D12               	btfss	18,2	;volatile
  4082  019C  299E               	goto	u307_21
  4083  019D  299F               	goto	u307_20
  4084  019E                     u307_21:
  4085  019E  29A8               	goto	i1l4674
  4086  019F                     u307_20:
  4087  019F                     i1l4670:
  4088                           
  4089                           ;usb_device.c: 639:     {;usb_device.c: 640:         (UIR &= 0xFB);
  4090  019F  30FB               	movlw	251
  4091  01A0  0020               	movlb	0	; select bank0
  4092  01A1  00E2               	movwf	??_USBDeviceTasks
  4093  01A2  0862               	movf	??_USBDeviceTasks,w
  4094  01A3  003D               	movlb	29	; select bank29
  4095  01A4  0590               	andwf	16,f	;volatile
  4096  01A5                     i1l4672:
  4097                           
  4098                           ;usb_device.c: 644:             USBWakeFromSuspend();
  4099  01A5  3188  2078  3181   	fcall	_USBWakeFromSuspend
  4100  01A8                     i1l4674:
  4101                           
  4102                           ;usb_device.c: 651:     if(UCONbits.SUSPND==1)
  4103  01A8  003D               	movlb	29	; select bank29
  4104  01A9  1C8E               	btfss	14,1	;volatile
  4105  01AA  29AC               	goto	u308_21
  4106  01AB  29AD               	goto	u308_20
  4107  01AC                     u308_21:
  4108  01AC  29B0               	goto	i1l255
  4109  01AD                     u308_20:
  4110  01AD                     i1l4676:
  4111                           
  4112                           ;usb_device.c: 652:     {;usb_device.c: 653:         PIR2bits.USBIF = 0;;
  4113  01AD  0020               	movlb	0	; select bank0
  4114  01AE  1112               	bcf	18,2	;volatile
  4115                           
  4116                           ;usb_device.c: 654:         return;
  4117  01AF  2AA5               	goto	i1l256
  4118  01B0                     i1l255:	
  4119                           ;usb_device.c: 655:     }
  4120                           
  4121                           
  4122                           ;usb_device.c: 667:     if(UIRbits.URSTIF && UIEbits.URSTIE)
  4123  01B0  1C10               	btfss	16,0	;volatile
  4124  01B1  29B3               	goto	u309_21
  4125  01B2  29B4               	goto	u309_20
  4126  01B3                     u309_21:
  4127  01B3  29C9               	goto	i1l4688
  4128  01B4                     u309_20:
  4129  01B4                     i1l4678:
  4130  01B4  1C12               	btfss	18,0	;volatile
  4131  01B5  29B7               	goto	u310_21
  4132  01B6  29B8               	goto	u310_20
  4133  01B7                     u310_21:
  4134  01B7  29C9               	goto	i1l4688
  4135  01B8                     u310_20:
  4136  01B8                     i1l4680:
  4137                           
  4138                           ;usb_device.c: 668:     {;usb_device.c: 669:         USBDeviceInit();
  4139  01B8  3185  257A  3181   	fcall	i1_USBDeviceInit
  4140  01BB                     i1l4682:
  4141                           
  4142                           ;usb_device.c: 673:         {PIE2bits.USBIE = 1;};
  4143  01BB  0021               	movlb	1	; select bank1
  4144  01BC  1512               	bsf	18,2	;volatile
  4145  01BD                     i1l4684:
  4146                           
  4147                           ;usb_device.c: 675:         USBDeviceState = DEFAULT_STATE;
  4148  01BD  3004               	movlw	4
  4149  01BE  0020               	movlb	0	; select bank0
  4150  01BF  00E2               	movwf	??_USBDeviceTasks
  4151  01C0  0862               	movf	??_USBDeviceTasks,w
  4152  01C1  0021               	movlb	1	; select bank1
  4153  01C2  00EF               	movwf	_USBDeviceState^(0+128)	;volatile
  4154  01C3                     i1l4686:
  4155                           
  4156                           ;usb_device.c: 685:         (UIR &= 0xFE);
  4157  01C3  30FE               	movlw	254
  4158  01C4  0020               	movlb	0	; select bank0
  4159  01C5  00E2               	movwf	??_USBDeviceTasks
  4160  01C6  0862               	movf	??_USBDeviceTasks,w
  4161  01C7  003D               	movlb	29	; select bank29
  4162  01C8  0590               	andwf	16,f	;volatile
  4163  01C9                     i1l4688:
  4164                           
  4165                           ;usb_device.c: 691:     if(UIRbits.IDLEIF && UIEbits.IDLEIE)
  4166  01C9  1E10               	btfss	16,4	;volatile
  4167  01CA  29CC               	goto	u311_21
  4168  01CB  29CD               	goto	u311_20
  4169  01CC                     u311_21:
  4170  01CC  29D4               	goto	i1l4694
  4171  01CD                     u311_20:
  4172  01CD                     i1l4690:
  4173  01CD  1E12               	btfss	18,4	;volatile
  4174  01CE  29D0               	goto	u312_21
  4175  01CF  29D1               	goto	u312_20
  4176  01D0                     u312_21:
  4177  01D0  29D4               	goto	i1l4694
  4178  01D1                     u312_20:
  4179  01D1                     i1l4692:
  4180                           
  4181                           ;usb_device.c: 692:     {;usb_device.c: 698:             USBSuspend();
  4182  01D1  3188  2038  3181   	fcall	_USBSuspend
  4183  01D4                     i1l4694:
  4184                           
  4185                           ;usb_device.c: 712:     if(UIRbits.SOFIF)
  4186  01D4  003D               	movlb	29	; select bank29
  4187  01D5  1F10               	btfss	16,6	;volatile
  4188  01D6  29D8               	goto	u313_21
  4189  01D7  29D9               	goto	u313_20
  4190  01D8                     u313_21:
  4191  01D8  2A06               	goto	i1l4710
  4192  01D9                     u313_20:
  4193  01D9                     i1l4696:
  4194                           
  4195                           ;usb_device.c: 713:     {;usb_device.c: 715:         if(UIEbits.SOFIE)
  4196  01D9  1F12               	btfss	18,6	;volatile
  4197  01DA  29DC               	goto	u314_21
  4198  01DB  29DD               	goto	u314_20
  4199  01DC                     u314_21:
  4200  01DC  29ED               	goto	i1l4700
  4201  01DD                     u314_20:
  4202  01DD                     i1l4698:
  4203                           
  4204                           ;usb_device.c: 716:         {;usb_device.c: 717:             USER_USB_CALLBACK_EVENT_HAN
      +                          DLER((USB_EVENT)EVENT_SOF,0,1);
  4205  01DD  3073               	movlw	115
  4206  01DE  0020               	movlb	0	; select bank0
  4207  01DF  00D0               	movwf	USER_USB_CALLBACK_EVENT_HANDLER@event
  4208  01E0  3000               	movlw	0
  4209  01E1  00D1               	movwf	USER_USB_CALLBACK_EVENT_HANDLER@event+1
  4210  01E2  3000               	movlw	0
  4211  01E3  00D2               	movwf	USER_USB_CALLBACK_EVENT_HANDLER@pdata
  4212  01E4  3000               	movlw	0
  4213  01E5  00D3               	movwf	USER_USB_CALLBACK_EVENT_HANDLER@pdata+1
  4214  01E6  3001               	movlw	1
  4215  01E7  00D4               	movwf	USER_USB_CALLBACK_EVENT_HANDLER@size
  4216  01E8  3000               	movlw	0
  4217  01E9  00D5               	movwf	USER_USB_CALLBACK_EVENT_HANDLER@size+1
  4218  01EA  318B  2304  3181   	fcall	_USER_USB_CALLBACK_EVENT_HANDLER
  4219  01ED                     i1l4700:
  4220                           
  4221                           ;usb_device.c: 719:         (UIR &= 0xBF);
  4222  01ED  30BF               	movlw	191
  4223  01EE  0020               	movlb	0	; select bank0
  4224  01EF  00E2               	movwf	??_USBDeviceTasks
  4225  01F0  0862               	movf	??_USBDeviceTasks,w
  4226  01F1  003D               	movlb	29	; select bank29
  4227  01F2  0590               	andwf	16,f	;volatile
  4228  01F3                     i1l4702:
  4229                           
  4230                           ;usb_device.c: 722:             USBIncrement1msInternalTimers();
  4231  01F3  3197  27E4  3181   	fcall	_USBIncrement1msInternalTimers
  4232  01F6                     i1l4704:
  4233                           
  4234                           ;usb_device.c: 739:             if(USBStatusStageTimeoutCounter != 0u)
  4235  01F6  0023               	movlb	3	; select bank3
  4236  01F7  0833               	movf	_USBStatusStageTimeoutCounter^(0+384),w	;volatile
  4237  01F8  1903               	btfsc	3,2
  4238  01F9  29FB               	goto	u315_21
  4239  01FA  29FC               	goto	u315_20
  4240  01FB                     u315_21:
  4241  01FB  29FE               	goto	i1l261
  4242  01FC                     u315_20:
  4243  01FC                     i1l4706:
  4244                           
  4245                           ;usb_device.c: 740:             {;usb_device.c: 741:                 USBStatusStageTimeo
      +                          utCounter--;
  4246  01FC  3001               	movlw	1
  4247  01FD  02B3               	subwf	_USBStatusStageTimeoutCounter^(0+384),f	;volatile
  4248  01FE                     i1l261:	
  4249                           ;usb_device.c: 742:             }
  4250                           
  4251                           
  4252                           ;usb_device.c: 748:             if(USBStatusStageTimeoutCounter == 0)
  4253  01FE  0833               	movf	_USBStatusStageTimeoutCounter^(0+384),w	;volatile
  4254  01FF  1D03               	btfss	3,2
  4255  0200  2A02               	goto	u316_21
  4256  0201  2A03               	goto	u316_20
  4257  0202                     u316_21:
  4258  0202  2A06               	goto	i1l4710
  4259  0203                     u316_20:
  4260  0203                     i1l4708:
  4261                           
  4262                           ;usb_device.c: 749:             {;usb_device.c: 750:                 USBCtrlEPAllowStatu
      +                          sStage();
  4263  0203  318C  2475  3181   	fcall	_USBCtrlEPAllowStatusStage
  4264  0206                     i1l4710:
  4265                           
  4266                           ;usb_device.c: 755:     if(UIRbits.STALLIF && UIEbits.STALLIE)
  4267  0206  003D               	movlb	29	; select bank29
  4268  0207  1E90               	btfss	16,5	;volatile
  4269  0208  2A0A               	goto	u317_21
  4270  0209  2A0B               	goto	u317_20
  4271  020A                     u317_21:
  4272  020A  2A12               	goto	i1l4716
  4273  020B                     u317_20:
  4274  020B                     i1l4712:
  4275  020B  1E92               	btfss	18,5	;volatile
  4276  020C  2A0E               	goto	u318_21
  4277  020D  2A0F               	goto	u318_20
  4278  020E                     u318_21:
  4279  020E  2A12               	goto	i1l4716
  4280  020F                     u318_20:
  4281  020F                     i1l4714:
  4282                           
  4283                           ;usb_device.c: 756:     {;usb_device.c: 757:         USBStallHandler();
  4284  020F  3189  21E1  3181   	fcall	_USBStallHandler
  4285  0212                     i1l4716:
  4286                           
  4287                           ;usb_device.c: 760:     if(UIRbits.UERRIF && UIEbits.UERRIE)
  4288  0212  003D               	movlb	29	; select bank29
  4289  0213  1C90               	btfss	16,1	;volatile
  4290  0214  2A16               	goto	u319_21
  4291  0215  2A17               	goto	u319_20
  4292  0216                     u319_21:
  4293  0216  2A2D               	goto	i1l4724
  4294  0217                     u319_20:
  4295  0217                     i1l4718:
  4296  0217  1C92               	btfss	18,1	;volatile
  4297  0218  2A1A               	goto	u320_21
  4298  0219  2A1B               	goto	u320_20
  4299  021A                     u320_21:
  4300  021A  2A2D               	goto	i1l4724
  4301  021B                     u320_20:
  4302  021B                     i1l4720:
  4303                           
  4304                           ;usb_device.c: 761:     {;usb_device.c: 762:         USER_USB_CALLBACK_EVENT_HANDLER((US
      +                          B_EVENT)EVENT_BUS_ERROR,0,1);
  4305  021B  30FF               	movlw	255
  4306  021C  0020               	movlb	0	; select bank0
  4307  021D  00D0               	movwf	USER_USB_CALLBACK_EVENT_HANDLER@event
  4308  021E  307F               	movlw	127
  4309  021F  00D1               	movwf	USER_USB_CALLBACK_EVENT_HANDLER@event+1
  4310  0220  3000               	movlw	0
  4311  0221  00D2               	movwf	USER_USB_CALLBACK_EVENT_HANDLER@pdata
  4312  0222  3000               	movlw	0
  4313  0223  00D3               	movwf	USER_USB_CALLBACK_EVENT_HANDLER@pdata+1
  4314  0224  3001               	movlw	1
  4315  0225  00D4               	movwf	USER_USB_CALLBACK_EVENT_HANDLER@size
  4316  0226  3000               	movlw	0
  4317  0227  00D5               	movwf	USER_USB_CALLBACK_EVENT_HANDLER@size+1
  4318  0228  318B  2304  3181   	fcall	_USER_USB_CALLBACK_EVENT_HANDLER
  4319  022B                     i1l4722:
  4320                           
  4321                           ;usb_device.c: 763:         {UEIR = 0;};
  4322  022B  003D               	movlb	29	; select bank29
  4323  022C  0193               	clrf	19	;volatile
  4324  022D                     i1l4724:
  4325                           
  4326                           ;usb_device.c: 778:     if(USBDeviceState < DEFAULT_STATE)
  4327  022D  3004               	movlw	4
  4328  022E  0021               	movlb	1	; select bank1
  4329  022F  026F               	subwf	_USBDeviceState^(0+128),w	;volatile
  4330  0230  1803               	skipnc
  4331  0231  2A33               	goto	u321_21
  4332  0232  2A34               	goto	u321_20
  4333  0233                     u321_21:
  4334  0233  2A37               	goto	i1l265
  4335  0234                     u321_20:
  4336  0234                     i1l4726:
  4337                           
  4338                           ;usb_device.c: 779:     {;usb_device.c: 780:         PIR2bits.USBIF = 0;;
  4339  0234  0020               	movlb	0	; select bank0
  4340  0235  1112               	bcf	18,2	;volatile
  4341                           
  4342                           ;usb_device.c: 781:         return;
  4343  0236  2AA5               	goto	i1l256
  4344  0237                     i1l265:	
  4345                           ;usb_device.c: 782:     }
  4346                           
  4347                           
  4348                           ;usb_device.c: 787:     if(UIEbits.TRNIE)
  4349  0237  003D               	movlb	29	; select bank29
  4350  0238  1D92               	btfss	18,3	;volatile
  4351  0239  2A3B               	goto	u322_21
  4352  023A  2A3C               	goto	u322_20
  4353  023B                     u322_21:
  4354  023B  2AA3               	goto	i1l266
  4355  023C                     u322_20:
  4356  023C                     i1l4728:
  4357                           
  4358                           ;usb_device.c: 788:     {;usb_device.c: 789:         for(i = 0; i < 4u; i++)
  4359  023C  0020               	movlb	0	; select bank0
  4360  023D  01E4               	clrf	USBDeviceTasks@i
  4361  023E                     i1l267:
  4362                           
  4363                           ;usb_device.c: 790:         {;usb_device.c: 791:             if(UIRbits.TRNIF)
  4364  023E  003D               	movlb	29	; select bank29
  4365  023F  1D90               	btfss	16,3	;volatile
  4366  0240  2A42               	goto	u323_21
  4367  0241  2A43               	goto	u323_20
  4368  0242                     u323_21:
  4369  0242  2AA3               	goto	i1l266
  4370  0243                     u323_20:
  4371  0243                     i1l4734:
  4372                           
  4373                           ;usb_device.c: 792:             {;usb_device.c: 794:                 USTATcopy.Val = UST
      +                          AT;
  4374  0243  080F               	movf	15,w	;volatile
  4375  0244  0020               	movlb	0	; select bank0
  4376  0245  00E2               	movwf	??_USBDeviceTasks
  4377  0246  0862               	movf	??_USBDeviceTasks,w
  4378  0247  0022               	movlb	2	; select bank2
  4379  0248  00ED               	movwf	_USTATcopy^(0+256)	;volatile
  4380  0249                     i1l4736:
  4381                           
  4382                           ;usb_device.c: 795:                 endpoint_number = USTATcopy.endpoint_number;
  4383  0249  0C6D               	rrf	_USTATcopy^(0+256),w	;volatile
  4384  024A  0020               	movlb	0	; select bank0
  4385  024B  00E2               	movwf	??_USBDeviceTasks
  4386  024C  0CE2               	rrf	??_USBDeviceTasks,f
  4387  024D  0C62               	rrf	??_USBDeviceTasks,w
  4388  024E  390F               	andlw	15
  4389  024F  00E3               	movwf	??_USBDeviceTasks+1
  4390  0250  0863               	movf	??_USBDeviceTasks+1,w
  4391  0251  0022               	movlb	2	; select bank2
  4392  0252  00EA               	movwf	_endpoint_number^(0+256)	;volatile
  4393  0253                     i1l4738:
  4394                           
  4395                           ;usb_device.c: 797:                 (UIR &= 0xF7);
  4396  0253  30F7               	movlw	247
  4397  0254  0020               	movlb	0	; select bank0
  4398  0255  00E2               	movwf	??_USBDeviceTasks
  4399  0256  0862               	movf	??_USBDeviceTasks,w
  4400  0257  003D               	movlb	29	; select bank29
  4401  0258  0590               	andwf	16,f	;volatile
  4402  0259                     i1l4740:
  4403                           
  4404                           ;usb_device.c: 802:                 if(USTATcopy.direction == 0)
  4405  0259  0022               	movlb	2	; select bank2
  4406  025A  196D               	btfsc	_USTATcopy^(0+256),2	;volatile
  4407  025B  2A5D               	goto	u324_21
  4408  025C  2A5E               	goto	u324_20
  4409  025D                     u324_21:
  4410  025D  2A6F               	goto	i1l4744
  4411  025E                     u324_20:
  4412  025E                     i1l4742:
  4413                           
  4414                           ;usb_device.c: 803:                 {;usb_device.c: 804:                     ep_data_out
      +                          [endpoint_number].bits.ping_pong_state ^= 1;
  4415  025E  086A               	movf	_endpoint_number^(0+256),w	;volatile
  4416  025F  3EA8               	addlw	(low (_ep_data_out| (0+256)))& (0+255)
  4417  0260  0086               	movwf	6
  4418  0261  3001               	movlw	1	; select bank3/4
  4419  0262  0087               	movwf	7
  4420  0263  0801               	movf	1,w
  4421  0264  3901               	andlw	1
  4422  0265  0020               	movlb	0	; select bank0
  4423  0266  00E2               	movwf	??_USBDeviceTasks
  4424  0267  3001               	movlw	1
  4425  0268  06E2               	xorwf	??_USBDeviceTasks,f
  4426  0269  0801               	movf	1,w
  4427  026A  0662               	xorwf	??_USBDeviceTasks,w
  4428  026B  39FE               	andlw	-2
  4429  026C  0662               	xorwf	??_USBDeviceTasks,w
  4430  026D  0081               	movwf	1
  4431                           
  4432                           ;usb_device.c: 805:                 }
  4433  026E  2A7F               	goto	i1l4746
  4434  026F                     i1l4744:
  4435                           
  4436                           ;usb_device.c: 807:                 {;usb_device.c: 808:                     ep_data_in[
      +                          endpoint_number].bits.ping_pong_state ^= 1;
  4437  026F  086A               	movf	_endpoint_number^(0+256),w	;volatile
  4438  0270  3E67               	addlw	(low (_ep_data_in| (0+256)))& (0+255)
  4439  0271  0086               	movwf	6
  4440  0272  3001               	movlw	1	; select bank2/3
  4441  0273  0087               	movwf	7
  4442  0274  0801               	movf	1,w
  4443  0275  3901               	andlw	1
  4444  0276  0020               	movlb	0	; select bank0
  4445  0277  00E2               	movwf	??_USBDeviceTasks
  4446  0278  3001               	movlw	1
  4447  0279  06E2               	xorwf	??_USBDeviceTasks,f
  4448  027A  0801               	movf	1,w
  4449  027B  0662               	xorwf	??_USBDeviceTasks,w
  4450  027C  39FE               	andlw	-2
  4451  027D  0662               	xorwf	??_USBDeviceTasks,w
  4452  027E  0081               	movwf	1
  4453  027F                     i1l4746:
  4454                           
  4455                           ;usb_device.c: 814:                 if(endpoint_number == 0)
  4456  027F  0022               	movlb	2	; select bank2
  4457  0280  086A               	movf	_endpoint_number^(0+256),w	;volatile
  4458  0281  1D03               	btfss	3,2
  4459  0282  2A84               	goto	u325_21
  4460  0283  2A85               	goto	u325_20
  4461  0284                     u325_21:
  4462  0284  2A89               	goto	i1l4750
  4463  0285                     u325_20:
  4464  0285                     i1l4748:
  4465                           
  4466                           ;usb_device.c: 815:                 {;usb_device.c: 816:                     USBCtrlEPSe
      +                          rvice();
  4467  0285  318B  2354  3181   	fcall	_USBCtrlEPService
  4468                           
  4469                           ;usb_device.c: 817:                 }
  4470  0288  2A98               	goto	i1l4752
  4471  0289                     i1l4750:
  4472                           
  4473                           ;usb_device.c: 819:                 {;usb_device.c: 820:                     USER_USB_CA
      +                          LLBACK_EVENT_HANDLER((USB_EVENT)EVENT_TRANSFER,(uint8_t*)&USTATcopy.Val,0);
  4474  0289  3072               	movlw	114
  4475  028A  0020               	movlb	0	; select bank0
  4476  028B  00D0               	movwf	USER_USB_CALLBACK_EVENT_HANDLER@event
  4477  028C  3000               	movlw	0
  4478  028D  00D1               	movwf	USER_USB_CALLBACK_EVENT_HANDLER@event+1
  4479  028E  306D               	movlw	low _USTATcopy
  4480  028F  00D2               	movwf	USER_USB_CALLBACK_EVENT_HANDLER@pdata
  4481  0290  3001               	movlw	high _USTATcopy
  4482  0291  00D3               	movwf	USER_USB_CALLBACK_EVENT_HANDLER@pdata+1
  4483  0292  3000               	movlw	0
  4484  0293  00D4               	movwf	USER_USB_CALLBACK_EVENT_HANDLER@size
  4485  0294  00D5               	movwf	USER_USB_CALLBACK_EVENT_HANDLER@size+1
  4486  0295  318B  2304  3181   	fcall	_USER_USB_CALLBACK_EVENT_HANDLER
  4487  0298                     i1l4752:
  4488                           
  4489                           ;usb_device.c: 827:         }
  4490  0298  3001               	movlw	1
  4491  0299  0020               	movlb	0	; select bank0
  4492  029A  00E2               	movwf	??_USBDeviceTasks
  4493  029B  0862               	movf	??_USBDeviceTasks,w
  4494  029C  07E4               	addwf	USBDeviceTasks@i,f
  4495  029D                     i1l4754:
  4496  029D  3004               	movlw	4
  4497  029E  0264               	subwf	USBDeviceTasks@i,w
  4498  029F  1C03               	skipc
  4499  02A0  2AA2               	goto	u326_21
  4500  02A1  2AA3               	goto	u326_20
  4501  02A2                     u326_21:
  4502  02A2  2A3E               	goto	i1l267
  4503  02A3                     u326_20:
  4504  02A3                     i1l266:	
  4505                           ;usb_device.c: 828:     }
  4506                           
  4507                           
  4508                           ;usb_device.c: 830:     PIR2bits.USBIF = 0;;
  4509  02A3  0020               	movlb	0	; select bank0
  4510  02A4  1112               	bcf	18,2	;volatile
  4511  02A5                     i1l256:
  4512  02A5  0008               	return
  4513  02A6                     __end_of_USBDeviceTasks:
  4514                           
  4515                           	psect	text13
  4516  057A                     __ptext13:	
  4517 ;; *************** function i1_USBDeviceInit *****************
  4518 ;; Defined at:
  4519 ;;		line 281 in file "usb_device.c"
  4520 ;; Parameters:    Size  Location     Type
  4521 ;;		None
  4522 ;; Auto vars:     Size  Location     Type
  4523 ;;  p               2    1[COMMON] PTR unsigned char 
  4524 ;;		 -> UEP1(1), 
  4525 ;;  i               1    4[COMMON] unsigned char 
  4526 ;;  i               1    3[COMMON] unsigned char 
  4527 ;; Return value:  Size  Location     Type
  4528 ;;                  1    wreg      void 
  4529 ;; Registers used:
  4530 ;;		wreg, fsr1l, fsr1h, status,2, status,0
  4531 ;; Tracked objects:
  4532 ;;		On entry : 0/0
  4533 ;;		On exit  : 0/0
  4534 ;;		Unchanged: 0/0
  4535 ;; Data sizes:     COMMON   BANK0   BANK1   BANK2   BANK3   BANK4   BANK5   BANK6   BANK7   BANK8   BANK9  BANK10  BANK1
      +1  BANK12
  4536 ;;      Params:         0       0       0       0       0       0       0       0       0       0       0       0       
      +0       0
  4537 ;;      Locals:         4       0       0       0       0       0       0       0       0       0       0       0       
      +0       0
  4538 ;;      Temps:          1       0       0       0       0       0       0       0       0       0       0       0       
      +0       0
  4539 ;;      Totals:         5       0       0       0       0       0       0       0       0       0       0       0       
      +0       0
  4540 ;;Total ram usage:        5 bytes
  4541 ;; Hardware stack levels used: 1
  4542 ;; This function calls:
  4543 ;;		Nothing
  4544 ;; This function is called by:
  4545 ;;		_USBDeviceTasks
  4546 ;; This function uses a non-reentrant model
  4547 ;;
  4548                           
  4549  057A                     i1_USBDeviceInit:	
  4550                           ;psect for function i1_USBDeviceInit
  4551                           
  4552  057A                     i1l3758:	
  4553                           ;incstack = 0
  4554                           ; Regs used in i1_USBDeviceInit: [wreg+fsr1l+fsr1h+status,2+status,0]
  4555                           
  4556                           
  4557                           ;usb_device.c: 283:     uint8_t i;;usb_device.c: 285:     {PIE2bits.USBIE = 0;};
  4558  057A  0021               	movlb	1	; select bank1
  4559  057B  1112               	bcf	18,2	;volatile
  4560  057C                     i1l3760:
  4561                           
  4562                           ;usb_device.c: 292:     {UEIR = 0;};
  4563  057C  003D               	movlb	29	; select bank29
  4564  057D  0193               	clrf	19	;volatile
  4565                           
  4566                           ;usb_device.c: 295:     {UIR = 0;};
  4567  057E  0190               	clrf	16	;volatile
  4568                           
  4569                           ;usb_device.c: 298:     UEP0 = 0;
  4570  057F  0198               	clrf	24	;volatile
  4571  0580                     i1l3762:
  4572                           
  4573                           ;usb_device.c: 300:     { uint8_t i; uint8_t* p = (uint8_t*)&UEP1; for(i=0;i<1;i++) *p++
      +                           = 0; };
  4574  0580  300E               	movlw	14
  4575  0581  00F2               	movwf	i1USBDeviceInit@p+1
  4576  0582  3099               	movlw	153
  4577  0583  00F1               	movwf	i1USBDeviceInit@p
  4578  0584  01F3               	clrf	i1USBDeviceInit@i_878
  4579  0585                     i1l3768:
  4580  0585  0871               	movf	i1USBDeviceInit@p,w
  4581  0586  0086               	movwf	6
  4582  0587  0872               	movf	i1USBDeviceInit@p+1,w
  4583  0588  0087               	movwf	7
  4584  0589  0181               	clrf	1
  4585  058A                     i1l3770:
  4586  058A  3001               	movlw	1
  4587  058B  07F1               	addwf	i1USBDeviceInit@p,f
  4588  058C  3000               	movlw	0
  4589  058D  3DF2               	addwfc	i1USBDeviceInit@p+1,f
  4590  058E                     i1l3772:
  4591  058E  3001               	movlw	1
  4592  058F  00F0               	movwf	??i1_USBDeviceInit
  4593  0590  0870               	movf	??i1_USBDeviceInit,w
  4594  0591  07F3               	addwf	i1USBDeviceInit@i_878,f
  4595  0592                     i1l3774:
  4596  0592  0873               	movf	i1USBDeviceInit@i_878,w
  4597  0593  1903               	btfsc	3,2
  4598  0594  2D96               	goto	u241_21
  4599  0595  2D97               	goto	u241_20
  4600  0596                     u241_21:
  4601  0596  2D85               	goto	i1l3768
  4602  0597                     u241_20:
  4603  0597                     i1l3776:
  4604                           
  4605                           ;usb_device.c: 302:     { UCFG = 0x10 | 0x00 | 0x04 | 0x02; UEIE = 0x9F; UIE = 0x39 | 0x
      +                          40 | 0x02; };
  4606  0597  3016               	movlw	22
  4607  0598  003D               	movlb	29	; select bank29
  4608  0599  0091               	movwf	17	;volatile
  4609  059A  309F               	movlw	159
  4610  059B  0097               	movwf	23	;volatile
  4611  059C  307B               	movlw	123
  4612  059D  0092               	movwf	18	;volatile
  4613  059E                     i1l3778:
  4614                           
  4615                           ;usb_device.c: 311:     for(i = 0; i < (sizeof(BDT)/sizeof(BDT_ENTRY)); i++)
  4616  059E  01F4               	clrf	i1USBDeviceInit@i
  4617  059F                     i1l3784:
  4618                           
  4619                           ;usb_device.c: 312:     {;usb_device.c: 313:         BDT[i].Val = 0x00;
  4620  059F  0874               	movf	i1USBDeviceInit@i,w
  4621  05A0  00F0               	movwf	??i1_USBDeviceInit
  4622  05A1  3001               	movlw	1
  4623  05A2                     u242_25:
  4624  05A2  35F0               	lslf	??i1_USBDeviceInit,f
  4625  05A3  3EFF               	addlw	-1
  4626  05A4  1D03               	skipz
  4627  05A5  2DA2               	goto	u242_25
  4628  05A6  3570               	lslf	??i1_USBDeviceInit,w
  4629  05A7  3E20               	addlw	32
  4630  05A8  0086               	movwf	6
  4631  05A9  0187               	clrf	7
  4632  05AA  3000               	movlw	0
  4633  05AB  3FC0               	movwi [0]fsr1
  4634  05AC  3000               	movlw	0
  4635  05AD  3FC1               	movwi [1]fsr1
  4636  05AE  3FC2               	movwi [2]fsr1
  4637  05AF  3FC3               	movwi [3]fsr1
  4638  05B0                     i1l3786:
  4639                           
  4640                           ;usb_device.c: 314:     }
  4641  05B0  3001               	movlw	1
  4642  05B1  00F0               	movwf	??i1_USBDeviceInit
  4643  05B2  0870               	movf	??i1_USBDeviceInit,w
  4644  05B3  07F4               	addwf	i1USBDeviceInit@i,f
  4645  05B4                     i1l3788:
  4646  05B4  3008               	movlw	8
  4647  05B5  0274               	subwf	i1USBDeviceInit@i,w
  4648  05B6  1C03               	skipc
  4649  05B7  2DB9               	goto	u243_21
  4650  05B8  2DBA               	goto	u243_20
  4651  05B9                     u243_21:
  4652  05B9  2D9F               	goto	i1l3784
  4653  05BA                     u243_20:
  4654  05BA                     i1l244:
  4655                           
  4656                           ;usb_device.c: 317:     UCONbits.PPBRST = 1;
  4657  05BA  003D               	movlb	29	; select bank29
  4658  05BB  170E               	bsf	14,6	;volatile
  4659  05BC                     i1l3790:
  4660                           
  4661                           ;usb_device.c: 320:     UADDR = 0x00;
  4662  05BC  0196               	clrf	22	;volatile
  4663  05BD                     i1l3792:
  4664                           
  4665                           ;usb_device.c: 323:     UCONbits.PKTDIS = 0;
  4666  05BD  120E               	bcf	14,4	;volatile
  4667  05BE                     i1l3794:
  4668                           
  4669                           ;usb_device.c: 326:     UCONbits.PPBRST = 0;
  4670  05BE  130E               	bcf	14,6	;volatile
  4671  05BF                     i1l3796:
  4672                           
  4673                           ;usb_device.c: 330:     {;usb_device.c: 331:         (UIR &= 0xF7);
  4674  05BF  30F7               	movlw	247
  4675  05C0  00F0               	movwf	??i1_USBDeviceInit
  4676  05C1  0870               	movf	??i1_USBDeviceInit,w
  4677  05C2  0590               	andwf	16,f	;volatile
  4678  05C3                     i1l3798:
  4679                           
  4680                           ;usb_device.c: 333:         inPipes[0].info.Val = 0;
  4681  05C3  0020               	movlb	0	; select bank0
  4682  05C4  01E7               	clrf	_inPipes+2	;volatile
  4683  05C5                     i1l3800:
  4684                           
  4685                           ;usb_device.c: 334:         outPipes[0].info.Val = 0;
  4686  05C5  0022               	movlb	2	; select bank2
  4687  05C6  01E2               	clrf	(_outPipes^(0+256)+2)	;volatile
  4688  05C7                     i1l3802:
  4689                           
  4690                           ;usb_device.c: 335:         outPipes[0].wCount.Val = 0;
  4691  05C7  01E3               	clrf	(_outPipes^(0+256)+3)	;volatile
  4692  05C8  01E4               	clrf	((_outPipes+1)^(0+256)+3)	;volatile
  4693  05C9                     i1l3804:
  4694                           
  4695                           ;usb_device.c: 336:     }while(UIRbits.TRNIF == 1);
  4696  05C9  003D               	movlb	29	; select bank29
  4697  05CA  1990               	btfsc	16,3	;volatile
  4698  05CB  2DCD               	goto	u244_21
  4699  05CC  2DCE               	goto	u244_20
  4700  05CD                     u244_21:
  4701  05CD  2DBF               	goto	i1l3796
  4702  05CE                     u244_20:
  4703  05CE                     i1l3806:
  4704                           
  4705                           ;usb_device.c: 340:     USBStatusStageEnabledFlag1 = 1;
  4706  05CE  3001               	movlw	1
  4707  05CF  00F0               	movwf	??i1_USBDeviceInit
  4708  05D0  0870               	movf	??i1_USBDeviceInit,w
  4709  05D1  0023               	movlb	3	; select bank3
  4710  05D2  00B2               	movwf	_USBStatusStageEnabledFlag1^(0+384)	;volatile
  4711                           
  4712                           ;usb_device.c: 341:     USBStatusStageEnabledFlag2 = 1;
  4713  05D3  3001               	movlw	1
  4714  05D4  00F0               	movwf	??i1_USBDeviceInit
  4715  05D5  0870               	movf	??i1_USBDeviceInit,w
  4716  05D6  00B1               	movwf	_USBStatusStageEnabledFlag2^(0+384)	;volatile
  4717  05D7                     i1l3808:
  4718                           
  4719                           ;usb_device.c: 343:     USBDeferINDataStagePackets = 0;
  4720  05D7  01B0               	clrf	_USBDeferINDataStagePackets^(0+384)	;volatile
  4721  05D8                     i1l3810:
  4722                           
  4723                           ;usb_device.c: 344:     USBDeferOUTDataStagePackets = 0;
  4724  05D8  01AF               	clrf	_USBDeferOUTDataStagePackets^(0+384)	;volatile
  4725  05D9                     i1l3812:
  4726                           
  4727                           ;usb_device.c: 345:     USBBusIsSuspended = 0;
  4728  05D9  01B5               	clrf	_USBBusIsSuspended^(0+384)	;volatile
  4729  05DA                     i1l3814:
  4730                           
  4731                           ;usb_device.c: 349:     for(i = 0; i < (uint8_t)(1 +1u); i++)
  4732  05DA  01F4               	clrf	i1USBDeviceInit@i
  4733  05DB                     i1l3818:
  4734                           
  4735                           ;usb_device.c: 350:     {;usb_device.c: 351:         pBDTEntryIn[i] = 0u;
  4736  05DB  3574               	lslf	i1USBDeviceInit@i,w
  4737  05DC  3E6A               	addlw	(low (_pBDTEntryIn| 0))& (0+255)
  4738  05DD  0086               	movwf	6
  4739  05DE  0187               	clrf	7
  4740  05DF  3000               	movlw	0
  4741  05E0  3FC0               	movwi [0]fsr1
  4742  05E1  3FC1               	movwi [1]fsr1
  4743                           
  4744                           ;usb_device.c: 352:         pBDTEntryOut[i] = 0u;
  4745  05E2  3574               	lslf	i1USBDeviceInit@i,w
  4746  05E3  3EA4               	addlw	(low (_pBDTEntryOut| (0+256)))& (0+255)
  4747  05E4  0086               	movwf	6
  4748  05E5  3001               	movlw	1	; select bank3/4
  4749  05E6  0087               	movwf	7
  4750  05E7  3000               	movlw	0
  4751  05E8  3FC0               	movwi [0]fsr1
  4752  05E9  3FC1               	movwi [1]fsr1
  4753                           
  4754                           ;usb_device.c: 353:         ep_data_in[i].Val = 0u;
  4755  05EA  0874               	movf	i1USBDeviceInit@i,w
  4756  05EB  3E67               	addlw	(low (_ep_data_in| (0+256)))& (0+255)
  4757  05EC  0086               	movwf	6
  4758  05ED  3001               	movlw	1	; select bank2/3
  4759  05EE  0087               	movwf	7
  4760  05EF  0181               	clrf	1
  4761                           
  4762                           ;usb_device.c: 354:         ep_data_out[i].Val = 0u;
  4763  05F0  0874               	movf	i1USBDeviceInit@i,w
  4764  05F1  3EA8               	addlw	(low (_ep_data_out| (0+256)))& (0+255)
  4765  05F2  0086               	movwf	6
  4766  05F3  3001               	movlw	1	; select bank3/4
  4767  05F4  0087               	movwf	7
  4768  05F5  0181               	clrf	1
  4769  05F6                     i1l3820:
  4770                           
  4771                           ;usb_device.c: 355:     }
  4772  05F6  3001               	movlw	1
  4773  05F7  00F0               	movwf	??i1_USBDeviceInit
  4774  05F8  0870               	movf	??i1_USBDeviceInit,w
  4775  05F9  07F4               	addwf	i1USBDeviceInit@i,f
  4776  05FA                     i1l3822:
  4777  05FA  3002               	movlw	2
  4778  05FB  0274               	subwf	i1USBDeviceInit@i,w
  4779  05FC  1C03               	skipc
  4780  05FD  2DFF               	goto	u245_21
  4781  05FE  2E00               	goto	u245_20
  4782  05FF                     u245_21:
  4783  05FF  2DDB               	goto	i1l3818
  4784  0600                     u245_20:
  4785  0600                     i1l3824:
  4786                           
  4787                           ;usb_device.c: 358:     pBDTEntryIn[0] = (volatile BDT_ENTRY*)&BDT[2];
  4788  0600  3028               	movlw	40
  4789  0601  0020               	movlb	0	; select bank0
  4790  0602  00EA               	movwf	_pBDTEntryIn
  4791  0603  3000               	movlw	0
  4792  0604  00EB               	movwf	_pBDTEntryIn+1
  4793  0605                     i1l3826:
  4794                           
  4795                           ;usb_device.c: 360:     UEP0 = 0x06|0x10;
  4796  0605  3016               	movlw	22
  4797  0606  003D               	movlb	29	; select bank29
  4798  0607  0098               	movwf	24	;volatile
  4799  0608                     i1l3828:
  4800                           
  4801                           ;usb_device.c: 362:     BDT[0].ADR = (((uint16_t)(&SetupPkt)) & 0x7FFF);
  4802  0608  3000               	movlw	0
  4803  0609  0020               	movlb	0	; select bank0
  4804  060A  00A3               	movwf	35	;volatile
  4805  060B  3040               	movlw	64
  4806  060C  00A2               	movwf	34	;volatile
  4807  060D                     i1l3830:
  4808                           
  4809                           ;usb_device.c: 363:     BDT[0].CNT = 8;
  4810  060D  3008               	movlw	8
  4811  060E  00A1               	movwf	33	;volatile
  4812  060F                     i1l3832:
  4813                           
  4814                           ;usb_device.c: 364:     BDT[0].STAT.Val = 0x00|0x04;
  4815  060F  3004               	movlw	4
  4816  0610  00F0               	movwf	??i1_USBDeviceInit
  4817  0611  0870               	movf	??i1_USBDeviceInit,w
  4818  0612  00A0               	movwf	32	;volatile
  4819  0613                     i1l3834:
  4820                           
  4821                           ;usb_device.c: 365:     BDT[0].STAT.Val |= 0x80;
  4822  0613  17A0               	bsf	32,7	;volatile
  4823  0614                     i1l3836:
  4824                           
  4825                           ;usb_device.c: 368:     USBActiveConfiguration = 0;
  4826  0614  0022               	movlb	2	; select bank2
  4827  0615  01EF               	clrf	_USBActiveConfiguration^(0+256)	;volatile
  4828  0616                     i1l3838:
  4829                           
  4830                           ;usb_device.c: 370:     USB1msTickCount = 0;
  4831  0616  3000               	movlw	0
  4832  0617  0023               	movlb	3	; select bank3
  4833  0618  00A3               	movwf	(_USB1msTickCount+3)^(0+384)	;volatile
  4834  0619  3000               	movlw	0
  4835  061A  00A2               	movwf	(_USB1msTickCount+2)^(0+384)	;volatile
  4836  061B  3000               	movlw	0
  4837  061C  00A1               	movwf	(_USB1msTickCount+1)^(0+384)	;volatile
  4838  061D  3000               	movlw	0
  4839  061E  00A0               	movwf	_USB1msTickCount^(0+384)	;volatile
  4840  061F                     i1l3840:
  4841                           
  4842                           ;usb_device.c: 371:     USBTicksSinceSuspendEnd = 0;
  4843  061F  01AE               	clrf	_USBTicksSinceSuspendEnd^(0+384)	;volatile
  4844  0620                     i1l3842:
  4845                           
  4846                           ;usb_device.c: 374:     USBDeviceState = DETACHED_STATE;
  4847  0620  0021               	movlb	1	; select bank1
  4848  0621  01EF               	clrf	_USBDeviceState^(0+128)	;volatile
  4849  0622                     i1l249:
  4850  0622  0008               	return
  4851  0623                     __end_ofi1_USBDeviceInit:
  4852                           
  4853                           	psect	text14
  4854  0878                     __ptext14:	
  4855 ;; *************** function _USBWakeFromSuspend *****************
  4856 ;; Defined at:
  4857 ;;		line 2310 in file "usb_device.c"
  4858 ;; Parameters:    Size  Location     Type
  4859 ;;		None
  4860 ;; Auto vars:     Size  Location     Type
  4861 ;;		None
  4862 ;; Return value:  Size  Location     Type
  4863 ;;                  1    wreg      void 
  4864 ;; Registers used:
  4865 ;;		wreg, fsr0l, fsr0h, fsr1l, fsr1h, status,2, status,0, pclath, cstack
  4866 ;; Tracked objects:
  4867 ;;		On entry : 0/0
  4868 ;;		On exit  : 0/0
  4869 ;;		Unchanged: 0/0
  4870 ;; Data sizes:     COMMON   BANK0   BANK1   BANK2   BANK3   BANK4   BANK5   BANK6   BANK7   BANK8   BANK9  BANK10  BANK1
      +1  BANK12
  4871 ;;      Params:         0       0       0       0       0       0       0       0       0       0       0       0       
      +0       0
  4872 ;;      Locals:         0       0       0       0       0       0       0       0       0       0       0       0       
      +0       0
  4873 ;;      Temps:          0       1       0       0       0       0       0       0       0       0       0       0       
      +0       0
  4874 ;;      Totals:         0       1       0       0       0       0       0       0       0       0       0       0       
      +0       0
  4875 ;;Total ram usage:        1 bytes
  4876 ;; Hardware stack levels used: 1
  4877 ;; Hardware stack levels required when called: 4
  4878 ;; This function calls:
  4879 ;;		_USER_USB_CALLBACK_EVENT_HANDLER
  4880 ;; This function is called by:
  4881 ;;		_USBDeviceTasks
  4882 ;; This function uses a non-reentrant model
  4883 ;;
  4884                           
  4885  0878                     _USBWakeFromSuspend:	
  4886                           ;psect for function _USBWakeFromSuspend
  4887                           
  4888  0878                     i1l3690:	
  4889                           ;incstack = 0
  4890                           ; Regs used in _USBWakeFromSuspend: [wreg-fsr1h+status,2+status,0+pclath+cstack]
  4891                           
  4892                           
  4893                           ;usb_device.c: 2312:     USBBusIsSuspended = 0;
  4894  0878  0023               	movlb	3	; select bank3
  4895  0879  01B5               	clrf	_USBBusIsSuspended^(0+384)	;volatile
  4896  087A                     i1l3692:
  4897                           
  4898                           ;usb_device.c: 2318:     USER_USB_CALLBACK_EVENT_HANDLER((USB_EVENT)EVENT_RESUME,0,0);
  4899  087A  3074               	movlw	116
  4900  087B  0020               	movlb	0	; select bank0
  4901  087C  00D0               	movwf	USER_USB_CALLBACK_EVENT_HANDLER@event
  4902  087D  3000               	movlw	0
  4903  087E  00D1               	movwf	USER_USB_CALLBACK_EVENT_HANDLER@event+1
  4904  087F  3000               	movlw	0
  4905  0880  00D2               	movwf	USER_USB_CALLBACK_EVENT_HANDLER@pdata
  4906  0881  3000               	movlw	0
  4907  0882  00D3               	movwf	USER_USB_CALLBACK_EVENT_HANDLER@pdata+1
  4908  0883  3000               	movlw	0
  4909  0884  00D4               	movwf	USER_USB_CALLBACK_EVENT_HANDLER@size
  4910  0885  00D5               	movwf	USER_USB_CALLBACK_EVENT_HANDLER@size+1
  4911  0886  318B  2304  3188   	fcall	_USER_USB_CALLBACK_EVENT_HANDLER
  4912  0889                     i1l3694:
  4913                           
  4914                           ;usb_device.c: 2325:         UCONbits.SUSPND = 0;
  4915  0889  003D               	movlb	29	; select bank29
  4916  088A  108E               	bcf	14,1	;volatile
  4917  088B                     i1l3696:
  4918                           
  4919                           ;usb_device.c: 2330:     UIEbits.ACTVIE = 0;
  4920  088B  1112               	bcf	18,2	;volatile
  4921                           
  4922                           ;usb_device.c: 2348:     while(UIRbits.ACTVIF)
  4923  088C  2893               	goto	i1l3700
  4924  088D                     i1l3698:
  4925                           
  4926                           ;usb_device.c: 2350:     {;usb_device.c: 2351:         (UIR &= 0xFB);
  4927  088D  30FB               	movlw	251
  4928  088E  0020               	movlb	0	; select bank0
  4929  088F  00D6               	movwf	??_USBWakeFromSuspend
  4930  0890  0856               	movf	??_USBWakeFromSuspend,w
  4931  0891  003D               	movlb	29	; select bank29
  4932  0892  0590               	andwf	16,f	;volatile
  4933  0893                     i1l3700:
  4934                           
  4935                           ;usb_device.c: 2348:     while(UIRbits.ACTVIF)
  4936  0893  1910               	btfsc	16,2	;volatile
  4937  0894  2896               	goto	u231_21
  4938  0895  2897               	goto	u231_20
  4939  0896                     u231_21:
  4940  0896  288D               	goto	i1l3698
  4941  0897                     u231_20:
  4942  0897                     i1l3702:
  4943                           
  4944                           ;usb_device.c: 2354:     USBTicksSinceSuspendEnd = 0;
  4945  0897  0023               	movlb	3	; select bank3
  4946  0898  01AE               	clrf	_USBTicksSinceSuspendEnd^(0+384)	;volatile
  4947  0899                     i1l419:
  4948  0899  0008               	return
  4949  089A                     __end_of_USBWakeFromSuspend:
  4950                           
  4951                           	psect	text15
  4952  0838                     __ptext15:	
  4953 ;; *************** function _USBSuspend *****************
  4954 ;; Defined at:
  4955 ;;		line 2252 in file "usb_device.c"
  4956 ;; Parameters:    Size  Location     Type
  4957 ;;		None
  4958 ;; Auto vars:     Size  Location     Type
  4959 ;;		None
  4960 ;; Return value:  Size  Location     Type
  4961 ;;                  1    wreg      void 
  4962 ;; Registers used:
  4963 ;;		wreg, fsr0l, fsr0h, fsr1l, fsr1h, status,2, status,0, pclath, cstack
  4964 ;; Tracked objects:
  4965 ;;		On entry : 0/0
  4966 ;;		On exit  : 0/0
  4967 ;;		Unchanged: 0/0
  4968 ;; Data sizes:     COMMON   BANK0   BANK1   BANK2   BANK3   BANK4   BANK5   BANK6   BANK7   BANK8   BANK9  BANK10  BANK1
      +1  BANK12
  4969 ;;      Params:         0       0       0       0       0       0       0       0       0       0       0       0       
      +0       0
  4970 ;;      Locals:         0       0       0       0       0       0       0       0       0       0       0       0       
      +0       0
  4971 ;;      Temps:          0       1       0       0       0       0       0       0       0       0       0       0       
      +0       0
  4972 ;;      Totals:         0       1       0       0       0       0       0       0       0       0       0       0       
      +0       0
  4973 ;;Total ram usage:        1 bytes
  4974 ;; Hardware stack levels used: 1
  4975 ;; Hardware stack levels required when called: 4
  4976 ;; This function calls:
  4977 ;;		_USER_USB_CALLBACK_EVENT_HANDLER
  4978 ;; This function is called by:
  4979 ;;		_USBDeviceTasks
  4980 ;; This function uses a non-reentrant model
  4981 ;;
  4982                           
  4983  0838                     _USBSuspend:	
  4984                           ;psect for function _USBSuspend
  4985                           
  4986  0838                     i1l3704:	
  4987                           ;incstack = 0
  4988                           ; Regs used in _USBSuspend: [wreg-fsr1h+status,2+status,0+pclath+cstack]
  4989                           
  4990                           
  4991                           ;usb_device.c: 2277:     UIEbits.ACTVIE = 1;
  4992  0838  003D               	movlb	29	; select bank29
  4993  0839  1512               	bsf	18,2	;volatile
  4994  083A                     i1l3706:
  4995                           
  4996                           ;usb_device.c: 2278:     (UIR &= 0xEF);
  4997  083A  30EF               	movlw	239
  4998  083B  0020               	movlb	0	; select bank0
  4999  083C  00D6               	movwf	??_USBSuspend
  5000  083D  0856               	movf	??_USBSuspend,w
  5001  083E  003D               	movlb	29	; select bank29
  5002  083F  0590               	andwf	16,f	;volatile
  5003  0840                     i1l3708:
  5004                           
  5005                           ;usb_device.c: 2281:         UCONbits.SUSPND = 1;
  5006  0840  148E               	bsf	14,1	;volatile
  5007  0841                     i1l3710:
  5008                           
  5009                           ;usb_device.c: 2284:     USBBusIsSuspended = 1;
  5010  0841  3001               	movlw	1
  5011  0842  0020               	movlb	0	; select bank0
  5012  0843  00D6               	movwf	??_USBSuspend
  5013  0844  0856               	movf	??_USBSuspend,w
  5014  0845  0023               	movlb	3	; select bank3
  5015  0846  00B5               	movwf	_USBBusIsSuspended^(0+384)	;volatile
  5016  0847                     i1l3712:
  5017                           
  5018                           ;usb_device.c: 2285:     USBTicksSinceSuspendEnd = 0;
  5019  0847  01AE               	clrf	_USBTicksSinceSuspendEnd^(0+384)	;volatile
  5020  0848                     i1l3714:
  5021                           
  5022                           ;usb_device.c: 2292:     USER_USB_CALLBACK_EVENT_HANDLER((USB_EVENT)EVENT_SUSPEND,0,0);
  5023  0848  3075               	movlw	117
  5024  0849  0020               	movlb	0	; select bank0
  5025  084A  00D0               	movwf	USER_USB_CALLBACK_EVENT_HANDLER@event
  5026  084B  3000               	movlw	0
  5027  084C  00D1               	movwf	USER_USB_CALLBACK_EVENT_HANDLER@event+1
  5028  084D  3000               	movlw	0
  5029  084E  00D2               	movwf	USER_USB_CALLBACK_EVENT_HANDLER@pdata
  5030  084F  3000               	movlw	0
  5031  0850  00D3               	movwf	USER_USB_CALLBACK_EVENT_HANDLER@pdata+1
  5032  0851  3000               	movlw	0
  5033  0852  00D4               	movwf	USER_USB_CALLBACK_EVENT_HANDLER@size
  5034  0853  00D5               	movwf	USER_USB_CALLBACK_EVENT_HANDLER@size+1
  5035  0854  318B  2304  3188   	fcall	_USER_USB_CALLBACK_EVENT_HANDLER
  5036  0857                     i1l413:
  5037  0857  0008               	return
  5038  0858                     __end_of_USBSuspend:
  5039                           
  5040                           	psect	text16
  5041  09E1                     __ptext16:	
  5042 ;; *************** function _USBStallHandler *****************
  5043 ;; Defined at:
  5044 ;;		line 2209 in file "usb_device.c"
  5045 ;; Parameters:    Size  Location     Type
  5046 ;;		None
  5047 ;; Auto vars:     Size  Location     Type
  5048 ;;		None
  5049 ;; Return value:  Size  Location     Type
  5050 ;;                  1    wreg      void 
  5051 ;; Registers used:
  5052 ;;		wreg, fsr1l, fsr1h, status,2, status,0
  5053 ;; Tracked objects:
  5054 ;;		On entry : 0/0
  5055 ;;		On exit  : 0/0
  5056 ;;		Unchanged: 0/0
  5057 ;; Data sizes:     COMMON   BANK0   BANK1   BANK2   BANK3   BANK4   BANK5   BANK6   BANK7   BANK8   BANK9  BANK10  BANK1
      +1  BANK12
  5058 ;;      Params:         0       0       0       0       0       0       0       0       0       0       0       0       
      +0       0
  5059 ;;      Locals:         0       0       0       0       0       0       0       0       0       0       0       0       
      +0       0
  5060 ;;      Temps:          1       0       0       0       0       0       0       0       0       0       0       0       
      +0       0
  5061 ;;      Totals:         1       0       0       0       0       0       0       0       0       0       0       0       
      +0       0
  5062 ;;Total ram usage:        1 bytes
  5063 ;; Hardware stack levels used: 1
  5064 ;; This function calls:
  5065 ;;		Nothing
  5066 ;; This function is called by:
  5067 ;;		_USBDeviceTasks
  5068 ;; This function uses a non-reentrant model
  5069 ;;
  5070                           
  5071  09E1                     _USBStallHandler:	
  5072                           ;psect for function _USBStallHandler
  5073                           
  5074  09E1                     i1l3724:	
  5075                           ;incstack = 0
  5076                           ; Regs used in _USBStallHandler: [wreg+fsr1l+fsr1h+status,2+status,0]
  5077                           
  5078                           
  5079                           ;usb_device.c: 2221:     if(UEP0bits.EPSTALL == 1)
  5080  09E1  003D               	movlb	29	; select bank29
  5081  09E2  1C18               	btfss	24,0	;volatile
  5082  09E3  29E5               	goto	u234_21
  5083  09E4  29E6               	goto	u234_20
  5084  09E5                     u234_21:
  5085  09E5  2A09               	goto	i1l3734
  5086  09E6                     u234_20:
  5087  09E6                     i1l3726:
  5088                           
  5089                           ;usb_device.c: 2222:     {;usb_device.c: 2224:         if((pBDTEntryEP0OutCurrent->STAT.
      +                          Val == 0x80) && (pBDTEntryIn[0]->STAT.Val == (0x80|0x04)))
  5090  09E6  0021               	movlb	1	; select bank1
  5091  09E7  086E               	movf	_pBDTEntryEP0OutCurrent^(0+128),w
  5092  09E8  0086               	movwf	6
  5093  09E9  0187               	clrf	7
  5094  09EA  3080               	movlw	128
  5095  09EB  0601               	xorwf	1,w
  5096  09EC  1D03               	btfss	3,2
  5097  09ED  29EF               	goto	u235_21
  5098  09EE  29F0               	goto	u235_20
  5099  09EF                     u235_21:
  5100  09EF  2A07               	goto	i1l3732
  5101  09F0                     u235_20:
  5102  09F0                     i1l3728:
  5103  09F0  0020               	movlb	0	; select bank0
  5104  09F1  086A               	movf	_pBDTEntryIn,w
  5105  09F2  0086               	movwf	6
  5106  09F3  086B               	movf	_pBDTEntryIn+1,w
  5107  09F4  0087               	movwf	7
  5108  09F5  3084               	movlw	132
  5109  09F6  0601               	xorwf	1,w
  5110  09F7  1D03               	btfss	3,2
  5111  09F8  29FA               	goto	u236_21
  5112  09F9  29FB               	goto	u236_20
  5113  09FA                     u236_21:
  5114  09FA  2A07               	goto	i1l3732
  5115  09FB                     u236_20:
  5116  09FB                     i1l3730:
  5117                           
  5118                           ;usb_device.c: 2225:         {;usb_device.c: 2227:             pBDTEntryEP0OutCurrent->S
      +                          TAT.Val = 0x00|(0x08 & 0x08)|0x04;
  5119  09FB  300C               	movlw	12
  5120  09FC  00F0               	movwf	??_USBStallHandler
  5121  09FD  0021               	movlb	1	; select bank1
  5122  09FE  086E               	movf	_pBDTEntryEP0OutCurrent^(0+128),w
  5123  09FF  0086               	movwf	6
  5124  0A00  0187               	clrf	7
  5125  0A01  0870               	movf	??_USBStallHandler,w
  5126  0A02  0081               	movwf	1
  5127                           
  5128                           ;usb_device.c: 2228:             pBDTEntryEP0OutCurrent->STAT.Val |= 0x80;
  5129  0A03  086E               	movf	_pBDTEntryEP0OutCurrent^(0+128),w
  5130  0A04  0086               	movwf	6
  5131  0A05  0187               	clrf	7
  5132  0A06  1781               	bsf	1,7
  5133  0A07                     i1l3732:
  5134                           
  5135                           ;usb_device.c: 2230:         UEP0bits.EPSTALL = 0;
  5136  0A07  003D               	movlb	29	; select bank29
  5137  0A08  1018               	bcf	24,0	;volatile
  5138  0A09                     i1l3734:
  5139                           
  5140                           ;usb_device.c: 2233:     (UIR &= 0xDF);
  5141  0A09  30DF               	movlw	223
  5142  0A0A  00F0               	movwf	??_USBStallHandler
  5143  0A0B  0870               	movf	??_USBStallHandler,w
  5144  0A0C  0590               	andwf	16,f	;volatile
  5145  0A0D                     i1l410:
  5146  0A0D  0008               	return
  5147  0A0E                     __end_of_USBStallHandler:
  5148                           
  5149                           	psect	text17
  5150  17E4                     __ptext17:	
  5151 ;; *************** function _USBIncrement1msInternalTimers *****************
  5152 ;; Defined at:
  5153 ;;		line 2998 in file "usb_device.c"
  5154 ;; Parameters:    Size  Location     Type
  5155 ;;		None
  5156 ;; Auto vars:     Size  Location     Type
  5157 ;;		None
  5158 ;; Return value:  Size  Location     Type
  5159 ;;                  1    wreg      void 
  5160 ;; Registers used:
  5161 ;;		wreg, status,2, status,0
  5162 ;; Tracked objects:
  5163 ;;		On entry : 0/0
  5164 ;;		On exit  : 0/0
  5165 ;;		Unchanged: 0/0
  5166 ;; Data sizes:     COMMON   BANK0   BANK1   BANK2   BANK3   BANK4   BANK5   BANK6   BANK7   BANK8   BANK9  BANK10  BANK1
      +1  BANK12
  5167 ;;      Params:         0       0       0       0       0       0       0       0       0       0       0       0       
      +0       0
  5168 ;;      Locals:         0       0       0       0       0       0       0       0       0       0       0       0       
      +0       0
  5169 ;;      Temps:          1       0       0       0       0       0       0       0       0       0       0       0       
      +0       0
  5170 ;;      Totals:         1       0       0       0       0       0       0       0       0       0       0       0       
      +0       0
  5171 ;;Total ram usage:        1 bytes
  5172 ;; Hardware stack levels used: 1
  5173 ;; This function calls:
  5174 ;;		Nothing
  5175 ;; This function is called by:
  5176 ;;		_USBDeviceTasks
  5177 ;; This function uses a non-reentrant model
  5178 ;;
  5179                           
  5180  17E4                     _USBIncrement1msInternalTimers:	
  5181                           ;psect for function _USBIncrement1msInternalTimers
  5182                           
  5183  17E4                     i1l3716:	
  5184                           ;incstack = 0
  5185                           ; Regs used in _USBIncrement1msInternalTimers: [wreg+status,2+status,0]
  5186                           
  5187                           
  5188                           ;usb_device.c: 3006:     USB1msTickCount++;
  5189  17E4  3001               	movlw	1
  5190  17E5  0023               	movlb	3	; select bank3
  5191  17E6  07A0               	addwf	_USB1msTickCount^(0+384),f	;volatile
  5192  17E7  3000               	movlw	0
  5193  17E8  3DA1               	addwfc	(_USB1msTickCount+1)^(0+384),f	;volatile
  5194  17E9  3000               	movlw	0
  5195  17EA  3DA2               	addwfc	(_USB1msTickCount+2)^(0+384),f	;volatile
  5196  17EB  3000               	movlw	0
  5197  17EC  3DA3               	addwfc	(_USB1msTickCount+3)^(0+384),f	;volatile
  5198  17ED                     i1l3718:
  5199                           
  5200                           ;usb_device.c: 3007:     if(USBBusIsSuspended == 0)
  5201  17ED  0835               	movf	_USBBusIsSuspended^(0+384),w	;volatile
  5202  17EE  1D03               	btfss	3,2
  5203  17EF  2FF1               	goto	u232_21
  5204  17F0  2FF2               	goto	u232_20
  5205  17F1                     u232_21:
  5206  17F1  2FFF               	goto	i1l500
  5207  17F2                     u232_20:
  5208  17F2                     i1l3720:
  5209                           
  5210                           ;usb_device.c: 3008:     {;usb_device.c: 3009:         USBTicksSinceSuspendEnd++;
  5211  17F2  3001               	movlw	1
  5212  17F3  00F0               	movwf	??_USBIncrement1msInternalTimers
  5213  17F4  0870               	movf	??_USBIncrement1msInternalTimers,w
  5214  17F5  07AE               	addwf	_USBTicksSinceSuspendEnd^(0+384),f	;volatile
  5215                           
  5216                           ;usb_device.c: 3011:         if(USBTicksSinceSuspendEnd == 0)
  5217  17F6  082E               	movf	_USBTicksSinceSuspendEnd^(0+384),w	;volatile
  5218  17F7  1D03               	btfss	3,2
  5219  17F8  2FFA               	goto	u233_21
  5220  17F9  2FFB               	goto	u233_20
  5221  17FA                     u233_21:
  5222  17FA  2FFF               	goto	i1l500
  5223  17FB                     u233_20:
  5224  17FB                     i1l3722:
  5225                           
  5226                           ;usb_device.c: 3012:         {;usb_device.c: 3013:             USBTicksSinceSuspendEnd =
      +                           255;
  5227  17FB  30FF               	movlw	255
  5228  17FC  00F0               	movwf	??_USBIncrement1msInternalTimers
  5229  17FD  0870               	movf	??_USBIncrement1msInternalTimers,w
  5230  17FE  00AE               	movwf	_USBTicksSinceSuspendEnd^(0+384)	;volatile
  5231  17FF                     i1l500:
  5232  17FF  0008               	return
  5233  1800                     __end_of_USBIncrement1msInternalTimers:
  5234                           
  5235                           	psect	text18
  5236  0B54                     __ptext18:	
  5237 ;; *************** function _USBCtrlEPService *****************
  5238 ;; Defined at:
  5239 ;;		line 2379 in file "usb_device.c"
  5240 ;; Parameters:    Size  Location     Type
  5241 ;;		None
  5242 ;; Auto vars:     Size  Location     Type
  5243 ;;		None
  5244 ;; Return value:  Size  Location     Type
  5245 ;;                  1    wreg      void 
  5246 ;; Registers used:
  5247 ;;		wreg, fsr0l, fsr0h, fsr1l, fsr1h, status,2, status,0, pclath, cstack
  5248 ;; Tracked objects:
  5249 ;;		On entry : 0/0
  5250 ;;		On exit  : 0/0
  5251 ;;		Unchanged: 0/0
  5252 ;; Data sizes:     COMMON   BANK0   BANK1   BANK2   BANK3   BANK4   BANK5   BANK6   BANK7   BANK8   BANK9  BANK10  BANK1
      +1  BANK12
  5253 ;;      Params:         0       0       0       0       0       0       0       0       0       0       0       0       
      +0       0
  5254 ;;      Locals:         0       0       0       0       0       0       0       0       0       0       0       0       
      +0       0
  5255 ;;      Temps:          0       2       0       0       0       0       0       0       0       0       0       0       
      +0       0
  5256 ;;      Totals:         0       2       0       0       0       0       0       0       0       0       0       0       
      +0       0
  5257 ;;Total ram usage:        2 bytes
  5258 ;; Hardware stack levels used: 1
  5259 ;; Hardware stack levels required when called: 7
  5260 ;; This function calls:
  5261 ;;		_USBCtrlTrfInHandler
  5262 ;;		_USBCtrlTrfOutHandler
  5263 ;;		_USBCtrlTrfSetupHandler
  5264 ;;		_memcpy
  5265 ;; This function is called by:
  5266 ;;		_USBDeviceTasks
  5267 ;; This function uses a non-reentrant model
  5268 ;;
  5269                           
  5270  0B54                     _USBCtrlEPService:	
  5271                           ;psect for function _USBCtrlEPService
  5272                           
  5273  0B54                     i1l4632:	
  5274                           ;incstack = 0
  5275                           ; Regs used in _USBCtrlEPService: [wreg-fsr1h+status,2+status,0+pclath+cstack]
  5276                           
  5277                           
  5278                           ;usb_device.c: 2385:         USBStatusStageTimeoutCounter = (uint8_t)45;
  5279  0B54  302D               	movlw	45
  5280  0B55  0020               	movlb	0	; select bank0
  5281  0B56  00E0               	movwf	??_USBCtrlEPService
  5282  0B57  0860               	movf	??_USBCtrlEPService,w
  5283  0B58  0023               	movlb	3	; select bank3
  5284  0B59  00B3               	movwf	_USBStatusStageTimeoutCounter^(0+384)	;volatile
  5285  0B5A                     i1l4634:
  5286                           
  5287                           ;usb_device.c: 2389:     if((USTATcopy.Val & ~0x02) == 0x00)
  5288  0B5A  0022               	movlb	2	; select bank2
  5289  0B5B  086D               	movf	_USTATcopy^(0+256),w	;volatile
  5290  0B5C  39FD               	andlw	253
  5291  0B5D  1D03               	btfss	3,2
  5292  0B5E  2B60               	goto	u300_21
  5293  0B5F  2B61               	goto	u300_20
  5294  0B60                     u300_21:
  5295  0B60  2BA1               	goto	i1l4650
  5296  0B61                     u300_20:
  5297  0B61                     i1l4636:
  5298                           
  5299                           ;usb_device.c: 2390:     {;usb_device.c: 2393:             pBDTEntryEP0OutCurrent = (vol
      +                          atile BDT_ENTRY*)&BDT[(USTATcopy.Val & 0x7E)>>1];
  5300  0B61  366D               	lsrf	_USTATcopy^(0+256),w	;volatile
  5301  0B62  393F               	andlw	63
  5302  0B63  0020               	movlb	0	; select bank0
  5303  0B64  00E0               	movwf	??_USBCtrlEPService
  5304  0B65  3001               	movlw	1
  5305  0B66                     u301_25:
  5306  0B66  35E0               	lslf	??_USBCtrlEPService,f
  5307  0B67  3EFF               	addlw	-1
  5308  0B68  1D03               	skipz
  5309  0B69  2B66               	goto	u301_25
  5310  0B6A  3560               	lslf	??_USBCtrlEPService,w
  5311  0B6B  3E20               	addlw	32
  5312  0B6C  00E1               	movwf	??_USBCtrlEPService+1
  5313  0B6D  0861               	movf	??_USBCtrlEPService+1,w
  5314  0B6E  0021               	movlb	1	; select bank1
  5315  0B6F  00EE               	movwf	_pBDTEntryEP0OutCurrent^(0+128)
  5316  0B70                     i1l4638:
  5317                           
  5318                           ;usb_device.c: 2401:         pBDTEntryEP0OutNext = pBDTEntryEP0OutCurrent;
  5319  0B70  086E               	movf	_pBDTEntryEP0OutCurrent^(0+128),w
  5320  0B71  0020               	movlb	0	; select bank0
  5321  0B72  00EE               	movwf	_pBDTEntryEP0OutNext
  5322  0B73  39FF               	andlw	255
  5323  0B74  1D03               	skipz
  5324  0B75  3000               	movlw	0
  5325  0B76  00EF               	movwf	_pBDTEntryEP0OutNext+1
  5326  0B77                     i1l4640:
  5327                           
  5328                           ;usb_device.c: 2403:         pBDTEntryEP0OutNext = (volatile BDT_ENTRY*)(((uint16_t)pBDT
      +                          EntryEP0OutNext) ^ 0x0004);
  5329  0B77  3004               	movlw	4
  5330  0B78  066E               	xorwf	_pBDTEntryEP0OutNext,w
  5331  0B79  00EE               	movwf	_pBDTEntryEP0OutNext
  5332  0B7A  3000               	movlw	0
  5333  0B7B  066F               	xorwf	_pBDTEntryEP0OutNext+1,w
  5334  0B7C  00EF               	movwf	_pBDTEntryEP0OutNext+1
  5335  0B7D                     i1l4642:
  5336                           
  5337                           ;usb_device.c: 2406:         if(pBDTEntryEP0OutCurrent->STAT.PID == 0xD)
  5338  0B7D  0021               	movlb	1	; select bank1
  5339  0B7E  086E               	movf	_pBDTEntryEP0OutCurrent^(0+128),w
  5340  0B7F  0086               	movwf	6
  5341  0B80  0187               	clrf	7
  5342  0B81  0C01               	rrf	1,w
  5343  0B82  0C89               	rrf	9,f
  5344  0B83  390F               	andlw	15
  5345  0B84  3A0D               	xorlw	13
  5346  0B85  1D03               	skipz
  5347  0B86  2B88               	goto	u302_21
  5348  0B87  2B89               	goto	u302_20
  5349  0B88                     u302_21:
  5350  0B88  2B9D               	goto	i1l4648
  5351  0B89                     u302_20:
  5352  0B89                     i1l4644:
  5353                           
  5354                           ;usb_device.c: 2407:         {;usb_device.c: 2412:             memcpy((uint8_t*)&SetupPk
      +                          t, (uint8_t*)((void *)(pBDTEntryEP0OutCurrent->ADR)), 8);
  5355  0B89  086E               	movf	_pBDTEntryEP0OutCurrent^(0+128),w
  5356  0B8A  3E02               	addlw	2
  5357  0B8B  0086               	movwf	6
  5358  0B8C  0187               	clrf	7
  5359  0B8D  3F40               	moviw [0]fsr1
  5360  0B8E  00F0               	movwf	memcpy@s1
  5361  0B8F  3F41               	moviw [1]fsr1
  5362  0B90  00F1               	movwf	memcpy@s1+1
  5363  0B91  3008               	movlw	8
  5364  0B92  00F2               	movwf	memcpy@n
  5365  0B93  3000               	movlw	0
  5366  0B94  00F3               	movwf	memcpy@n+1
  5367  0B95  3040               	movlw	64
  5368  0B96  318A  220E  318B   	fcall	_memcpy
  5369  0B99                     i1l4646:
  5370                           
  5371                           ;usb_device.c: 2415:             USBCtrlTrfSetupHandler();
  5372  0B99  318A  22B9  318B   	fcall	_USBCtrlTrfSetupHandler
  5373                           
  5374                           ;usb_device.c: 2416:         }
  5375  0B9C  2BAE               	goto	i1l427
  5376  0B9D                     i1l4648:
  5377                           
  5378                           ;usb_device.c: 2418:         {;usb_device.c: 2420:             USBCtrlTrfOutHandler();
  5379  0B9D  318A  223C  318B   	fcall	_USBCtrlTrfOutHandler
  5380  0BA0  2BAE               	goto	i1l427
  5381  0BA1                     i1l4650:
  5382  0BA1  30FD               	movlw	253
  5383  0BA2  056D               	andwf	_USTATcopy^(0+256),w	;volatile
  5384  0BA3  0020               	movlb	0	; select bank0
  5385  0BA4  00E0               	movwf	??_USBCtrlEPService
  5386  0BA5  3004               	movlw	4
  5387  0BA6  0660               	xorwf	??_USBCtrlEPService,w
  5388  0BA7  1D03               	btfss	3,2
  5389  0BA8  2BAA               	goto	u303_21
  5390  0BA9  2BAB               	goto	u303_20
  5391  0BAA                     u303_21:
  5392  0BAA  2BAE               	goto	i1l427
  5393  0BAB                     u303_20:
  5394  0BAB                     i1l4652:
  5395                           
  5396                           ;usb_device.c: 2424:     {;usb_device.c: 2427:         USBCtrlTrfInHandler();
  5397  0BAB  318C  24EF  318B   	fcall	_USBCtrlTrfInHandler
  5398  0BAE                     i1l427:
  5399  0BAE  0008               	return
  5400  0BAF                     __end_of_USBCtrlEPService:
  5401                           
  5402                           	psect	text19
  5403  0A0E                     __ptext19:	
  5404 ;; *************** function _memcpy *****************
  5405 ;; Defined at:
  5406 ;;		line 4 in file "C:\Program Files\Microchip\xc8\v2.35\pic\sources\c99\common\memcpy.c"
  5407 ;; Parameters:    Size  Location     Type
  5408 ;;  d1              1    wreg     PTR void 
  5409 ;;		 -> SetupPkt(8), 
  5410 ;;  s1              2    0[COMMON] PTR const void 
  5411 ;;		 -> CtrlTrfData(8), RAM(4096), SetupPkt(8), 
  5412 ;;  n               2    2[COMMON] unsigned int 
  5413 ;; Auto vars:     Size  Location     Type
  5414 ;;  d1              1    8[COMMON] PTR void 
  5415 ;;		 -> SetupPkt(8), 
  5416 ;;  s               2    5[COMMON] PTR const unsigned char 
  5417 ;;		 -> CtrlTrfData(8), RAM(4096), SetupPkt(8), 
  5418 ;;  d               1    9[COMMON] PTR unsigned char 
  5419 ;;		 -> SetupPkt(8), 
  5420 ;;  tmp             1    7[COMMON] unsigned char 
  5421 ;; Return value:  Size  Location     Type
  5422 ;;                  1    wreg      PTR void 
  5423 ;; Registers used:
  5424 ;;		wreg, fsr1l, fsr1h, status,2, status,0
  5425 ;; Tracked objects:
  5426 ;;		On entry : 0/0
  5427 ;;		On exit  : 0/0
  5428 ;;		Unchanged: 0/0
  5429 ;; Data sizes:     COMMON   BANK0   BANK1   BANK2   BANK3   BANK4   BANK5   BANK6   BANK7   BANK8   BANK9  BANK10  BANK1
      +1  BANK12
  5430 ;;      Params:         4       0       0       0       0       0       0       0       0       0       0       0       
      +0       0
  5431 ;;      Locals:         5       0       0       0       0       0       0       0       0       0       0       0       
      +0       0
  5432 ;;      Temps:          1       0       0       0       0       0       0       0       0       0       0       0       
      +0       0
  5433 ;;      Totals:        10       0       0       0       0       0       0       0       0       0       0       0       
      +0       0
  5434 ;;Total ram usage:       10 bytes
  5435 ;; Hardware stack levels used: 1
  5436 ;; This function calls:
  5437 ;;		Nothing
  5438 ;; This function is called by:
  5439 ;;		_USBCtrlEPService
  5440 ;; This function uses a non-reentrant model
  5441 ;;
  5442                           
  5443  0A0E                     _memcpy:	
  5444                           ;psect for function _memcpy
  5445                           
  5446                           
  5447                           ;incstack = 0
  5448                           ; Regs used in _memcpy: [wreg+fsr1l+fsr1h+status,2+status,0]
  5449                           ;memcpy@d1 stored from wreg
  5450  0A0E  00F8               	movwf	memcpy@d1
  5451  0A0F                     i1l3526:
  5452  0A0F  0871               	movf	memcpy@s1+1,w
  5453  0A10  00F6               	movwf	memcpy@s+1
  5454  0A11  0870               	movf	memcpy@s1,w
  5455  0A12  00F5               	movwf	memcpy@s
  5456  0A13  0878               	movf	memcpy@d1,w
  5457  0A14  00F4               	movwf	??_memcpy
  5458  0A15  0874               	movf	??_memcpy,w
  5459  0A16  00F9               	movwf	memcpy@d
  5460  0A17  2A2F               	goto	i1l3536
  5461  0A18                     i1l3528:
  5462  0A18  0875               	movf	memcpy@s,w
  5463  0A19  0086               	movwf	6
  5464  0A1A  0876               	movf	memcpy@s+1,w
  5465  0A1B  0087               	movwf	7
  5466  0A1C  0801               	movf	1,w
  5467  0A1D  00F4               	movwf	??_memcpy
  5468  0A1E  0874               	movf	??_memcpy,w
  5469  0A1F  00F7               	movwf	memcpy@tmp
  5470  0A20                     i1l3530:
  5471  0A20  3001               	movlw	1
  5472  0A21  07F5               	addwf	memcpy@s,f
  5473  0A22  3000               	movlw	0
  5474  0A23  3DF6               	addwfc	memcpy@s+1,f
  5475  0A24                     i1l3532:
  5476  0A24  0877               	movf	memcpy@tmp,w
  5477  0A25  00F4               	movwf	??_memcpy
  5478  0A26  0879               	movf	memcpy@d,w
  5479  0A27  0086               	movwf	6
  5480  0A28  0187               	clrf	7
  5481  0A29  0874               	movf	??_memcpy,w
  5482  0A2A  0081               	movwf	1
  5483  0A2B                     i1l3534:
  5484  0A2B  3001               	movlw	1
  5485  0A2C  00F4               	movwf	??_memcpy
  5486  0A2D  0874               	movf	??_memcpy,w
  5487  0A2E  07F9               	addwf	memcpy@d,f
  5488  0A2F                     i1l3536:
  5489  0A2F  3001               	movlw	1
  5490  0A30  02F2               	subwf	memcpy@n,f
  5491  0A31  3000               	movlw	0
  5492  0A32  3BF3               	subwfb	memcpy@n+1,f
  5493  0A33  0A72               	incf	memcpy@n,w
  5494  0A34  1D03               	skipz
  5495  0A35  2A3A               	goto	u217_21
  5496  0A36  0A73               	incf	memcpy@n+1,w
  5497  0A37  1D03               	btfss	3,2
  5498  0A38  2A3A               	goto	u217_21
  5499  0A39  2A3B               	goto	u217_20
  5500  0A3A                     u217_21:
  5501  0A3A  2A18               	goto	i1l3528
  5502  0A3B                     u217_20:
  5503  0A3B                     i1l1138:
  5504  0A3B  0008               	return
  5505  0A3C                     __end_of_memcpy:
  5506                           
  5507                           	psect	text20
  5508  0AB9                     __ptext20:	
  5509 ;; *************** function _USBCtrlTrfSetupHandler *****************
  5510 ;; Defined at:
  5511 ;;		line 2472 in file "usb_device.c"
  5512 ;; Parameters:    Size  Location     Type
  5513 ;;		None
  5514 ;; Auto vars:     Size  Location     Type
  5515 ;;		None
  5516 ;; Return value:  Size  Location     Type
  5517 ;;                  1    wreg      void 
  5518 ;; Registers used:
  5519 ;;		wreg, fsr0l, fsr0h, fsr1l, fsr1h, status,2, status,0, pclath, cstack
  5520 ;; Tracked objects:
  5521 ;;		On entry : 0/0
  5522 ;;		On exit  : 0/0
  5523 ;;		Unchanged: 0/0
  5524 ;; Data sizes:     COMMON   BANK0   BANK1   BANK2   BANK3   BANK4   BANK5   BANK6   BANK7   BANK8   BANK9  BANK10  BANK1
      +1  BANK12
  5525 ;;      Params:         0       0       0       0       0       0       0       0       0       0       0       0       
      +0       0
  5526 ;;      Locals:         0       0       0       0       0       0       0       0       0       0       0       0       
      +0       0
  5527 ;;      Temps:          0       1       0       0       0       0       0       0       0       0       0       0       
      +0       0
  5528 ;;      Totals:         0       1       0       0       0       0       0       0       0       0       0       0       
      +0       0
  5529 ;;Total ram usage:        1 bytes
  5530 ;; Hardware stack levels used: 1
  5531 ;; Hardware stack levels required when called: 6
  5532 ;; This function calls:
  5533 ;;		_USBCheckStdRequest
  5534 ;;		_USBCtrlEPServiceComplete
  5535 ;;		_USER_USB_CALLBACK_EVENT_HANDLER
  5536 ;; This function is called by:
  5537 ;;		_USBCtrlEPService
  5538 ;; This function uses a non-reentrant model
  5539 ;;
  5540                           
  5541  0AB9                     _USBCtrlTrfSetupHandler:	
  5542                           ;psect for function _USBCtrlTrfSetupHandler
  5543                           
  5544  0AB9                     i1l4606:	
  5545                           ;incstack = 0
  5546                           ; Regs used in _USBCtrlTrfSetupHandler: [wreg-fsr1h+status,2+status,0+pclath+cstack]
  5547                           
  5548                           
  5549                           ;usb_device.c: 2477:     shortPacketStatus = 0;
  5550  0AB9  0022               	movlb	2	; select bank2
  5551  0ABA  01EC               	clrf	_shortPacketStatus^(0+256)	;volatile
  5552                           
  5553                           ;usb_device.c: 2478:     USBDeferStatusStagePacket = 0;
  5554  0ABB  01E9               	clrf	_USBDeferStatusStagePacket^(0+256)	;volatile
  5555                           
  5556                           ;usb_device.c: 2479:     USBDeferINDataStagePackets = 0;
  5557  0ABC  0023               	movlb	3	; select bank3
  5558  0ABD  01B0               	clrf	_USBDeferINDataStagePackets^(0+384)	;volatile
  5559                           
  5560                           ;usb_device.c: 2480:     USBDeferOUTDataStagePackets = 0;
  5561  0ABE  01AF               	clrf	_USBDeferOUTDataStagePackets^(0+384)	;volatile
  5562                           
  5563                           ;usb_device.c: 2481:     BothEP0OutUOWNsSet = 0;
  5564  0ABF  01B4               	clrf	_BothEP0OutUOWNsSet^(0+384)	;volatile
  5565                           
  5566                           ;usb_device.c: 2482:     controlTransferState = 0;
  5567  0AC0  0022               	movlb	2	; select bank2
  5568  0AC1  01EB               	clrf	_controlTransferState^(0+256)	;volatile
  5569  0AC2                     i1l4608:
  5570                           
  5571                           ;usb_device.c: 2491:     pBDTEntryIn[0]->STAT.Val &= ~(0x80);
  5572  0AC2  307F               	movlw	127
  5573  0AC3  0020               	movlb	0	; select bank0
  5574  0AC4  00DF               	movwf	??_USBCtrlTrfSetupHandler
  5575  0AC5  086A               	movf	_pBDTEntryIn,w
  5576  0AC6  0086               	movwf	6
  5577  0AC7  086B               	movf	_pBDTEntryIn+1,w
  5578  0AC8  0087               	movwf	7
  5579  0AC9  085F               	movf	??_USBCtrlTrfSetupHandler,w
  5580  0ACA  0581               	andwf	1,f
  5581  0ACB                     i1l4610:
  5582                           
  5583                           ;usb_device.c: 2493:     pBDTEntryIn[0] = (volatile BDT_ENTRY*)(((uint16_t)pBDTEntryIn[0
      +                          ]) ^ 0x0004);
  5584  0ACB  3004               	movlw	4
  5585  0ACC  066A               	xorwf	_pBDTEntryIn,w
  5586  0ACD  00EA               	movwf	_pBDTEntryIn
  5587  0ACE  3000               	movlw	0
  5588  0ACF  066B               	xorwf	_pBDTEntryIn+1,w
  5589  0AD0  00EB               	movwf	_pBDTEntryIn+1
  5590  0AD1                     i1l4612:
  5591                           
  5592                           ;usb_device.c: 2494:     pBDTEntryIn[0]->STAT.Val &= ~(0x80);
  5593  0AD1  307F               	movlw	127
  5594  0AD2  00DF               	movwf	??_USBCtrlTrfSetupHandler
  5595  0AD3  086A               	movf	_pBDTEntryIn,w
  5596  0AD4  0086               	movwf	6
  5597  0AD5  086B               	movf	_pBDTEntryIn+1,w
  5598  0AD6  0087               	movwf	7
  5599  0AD7  085F               	movf	??_USBCtrlTrfSetupHandler,w
  5600  0AD8  0581               	andwf	1,f
  5601  0AD9                     i1l4614:
  5602                           
  5603                           ;usb_device.c: 2495:     pBDTEntryIn[0] = (volatile BDT_ENTRY*)(((uint16_t)pBDTEntryIn[0
      +                          ]) ^ 0x0004);
  5604  0AD9  3004               	movlw	4
  5605  0ADA  066A               	xorwf	_pBDTEntryIn,w
  5606  0ADB  00EA               	movwf	_pBDTEntryIn
  5607  0ADC  3000               	movlw	0
  5608  0ADD  066B               	xorwf	_pBDTEntryIn+1,w
  5609  0ADE  00EB               	movwf	_pBDTEntryIn+1
  5610  0ADF                     i1l4616:
  5611                           
  5612                           ;usb_device.c: 2496:     pBDTEntryEP0OutNext->STAT.Val &= ~(0x80);
  5613  0ADF  307F               	movlw	127
  5614  0AE0  00DF               	movwf	??_USBCtrlTrfSetupHandler
  5615  0AE1  086E               	movf	_pBDTEntryEP0OutNext,w
  5616  0AE2  0086               	movwf	6
  5617  0AE3  086F               	movf	_pBDTEntryEP0OutNext+1,w
  5618  0AE4  0087               	movwf	7
  5619  0AE5  085F               	movf	??_USBCtrlTrfSetupHandler,w
  5620  0AE6  0581               	andwf	1,f
  5621  0AE7                     i1l4618:
  5622                           
  5623                           ;usb_device.c: 2498:     inPipes[0].info.Val = 0;
  5624  0AE7  01E7               	clrf	_inPipes+2	;volatile
  5625  0AE8                     i1l4620:
  5626                           
  5627                           ;usb_device.c: 2499:     inPipes[0].wCount.Val = 0;
  5628  0AE8  01E8               	clrf	_inPipes+3	;volatile
  5629  0AE9  01E9               	clrf	_inPipes+4	;volatile
  5630  0AEA                     i1l4622:
  5631                           
  5632                           ;usb_device.c: 2500:     outPipes[0].info.Val = 0;
  5633  0AEA  0022               	movlb	2	; select bank2
  5634  0AEB  01E2               	clrf	(_outPipes^(0+256)+2)	;volatile
  5635  0AEC                     i1l4624:
  5636                           
  5637                           ;usb_device.c: 2501:     outPipes[0].wCount.Val = 0;
  5638  0AEC  01E3               	clrf	(_outPipes^(0+256)+3)	;volatile
  5639  0AED  01E4               	clrf	((_outPipes+1)^(0+256)+3)	;volatile
  5640  0AEE                     i1l4626:
  5641                           
  5642                           ;usb_device.c: 2507:     USBCheckStdRequest();
  5643  0AEE  318D  256D  318A   	fcall	_USBCheckStdRequest
  5644  0AF1                     i1l4628:
  5645                           
  5646                           ;usb_device.c: 2508:     USER_USB_CALLBACK_EVENT_HANDLER((USB_EVENT)EVENT_EP0_REQUEST,0,
      +                          0);
  5647  0AF1  3003               	movlw	3
  5648  0AF2  0020               	movlb	0	; select bank0
  5649  0AF3  00D0               	movwf	USER_USB_CALLBACK_EVENT_HANDLER@event
  5650  0AF4  3000               	movlw	0
  5651  0AF5  00D1               	movwf	USER_USB_CALLBACK_EVENT_HANDLER@event+1
  5652  0AF6  3000               	movlw	0
  5653  0AF7  00D2               	movwf	USER_USB_CALLBACK_EVENT_HANDLER@pdata
  5654  0AF8  3000               	movlw	0
  5655  0AF9  00D3               	movwf	USER_USB_CALLBACK_EVENT_HANDLER@pdata+1
  5656  0AFA  3000               	movlw	0
  5657  0AFB  00D4               	movwf	USER_USB_CALLBACK_EVENT_HANDLER@size
  5658  0AFC  00D5               	movwf	USER_USB_CALLBACK_EVENT_HANDLER@size+1
  5659  0AFD  318B  2304  318A   	fcall	_USER_USB_CALLBACK_EVENT_HANDLER
  5660  0B00                     i1l4630:
  5661                           
  5662                           ;usb_device.c: 2521:     USBCtrlEPServiceComplete();
  5663  0B00  3186  2623  318A   	fcall	_USBCtrlEPServiceComplete
  5664  0B03                     i1l430:
  5665  0B03  0008               	return
  5666  0B04                     __end_of_USBCtrlTrfSetupHandler:
  5667                           
  5668                           	psect	text21
  5669  0623                     __ptext21:	
  5670 ;; *************** function _USBCtrlEPServiceComplete *****************
  5671 ;; Defined at:
  5672 ;;		line 1620 in file "usb_device.c"
  5673 ;; Parameters:    Size  Location     Type
  5674 ;;		None
  5675 ;; Auto vars:     Size  Location     Type
  5676 ;;		None
  5677 ;; Return value:  Size  Location     Type
  5678 ;;                  1    wreg      void 
  5679 ;; Registers used:
  5680 ;;		wreg, fsr0l, fsr0h, fsr1l, fsr1h, status,2, status,0, pclath, cstack
  5681 ;; Tracked objects:
  5682 ;;		On entry : 0/0
  5683 ;;		On exit  : 0/0
  5684 ;;		Unchanged: 0/0
  5685 ;; Data sizes:     COMMON   BANK0   BANK1   BANK2   BANK3   BANK4   BANK5   BANK6   BANK7   BANK8   BANK9  BANK10  BANK1
      +1  BANK12
  5686 ;;      Params:         0       0       0       0       0       0       0       0       0       0       0       0       
      +0       0
  5687 ;;      Locals:         0       0       0       0       0       0       0       0       0       0       0       0       
      +0       0
  5688 ;;      Temps:          2       0       0       0       0       0       0       0       0       0       0       0       
      +0       0
  5689 ;;      Totals:         2       0       0       0       0       0       0       0       0       0       0       0       
      +0       0
  5690 ;;Total ram usage:        2 bytes
  5691 ;; Hardware stack levels used: 1
  5692 ;; Hardware stack levels required when called: 2
  5693 ;; This function calls:
  5694 ;;		_USBCtrlEPAllowDataStage
  5695 ;;		_USBCtrlEPAllowStatusStage
  5696 ;; This function is called by:
  5697 ;;		_USBCtrlTrfSetupHandler
  5698 ;; This function uses a non-reentrant model
  5699 ;;
  5700                           
  5701  0623                     _USBCtrlEPServiceComplete:	
  5702                           ;psect for function _USBCtrlEPServiceComplete
  5703                           
  5704  0623                     i1l3386:	
  5705                           ;incstack = 0
  5706                           ; Regs used in _USBCtrlEPServiceComplete: [wreg-fsr1h+status,2+status,0+pclath+cstack]
  5707                           
  5708                           
  5709                           ;usb_device.c: 1626:     UCONbits.PKTDIS = 0;
  5710  0623  003D               	movlb	29	; select bank29
  5711  0624  120E               	bcf	14,4	;volatile
  5712                           
  5713                           ;usb_device.c: 1632:     if(inPipes[0].info.bits.busy == 0)
  5714  0625  0020               	movlb	0	; select bank0
  5715  0626  1BE7               	btfsc	_inPipes+2,7	;volatile
  5716  0627  2E29               	goto	u204_21
  5717  0628  2E2A               	goto	u204_20
  5718  0629                     u204_21:
  5719  0629  2E71               	goto	i1l329
  5720  062A                     u204_20:
  5721  062A                     i1l3388:
  5722                           
  5723                           ;usb_device.c: 1633:     {;usb_device.c: 1634:         if(outPipes[0].info.bits.busy == 
      +                          1)
  5724  062A  0022               	movlb	2	; select bank2
  5725  062B  1FE2               	btfss	(_outPipes^(0+256)+2),7	;volatile
  5726  062C  2E2E               	goto	u205_21
  5727  062D  2E2F               	goto	u205_20
  5728  062E                     u205_21:
  5729  062E  2E40               	goto	i1l3400
  5730  062F                     u205_20:
  5731  062F                     i1l3390:
  5732                           
  5733                           ;usb_device.c: 1635:         {;usb_device.c: 1636:             controlTransferState = 2;
  5734  062F  3002               	movlw	2
  5735  0630  00F5               	movwf	??_USBCtrlEPServiceComplete
  5736  0631  0875               	movf	??_USBCtrlEPServiceComplete,w
  5737  0632  00EB               	movwf	_controlTransferState^(0+256)	;volatile
  5738  0633                     i1l3392:
  5739                           
  5740                           ;usb_device.c: 1647:             if(USBDeferOUTDataStagePackets == 0)
  5741  0633  0023               	movlb	3	; select bank3
  5742  0634  082F               	movf	_USBDeferOUTDataStagePackets^(0+384),w	;volatile
  5743  0635  1D03               	btfss	3,2
  5744  0636  2E38               	goto	u206_21
  5745  0637  2E39               	goto	u206_20
  5746  0638                     u206_21:
  5747  0638  2E3C               	goto	i1l3396
  5748  0639                     u206_20:
  5749  0639                     i1l3394:
  5750                           
  5751                           ;usb_device.c: 1648:             {;usb_device.c: 1649:                 USBCtrlEPAllowDat
      +                          aStage();
  5752  0639  318B  23AF  3186   	fcall	_USBCtrlEPAllowDataStage
  5753  063C                     i1l3396:
  5754                           
  5755                           ;usb_device.c: 1654:             USBStatusStageEnabledFlag2 = 0;
  5756  063C  0023               	movlb	3	; select bank3
  5757  063D  01B1               	clrf	_USBStatusStageEnabledFlag2^(0+384)	;volatile
  5758  063E                     i1l3398:
  5759                           
  5760                           ;usb_device.c: 1655:             USBStatusStageEnabledFlag1 = 0;
  5761  063E  01B2               	clrf	_USBStatusStageEnabledFlag1^(0+384)	;volatile
  5762                           
  5763                           ;usb_device.c: 1656:         }
  5764  063F  2EC4               	goto	i1l339
  5765  0640                     i1l3400:
  5766                           
  5767                           ;usb_device.c: 1658:         {;usb_device.c: 1663:             pBDTEntryEP0OutNext->CNT 
      +                          = 8;
  5768  0640  0020               	movlb	0	; select bank0
  5769  0641  086E               	movf	_pBDTEntryEP0OutNext,w
  5770  0642  3E01               	addlw	1
  5771  0643  00F5               	movwf	??_USBCtrlEPServiceComplete
  5772  0644  3000               	movlw	0
  5773  0645  3D6F               	addwfc	_pBDTEntryEP0OutNext+1,w
  5774  0646  00F6               	movwf	??_USBCtrlEPServiceComplete+1
  5775  0647  0875               	movf	??_USBCtrlEPServiceComplete,w
  5776  0648  0086               	movwf	6
  5777  0649  0876               	movf	??_USBCtrlEPServiceComplete+1,w
  5778  064A  0087               	movwf	7
  5779  064B  3008               	movlw	8
  5780  064C  0081               	movwf	1
  5781  064D                     i1l3402:
  5782                           
  5783                           ;usb_device.c: 1664:             pBDTEntryEP0OutNext->ADR = (((uint16_t)(&SetupPkt)) & 0
      +                          x7FFF);
  5784  064D  3040               	movlw	64
  5785  064E  00F5               	movwf	??_USBCtrlEPServiceComplete
  5786  064F  3000               	movlw	0
  5787  0650  00F6               	movwf	??_USBCtrlEPServiceComplete+1
  5788  0651  086E               	movf	_pBDTEntryEP0OutNext,w
  5789  0652  0086               	movwf	6
  5790  0653  086F               	movf	_pBDTEntryEP0OutNext+1,w
  5791  0654  0087               	movwf	7
  5792  0655  3142               	addfsr 1,2
  5793  0656  0875               	movf	??_USBCtrlEPServiceComplete,w
  5794  0657  3FC0               	movwi [0]fsr1
  5795  0658  0876               	movf	??_USBCtrlEPServiceComplete+1,w
  5796  0659  3FC1               	movwi [1]fsr1
  5797  065A                     i1l3404:
  5798                           
  5799                           ;usb_device.c: 1665:             pBDTEntryEP0OutNext->STAT.Val = 0x00|(0x08 & 0x08)|0x04
      +                          ;
  5800  065A  086E               	movf	_pBDTEntryEP0OutNext,w
  5801  065B  0086               	movwf	6
  5802  065C  086F               	movf	_pBDTEntryEP0OutNext+1,w
  5803  065D  0087               	movwf	7
  5804  065E  300C               	movlw	12
  5805  065F  0081               	movwf	1
  5806  0660                     i1l3406:
  5807                           
  5808                           ;usb_device.c: 1666:             pBDTEntryEP0OutNext->STAT.Val |= 0x80;
  5809  0660  086E               	movf	_pBDTEntryEP0OutNext,w
  5810  0661  0086               	movwf	6
  5811  0662  086F               	movf	_pBDTEntryEP0OutNext+1,w
  5812  0663  0087               	movwf	7
  5813  0664  1781               	bsf	1,7
  5814  0665                     i1l3408:
  5815                           
  5816                           ;usb_device.c: 1667:             pBDTEntryIn[0]->STAT.Val = 0x04;
  5817  0665  086A               	movf	_pBDTEntryIn,w
  5818  0666  0086               	movwf	6
  5819  0667  086B               	movf	_pBDTEntryIn+1,w
  5820  0668  0087               	movwf	7
  5821  0669  3004               	movlw	4
  5822  066A  0081               	movwf	1
  5823  066B                     i1l3410:
  5824                           
  5825                           ;usb_device.c: 1668:             pBDTEntryIn[0]->STAT.Val |= 0x80;
  5826  066B  086A               	movf	_pBDTEntryIn,w
  5827  066C  0086               	movwf	6
  5828  066D  086B               	movf	_pBDTEntryIn+1,w
  5829  066E  0087               	movwf	7
  5830  066F  1781               	bsf	1,7
  5831  0670  2EC4               	goto	i1l339
  5832  0671                     i1l329:	
  5833                           ;usb_device.c: 1671:     else
  5834                           
  5835                           
  5836                           ;usb_device.c: 1672:     {;usb_device.c: 1673:   if(SetupPkt.DataDir == (0x80>>7))
  5837  0671  1FC0               	btfss	64,7	;volatile
  5838  0672  2E74               	goto	u207_21
  5839  0673  2E75               	goto	u207_20
  5840  0674                     u207_21:
  5841  0674  2E90               	goto	i1l3426
  5842  0675                     u207_20:
  5843  0675                     i1l3412:
  5844                           
  5845                           ;usb_device.c: 1674:   {;usb_device.c: 1675:    controlTransferState = 1;
  5846  0675  3001               	movlw	1
  5847  0676  00F5               	movwf	??_USBCtrlEPServiceComplete
  5848  0677  0875               	movf	??_USBCtrlEPServiceComplete,w
  5849  0678  0022               	movlb	2	; select bank2
  5850  0679  00EB               	movwf	_controlTransferState^(0+256)	;volatile
  5851  067A                     i1l3414:
  5852                           
  5853                           ;usb_device.c: 1689:    if(USBDeferINDataStagePackets == 0)
  5854  067A  0023               	movlb	3	; select bank3
  5855  067B  0830               	movf	_USBDeferINDataStagePackets^(0+384),w	;volatile
  5856  067C  1D03               	btfss	3,2
  5857  067D  2E7F               	goto	u208_21
  5858  067E  2E80               	goto	u208_20
  5859  067F                     u208_21:
  5860  067F  2E83               	goto	i1l3418
  5861  0680                     u208_20:
  5862  0680                     i1l3416:
  5863                           
  5864                           ;usb_device.c: 1690:             {;usb_device.c: 1691:                 USBCtrlEPAllowDat
      +                          aStage();
  5865  0680  318B  23AF  3186   	fcall	_USBCtrlEPAllowDataStage
  5866  0683                     i1l3418:
  5867                           
  5868                           ;usb_device.c: 1714:             USBStatusStageEnabledFlag2 = 0;
  5869  0683  0023               	movlb	3	; select bank3
  5870  0684  01B1               	clrf	_USBStatusStageEnabledFlag2^(0+384)	;volatile
  5871  0685                     i1l3420:
  5872                           
  5873                           ;usb_device.c: 1715:             USBStatusStageEnabledFlag1 = 0;
  5874  0685  01B2               	clrf	_USBStatusStageEnabledFlag1^(0+384)	;volatile
  5875  0686                     i1l3422:
  5876                           
  5877                           ;usb_device.c: 1716:             if(USBDeferStatusStagePacket == 0)
  5878  0686  0022               	movlb	2	; select bank2
  5879  0687  0869               	movf	_USBDeferStatusStagePacket^(0+256),w	;volatile
  5880  0688  1D03               	btfss	3,2
  5881  0689  2E8B               	goto	u209_21
  5882  068A  2E8C               	goto	u209_20
  5883  068B                     u209_21:
  5884  068B  2EC4               	goto	i1l339
  5885  068C                     u209_20:
  5886  068C                     i1l3424:
  5887                           
  5888                           ;usb_device.c: 1717:             {;usb_device.c: 1718:                 USBCtrlEPAllowSta
      +                          tusStage();
  5889  068C  318C  2475  3186   	fcall	_USBCtrlEPAllowStatusStage
  5890  068F  2EC4               	goto	i1l339
  5891  0690                     i1l3426:
  5892                           
  5893                           ;usb_device.c: 1722:   {;usb_device.c: 1733:    controlTransferState = 2;
  5894  0690  3002               	movlw	2
  5895  0691  00F5               	movwf	??_USBCtrlEPServiceComplete
  5896  0692  0875               	movf	??_USBCtrlEPServiceComplete,w
  5897  0693  0022               	movlb	2	; select bank2
  5898  0694  00EB               	movwf	_controlTransferState^(0+256)	;volatile
  5899  0695                     i1l3428:
  5900                           
  5901                           ;usb_device.c: 1736:    pBDTEntryEP0OutNext->CNT = 8;
  5902  0695  0020               	movlb	0	; select bank0
  5903  0696  086E               	movf	_pBDTEntryEP0OutNext,w
  5904  0697  3E01               	addlw	1
  5905  0698  00F5               	movwf	??_USBCtrlEPServiceComplete
  5906  0699  3000               	movlw	0
  5907  069A  3D6F               	addwfc	_pBDTEntryEP0OutNext+1,w
  5908  069B  00F6               	movwf	??_USBCtrlEPServiceComplete+1
  5909  069C  0875               	movf	??_USBCtrlEPServiceComplete,w
  5910  069D  0086               	movwf	6
  5911  069E  0876               	movf	??_USBCtrlEPServiceComplete+1,w
  5912  069F  0087               	movwf	7
  5913  06A0  3008               	movlw	8
  5914  06A1  0081               	movwf	1
  5915  06A2                     i1l3430:
  5916                           
  5917                           ;usb_device.c: 1737:    pBDTEntryEP0OutNext->ADR = (((uint16_t)(&SetupPkt)) & 0x7FFF);
  5918  06A2  3040               	movlw	64
  5919  06A3  00F5               	movwf	??_USBCtrlEPServiceComplete
  5920  06A4  3000               	movlw	0
  5921  06A5  00F6               	movwf	??_USBCtrlEPServiceComplete+1
  5922  06A6  086E               	movf	_pBDTEntryEP0OutNext,w
  5923  06A7  0086               	movwf	6
  5924  06A8  086F               	movf	_pBDTEntryEP0OutNext+1,w
  5925  06A9  0087               	movwf	7
  5926  06AA  3142               	addfsr 1,2
  5927  06AB  0875               	movf	??_USBCtrlEPServiceComplete,w
  5928  06AC  3FC0               	movwi [0]fsr1
  5929  06AD  0876               	movf	??_USBCtrlEPServiceComplete+1,w
  5930  06AE  3FC1               	movwi [1]fsr1
  5931  06AF                     i1l3432:
  5932                           
  5933                           ;usb_device.c: 1738:    pBDTEntryEP0OutNext->STAT.Val = 0x04;
  5934  06AF  086E               	movf	_pBDTEntryEP0OutNext,w
  5935  06B0  0086               	movwf	6
  5936  06B1  086F               	movf	_pBDTEntryEP0OutNext+1,w
  5937  06B2  0087               	movwf	7
  5938  06B3  3004               	movlw	4
  5939  06B4  0081               	movwf	1
  5940  06B5                     i1l3434:
  5941                           
  5942                           ;usb_device.c: 1739:             pBDTEntryEP0OutNext->STAT.Val |= 0x80;
  5943  06B5  086E               	movf	_pBDTEntryEP0OutNext,w
  5944  06B6  0086               	movwf	6
  5945  06B7  086F               	movf	_pBDTEntryEP0OutNext+1,w
  5946  06B8  0087               	movwf	7
  5947  06B9  1781               	bsf	1,7
  5948  06BA                     i1l3436:
  5949                           
  5950                           ;usb_device.c: 1742:             USBStatusStageEnabledFlag2 = 0;
  5951  06BA  0023               	movlb	3	; select bank3
  5952  06BB  01B1               	clrf	_USBStatusStageEnabledFlag2^(0+384)	;volatile
  5953  06BC                     i1l3438:
  5954                           
  5955                           ;usb_device.c: 1743:             USBStatusStageEnabledFlag1 = 0;
  5956  06BC  01B2               	clrf	_USBStatusStageEnabledFlag1^(0+384)	;volatile
  5957                           
  5958                           ;usb_device.c: 1744:    if(USBDeferStatusStagePacket == 0)
  5959  06BD  0022               	movlb	2	; select bank2
  5960  06BE  0869               	movf	_USBDeferStatusStagePacket^(0+256),w	;volatile
  5961  06BF  1D03               	btfss	3,2
  5962  06C0  2EC2               	goto	u210_21
  5963  06C1  2EC3               	goto	u210_20
  5964  06C2                     u210_21:
  5965  06C2  2EC4               	goto	i1l339
  5966  06C3                     u210_20:
  5967  06C3  2E8C               	goto	i1l3424
  5968  06C4                     i1l339:
  5969  06C4  0008               	return
  5970  06C5                     __end_of_USBCtrlEPServiceComplete:
  5971                           
  5972                           	psect	text22
  5973  0BAF                     __ptext22:	
  5974 ;; *************** function _USBCtrlEPAllowDataStage *****************
  5975 ;; Defined at:
  5976 ;;		line 1492 in file "usb_device.c"
  5977 ;; Parameters:    Size  Location     Type
  5978 ;;		None
  5979 ;; Auto vars:     Size  Location     Type
  5980 ;;		None
  5981 ;; Return value:  Size  Location     Type
  5982 ;;                  1    wreg      void 
  5983 ;; Registers used:
  5984 ;;		wreg, fsr0l, fsr0h, fsr1l, fsr1h, status,2, status,0, pclath, cstack
  5985 ;; Tracked objects:
  5986 ;;		On entry : 0/0
  5987 ;;		On exit  : 0/0
  5988 ;;		Unchanged: 0/0
  5989 ;; Data sizes:     COMMON   BANK0   BANK1   BANK2   BANK3   BANK4   BANK5   BANK6   BANK7   BANK8   BANK9  BANK10  BANK1
      +1  BANK12
  5990 ;;      Params:         0       0       0       0       0       0       0       0       0       0       0       0       
      +0       0
  5991 ;;      Locals:         0       0       0       0       0       0       0       0       0       0       0       0       
      +0       0
  5992 ;;      Temps:          2       0       0       0       0       0       0       0       0       0       0       0       
      +0       0
  5993 ;;      Totals:         2       0       0       0       0       0       0       0       0       0       0       0       
      +0       0
  5994 ;;Total ram usage:        2 bytes
  5995 ;; Hardware stack levels used: 1
  5996 ;; Hardware stack levels required when called: 1
  5997 ;; This function calls:
  5998 ;;		_USBCtrlTrfTxService
  5999 ;; This function is called by:
  6000 ;;		_USBCtrlEPServiceComplete
  6001 ;; This function uses a non-reentrant model
  6002 ;;
  6003                           
  6004  0BAF                     _USBCtrlEPAllowDataStage:	
  6005                           ;psect for function _USBCtrlEPAllowDataStage
  6006                           
  6007  0BAF                     i1l3154:	
  6008                           ;incstack = 0
  6009                           ; Regs used in _USBCtrlEPAllowDataStage: [wreg-fsr1h+status,2+status,0+pclath+cstack]
  6010                           
  6011                           
  6012                           ;usb_device.c: 1494:     USBDeferINDataStagePackets = 0;
  6013  0BAF  0023               	movlb	3	; select bank3
  6014  0BB0  01B0               	clrf	_USBDeferINDataStagePackets^(0+384)	;volatile
  6015                           
  6016                           ;usb_device.c: 1495:     USBDeferOUTDataStagePackets = 0;
  6017  0BB1  01AF               	clrf	_USBDeferOUTDataStagePackets^(0+384)	;volatile
  6018  0BB2                     i1l3156:
  6019                           
  6020                           ;usb_device.c: 1497:     if(controlTransferState == 2)
  6021  0BB2  3002               	movlw	2
  6022  0BB3  0022               	movlb	2	; select bank2
  6023  0BB4  066B               	xorwf	_controlTransferState^(0+256),w	;volatile
  6024  0BB5  1D03               	btfss	3,2
  6025  0BB6  2BB8               	goto	u172_21
  6026  0BB7  2BB9               	goto	u172_20
  6027  0BB8                     u172_21:
  6028  0BB8  2BDF               	goto	i1l3166
  6029  0BB9                     u172_20:
  6030  0BB9                     i1l3158:
  6031                           
  6032                           ;usb_device.c: 1498:     {;usb_device.c: 1500:         pBDTEntryEP0OutNext->CNT = 8;
  6033  0BB9  0020               	movlb	0	; select bank0
  6034  0BBA  086E               	movf	_pBDTEntryEP0OutNext,w
  6035  0BBB  3E01               	addlw	1
  6036  0BBC  00F3               	movwf	??_USBCtrlEPAllowDataStage
  6037  0BBD  3000               	movlw	0
  6038  0BBE  3D6F               	addwfc	_pBDTEntryEP0OutNext+1,w
  6039  0BBF  00F4               	movwf	??_USBCtrlEPAllowDataStage+1
  6040  0BC0  0873               	movf	??_USBCtrlEPAllowDataStage,w
  6041  0BC1  0086               	movwf	6
  6042  0BC2  0874               	movf	??_USBCtrlEPAllowDataStage+1,w
  6043  0BC3  0087               	movwf	7
  6044  0BC4  3008               	movlw	8
  6045  0BC5  0081               	movwf	1
  6046  0BC6                     i1l3160:
  6047                           
  6048                           ;usb_device.c: 1501:         pBDTEntryEP0OutNext->ADR = (((uint16_t)(&CtrlTrfData)) & 0x
      +                          7FFF);
  6049  0BC6  3048               	movlw	72
  6050  0BC7  00F3               	movwf	??_USBCtrlEPAllowDataStage
  6051  0BC8  3000               	movlw	0
  6052  0BC9  00F4               	movwf	??_USBCtrlEPAllowDataStage+1
  6053  0BCA  086E               	movf	_pBDTEntryEP0OutNext,w
  6054  0BCB  0086               	movwf	6
  6055  0BCC  086F               	movf	_pBDTEntryEP0OutNext+1,w
  6056  0BCD  0087               	movwf	7
  6057  0BCE  3142               	addfsr 1,2
  6058  0BCF  0873               	movf	??_USBCtrlEPAllowDataStage,w
  6059  0BD0  3FC0               	movwi [0]fsr1
  6060  0BD1  0874               	movf	??_USBCtrlEPAllowDataStage+1,w
  6061  0BD2  3FC1               	movwi [1]fsr1
  6062  0BD3                     i1l3162:
  6063                           
  6064                           ;usb_device.c: 1502:         pBDTEntryEP0OutNext->STAT.Val = 0x40|(0x08 & 0x08);
  6065  0BD3  086E               	movf	_pBDTEntryEP0OutNext,w
  6066  0BD4  0086               	movwf	6
  6067  0BD5  086F               	movf	_pBDTEntryEP0OutNext+1,w
  6068  0BD6  0087               	movwf	7
  6069  0BD7  3048               	movlw	72
  6070  0BD8  0081               	movwf	1
  6071  0BD9                     i1l3164:
  6072                           
  6073                           ;usb_device.c: 1503:         pBDTEntryEP0OutNext->STAT.Val |= 0x80;
  6074  0BD9  086E               	movf	_pBDTEntryEP0OutNext,w
  6075  0BDA  0086               	movwf	6
  6076  0BDB  086F               	movf	_pBDTEntryEP0OutNext+1,w
  6077  0BDC  0087               	movwf	7
  6078  0BDD  1781               	bsf	1,7
  6079                           
  6080                           ;usb_device.c: 1504:     }
  6081  0BDE  2C0A               	goto	i1l321
  6082  0BDF                     i1l3166:
  6083                           
  6084                           ;usb_device.c: 1506:     {;usb_device.c: 1509:   if(SetupPkt.wLength < inPipes[0].wCount
      +                          .Val)
  6085  0BDF  0020               	movlb	0	; select bank0
  6086  0BE0  0869               	movf	_inPipes+4,w	;volatile
  6087  0BE1  0247               	subwf	71,w	;volatile
  6088  0BE2  1D03               	skipz
  6089  0BE3  2BE6               	goto	u173_25
  6090  0BE4  0868               	movf	_inPipes+3,w	;volatile
  6091  0BE5  0246               	subwf	70,w	;volatile
  6092  0BE6                     u173_25:
  6093  0BE6  1803               	skipnc
  6094  0BE7  2BE9               	goto	u173_21
  6095  0BE8  2BEA               	goto	u173_20
  6096  0BE9                     u173_21:
  6097  0BE9  2BEE               	goto	i1l3170
  6098  0BEA                     u173_20:
  6099  0BEA                     i1l3168:
  6100                           
  6101                           ;usb_device.c: 1510:   {;usb_device.c: 1511:    inPipes[0].wCount.Val = SetupPkt.wLength
      +                          ;
  6102  0BEA  0847               	movf	71,w	;volatile
  6103  0BEB  00E9               	movwf	_inPipes+4	;volatile
  6104  0BEC  0846               	movf	70,w	;volatile
  6105  0BED  00E8               	movwf	_inPipes+3	;volatile
  6106  0BEE                     i1l3170:
  6107                           
  6108                           ;usb_device.c: 1513:   USBCtrlTrfTxService();
  6109  0BEE  318D  25EB  318B   	fcall	_USBCtrlTrfTxService
  6110  0BF1                     i1l3172:
  6111                           
  6112                           ;usb_device.c: 1518:   pBDTEntryIn[0]->ADR = (((uint16_t)(&CtrlTrfData)) & 0x7FFF);
  6113  0BF1  3048               	movlw	72
  6114  0BF2  00F3               	movwf	??_USBCtrlEPAllowDataStage
  6115  0BF3  3000               	movlw	0
  6116  0BF4  00F4               	movwf	??_USBCtrlEPAllowDataStage+1
  6117  0BF5  0020               	movlb	0	; select bank0
  6118  0BF6  086A               	movf	_pBDTEntryIn,w
  6119  0BF7  0086               	movwf	6
  6120  0BF8  086B               	movf	_pBDTEntryIn+1,w
  6121  0BF9  0087               	movwf	7
  6122  0BFA  3142               	addfsr 1,2
  6123  0BFB  0873               	movf	??_USBCtrlEPAllowDataStage,w
  6124  0BFC  3FC0               	movwi [0]fsr1
  6125  0BFD  0874               	movf	??_USBCtrlEPAllowDataStage+1,w
  6126  0BFE  3FC1               	movwi [1]fsr1
  6127  0BFF                     i1l3174:
  6128                           
  6129                           ;usb_device.c: 1519:   pBDTEntryIn[0]->STAT.Val = 0x40|(0x08 & 0x08);
  6130  0BFF  086A               	movf	_pBDTEntryIn,w
  6131  0C00  0086               	movwf	6
  6132  0C01  086B               	movf	_pBDTEntryIn+1,w
  6133  0C02  0087               	movwf	7
  6134  0C03  3048               	movlw	72
  6135  0C04  0081               	movwf	1
  6136  0C05                     i1l3176:
  6137                           
  6138                           ;usb_device.c: 1520:         pBDTEntryIn[0]->STAT.Val |= 0x80;
  6139  0C05  086A               	movf	_pBDTEntryIn,w
  6140  0C06  0086               	movwf	6
  6141  0C07  086B               	movf	_pBDTEntryIn+1,w
  6142  0C08  0087               	movwf	7
  6143  0C09  1781               	bsf	1,7
  6144  0C0A                     i1l321:
  6145  0C0A  0008               	return
  6146  0C0B                     __end_of_USBCtrlEPAllowDataStage:
  6147                           
  6148                           	psect	text23
  6149  0D6D                     __ptext23:	
  6150 ;; *************** function _USBCheckStdRequest *****************
  6151 ;; Defined at:
  6152 ;;		line 2693 in file "usb_device.c"
  6153 ;; Parameters:    Size  Location     Type
  6154 ;;		None
  6155 ;; Auto vars:     Size  Location     Type
  6156 ;;		None
  6157 ;; Return value:  Size  Location     Type
  6158 ;;                  1    wreg      void 
  6159 ;; Registers used:
  6160 ;;		wreg, fsr0l, fsr0h, fsr1l, fsr1h, status,2, status,0, pclath, cstack
  6161 ;; Tracked objects:
  6162 ;;		On entry : 0/0
  6163 ;;		On exit  : 0/0
  6164 ;;		Unchanged: 0/0
  6165 ;; Data sizes:     COMMON   BANK0   BANK1   BANK2   BANK3   BANK4   BANK5   BANK6   BANK7   BANK8   BANK9  BANK10  BANK1
      +1  BANK12
  6166 ;;      Params:         0       0       0       0       0       0       0       0       0       0       0       0       
      +0       0
  6167 ;;      Locals:         0       0       0       0       0       0       0       0       0       0       0       0       
      +0       0
  6168 ;;      Temps:          0       2       0       0       0       0       0       0       0       0       0       0       
      +0       0
  6169 ;;      Totals:         0       2       0       0       0       0       0       0       0       0       0       0       
      +0       0
  6170 ;;Total ram usage:        2 bytes
  6171 ;; Hardware stack levels used: 1
  6172 ;; Hardware stack levels required when called: 5
  6173 ;; This function calls:
  6174 ;;		_USBStdFeatureReqHandler
  6175 ;;		_USBStdGetDscHandler
  6176 ;;		_USBStdGetStatusHandler
  6177 ;;		_USBStdSetCfgHandler
  6178 ;;		_USER_USB_CALLBACK_EVENT_HANDLER
  6179 ;; This function is called by:
  6180 ;;		_USBCtrlTrfSetupHandler
  6181 ;; This function uses a non-reentrant model
  6182 ;;
  6183                           
  6184  0D6D                     _USBCheckStdRequest:	
  6185                           ;psect for function _USBCheckStdRequest
  6186                           
  6187  0D6D                     i1l4564:	
  6188                           ;incstack = 0
  6189                           ; Regs used in _USBCheckStdRequest: [wreg-fsr1h+status,2+status,0+pclath+cstack]
  6190                           
  6191                           
  6192                           ;usb_device.c: 2695:     if(SetupPkt.RequestType != (0x00>>5)) return;
  6193  0D6D  0020               	movlb	0	; select bank0
  6194  0D6E  0E40               	swapf	64,w	;volatile
  6195  0D6F  0C89               	rrf	9,f
  6196  0D70  3903               	andlw	3
  6197  0D71  3A00               	xorlw	0
  6198  0D72  1903               	skipnz
  6199  0D73  2D75               	goto	u299_21
  6200  0D74  2D76               	goto	u299_20
  6201  0D75                     u299_21:
  6202  0D75  2DBF               	goto	i1l4600
  6203  0D76                     u299_20:
  6204  0D76  2DEA               	goto	i1l455
  6205  0D77                     i1l457:	
  6206                           ;usb_device.c: 2698:     {;usb_device.c: 2699:         case 5:
  6207                           
  6208                           
  6209                           ;usb_device.c: 2700:             inPipes[0].info.bits.busy = 1;
  6210  0D77  17E7               	bsf	_inPipes+2,7	;volatile
  6211  0D78                     i1l4568:
  6212                           
  6213                           ;usb_device.c: 2701:             USBDeviceState = ADR_PENDING_STATE;
  6214  0D78  3008               	movlw	8
  6215  0D79  00DD               	movwf	??_USBCheckStdRequest
  6216  0D7A  085D               	movf	??_USBCheckStdRequest,w
  6217  0D7B  0021               	movlb	1	; select bank1
  6218  0D7C  00EF               	movwf	_USBDeviceState^(0+128)	;volatile
  6219                           
  6220                           ;usb_device.c: 2703:             break;
  6221  0D7D  2DEA               	goto	i1l455
  6222  0D7E                     i1l4570:
  6223                           
  6224                           ;usb_device.c: 2705:             USBStdGetDscHandler();
  6225  0D7E  318E  266E  318D   	fcall	_USBStdGetDscHandler
  6226                           
  6227                           ;usb_device.c: 2706:             break;
  6228  0D81  2DEA               	goto	i1l455
  6229  0D82                     i1l4572:
  6230                           
  6231                           ;usb_device.c: 2708:             USBStdSetCfgHandler();
  6232  0D82  3187  2764  318D   	fcall	_USBStdSetCfgHandler
  6233                           
  6234                           ;usb_device.c: 2709:             break;
  6235  0D85  2DEA               	goto	i1l455
  6236  0D86                     i1l4574:
  6237                           
  6238                           ;usb_device.c: 2711:             inPipes[0].pSrc.bRam = (uint8_t*)&USBActiveConfiguratio
      +                          n;
  6239  0D86  306F               	movlw	low _USBActiveConfiguration
  6240  0D87  00E5               	movwf	_inPipes	;volatile
  6241  0D88  3001               	movlw	high _USBActiveConfiguration
  6242  0D89  00E6               	movwf	_inPipes+1	;volatile
  6243  0D8A                     i1l4576:
  6244                           
  6245                           ;usb_device.c: 2712:             inPipes[0].info.bits.ctrl_trf_mem = 0x01;
  6246  0D8A  1467               	bsf	_inPipes+2,0	;volatile
  6247  0D8B                     i1l4578:
  6248                           
  6249                           ;usb_device.c: 2713:             inPipes[0].wCount.v[0] = 1;
  6250  0D8B  3001               	movlw	1
  6251  0D8C  00DD               	movwf	??_USBCheckStdRequest
  6252  0D8D  085D               	movf	??_USBCheckStdRequest,w
  6253  0D8E  00E8               	movwf	_inPipes+3	;volatile
  6254  0D8F                     i1l4580:
  6255                           
  6256                           ;usb_device.c: 2714:             inPipes[0].info.bits.busy = 1;
  6257  0D8F  17E7               	bsf	_inPipes+2,7	;volatile
  6258                           
  6259                           ;usb_device.c: 2715:             break;
  6260  0D90  2DEA               	goto	i1l455
  6261  0D91                     i1l4582:
  6262                           
  6263                           ;usb_device.c: 2717:             USBStdGetStatusHandler();
  6264  0D91  318C  240B  318D   	fcall	_USBStdGetStatusHandler
  6265                           
  6266                           ;usb_device.c: 2718:             break;
  6267  0D94  2DEA               	goto	i1l455
  6268  0D95                     i1l4584:
  6269                           
  6270                           ;usb_device.c: 2721:             USBStdFeatureReqHandler();
  6271  0D95  3180  202C  318D   	fcall	_USBStdFeatureReqHandler
  6272                           
  6273                           ;usb_device.c: 2722:             break;
  6274  0D98  2DEA               	goto	i1l455
  6275  0D99                     i1l4586:
  6276                           
  6277                           ;usb_device.c: 2724:             inPipes[0].pSrc.bRam = (uint8_t*)&USBAlternateInterface
      +                          [SetupPkt.bIntfID];
  6278  0D99  0844               	movf	68,w	;volatile
  6279  0D9A  3E6E               	addlw	(low (_USBAlternateInterface| (0+256)))& (0+255)
  6280  0D9B  00E5               	movwf	_inPipes	;volatile
  6281  0D9C  3001               	movlw	1
  6282  0D9D  00E6               	movwf	_inPipes+1	;volatile
  6283  0D9E                     i1l4588:
  6284                           
  6285                           ;usb_device.c: 2725:             inPipes[0].info.bits.ctrl_trf_mem = 0x01;
  6286  0D9E  1467               	bsf	_inPipes+2,0	;volatile
  6287  0D9F                     i1l4590:
  6288                           
  6289                           ;usb_device.c: 2726:             inPipes[0].wCount.v[0] = 1;
  6290  0D9F  3001               	movlw	1
  6291  0DA0  00DD               	movwf	??_USBCheckStdRequest
  6292  0DA1  085D               	movf	??_USBCheckStdRequest,w
  6293  0DA2  00E8               	movwf	_inPipes+3	;volatile
  6294  0DA3                     i1l4592:
  6295                           
  6296                           ;usb_device.c: 2727:             inPipes[0].info.bits.busy = 1;
  6297  0DA3  17E7               	bsf	_inPipes+2,7	;volatile
  6298                           
  6299                           ;usb_device.c: 2728:             break;
  6300  0DA4  2DEA               	goto	i1l455
  6301  0DA5                     i1l466:	
  6302                           ;usb_device.c: 2729:         case 11:
  6303                           
  6304                           
  6305                           ;usb_device.c: 2730:             inPipes[0].info.bits.busy = 1;
  6306  0DA5  17E7               	bsf	_inPipes+2,7	;volatile
  6307  0DA6                     i1l4594:
  6308                           
  6309                           ;usb_device.c: 2731:             USBAlternateInterface[SetupPkt.bIntfID] = SetupPkt.bAlt
      +                          ID;
  6310  0DA6  0842               	movf	66,w	;volatile
  6311  0DA7  00DD               	movwf	??_USBCheckStdRequest
  6312  0DA8  0844               	movf	68,w	;volatile
  6313  0DA9  3E6E               	addlw	(low (_USBAlternateInterface| (0+256)))& (0+255)
  6314  0DAA  0086               	movwf	6
  6315  0DAB  3001               	movlw	1	; select bank2/3
  6316  0DAC  0087               	movwf	7
  6317  0DAD  085D               	movf	??_USBCheckStdRequest,w
  6318  0DAE  0081               	movwf	1
  6319                           
  6320                           ;usb_device.c: 2732:             break;
  6321  0DAF  2DEA               	goto	i1l455
  6322  0DB0                     i1l4596:
  6323                           
  6324                           ;usb_device.c: 2734:             USER_USB_CALLBACK_EVENT_HANDLER((USB_EVENT)EVENT_SET_DE
      +                          SCRIPTOR,0,0);
  6325  0DB0  3002               	movlw	2
  6326  0DB1  00D0               	movwf	USER_USB_CALLBACK_EVENT_HANDLER@event
  6327  0DB2  3000               	movlw	0
  6328  0DB3  00D1               	movwf	USER_USB_CALLBACK_EVENT_HANDLER@event+1
  6329  0DB4  3000               	movlw	0
  6330  0DB5  00D2               	movwf	USER_USB_CALLBACK_EVENT_HANDLER@pdata
  6331  0DB6  3000               	movlw	0
  6332  0DB7  00D3               	movwf	USER_USB_CALLBACK_EVENT_HANDLER@pdata+1
  6333  0DB8  3000               	movlw	0
  6334  0DB9  00D4               	movwf	USER_USB_CALLBACK_EVENT_HANDLER@size
  6335  0DBA  00D5               	movwf	USER_USB_CALLBACK_EVENT_HANDLER@size+1
  6336  0DBB  318B  2304  318D   	fcall	_USER_USB_CALLBACK_EVENT_HANDLER
  6337                           
  6338                           ;usb_device.c: 2735:             break;
  6339  0DBE  2DEA               	goto	i1l455
  6340  0DBF                     i1l4600:
  6341  0DBF  0841               	movf	65,w	;volatile
  6342  0DC0  00DD               	movwf	??_USBCheckStdRequest
  6343  0DC1  01DE               	clrf	??_USBCheckStdRequest+1
  6344                           
  6345                           ; Switch on 2 bytes has been partitioned into a top level switch of size 1, and 1 sub-sw
      +                          itches
  6346                           ; Switch size 1, requested type "simple"
  6347                           ; Number of cases is 1, Range of values is 0 to 0
  6348                           ; switch strategies available:
  6349                           ; Name         Instructions Cycles
  6350                           ; simple_byte            4     3 (average)
  6351                           ; direct_byte            8     6 (fixed)
  6352                           ; jumptable            260     6 (fixed)
  6353                           ;	Chosen strategy is simple_byte
  6354  0DC2  085E               	movf	??_USBCheckStdRequest+1,w
  6355  0DC3  3A00               	xorlw	0	; case 0
  6356  0DC4  1903               	skipnz
  6357  0DC5  2DC7               	goto	i1l5076
  6358  0DC6  2DEA               	goto	i1l455
  6359  0DC7                     i1l5076:
  6360                           
  6361                           ; Switch size 1, requested type "simple"
  6362                           ; Number of cases is 11, Range of values is 0 to 12
  6363                           ; switch strategies available:
  6364                           ; Name         Instructions Cycles
  6365                           ; direct_byte           32     6 (fixed)
  6366                           ; simple_byte           34    18 (average)
  6367                           ; jumptable            260     6 (fixed)
  6368                           ;	Chosen strategy is simple_byte
  6369  0DC7  085D               	movf	??_USBCheckStdRequest,w
  6370  0DC8  3A00               	xorlw	0	; case 0
  6371  0DC9  1903               	skipnz
  6372  0DCA  2D91               	goto	i1l4582
  6373  0DCB  3A01               	xorlw	1	; case 1
  6374  0DCC  1903               	skipnz
  6375  0DCD  2D95               	goto	i1l4584
  6376  0DCE  3A02               	xorlw	2	; case 3
  6377  0DCF  1903               	skipnz
  6378  0DD0  2D95               	goto	i1l4584
  6379  0DD1  3A06               	xorlw	6	; case 5
  6380  0DD2  1903               	skipnz
  6381  0DD3  2D77               	goto	i1l457
  6382  0DD4  3A03               	xorlw	3	; case 6
  6383  0DD5  1903               	skipnz
  6384  0DD6  2D7E               	goto	i1l4570
  6385  0DD7  3A01               	xorlw	1	; case 7
  6386  0DD8  1903               	skipnz
  6387  0DD9  2DB0               	goto	i1l4596
  6388  0DDA  3A0F               	xorlw	15	; case 8
  6389  0DDB  1903               	skipnz
  6390  0DDC  2D86               	goto	i1l4574
  6391  0DDD  3A01               	xorlw	1	; case 9
  6392  0DDE  1903               	skipnz
  6393  0DDF  2D82               	goto	i1l4572
  6394  0DE0  3A03               	xorlw	3	; case 10
  6395  0DE1  1903               	skipnz
  6396  0DE2  2D99               	goto	i1l4586
  6397  0DE3  3A01               	xorlw	1	; case 11
  6398  0DE4  1903               	skipnz
  6399  0DE5  2DA5               	goto	i1l466
  6400  0DE6  3A07               	xorlw	7	; case 12
  6401  0DE7  1903               	skipnz
  6402  0DE8  2DEA               	goto	i1l455
  6403  0DE9  2DEA               	goto	i1l455
  6404  0DEA                     i1l455:
  6405  0DEA  0008               	return
  6406  0DEB                     __end_of_USBCheckStdRequest:
  6407                           
  6408                           	psect	text24
  6409  0764                     __ptext24:	
  6410 ;; *************** function _USBStdSetCfgHandler *****************
  6411 ;; Defined at:
  6412 ;;		line 1972 in file "usb_device.c"
  6413 ;; Parameters:    Size  Location     Type
  6414 ;;		None
  6415 ;; Auto vars:     Size  Location     Type
  6416 ;;  p               2    7[BANK0 ] PTR unsigned char 
  6417 ;;		 -> UEP1(1), 
  6418 ;;  i               1    9[BANK0 ] unsigned char 
  6419 ;;  i               1   10[BANK0 ] unsigned char 
  6420 ;; Return value:  Size  Location     Type
  6421 ;;                  1    wreg      void 
  6422 ;; Registers used:
  6423 ;;		wreg, fsr0l, fsr0h, fsr1l, fsr1h, status,2, status,0, pclath, cstack
  6424 ;; Tracked objects:
  6425 ;;		On entry : 0/0
  6426 ;;		On exit  : 0/0
  6427 ;;		Unchanged: 0/0
  6428 ;; Data sizes:     COMMON   BANK0   BANK1   BANK2   BANK3   BANK4   BANK5   BANK6   BANK7   BANK8   BANK9  BANK10  BANK1
      +1  BANK12
  6429 ;;      Params:         0       0       0       0       0       0       0       0       0       0       0       0       
      +0       0
  6430 ;;      Locals:         0       4       0       0       0       0       0       0       0       0       0       0       
      +0       0
  6431 ;;      Temps:          0       1       0       0       0       0       0       0       0       0       0       0       
      +0       0
  6432 ;;      Totals:         0       5       0       0       0       0       0       0       0       0       0       0       
      +0       0
  6433 ;;Total ram usage:        5 bytes
  6434 ;; Hardware stack levels used: 1
  6435 ;; Hardware stack levels required when called: 4
  6436 ;; This function calls:
  6437 ;;		_USER_USB_CALLBACK_EVENT_HANDLER
  6438 ;;		_memset
  6439 ;; This function is called by:
  6440 ;;		_USBCheckStdRequest
  6441 ;; This function uses a non-reentrant model
  6442 ;;
  6443                           
  6444  0764                     _USBStdSetCfgHandler:	
  6445                           ;psect for function _USBStdSetCfgHandler
  6446                           
  6447  0764                     i1l4512:	
  6448                           ;incstack = 0
  6449                           ; Regs used in _USBStdSetCfgHandler: [wreg-fsr1h+status,2+status,0+pclath+cstack]
  6450                           
  6451                           
  6452                           ;usb_device.c: 1974:     uint8_t i;;usb_device.c: 1977:     inPipes[0].info.bits.busy = 
      +                          1;
  6453  0764  0020               	movlb	0	; select bank0
  6454  0765  17E7               	bsf	_inPipes+2,7	;volatile
  6455                           
  6456                           ;usb_device.c: 1980:     { uint8_t i; uint8_t* p = (uint8_t*)&UEP1; for(i=0;i<1;i++) *p+
      +                          + = 0; };
  6457  0766  300E               	movlw	14
  6458  0767  00D8               	movwf	USBStdSetCfgHandler@p+1
  6459  0768  3099               	movlw	153
  6460  0769  00D7               	movwf	USBStdSetCfgHandler@p
  6461  076A                     i1l4514:
  6462  076A  01D9               	clrf	USBStdSetCfgHandler@i_1611
  6463  076B                     i1l4520:
  6464  076B  0857               	movf	USBStdSetCfgHandler@p,w
  6465  076C  0086               	movwf	6
  6466  076D  0858               	movf	USBStdSetCfgHandler@p+1,w
  6467  076E  0087               	movwf	7
  6468  076F  0181               	clrf	1
  6469  0770                     i1l4522:
  6470  0770  3001               	movlw	1
  6471  0771  07D7               	addwf	USBStdSetCfgHandler@p,f
  6472  0772  3000               	movlw	0
  6473  0773  3DD8               	addwfc	USBStdSetCfgHandler@p+1,f
  6474  0774                     i1l4524:
  6475  0774  3001               	movlw	1
  6476  0775  00D6               	movwf	??_USBStdSetCfgHandler
  6477  0776  0856               	movf	??_USBStdSetCfgHandler,w
  6478  0777  07D9               	addwf	USBStdSetCfgHandler@i_1611,f
  6479  0778                     i1l4526:
  6480  0778  0859               	movf	USBStdSetCfgHandler@i_1611,w
  6481  0779  1903               	btfsc	3,2
  6482  077A  2F7C               	goto	u296_21
  6483  077B  2F7D               	goto	u296_20
  6484  077C                     u296_21:
  6485  077C  2F6B               	goto	i1l4520
  6486  077D                     u296_20:
  6487  077D                     i1l4528:
  6488                           
  6489                           ;usb_device.c: 1983:     memset((void*)&BDT[0], 0x00, sizeof(BDT));
  6490  077D  3020               	movlw	32
  6491  077E  00F0               	movwf	memset@dest
  6492  077F  3000               	movlw	0
  6493  0780  00F1               	movwf	memset@dest+1
  6494  0781  3000               	movlw	0
  6495  0782  00F2               	movwf	memset@c
  6496  0783  00F3               	movwf	memset@c+1
  6497  0784  3020               	movlw	32
  6498  0785  00F4               	movwf	memset@n
  6499  0786  3000               	movlw	0
  6500  0787  00F5               	movwf	memset@n+1
  6501  0788  3182  22A6  3187   	fcall	_memset
  6502  078B                     i1l4530:
  6503                           
  6504                           ;usb_device.c: 1986:     UCONbits.PPBRST = 1;
  6505  078B  003D               	movlb	29	; select bank29
  6506  078C  170E               	bsf	14,6	;volatile
  6507  078D                     i1l4532:
  6508                           
  6509                           ;usb_device.c: 1991:  for(i = 0; i < (uint8_t)(1 +1u); i++)
  6510  078D  0020               	movlb	0	; select bank0
  6511  078E  01DA               	clrf	USBStdSetCfgHandler@i
  6512  078F                     i1l4538:
  6513                           
  6514                           ;usb_device.c: 1992:  {;usb_device.c: 1993:   ep_data_in[i].Val = 0u;
  6515  078F  085A               	movf	USBStdSetCfgHandler@i,w
  6516  0790  3E67               	addlw	(low (_ep_data_in| (0+256)))& (0+255)
  6517  0791  0086               	movwf	6
  6518  0792  3001               	movlw	1	; select bank2/3
  6519  0793  0087               	movwf	7
  6520  0794  0181               	clrf	1
  6521                           
  6522                           ;usb_device.c: 1994:         ep_data_out[i].Val = 0u;
  6523  0795  085A               	movf	USBStdSetCfgHandler@i,w
  6524  0796  3EA8               	addlw	(low (_ep_data_out| (0+256)))& (0+255)
  6525  0797  0086               	movwf	6
  6526  0798  3001               	movlw	1	; select bank3/4
  6527  0799  0087               	movwf	7
  6528  079A  0181               	clrf	1
  6529  079B                     i1l4540:
  6530                           
  6531                           ;usb_device.c: 1995:  }
  6532  079B  3001               	movlw	1
  6533  079C  00D6               	movwf	??_USBStdSetCfgHandler
  6534  079D  0856               	movf	??_USBStdSetCfgHandler,w
  6535  079E  07DA               	addwf	USBStdSetCfgHandler@i,f
  6536  079F                     i1l4542:
  6537  079F  3002               	movlw	2
  6538  07A0  025A               	subwf	USBStdSetCfgHandler@i,w
  6539  07A1  1C03               	skipc
  6540  07A2  2FA4               	goto	u297_21
  6541  07A3  2FA5               	goto	u297_20
  6542  07A4                     u297_21:
  6543  07A4  2F8F               	goto	i1l4538
  6544  07A5                     u297_20:
  6545  07A5                     i1l4544:
  6546                           
  6547                           ;usb_device.c: 1998:     memset((void*)&USBAlternateInterface,0x00,1);
  6548  07A5  306E               	movlw	low _USBAlternateInterface
  6549  07A6  00F0               	movwf	memset@dest
  6550  07A7  3001               	movlw	high _USBAlternateInterface
  6551  07A8  00F1               	movwf	memset@dest+1
  6552  07A9  3000               	movlw	0
  6553  07AA  00F2               	movwf	memset@c
  6554  07AB  00F3               	movwf	memset@c+1
  6555  07AC  3001               	movlw	1
  6556  07AD  00F4               	movwf	memset@n
  6557  07AE  3000               	movlw	0
  6558  07AF  00F5               	movwf	memset@n+1
  6559  07B0  3182  22A6  3187   	fcall	_memset
  6560  07B3                     i1l4546:
  6561                           
  6562                           ;usb_device.c: 2001:     UCONbits.PPBRST = 0;
  6563  07B3  003D               	movlb	29	; select bank29
  6564  07B4  130E               	bcf	14,6	;volatile
  6565  07B5                     i1l4548:
  6566                           
  6567                           ;usb_device.c: 2003:     pBDTEntryIn[0] = (volatile BDT_ENTRY*)&BDT[2];
  6568  07B5  3028               	movlw	40
  6569  07B6  0020               	movlb	0	; select bank0
  6570  07B7  00EA               	movwf	_pBDTEntryIn
  6571  07B8  3000               	movlw	0
  6572  07B9  00EB               	movwf	_pBDTEntryIn+1
  6573  07BA                     i1l4550:
  6574                           
  6575                           ;usb_device.c: 2006:     pBDTEntryEP0OutCurrent = (volatile BDT_ENTRY*)&BDT[0];
  6576  07BA  3020               	movlw	32
  6577  07BB  00D6               	movwf	??_USBStdSetCfgHandler
  6578  07BC  0856               	movf	??_USBStdSetCfgHandler,w
  6579  07BD  0021               	movlb	1	; select bank1
  6580  07BE  00EE               	movwf	_pBDTEntryEP0OutCurrent^(0+128)
  6581  07BF                     i1l4552:
  6582                           
  6583                           ;usb_device.c: 2007:     pBDTEntryEP0OutNext = pBDTEntryEP0OutCurrent;
  6584  07BF  086E               	movf	_pBDTEntryEP0OutCurrent^(0+128),w
  6585  07C0  0020               	movlb	0	; select bank0
  6586  07C1  00EE               	movwf	_pBDTEntryEP0OutNext
  6587  07C2  39FF               	andlw	255
  6588  07C3  1D03               	skipz
  6589  07C4  3000               	movlw	0
  6590  07C5  00EF               	movwf	_pBDTEntryEP0OutNext+1
  6591  07C6                     i1l4554:
  6592                           
  6593                           ;usb_device.c: 2010:     USBActiveConfiguration = SetupPkt.bConfigurationValue;
  6594  07C6  0842               	movf	66,w	;volatile
  6595  07C7  00D6               	movwf	??_USBStdSetCfgHandler
  6596  07C8  0856               	movf	??_USBStdSetCfgHandler,w
  6597  07C9  0022               	movlb	2	; select bank2
  6598  07CA  00EF               	movwf	_USBActiveConfiguration^(0+256)	;volatile
  6599  07CB                     i1l4556:
  6600                           
  6601                           ;usb_device.c: 2013:     if(USBActiveConfiguration == 0)
  6602  07CB  086F               	movf	_USBActiveConfiguration^(0+256),w	;volatile
  6603  07CC  1D03               	btfss	3,2
  6604  07CD  2FCF               	goto	u298_21
  6605  07CE  2FD0               	goto	u298_20
  6606  07CF                     u298_21:
  6607  07CF  2FD7               	goto	i1l4560
  6608  07D0                     u298_20:
  6609  07D0                     i1l4558:
  6610                           
  6611                           ;usb_device.c: 2014:     {;usb_device.c: 2016:         USBDeviceState = ADDRESS_STATE;
  6612  07D0  3010               	movlw	16
  6613  07D1  0020               	movlb	0	; select bank0
  6614  07D2  00D6               	movwf	??_USBStdSetCfgHandler
  6615  07D3  0856               	movf	??_USBStdSetCfgHandler,w
  6616  07D4  0021               	movlb	1	; select bank1
  6617  07D5  00EF               	movwf	_USBDeviceState^(0+128)	;volatile
  6618                           
  6619                           ;usb_device.c: 2017:     }
  6620  07D6  2FED               	goto	i1l376
  6621  07D7                     i1l4560:
  6622                           
  6623                           ;usb_device.c: 2019:     {;usb_device.c: 2021:         USER_USB_CALLBACK_EVENT_HANDLER((
      +                          USB_EVENT)EVENT_CONFIGURED,(void*)&USBActiveConfiguration,1);
  6624  07D7  3001               	movlw	1
  6625  07D8  0020               	movlb	0	; select bank0
  6626  07D9  00D0               	movwf	USER_USB_CALLBACK_EVENT_HANDLER@event
  6627  07DA  3000               	movlw	0
  6628  07DB  00D1               	movwf	USER_USB_CALLBACK_EVENT_HANDLER@event+1
  6629  07DC  306F               	movlw	low _USBActiveConfiguration
  6630  07DD  00D2               	movwf	USER_USB_CALLBACK_EVENT_HANDLER@pdata
  6631  07DE  3001               	movlw	high _USBActiveConfiguration
  6632  07DF  00D3               	movwf	USER_USB_CALLBACK_EVENT_HANDLER@pdata+1
  6633  07E0  3001               	movlw	1
  6634  07E1  00D4               	movwf	USER_USB_CALLBACK_EVENT_HANDLER@size
  6635  07E2  3000               	movlw	0
  6636  07E3  00D5               	movwf	USER_USB_CALLBACK_EVENT_HANDLER@size+1
  6637  07E4  318B  2304  3187   	fcall	_USER_USB_CALLBACK_EVENT_HANDLER
  6638  07E7                     i1l4562:
  6639                           
  6640                           ;usb_device.c: 2026:         USBDeviceState = CONFIGURED_STATE;
  6641  07E7  3020               	movlw	32
  6642  07E8  0020               	movlb	0	; select bank0
  6643  07E9  00D6               	movwf	??_USBStdSetCfgHandler
  6644  07EA  0856               	movf	??_USBStdSetCfgHandler,w
  6645  07EB  0021               	movlb	1	; select bank1
  6646  07EC  00EF               	movwf	_USBDeviceState^(0+128)	;volatile
  6647  07ED                     i1l376:
  6648  07ED  0008               	return
  6649  07EE                     __end_of_USBStdSetCfgHandler:
  6650                           
  6651                           	psect	text25
  6652  02A6                     __ptext25:	
  6653 ;; *************** function _memset *****************
  6654 ;; Defined at:
  6655 ;;		line 4 in file "C:\Program Files\Microchip\xc8\v2.35\pic\sources\c99\common\memset.c"
  6656 ;; Parameters:    Size  Location     Type
  6657 ;;  dest            2    0[COMMON] PTR void 
  6658 ;;		 -> USBAlternateInterface(1), BDT(32), 
  6659 ;;  c               2    2[COMMON] int 
  6660 ;;  n               2    4[COMMON] unsigned int 
  6661 ;; Auto vars:     Size  Location     Type
  6662 ;;  s               2   12[COMMON] PTR unsigned char 
  6663 ;;		 -> USBAlternateInterface(1), BDT(32), 
  6664 ;;  k               2   10[COMMON] unsigned int 
  6665 ;; Return value:  Size  Location     Type
  6666 ;;                  2    0[COMMON] PTR void 
  6667 ;; Registers used:
  6668 ;;		wreg, fsr1l, fsr1h, status,2, status,0
  6669 ;; Tracked objects:
  6670 ;;		On entry : 0/0
  6671 ;;		On exit  : 0/0
  6672 ;;		Unchanged: 0/0
  6673 ;; Data sizes:     COMMON   BANK0   BANK1   BANK2   BANK3   BANK4   BANK5   BANK6   BANK7   BANK8   BANK9  BANK10  BANK1
      +1  BANK12
  6674 ;;      Params:         6       0       0       0       0       0       0       0       0       0       0       0       
      +0       0
  6675 ;;      Locals:         4       0       0       0       0       0       0       0       0       0       0       0       
      +0       0
  6676 ;;      Temps:          4       0       0       0       0       0       0       0       0       0       0       0       
      +0       0
  6677 ;;      Totals:        14       0       0       0       0       0       0       0       0       0       0       0       
      +0       0
  6678 ;;Total ram usage:       14 bytes
  6679 ;; Hardware stack levels used: 1
  6680 ;; This function calls:
  6681 ;;		Nothing
  6682 ;; This function is called by:
  6683 ;;		_USBStdSetCfgHandler
  6684 ;; This function uses a non-reentrant model
  6685 ;;
  6686                           
  6687  02A6                     _memset:	
  6688                           ;psect for function _memset
  6689                           
  6690  02A6                     i1l4470:	
  6691                           ;incstack = 0
  6692                           ; Regs used in _memset: [wreg+fsr1l+fsr1h+status,2+status,0]
  6693                           
  6694  02A6  0871               	movf	memset@dest+1,w
  6695  02A7  00FD               	movwf	memset@s+1
  6696  02A8  0870               	movf	memset@dest,w
  6697  02A9  00FC               	movwf	memset@s
  6698  02AA                     i1l4472:
  6699  02AA  0874               	movf	memset@n,w
  6700  02AB  0475               	iorwf	memset@n+1,w
  6701  02AC  1D03               	btfss	3,2
  6702  02AD  2AAF               	goto	u291_21
  6703  02AE  2AB0               	goto	u291_20
  6704  02AF                     u291_21:
  6705  02AF  2AB1               	goto	i1l4476
  6706  02B0                     u291_20:
  6707  02B0  2B6F               	goto	i1l1142
  6708  02B1                     i1l4476:
  6709  02B1  087C               	movf	memset@s,w
  6710  02B2  0086               	movwf	6
  6711  02B3  087D               	movf	memset@s+1,w
  6712  02B4  0087               	movwf	7
  6713  02B5  0872               	movf	memset@c,w
  6714  02B6  0081               	movwf	1
  6715  02B7                     i1l4478:
  6716  02B7  0874               	movf	memset@n,w
  6717  02B8  077C               	addwf	memset@s,w
  6718  02B9  00F6               	movwf	??_memset
  6719  02BA  0875               	movf	memset@n+1,w
  6720  02BB  3D7D               	addwfc	memset@s+1,w
  6721  02BC  00F7               	movwf	??_memset+1
  6722  02BD  0876               	movf	??_memset,w
  6723  02BE  3EFF               	addlw	255
  6724  02BF  00F8               	movwf	??_memset+2
  6725  02C0  30FF               	movlw	255
  6726  02C1  3D77               	addwfc	??_memset+1,w
  6727  02C2  00F9               	movwf	??_memset+3
  6728  02C3  0878               	movf	??_memset+2,w
  6729  02C4  0086               	movwf	6
  6730  02C5  0879               	movf	??_memset+3,w
  6731  02C6  0087               	movwf	7
  6732  02C7  0872               	movf	memset@c,w
  6733  02C8  0081               	movwf	1
  6734  02C9                     i1l4480:
  6735  02C9  3000               	movlw	0
  6736  02CA  0275               	subwf	memset@n+1,w
  6737  02CB  3003               	movlw	3
  6738  02CC  1903               	skipnz
  6739  02CD  0274               	subwf	memset@n,w
  6740  02CE  1803               	skipnc
  6741  02CF  2AD1               	goto	u292_21
  6742  02D0  2AD2               	goto	u292_20
  6743  02D1                     u292_21:
  6744  02D1  2AD3               	goto	i1l4484
  6745  02D2                     u292_20:
  6746  02D2  2B6F               	goto	i1l1142
  6747  02D3                     i1l4484:
  6748  02D3  087C               	movf	memset@s,w
  6749  02D4  3E01               	addlw	1
  6750  02D5  00F6               	movwf	??_memset
  6751  02D6  3000               	movlw	0
  6752  02D7  3D7D               	addwfc	memset@s+1,w
  6753  02D8  00F7               	movwf	??_memset+1
  6754  02D9  0876               	movf	??_memset,w
  6755  02DA  0086               	movwf	6
  6756  02DB  0877               	movf	??_memset+1,w
  6757  02DC  0087               	movwf	7
  6758  02DD  0872               	movf	memset@c,w
  6759  02DE  0081               	movwf	1
  6760  02DF  087C               	movf	memset@s,w
  6761  02E0  3E02               	addlw	2
  6762  02E1  00F6               	movwf	??_memset
  6763  02E2  3000               	movlw	0
  6764  02E3  3D7D               	addwfc	memset@s+1,w
  6765  02E4  00F7               	movwf	??_memset+1
  6766  02E5  0876               	movf	??_memset,w
  6767  02E6  0086               	movwf	6
  6768  02E7  0877               	movf	??_memset+1,w
  6769  02E8  0087               	movwf	7
  6770  02E9  0872               	movf	memset@c,w
  6771  02EA  0081               	movwf	1
  6772  02EB  0874               	movf	memset@n,w
  6773  02EC  077C               	addwf	memset@s,w
  6774  02ED  00F6               	movwf	??_memset
  6775  02EE  0875               	movf	memset@n+1,w
  6776  02EF  3D7D               	addwfc	memset@s+1,w
  6777  02F0  00F7               	movwf	??_memset+1
  6778  02F1  0876               	movf	??_memset,w
  6779  02F2  3EFE               	addlw	254
  6780  02F3  00F8               	movwf	??_memset+2
  6781  02F4  30FF               	movlw	255
  6782  02F5  3D77               	addwfc	??_memset+1,w
  6783  02F6  00F9               	movwf	??_memset+3
  6784  02F7  0878               	movf	??_memset+2,w
  6785  02F8  0086               	movwf	6
  6786  02F9  0879               	movf	??_memset+3,w
  6787  02FA  0087               	movwf	7
  6788  02FB  0872               	movf	memset@c,w
  6789  02FC  0081               	movwf	1
  6790  02FD  0874               	movf	memset@n,w
  6791  02FE  077C               	addwf	memset@s,w
  6792  02FF  00F6               	movwf	??_memset
  6793  0300  0875               	movf	memset@n+1,w
  6794  0301  3D7D               	addwfc	memset@s+1,w
  6795  0302  00F7               	movwf	??_memset+1
  6796  0303  0876               	movf	??_memset,w
  6797  0304  3EFD               	addlw	253
  6798  0305  00F8               	movwf	??_memset+2
  6799  0306  30FF               	movlw	255
  6800  0307  3D77               	addwfc	??_memset+1,w
  6801  0308  00F9               	movwf	??_memset+3
  6802  0309  0878               	movf	??_memset+2,w
  6803  030A  0086               	movwf	6
  6804  030B  0879               	movf	??_memset+3,w
  6805  030C  0087               	movwf	7
  6806  030D  0872               	movf	memset@c,w
  6807  030E  0081               	movwf	1
  6808  030F                     i1l4486:
  6809  030F  3000               	movlw	0
  6810  0310  0275               	subwf	memset@n+1,w
  6811  0311  3007               	movlw	7
  6812  0312  1903               	skipnz
  6813  0313  0274               	subwf	memset@n,w
  6814  0314  1803               	skipnc
  6815  0315  2B17               	goto	u293_21
  6816  0316  2B18               	goto	u293_20
  6817  0317                     u293_21:
  6818  0317  2B19               	goto	i1l4490
  6819  0318                     u293_20:
  6820  0318  2B6F               	goto	i1l1142
  6821  0319                     i1l4490:
  6822  0319  087C               	movf	memset@s,w
  6823  031A  3E03               	addlw	3
  6824  031B  00F6               	movwf	??_memset
  6825  031C  3000               	movlw	0
  6826  031D  3D7D               	addwfc	memset@s+1,w
  6827  031E  00F7               	movwf	??_memset+1
  6828  031F  0876               	movf	??_memset,w
  6829  0320  0086               	movwf	6
  6830  0321  0877               	movf	??_memset+1,w
  6831  0322  0087               	movwf	7
  6832  0323  0872               	movf	memset@c,w
  6833  0324  0081               	movwf	1
  6834  0325  0874               	movf	memset@n,w
  6835  0326  077C               	addwf	memset@s,w
  6836  0327  00F6               	movwf	??_memset
  6837  0328  0875               	movf	memset@n+1,w
  6838  0329  3D7D               	addwfc	memset@s+1,w
  6839  032A  00F7               	movwf	??_memset+1
  6840  032B  0876               	movf	??_memset,w
  6841  032C  3EFC               	addlw	252
  6842  032D  00F8               	movwf	??_memset+2
  6843  032E  30FF               	movlw	255
  6844  032F  3D77               	addwfc	??_memset+1,w
  6845  0330  00F9               	movwf	??_memset+3
  6846  0331  0878               	movf	??_memset+2,w
  6847  0332  0086               	movwf	6
  6848  0333  0879               	movf	??_memset+3,w
  6849  0334  0087               	movwf	7
  6850  0335  0872               	movf	memset@c,w
  6851  0336  0081               	movwf	1
  6852  0337                     i1l4492:
  6853  0337  3000               	movlw	0
  6854  0338  0275               	subwf	memset@n+1,w
  6855  0339  3009               	movlw	9
  6856  033A  1903               	skipnz
  6857  033B  0274               	subwf	memset@n,w
  6858  033C  1803               	skipnc
  6859  033D  2B3F               	goto	u294_21
  6860  033E  2B40               	goto	u294_20
  6861  033F                     u294_21:
  6862  033F  2B41               	goto	i1l4496
  6863  0340                     u294_20:
  6864  0340  2B6F               	goto	i1l1142
  6865  0341                     i1l4496:
  6866  0341  097C               	comf	memset@s,w
  6867  0342  00F6               	movwf	??_memset
  6868  0343  097D               	comf	memset@s+1,w
  6869  0344  00F7               	movwf	??_memset+1
  6870  0345  0AF6               	incf	??_memset,f
  6871  0346  1903               	skipnz
  6872  0347  0AF7               	incf	??_memset+1,f
  6873  0348  3003               	movlw	3
  6874  0349  0576               	andwf	??_memset,w
  6875  034A  00FA               	movwf	memset@k
  6876  034B  3000               	movlw	0
  6877  034C  0577               	andwf	??_memset+1,w
  6878  034D  00FB               	movwf	memset@k+1
  6879  034E                     i1l4498:
  6880  034E  087A               	movf	memset@k,w
  6881  034F  07FC               	addwf	memset@s,f
  6882  0350  087B               	movf	memset@k+1,w
  6883  0351  3DFD               	addwfc	memset@s+1,f
  6884  0352                     i1l4500:
  6885  0352  087A               	movf	memset@k,w
  6886  0353  02F4               	subwf	memset@n,f
  6887  0354  087B               	movf	memset@k+1,w
  6888  0355  3BF5               	subwfb	memset@n+1,f
  6889  0356                     i1l4502:
  6890  0356  30FC               	movlw	252
  6891  0357  05F4               	andwf	memset@n,f
  6892  0358  30FF               	movlw	255
  6893  0359  05F5               	andwf	memset@n+1,f
  6894  035A  2B69               	goto	i1l4510
  6895  035B                     i1l4504:
  6896  035B  087C               	movf	memset@s,w
  6897  035C  0086               	movwf	6
  6898  035D  087D               	movf	memset@s+1,w
  6899  035E  0087               	movwf	7
  6900  035F  0872               	movf	memset@c,w
  6901  0360  0081               	movwf	1
  6902  0361                     i1l4506:
  6903  0361  3001               	movlw	1
  6904  0362  02F4               	subwf	memset@n,f
  6905  0363  3000               	movlw	0
  6906  0364  3BF5               	subwfb	memset@n+1,f
  6907  0365                     i1l4508:
  6908  0365  3001               	movlw	1
  6909  0366  07FC               	addwf	memset@s,f
  6910  0367  3000               	movlw	0
  6911  0368  3DFD               	addwfc	memset@s+1,f
  6912  0369                     i1l4510:
  6913  0369  0874               	movf	memset@n,w
  6914  036A  0475               	iorwf	memset@n+1,w
  6915  036B  1D03               	btfss	3,2
  6916  036C  2B6E               	goto	u295_21
  6917  036D  2B6F               	goto	u295_20
  6918  036E                     u295_21:
  6919  036E  2B5B               	goto	i1l4504
  6920  036F                     u295_20:
  6921  036F                     i1l1142:
  6922  036F  0008               	return
  6923  0370                     __end_of_memset:
  6924                           
  6925                           	psect	text26
  6926  0C0B                     __ptext26:	
  6927 ;; *************** function _USBStdGetStatusHandler *****************
  6928 ;; Defined at:
  6929 ;;		line 2133 in file "usb_device.c"
  6930 ;; Parameters:    Size  Location     Type
  6931 ;;		None
  6932 ;; Auto vars:     Size  Location     Type
  6933 ;;  p               2    2[COMMON] PTR struct __BDT
  6934 ;;		 -> RAM(4096), BDT(32), NULL(0), 
  6935 ;; Return value:  Size  Location     Type
  6936 ;;                  1    wreg      void 
  6937 ;; Registers used:
  6938 ;;		wreg, fsr0l, fsr0h, fsr1l, fsr1h, status,2, status,0
  6939 ;; Tracked objects:
  6940 ;;		On entry : 0/0
  6941 ;;		On exit  : 0/0
  6942 ;;		Unchanged: 0/0
  6943 ;; Data sizes:     COMMON   BANK0   BANK1   BANK2   BANK3   BANK4   BANK5   BANK6   BANK7   BANK8   BANK9  BANK10  BANK1
      +1  BANK12
  6944 ;;      Params:         0       0       0       0       0       0       0       0       0       0       0       0       
      +0       0
  6945 ;;      Locals:         2       0       0       0       0       0       0       0       0       0       0       0       
      +0       0
  6946 ;;      Temps:          2       0       0       0       0       0       0       0       0       0       0       0       
      +0       0
  6947 ;;      Totals:         4       0       0       0       0       0       0       0       0       0       0       0       
      +0       0
  6948 ;;Total ram usage:        4 bytes
  6949 ;; Hardware stack levels used: 1
  6950 ;; This function calls:
  6951 ;;		Nothing
  6952 ;; This function is called by:
  6953 ;;		_USBCheckStdRequest
  6954 ;; This function uses a non-reentrant model
  6955 ;;
  6956                           
  6957  0C0B                     _USBStdGetStatusHandler:	
  6958                           ;psect for function _USBStdGetStatusHandler
  6959                           
  6960  0C0B                     i1l3266:	
  6961                           ;incstack = 0
  6962                           ; Regs used in _USBStdGetStatusHandler: [wreg-fsr1h+status,2+status,0]
  6963                           
  6964                           
  6965                           ;usb_device.c: 2135:     CtrlTrfData[0] = 0;
  6966  0C0B  0020               	movlb	0	; select bank0
  6967  0C0C  01C8               	clrf	72	;volatile
  6968                           
  6969                           ;usb_device.c: 2136:     CtrlTrfData[1] = 0;
  6970  0C0D  01C9               	clrf	73	;volatile
  6971                           
  6972                           ;usb_device.c: 2138:     switch(SetupPkt.Recipient)
  6973  0C0E  2C52               	goto	i1l3290
  6974  0C0F                     i1l394:	
  6975                           ;usb_device.c: 2139:     {;usb_device.c: 2140:         case (0x00):
  6976                           
  6977                           
  6978                           ;usb_device.c: 2141:             inPipes[0].info.bits.busy = 1;
  6979  0C0F  17E7               	bsf	_inPipes+2,7	;volatile
  6980  0C10                     i1l3270:	
  6981                           ;usb_device.c: 2146:             if(0 == 1)
  6982                           
  6983                           
  6984                           ;usb_device.c: 2151:             if(RemoteWakeup == 1)
  6985  0C10  0023               	movlb	3	; select bank3
  6986  0C11  0336               	decf	_RemoteWakeup^(0+384),w	;volatile
  6987  0C12  1D03               	btfss	3,2
  6988  0C13  2C15               	goto	u180_21
  6989  0C14  2C16               	goto	u180_20
  6990  0C15                     u180_21:
  6991  0C15  2C66               	goto	i1l397
  6992  0C16                     u180_20:
  6993  0C16                     i1l3272:
  6994                           
  6995                           ;usb_device.c: 2152:             {;usb_device.c: 2153:                 CtrlTrfData[0]|=0
      +                          x02;
  6996  0C16  0020               	movlb	0	; select bank0
  6997  0C17  14C8               	bsf	72,1	;volatile
  6998  0C18  2C66               	goto	i1l397
  6999  0C19                     i1l398:	
  7000                           ;usb_device.c: 2156:         case (0x01):
  7001                           
  7002                           
  7003                           ;usb_device.c: 2157:             inPipes[0].info.bits.busy = 1;
  7004  0C19  17E7               	bsf	_inPipes+2,7	;volatile
  7005                           
  7006                           ;usb_device.c: 2158:             break;
  7007  0C1A  2C66               	goto	i1l397
  7008  0C1B                     i1l399:	
  7009                           ;usb_device.c: 2159:         case (0x02):
  7010                           
  7011                           
  7012                           ;usb_device.c: 2160:             inPipes[0].info.bits.busy = 1;
  7013  0C1B  17E7               	bsf	_inPipes+2,7	;volatile
  7014  0C1C                     i1l3274:
  7015                           
  7016                           ;usb_device.c: 2164:             if(SetupPkt.EPNum != 0)
  7017  0C1C  0844               	movf	68,w	;volatile
  7018  0C1D  390F               	andlw	15
  7019  0C1E  3A00               	xorlw	0
  7020  0C1F  1903               	skipnz
  7021  0C20  2C22               	goto	u181_21
  7022  0C21  2C23               	goto	u181_20
  7023  0C22                     u181_21:
  7024  0C22  2C66               	goto	i1l397
  7025  0C23                     u181_20:
  7026  0C23                     i1l3276:
  7027                           
  7028                           ;usb_device.c: 2165:             {;usb_device.c: 2166:                 BDT_ENTRY *p;;usb
      +                          _device.c: 2168:                 if(SetupPkt.EPDir == 0)
  7029  0C23  1BC4               	btfsc	68,7	;volatile
  7030  0C24  2C26               	goto	u182_21
  7031  0C25  2C27               	goto	u182_20
  7032  0C26                     u182_21:
  7033  0C26  2C33               	goto	i1l3280
  7034  0C27                     u182_20:
  7035  0C27                     i1l3278:
  7036                           
  7037                           ;usb_device.c: 2169:                 {;usb_device.c: 2170:                     p = (BDT_
      +                          ENTRY*)pBDTEntryOut[SetupPkt.EPNum];
  7038  0C27  0844               	movf	68,w	;volatile
  7039  0C28  390F               	andlw	15
  7040  0C29  0709               	addwf	9,w
  7041  0C2A  3EA4               	addlw	(low (_pBDTEntryOut| (0+256)))& (0+255)
  7042  0C2B  0086               	movwf	6
  7043  0C2C  3001               	movlw	1	; select bank3/4
  7044  0C2D  0087               	movwf	7
  7045  0C2E  3F40               	moviw [0]fsr1
  7046  0C2F  00F2               	movwf	USBStdGetStatusHandler@p
  7047  0C30  3F41               	moviw [1]fsr1
  7048  0C31  00F3               	movwf	USBStdGetStatusHandler@p+1
  7049                           
  7050                           ;usb_device.c: 2171:                 }
  7051  0C32  2C3D               	goto	i1l3282
  7052  0C33                     i1l3280:
  7053                           
  7054                           ;usb_device.c: 2173:                 {;usb_device.c: 2174:                     p = (BDT_
      +                          ENTRY*)pBDTEntryIn[SetupPkt.EPNum];
  7055  0C33  0844               	movf	68,w	;volatile
  7056  0C34  390F               	andlw	15
  7057  0C35  0709               	addwf	9,w
  7058  0C36  3E6A               	addlw	(low (_pBDTEntryIn| 0))& (0+255)
  7059  0C37  0086               	movwf	6
  7060  0C38  0187               	clrf	7
  7061  0C39  3F40               	moviw [0]fsr1
  7062  0C3A  00F2               	movwf	USBStdGetStatusHandler@p
  7063  0C3B  3F41               	moviw [1]fsr1
  7064  0C3C  00F3               	movwf	USBStdGetStatusHandler@p+1
  7065  0C3D                     i1l3282:
  7066                           
  7067                           ;usb_device.c: 2177:                 if((p->STAT.UOWN == 1) && (p->STAT.BSTALL == 1))
  7068  0C3D  0872               	movf	USBStdGetStatusHandler@p,w
  7069  0C3E  0086               	movwf	6
  7070  0C3F  0873               	movf	USBStdGetStatusHandler@p+1,w
  7071  0C40  0087               	movwf	7
  7072  0C41  1F81               	btfss	1,7
  7073  0C42  2C44               	goto	u183_21
  7074  0C43  2C45               	goto	u183_20
  7075  0C44                     u183_21:
  7076  0C44  2C66               	goto	i1l397
  7077  0C45                     u183_20:
  7078  0C45                     i1l3284:
  7079  0C45  0872               	movf	USBStdGetStatusHandler@p,w
  7080  0C46  0086               	movwf	6
  7081  0C47  0873               	movf	USBStdGetStatusHandler@p+1,w
  7082  0C48  0087               	movwf	7
  7083  0C49  1D01               	btfss	1,2
  7084  0C4A  2C4C               	goto	u184_21
  7085  0C4B  2C4D               	goto	u184_20
  7086  0C4C                     u184_21:
  7087  0C4C  2C66               	goto	i1l397
  7088  0C4D                     u184_20:
  7089  0C4D                     i1l3286:
  7090                           
  7091                           ;usb_device.c: 2178:                 {;usb_device.c: 2179:                     CtrlTrfDa
      +                          ta[0]=0x01;
  7092  0C4D  3001               	movlw	1
  7093  0C4E  00F0               	movwf	??_USBStdGetStatusHandler
  7094  0C4F  0870               	movf	??_USBStdGetStatusHandler,w
  7095  0C50  00C8               	movwf	72	;volatile
  7096  0C51  2C66               	goto	i1l397
  7097  0C52                     i1l3290:
  7098  0C52  0840               	movf	64,w	;volatile
  7099  0C53  391F               	andlw	31
  7100  0C54  00F0               	movwf	??_USBStdGetStatusHandler
  7101  0C55  01F1               	clrf	??_USBStdGetStatusHandler+1
  7102                           
  7103                           ; Switch on 2 bytes has been partitioned into a top level switch of size 1, and 1 sub-sw
      +                          itches
  7104                           ; Switch size 1, requested type "simple"
  7105                           ; Number of cases is 1, Range of values is 0 to 0
  7106                           ; switch strategies available:
  7107                           ; Name         Instructions Cycles
  7108                           ; simple_byte            4     3 (average)
  7109                           ; direct_byte            8     6 (fixed)
  7110                           ; jumptable            260     6 (fixed)
  7111                           ;	Chosen strategy is simple_byte
  7112  0C56  0871               	movf	??_USBStdGetStatusHandler+1,w
  7113  0C57  3A00               	xorlw	0	; case 0
  7114  0C58  1903               	skipnz
  7115  0C59  2C5B               	goto	i1l5078
  7116  0C5A  2C66               	goto	i1l397
  7117  0C5B                     i1l5078:
  7118                           
  7119                           ; Switch size 1, requested type "simple"
  7120                           ; Number of cases is 3, Range of values is 0 to 2
  7121                           ; switch strategies available:
  7122                           ; Name         Instructions Cycles
  7123                           ; simple_byte           10     6 (average)
  7124                           ; direct_byte           12     6 (fixed)
  7125                           ; jumptable            260     6 (fixed)
  7126                           ;	Chosen strategy is simple_byte
  7127  0C5B  0870               	movf	??_USBStdGetStatusHandler,w
  7128  0C5C  3A00               	xorlw	0	; case 0
  7129  0C5D  1903               	skipnz
  7130  0C5E  2C0F               	goto	i1l394
  7131  0C5F  3A01               	xorlw	1	; case 1
  7132  0C60  1903               	skipnz
  7133  0C61  2C19               	goto	i1l398
  7134  0C62  3A03               	xorlw	3	; case 2
  7135  0C63  1903               	skipnz
  7136  0C64  2C1B               	goto	i1l399
  7137  0C65  2C66               	goto	i1l397
  7138  0C66                     i1l397:
  7139                           
  7140                           ;usb_device.c: 2185:     if(inPipes[0].info.bits.busy == 1)
  7141  0C66  0020               	movlb	0	; select bank0
  7142  0C67  1FE7               	btfss	_inPipes+2,7	;volatile
  7143  0C68  2C6A               	goto	u185_21
  7144  0C69  2C6B               	goto	u185_20
  7145  0C6A                     u185_21:
  7146  0C6A  2C74               	goto	i1l405
  7147  0C6B                     u185_20:
  7148  0C6B                     i1l3292:
  7149                           
  7150                           ;usb_device.c: 2186:     {;usb_device.c: 2187:         inPipes[0].pSrc.bRam = (uint8_t*)
      +                          &CtrlTrfData;
  7151  0C6B  3048               	movlw	72
  7152  0C6C  00E5               	movwf	_inPipes	;volatile
  7153  0C6D  3000               	movlw	0
  7154  0C6E  00E6               	movwf	_inPipes+1	;volatile
  7155  0C6F                     i1l3294:
  7156                           
  7157                           ;usb_device.c: 2188:         inPipes[0].info.bits.ctrl_trf_mem = 0x01;
  7158  0C6F  1467               	bsf	_inPipes+2,0	;volatile
  7159  0C70                     i1l3296:
  7160                           
  7161                           ;usb_device.c: 2189:         inPipes[0].wCount.v[0] = 2;
  7162  0C70  3002               	movlw	2
  7163  0C71  00F0               	movwf	??_USBStdGetStatusHandler
  7164  0C72  0870               	movf	??_USBStdGetStatusHandler,w
  7165  0C73  00E8               	movwf	_inPipes+3	;volatile
  7166  0C74                     i1l405:
  7167  0C74  0008               	return
  7168  0C75                     __end_of_USBStdGetStatusHandler:
  7169                           
  7170                           	psect	text27
  7171  0E6E                     __ptext27:	
  7172 ;; *************** function _USBStdGetDscHandler *****************
  7173 ;; Defined at:
  7174 ;;		line 2047 in file "usb_device.c"
  7175 ;; Parameters:    Size  Location     Type
  7176 ;;		None
  7177 ;; Auto vars:     Size  Location     Type
  7178 ;;		None
  7179 ;; Return value:  Size  Location     Type
  7180 ;;                  1    wreg      void 
  7181 ;; Registers used:
  7182 ;;		wreg, fsr0l, fsr0h, status,2, status,0, pclath
  7183 ;; Tracked objects:
  7184 ;;		On entry : 0/0
  7185 ;;		On exit  : 0/0
  7186 ;;		Unchanged: 0/0
  7187 ;; Data sizes:     COMMON   BANK0   BANK1   BANK2   BANK3   BANK4   BANK5   BANK6   BANK7   BANK8   BANK9  BANK10  BANK1
      +1  BANK12
  7188 ;;      Params:         0       0       0       0       0       0       0       0       0       0       0       0       
      +0       0
  7189 ;;      Locals:         0       0       0       0       0       0       0       0       0       0       0       0       
      +0       0
  7190 ;;      Temps:          3       0       0       0       0       0       0       0       0       0       0       0       
      +0       0
  7191 ;;      Totals:         3       0       0       0       0       0       0       0       0       0       0       0       
      +0       0
  7192 ;;Total ram usage:        3 bytes
  7193 ;; Hardware stack levels used: 1
  7194 ;; This function calls:
  7195 ;;		Nothing
  7196 ;; This function is called by:
  7197 ;;		_USBCheckStdRequest
  7198 ;; This function uses a non-reentrant model
  7199 ;;
  7200                           
  7201  0E6E                     _USBStdGetDscHandler:	
  7202                           ;psect for function _USBStdGetDscHandler
  7203                           
  7204  0E6E                     i1l3230:	
  7205                           ;incstack = 0
  7206                           ; Regs used in _USBStdGetDscHandler: [wreg-fsr0h+status,2+status,0+pclath]
  7207                           
  7208                           
  7209                           ;usb_device.c: 2049:     if(SetupPkt.bmRequestType == 0x80)
  7210  0E6E  3080               	movlw	128
  7211  0E6F  0020               	movlb	0	; select bank0
  7212  0E70  0640               	xorwf	64,w	;volatile
  7213  0E71  1D03               	btfss	3,2
  7214  0E72  2E74               	goto	u177_21
  7215  0E73  2E75               	goto	u177_20
  7216  0E74                     u177_21:
  7217  0E74  2EF0               	goto	i1l390
  7218  0E75                     u177_20:
  7219  0E75                     i1l3232:
  7220                           
  7221                           ;usb_device.c: 2050:     {;usb_device.c: 2051:         inPipes[0].info.Val = 0x00 | 0x80
      +                           | 0x40;
  7222  0E75  30C0               	movlw	192
  7223  0E76  00F0               	movwf	??_USBStdGetDscHandler
  7224  0E77  0870               	movf	??_USBStdGetDscHandler,w
  7225  0E78  00E7               	movwf	_inPipes+2	;volatile
  7226                           
  7227                           ;usb_device.c: 2053:         switch(SetupPkt.bDescriptorType)
  7228  0E79  2EDD               	goto	i1l3260
  7229  0E7A                     i1l3234:
  7230                           
  7231                           ;usb_device.c: 2059:                     inPipes[0].pSrc.bRom = (const uint8_t*)&device_
      +                          dsc;
  7232  0E7A  3000               	movlw	low (_device_dsc| (0+32768))
  7233  0E7B  00E5               	movwf	_inPipes	;volatile
  7234  0E7C  3098               	movlw	high (_device_dsc| (0+32768))
  7235  0E7D  00E6               	movwf	_inPipes+1	;volatile
  7236  0E7E                     i1l3236:
  7237                           
  7238                           ;usb_device.c: 2061:                 inPipes[0].wCount.Val = sizeof(device_dsc);
  7239  0E7E  3000               	movlw	0
  7240  0E7F  00E9               	movwf	_inPipes+4	;volatile
  7241  0E80  3012               	movlw	18
  7242  0E81  00E8               	movwf	_inPipes+3	;volatile
  7243                           
  7244                           ;usb_device.c: 2062:                 break;
  7245  0E82  2EF0               	goto	i1l390
  7246  0E83                     i1l3238:
  7247                           
  7248                           ;usb_device.c: 2067:                 if(SetupPkt.bDscIndex < 1)
  7249  0E83  0842               	movf	66,w	;volatile
  7250  0E84  1D03               	btfss	3,2
  7251  0E85  2E87               	goto	u178_21
  7252  0E86  2E88               	goto	u178_20
  7253  0E87                     u178_21:
  7254  0E87  2EB6               	goto	i1l3246
  7255  0E88                     u178_20:
  7256  0E88                     i1l3240:
  7257                           
  7258                           ;usb_device.c: 2068:                 {;usb_device.c: 2072:                         inPip
      +                          es[0].pSrc.bRom = *(USB_CD_Ptr+SetupPkt.bDscIndex);
  7259  0E88  0842               	movf	66,w	;volatile
  7260  0E89  00F0               	movwf	??_USBStdGetDscHandler
  7261  0E8A  01F1               	clrf	??_USBStdGetDscHandler+1
  7262  0E8B  35F0               	lslf	??_USBStdGetDscHandler,f
  7263  0E8C  0DF1               	rlf	??_USBStdGetDscHandler+1,f
  7264  0E8D  301C               	movlw	low (_USB_CD_Ptr| (0+32768))
  7265  0E8E  0770               	addwf	??_USBStdGetDscHandler,w
  7266  0E8F  0084               	movwf	4
  7267  0E90  3098               	movlw	high (_USB_CD_Ptr| (0+32768))
  7268  0E91  3D71               	addwfc	??_USBStdGetDscHandler+1,w
  7269  0E92  0085               	movwf	5
  7270  0E93  3F00               	moviw [0]fsr0
  7271  0E94  00E5               	movwf	_inPipes	;volatile
  7272  0E95  3F01               	moviw [1]fsr0
  7273  0E96  00E6               	movwf	_inPipes+1	;volatile
  7274  0E97                     i1l3242:
  7275                           
  7276                           ;usb_device.c: 2078:                     inPipes[0].wCount.byte.LB = *(inPipes[0].pSrc.b
      +                          Rom+2);
  7277  0E97  0866               	movf	_inPipes+1,w	;volatile
  7278  0E98  00F1               	movwf	??_USBStdGetDscHandler+1
  7279  0E99  0865               	movf	_inPipes,w	;volatile
  7280  0E9A  00F0               	movwf	??_USBStdGetDscHandler
  7281  0E9B  3002               	movlw	2
  7282  0E9C  0770               	addwf	??_USBStdGetDscHandler,w
  7283  0E9D  0084               	movwf	4
  7284  0E9E  0871               	movf	??_USBStdGetDscHandler+1,w
  7285  0E9F  1803               	skipnc
  7286  0EA0  0A71               	incf	??_USBStdGetDscHandler+1,w
  7287  0EA1  0085               	movwf	5
  7288  0EA2  0800               	movf	0,w	;code access
  7289  0EA3  00F2               	movwf	??_USBStdGetDscHandler+2
  7290  0EA4  0872               	movf	??_USBStdGetDscHandler+2,w
  7291  0EA5  00E8               	movwf	_inPipes+3	;volatile
  7292  0EA6                     i1l3244:
  7293                           
  7294                           ;usb_device.c: 2079:                     inPipes[0].wCount.byte.HB = *(inPipes[0].pSrc.b
      +                          Rom+3);
  7295  0EA6  0866               	movf	_inPipes+1,w	;volatile
  7296  0EA7  00F1               	movwf	??_USBStdGetDscHandler+1
  7297  0EA8  0865               	movf	_inPipes,w	;volatile
  7298  0EA9  00F0               	movwf	??_USBStdGetDscHandler
  7299  0EAA  3003               	movlw	3
  7300  0EAB  0770               	addwf	??_USBStdGetDscHandler,w
  7301  0EAC  0084               	movwf	4
  7302  0EAD  0871               	movf	??_USBStdGetDscHandler+1,w
  7303  0EAE  1803               	skipnc
  7304  0EAF  0A71               	incf	??_USBStdGetDscHandler+1,w
  7305  0EB0  0085               	movwf	5
  7306  0EB1  0800               	movf	0,w	;code access
  7307  0EB2  00F2               	movwf	??_USBStdGetDscHandler+2
  7308  0EB3  0872               	movf	??_USBStdGetDscHandler+2,w
  7309  0EB4  00E9               	movwf	_inPipes+4	;volatile
  7310                           
  7311                           ;usb_device.c: 2080:                 }
  7312  0EB5  2EF0               	goto	i1l390
  7313  0EB6                     i1l3246:
  7314                           
  7315                           ;usb_device.c: 2082:     {;usb_device.c: 2083:      inPipes[0].info.Val = 0;
  7316  0EB6  01E7               	clrf	_inPipes+2	;volatile
  7317  0EB7  2EF0               	goto	i1l390
  7318  0EB8                     i1l3248:
  7319                           
  7320                           ;usb_device.c: 2090:                 if(SetupPkt.bDscIndex<3)
  7321  0EB8  3003               	movlw	3
  7322  0EB9  0242               	subwf	66,w	;volatile
  7323  0EBA  1803               	skipnc
  7324  0EBB  2EBD               	goto	u179_21
  7325  0EBC  2EBE               	goto	u179_20
  7326  0EBD                     u179_21:
  7327  0EBD  2ED9               	goto	i1l3254
  7328  0EBE                     u179_20:
  7329  0EBE                     i1l3250:
  7330                           
  7331                           ;usb_device.c: 2091:                 {;usb_device.c: 2093:                     inPipes[0
      +                          ].pSrc.bRom = *(USB_SD_Ptr+SetupPkt.bDscIndex);
  7332  0EBE  0842               	movf	66,w	;volatile
  7333  0EBF  00F0               	movwf	??_USBStdGetDscHandler
  7334  0EC0  01F1               	clrf	??_USBStdGetDscHandler+1
  7335  0EC1  35F0               	lslf	??_USBStdGetDscHandler,f
  7336  0EC2  0DF1               	rlf	??_USBStdGetDscHandler+1,f
  7337  0EC3  3012               	movlw	low (_USB_SD_Ptr| (0+32768))
  7338  0EC4  0770               	addwf	??_USBStdGetDscHandler,w
  7339  0EC5  0084               	movwf	4
  7340  0EC6  3098               	movlw	high (_USB_SD_Ptr| (0+32768))
  7341  0EC7  3D71               	addwfc	??_USBStdGetDscHandler+1,w
  7342  0EC8  0085               	movwf	5
  7343  0EC9  3F00               	moviw [0]fsr0
  7344  0ECA  00E5               	movwf	_inPipes	;volatile
  7345  0ECB  3F01               	moviw [1]fsr0
  7346  0ECC  00E6               	movwf	_inPipes+1	;volatile
  7347  0ECD                     i1l3252:
  7348                           
  7349                           ;usb_device.c: 2095:                     inPipes[0].wCount.Val = *inPipes[0].pSrc.bRom;
  7350  0ECD  0865               	movf	_inPipes,w	;volatile
  7351  0ECE  0084               	movwf	4
  7352  0ECF  0866               	movf	_inPipes+1,w	;volatile
  7353  0ED0  0085               	movwf	5
  7354  0ED1  0800               	movf	0,w	;code access
  7355  0ED2  00F0               	movwf	??_USBStdGetDscHandler
  7356  0ED3  01F1               	clrf	??_USBStdGetDscHandler+1
  7357  0ED4  0870               	movf	??_USBStdGetDscHandler,w
  7358  0ED5  00E8               	movwf	_inPipes+3	;volatile
  7359  0ED6  0871               	movf	??_USBStdGetDscHandler+1,w
  7360  0ED7  00E9               	movwf	_inPipes+4	;volatile
  7361                           
  7362                           ;usb_device.c: 2096:                 }
  7363  0ED8  2EF0               	goto	i1l390
  7364  0ED9                     i1l3254:
  7365                           
  7366                           ;usb_device.c: 2107:                 {;usb_device.c: 2108:                     inPipes[0
      +                          ].info.Val = 0;
  7367  0ED9  01E7               	clrf	_inPipes+2	;volatile
  7368  0EDA  2EF0               	goto	i1l390
  7369  0EDB                     i1l3256:
  7370                           
  7371                           ;usb_device.c: 2112:                 inPipes[0].info.Val = 0;
  7372  0EDB  01E7               	clrf	_inPipes+2	;volatile
  7373                           
  7374                           ;usb_device.c: 2113:                 break;
  7375  0EDC  2EF0               	goto	i1l390
  7376  0EDD                     i1l3260:
  7377  0EDD  0843               	movf	67,w	;volatile
  7378  0EDE  00F0               	movwf	??_USBStdGetDscHandler
  7379  0EDF  01F1               	clrf	??_USBStdGetDscHandler+1
  7380                           
  7381                           ; Switch on 2 bytes has been partitioned into a top level switch of size 1, and 1 sub-sw
      +                          itches
  7382                           ; Switch size 1, requested type "simple"
  7383                           ; Number of cases is 1, Range of values is 0 to 0
  7384                           ; switch strategies available:
  7385                           ; Name         Instructions Cycles
  7386                           ; simple_byte            4     3 (average)
  7387                           ; direct_byte            8     6 (fixed)
  7388                           ; jumptable            260     6 (fixed)
  7389                           ;	Chosen strategy is simple_byte
  7390  0EE0  0871               	movf	??_USBStdGetDscHandler+1,w
  7391  0EE1  3A00               	xorlw	0	; case 0
  7392  0EE2  1903               	skipnz
  7393  0EE3  2EE5               	goto	i1l5080
  7394  0EE4  2EDB               	goto	i1l3256
  7395  0EE5                     i1l5080:
  7396                           
  7397                           ; Switch size 1, requested type "simple"
  7398                           ; Number of cases is 3, Range of values is 1 to 3
  7399                           ; switch strategies available:
  7400                           ; Name         Instructions Cycles
  7401                           ; simple_byte           10     6 (average)
  7402                           ; direct_byte           15     9 (fixed)
  7403                           ; jumptable            263     9 (fixed)
  7404                           ;	Chosen strategy is simple_byte
  7405  0EE5  0870               	movf	??_USBStdGetDscHandler,w
  7406  0EE6  3A01               	xorlw	1	; case 1
  7407  0EE7  1903               	skipnz
  7408  0EE8  2E7A               	goto	i1l3234
  7409  0EE9  3A03               	xorlw	3	; case 2
  7410  0EEA  1903               	skipnz
  7411  0EEB  2E83               	goto	i1l3238
  7412  0EEC  3A01               	xorlw	1	; case 3
  7413  0EED  1903               	skipnz
  7414  0EEE  2EB8               	goto	i1l3248
  7415  0EEF  2EDB               	goto	i1l3256
  7416  0EF0                     i1l390:
  7417  0EF0  0008               	return
  7418  0EF1                     __end_of_USBStdGetDscHandler:
  7419                           
  7420                           	psect	text28
  7421  002C                     __ptext28:	
  7422 ;; *************** function _USBStdFeatureReqHandler *****************
  7423 ;; Defined at:
  7424 ;;		line 2761 in file "usb_device.c"
  7425 ;; Parameters:    Size  Location     Type
  7426 ;;		None
  7427 ;; Auto vars:     Size  Location     Type
  7428 ;;  p               2   11[BANK0 ] PTR struct __BDT
  7429 ;;		 -> RAM(4096), BDT(32), NULL(0), 
  7430 ;;  pUEP            2    8[BANK0 ] PTR unsigned char 
  7431 ;;		 -> UEP0(1), 
  7432 ;;  current_ep_d    1   10[BANK0 ] struct .
  7433 ;; Return value:  Size  Location     Type
  7434 ;;                  1    wreg      void 
  7435 ;; Registers used:
  7436 ;;		wreg, fsr0l, fsr0h, fsr1l, fsr1h, status,2, status,0, pclath, cstack
  7437 ;; Tracked objects:
  7438 ;;		On entry : 0/0
  7439 ;;		On exit  : 0/0
  7440 ;;		Unchanged: 0/0
  7441 ;; Data sizes:     COMMON   BANK0   BANK1   BANK2   BANK3   BANK4   BANK5   BANK6   BANK7   BANK8   BANK9  BANK10  BANK1
      +1  BANK12
  7442 ;;      Params:         0       0       0       0       0       0       0       0       0       0       0       0       
      +0       0
  7443 ;;      Locals:         0       5       0       0       0       0       0       0       0       0       0       0       
      +0       0
  7444 ;;      Temps:          0       2       0       0       0       0       0       0       0       0       0       0       
      +0       0
  7445 ;;      Totals:         0       7       0       0       0       0       0       0       0       0       0       0       
      +0       0
  7446 ;;Total ram usage:        7 bytes
  7447 ;; Hardware stack levels used: 1
  7448 ;; Hardware stack levels required when called: 4
  7449 ;; This function calls:
  7450 ;;		_USER_USB_CALLBACK_EVENT_HANDLER
  7451 ;; This function is called by:
  7452 ;;		_USBCheckStdRequest
  7453 ;; This function uses a non-reentrant model
  7454 ;;
  7455                           
  7456  002C                     _USBStdFeatureReqHandler:	
  7457                           ;psect for function _USBStdFeatureReqHandler
  7458                           
  7459  002C                     i1l3302:	
  7460                           ;incstack = 0
  7461                           ; Regs used in _USBStdFeatureReqHandler: [wreg-fsr1h+status,2+status,0+pclath+cstack]
  7462                           
  7463                           
  7464                           ;usb_device.c: 2763:     BDT_ENTRY *p;;usb_device.c: 2764:     EP_STATUS current_ep_data
      +                          ;;usb_device.c: 2768:         unsigned char* pUEP;;usb_device.c: 2772:     if((SetupPkt.
      +                          bFeature == 1)&&
  7465  002C  0020               	movlb	0	; select bank0
  7466  002D  0342               	decf	66,w	;volatile
  7467  002E  1D03               	btfss	3,2
  7468  002F  2831               	goto	u186_21
  7469  0030  2832               	goto	u186_20
  7470  0031                     u186_21:
  7471  0031  2848               	goto	i1l3314
  7472  0032                     u186_20:
  7473  0032                     i1l3304:
  7474  0032  0840               	movf	64,w	;volatile
  7475  0033  391F               	andlw	31
  7476  0034  3A00               	xorlw	0
  7477  0035  1D03               	skipz
  7478  0036  2838               	goto	u187_21
  7479  0037  2839               	goto	u187_20
  7480  0038                     u187_21:
  7481  0038  2848               	goto	i1l3314
  7482  0039                     u187_20:
  7483  0039                     i1l3306:
  7484                           
  7485                           ;usb_device.c: 2774:     {;usb_device.c: 2775:         inPipes[0].info.bits.busy = 1;
  7486  0039  17E7               	bsf	_inPipes+2,7	;volatile
  7487  003A                     i1l3308:
  7488                           
  7489                           ;usb_device.c: 2776:         if(SetupPkt.bRequest == 3)
  7490  003A  3003               	movlw	3
  7491  003B  0641               	xorwf	65,w	;volatile
  7492  003C  1D03               	btfss	3,2
  7493  003D  283F               	goto	u188_21
  7494  003E  2840               	goto	u188_20
  7495  003F                     u188_21:
  7496  003F  2846               	goto	i1l3312
  7497  0040                     u188_20:
  7498  0040                     i1l3310:
  7499                           
  7500                           ;usb_device.c: 2777:             RemoteWakeup = 1;
  7501  0040  3001               	movlw	1
  7502  0041  00D6               	movwf	??_USBStdFeatureReqHandler
  7503  0042  0856               	movf	??_USBStdFeatureReqHandler,w
  7504  0043  0023               	movlb	3	; select bank3
  7505  0044  00B6               	movwf	_RemoteWakeup^(0+384)	;volatile
  7506  0045  2848               	goto	i1l3314
  7507  0046                     i1l3312:
  7508                           
  7509                           ;usb_device.c: 2779:             RemoteWakeup = 0;
  7510  0046  0023               	movlb	3	; select bank3
  7511  0047  01B6               	clrf	_RemoteWakeup^(0+384)	;volatile
  7512  0048                     i1l3314:
  7513                           
  7514                           ;usb_device.c: 2783:     if((SetupPkt.bFeature == 0)&&
  7515  0048  0020               	movlb	0	; select bank0
  7516  0049  0842               	movf	66,w	;volatile
  7517  004A  1D03               	btfss	3,2
  7518  004B  284D               	goto	u189_21
  7519  004C  284E               	goto	u189_20
  7520  004D                     u189_21:
  7521  004D  2981               	goto	i1l495
  7522  004E                     u189_20:
  7523  004E                     i1l3316:
  7524  004E  0840               	movf	64,w	;volatile
  7525  004F  391F               	andlw	31
  7526  0050  3A02               	xorlw	2
  7527  0051  1D03               	skipz
  7528  0052  2854               	goto	u190_21
  7529  0053  2855               	goto	u190_20
  7530  0054                     u190_21:
  7531  0054  2981               	goto	i1l495
  7532  0055                     u190_20:
  7533  0055                     i1l3318:
  7534  0055  0844               	movf	68,w	;volatile
  7535  0056  390F               	andlw	15
  7536  0057  3A00               	xorlw	0
  7537  0058  1903               	skipnz
  7538  0059  285B               	goto	u191_21
  7539  005A  285C               	goto	u191_20
  7540  005B                     u191_21:
  7541  005B  2981               	goto	i1l495
  7542  005C                     u191_20:
  7543  005C                     i1l3320:
  7544  005C  0844               	movf	68,w	;volatile
  7545  005D  390F               	andlw	15
  7546  005E  00D6               	movwf	??_USBStdFeatureReqHandler
  7547  005F  3002               	movlw	2
  7548  0060  0256               	subwf	??_USBStdFeatureReqHandler,w
  7549  0061  1803               	skipnc
  7550  0062  2864               	goto	u192_21
  7551  0063  2865               	goto	u192_20
  7552  0064                     u192_21:
  7553  0064  2981               	goto	i1l495
  7554  0065                     u192_20:
  7555  0065                     i1l3322:
  7556  0065  3020               	movlw	32
  7557  0066  0021               	movlb	1	; select bank1
  7558  0067  066F               	xorwf	_USBDeviceState^(0+128),w	;volatile
  7559  0068  1D03               	btfss	3,2
  7560  0069  286B               	goto	u193_21
  7561  006A  286C               	goto	u193_20
  7562  006B                     u193_21:
  7563  006B  2981               	goto	i1l495
  7564  006C                     u193_20:
  7565  006C                     i1l3324:
  7566                           
  7567                           ;usb_device.c: 2787:     {;usb_device.c: 2790:   inPipes[0].info.bits.busy = 1;
  7568  006C  0020               	movlb	0	; select bank0
  7569  006D  17E7               	bsf	_inPipes+2,7	;volatile
  7570                           
  7571                           ;usb_device.c: 2793:         if(SetupPkt.EPDir == 0)
  7572  006E  1BC4               	btfsc	68,7	;volatile
  7573  006F  2871               	goto	u194_21
  7574  0070  2872               	goto	u194_20
  7575  0071                     u194_21:
  7576  0071  2888               	goto	i1l3328
  7577  0072                     u194_20:
  7578  0072                     i1l3326:
  7579                           
  7580                           ;usb_device.c: 2794:         {;usb_device.c: 2795:             p = (BDT_ENTRY*)pBDTEntry
      +                          Out[SetupPkt.EPNum];
  7581  0072  0844               	movf	68,w	;volatile
  7582  0073  390F               	andlw	15
  7583  0074  0709               	addwf	9,w
  7584  0075  3EA4               	addlw	(low (_pBDTEntryOut| (0+256)))& (0+255)
  7585  0076  0086               	movwf	6
  7586  0077  3001               	movlw	1	; select bank3/4
  7587  0078  0087               	movwf	7
  7588  0079  3F40               	moviw [0]fsr1
  7589  007A  00DB               	movwf	USBStdFeatureReqHandler@p
  7590  007B  3F41               	moviw [1]fsr1
  7591  007C  00DC               	movwf	USBStdFeatureReqHandler@p+1
  7592                           
  7593                           ;usb_device.c: 2796:             current_ep_data.Val = ep_data_out[SetupPkt.EPNum].Val;
  7594  007D  0844               	movf	68,w	;volatile
  7595  007E  390F               	andlw	15
  7596  007F  3EA8               	addlw	(low (_ep_data_out| (0+256)))& (0+255)
  7597  0080  0086               	movwf	6
  7598  0081  3001               	movlw	1	; select bank3/4
  7599  0082  0087               	movwf	7
  7600  0083  0801               	movf	1,w
  7601  0084  00D6               	movwf	??_USBStdFeatureReqHandler
  7602  0085  0856               	movf	??_USBStdFeatureReqHandler,w
  7603  0086  00DA               	movwf	USBStdFeatureReqHandler@current_ep_data
  7604                           
  7605                           ;usb_device.c: 2797:         }
  7606  0087  289C               	goto	i1l3330
  7607  0088                     i1l3328:
  7608                           
  7609                           ;usb_device.c: 2799:         {;usb_device.c: 2800:             p = (BDT_ENTRY*)pBDTEntry
      +                          In[SetupPkt.EPNum];
  7610  0088  0844               	movf	68,w	;volatile
  7611  0089  390F               	andlw	15
  7612  008A  0709               	addwf	9,w
  7613  008B  3E6A               	addlw	(low (_pBDTEntryIn| 0))& (0+255)
  7614  008C  0086               	movwf	6
  7615  008D  0187               	clrf	7
  7616  008E  3F40               	moviw [0]fsr1
  7617  008F  00DB               	movwf	USBStdFeatureReqHandler@p
  7618  0090  3F41               	moviw [1]fsr1
  7619  0091  00DC               	movwf	USBStdFeatureReqHandler@p+1
  7620                           
  7621                           ;usb_device.c: 2801:             current_ep_data.Val = ep_data_in[SetupPkt.EPNum].Val;
  7622  0092  0844               	movf	68,w	;volatile
  7623  0093  390F               	andlw	15
  7624  0094  3E67               	addlw	(low (_ep_data_in| (0+256)))& (0+255)
  7625  0095  0086               	movwf	6
  7626  0096  3001               	movlw	1	; select bank2/3
  7627  0097  0087               	movwf	7
  7628  0098  0801               	movf	1,w
  7629  0099  00D6               	movwf	??_USBStdFeatureReqHandler
  7630  009A  0856               	movf	??_USBStdFeatureReqHandler,w
  7631  009B  00DA               	movwf	USBStdFeatureReqHandler@current_ep_data
  7632  009C                     i1l3330:
  7633                           
  7634                           ;usb_device.c: 2808:             if(current_ep_data.bits.ping_pong_state == 0)
  7635  009C  185A               	btfsc	USBStdFeatureReqHandler@current_ep_data,0
  7636  009D  289F               	goto	u195_21
  7637  009E  28A0               	goto	u195_20
  7638  009F                     u195_21:
  7639  009F  28AB               	goto	i1l3334
  7640  00A0                     u195_20:
  7641  00A0                     i1l3332:
  7642                           
  7643                           ;usb_device.c: 2809:             {;usb_device.c: 2810:                 p = (BDT_ENTRY*)(
      +                          ((uint16_t)p) & (~0x0004));
  7644  00A0  30FB               	movlw	251
  7645  00A1  00D6               	movwf	??_USBStdFeatureReqHandler
  7646  00A2  30FF               	movlw	255
  7647  00A3  00D7               	movwf	??_USBStdFeatureReqHandler+1
  7648  00A4  085B               	movf	USBStdFeatureReqHandler@p,w
  7649  00A5  0556               	andwf	??_USBStdFeatureReqHandler,w
  7650  00A6  00DB               	movwf	USBStdFeatureReqHandler@p
  7651  00A7  085C               	movf	USBStdFeatureReqHandler@p+1,w
  7652  00A8  0557               	andwf	??_USBStdFeatureReqHandler+1,w
  7653  00A9  00DC               	movwf	USBStdFeatureReqHandler@p+1
  7654                           
  7655                           ;usb_device.c: 2811:             }
  7656  00AA  28B1               	goto	i1l3336
  7657  00AB                     i1l3334:
  7658                           
  7659                           ;usb_device.c: 2813:             {;usb_device.c: 2814:                 p = (BDT_ENTRY*)(
      +                          ((uint16_t)p) | 0x0004);
  7660  00AB  3004               	movlw	4
  7661  00AC  045B               	iorwf	USBStdFeatureReqHandler@p,w
  7662  00AD  00DB               	movwf	USBStdFeatureReqHandler@p
  7663  00AE  3000               	movlw	0
  7664  00AF  045C               	iorwf	USBStdFeatureReqHandler@p+1,w
  7665  00B0  00DC               	movwf	USBStdFeatureReqHandler@p+1
  7666  00B1                     i1l3336:
  7667                           
  7668                           ;usb_device.c: 2820:         if(SetupPkt.EPDir == 0)
  7669  00B1  1BC4               	btfsc	68,7	;volatile
  7670  00B2  28B4               	goto	u196_21
  7671  00B3  28B5               	goto	u196_20
  7672  00B4                     u196_21:
  7673  00B4  28C1               	goto	i1l3340
  7674  00B5                     u196_20:
  7675  00B5                     i1l3338:
  7676                           
  7677                           ;usb_device.c: 2821:         {;usb_device.c: 2822:             pBDTEntryOut[SetupPkt.EPN
      +                          um] = (volatile BDT_ENTRY *)p;
  7678  00B5  0844               	movf	68,w	;volatile
  7679  00B6  390F               	andlw	15
  7680  00B7  0709               	addwf	9,w
  7681  00B8  3EA4               	addlw	(low (_pBDTEntryOut| (0+256)))& (0+255)
  7682  00B9  0086               	movwf	6
  7683  00BA  3001               	movlw	1	; select bank3/4
  7684  00BB  0087               	movwf	7
  7685  00BC  085B               	movf	USBStdFeatureReqHandler@p,w
  7686  00BD  3FC0               	movwi [0]fsr1
  7687  00BE  085C               	movf	USBStdFeatureReqHandler@p+1,w
  7688  00BF  3FC1               	movwi [1]fsr1
  7689                           
  7690                           ;usb_device.c: 2823:         }
  7691  00C0  28CB               	goto	i1l3342
  7692  00C1                     i1l3340:
  7693                           
  7694                           ;usb_device.c: 2825:         {;usb_device.c: 2826:             pBDTEntryIn[SetupPkt.EPNu
      +                          m] = (volatile BDT_ENTRY *)p;
  7695  00C1  0844               	movf	68,w	;volatile
  7696  00C2  390F               	andlw	15
  7697  00C3  0709               	addwf	9,w
  7698  00C4  3E6A               	addlw	(low (_pBDTEntryIn| 0))& (0+255)
  7699  00C5  0086               	movwf	6
  7700  00C6  0187               	clrf	7
  7701  00C7  085B               	movf	USBStdFeatureReqHandler@p,w
  7702  00C8  3FC0               	movwi [0]fsr1
  7703  00C9  085C               	movf	USBStdFeatureReqHandler@p+1,w
  7704  00CA  3FC1               	movwi [1]fsr1
  7705  00CB                     i1l3342:
  7706                           
  7707                           ;usb_device.c: 2830:         if(SetupPkt.bRequest == 3)
  7708  00CB  3003               	movlw	3
  7709  00CC  0641               	xorwf	65,w	;volatile
  7710  00CD  1D03               	btfss	3,2
  7711  00CE  28D0               	goto	u197_21
  7712  00CF  28D1               	goto	u197_20
  7713  00D0                     u197_21:
  7714  00D0  28F7               	goto	i1l3356
  7715  00D1                     u197_20:
  7716  00D1                     i1l3344:
  7717                           
  7718                           ;usb_device.c: 2831:         {;usb_device.c: 2832:             if(p->STAT.UOWN == 1)
  7719  00D1  085B               	movf	USBStdFeatureReqHandler@p,w
  7720  00D2  0086               	movwf	6
  7721  00D3  085C               	movf	USBStdFeatureReqHandler@p+1,w
  7722  00D4  0087               	movwf	7
  7723  00D5  1F81               	btfss	1,7
  7724  00D6  28D8               	goto	u198_21
  7725  00D7  28D9               	goto	u198_20
  7726  00D8                     u198_21:
  7727  00D8  28EC               	goto	i1l3352
  7728  00D9                     u198_20:
  7729  00D9                     i1l3346:
  7730                           
  7731                           ;usb_device.c: 2833:             {;usb_device.c: 2836:                 if(SetupPkt.EPDir
      +                           == 0)
  7732  00D9  1BC4               	btfsc	68,7	;volatile
  7733  00DA  28DC               	goto	u199_21
  7734  00DB  28DD               	goto	u199_20
  7735  00DC                     u199_21:
  7736  00DC  28E5               	goto	i1l3350
  7737  00DD                     u199_20:
  7738  00DD                     i1l3348:
  7739                           
  7740                           ;usb_device.c: 2837:                 {;usb_device.c: 2838:                     ep_data_o
      +                          ut[SetupPkt.EPNum].bits.transfer_terminated = 1;
  7741  00DD  0844               	movf	68,w	;volatile
  7742  00DE  390F               	andlw	15
  7743  00DF  3EA8               	addlw	(low (_ep_data_out| (0+256)))& (0+255)
  7744  00E0  0086               	movwf	6
  7745  00E1  3001               	movlw	1	; select bank3/4
  7746  00E2  0087               	movwf	7
  7747  00E3  1481               	bsf	1,1
  7748                           
  7749                           ;usb_device.c: 2839:                 }
  7750  00E4  28EC               	goto	i1l3352
  7751  00E5                     i1l3350:
  7752                           
  7753                           ;usb_device.c: 2841:                 {;usb_device.c: 2842:                     ep_data_i
      +                          n[SetupPkt.EPNum].bits.transfer_terminated = 1;
  7754  00E5  0844               	movf	68,w	;volatile
  7755  00E6  390F               	andlw	15
  7756  00E7  3E67               	addlw	(low (_ep_data_in| (0+256)))& (0+255)
  7757  00E8  0086               	movwf	6
  7758  00E9  3001               	movlw	1	; select bank2/3
  7759  00EA  0087               	movwf	7
  7760  00EB  1481               	bsf	1,1
  7761  00EC                     i1l3352:
  7762                           
  7763                           ;usb_device.c: 2847:             p->STAT.Val |= 0x04;
  7764  00EC  085B               	movf	USBStdFeatureReqHandler@p,w
  7765  00ED  0086               	movwf	6
  7766  00EE  085C               	movf	USBStdFeatureReqHandler@p+1,w
  7767  00EF  0087               	movwf	7
  7768  00F0  1501               	bsf	1,2
  7769  00F1                     i1l3354:
  7770                           
  7771                           ;usb_device.c: 2848:             p->STAT.Val |= 0x80;
  7772  00F1  085B               	movf	USBStdFeatureReqHandler@p,w
  7773  00F2  0086               	movwf	6
  7774  00F3  085C               	movf	USBStdFeatureReqHandler@p+1,w
  7775  00F4  0087               	movwf	7
  7776  00F5  1781               	bsf	1,7
  7777                           
  7778                           ;usb_device.c: 2849:         }
  7779  00F6  2981               	goto	i1l495
  7780  00F7                     i1l3356:
  7781                           
  7782                           ;usb_device.c: 2851:         {;usb_device.c: 2855:                 p = (BDT_ENTRY*)(((ui
      +                          nt16_t)p) ^ 0x0004);
  7783  00F7  3004               	movlw	4
  7784  00F8  065B               	xorwf	USBStdFeatureReqHandler@p,w
  7785  00F9  00DB               	movwf	USBStdFeatureReqHandler@p
  7786  00FA  3000               	movlw	0
  7787  00FB  065C               	xorwf	USBStdFeatureReqHandler@p+1,w
  7788  00FC  00DC               	movwf	USBStdFeatureReqHandler@p+1
  7789  00FD                     i1l3358:
  7790                           
  7791                           ;usb_device.c: 2857:                 if(p->STAT.UOWN == 1)
  7792  00FD  085B               	movf	USBStdFeatureReqHandler@p,w
  7793  00FE  0086               	movwf	6
  7794  00FF  085C               	movf	USBStdFeatureReqHandler@p+1,w
  7795  0100  0087               	movwf	7
  7796  0101  1F81               	btfss	1,7
  7797  0102  2904               	goto	u200_21
  7798  0103  2905               	goto	u200_20
  7799  0104                     u200_21:
  7800  0104  2922               	goto	i1l3366
  7801  0105                     u200_20:
  7802  0105                     i1l3360:
  7803                           
  7804                           ;usb_device.c: 2858:                 {;usb_device.c: 2861:                     p->STAT.V
      +                          al &= (~0x80);
  7805  0105  307F               	movlw	127
  7806  0106  00D6               	movwf	??_USBStdFeatureReqHandler
  7807  0107  085B               	movf	USBStdFeatureReqHandler@p,w
  7808  0108  0086               	movwf	6
  7809  0109  085C               	movf	USBStdFeatureReqHandler@p+1,w
  7810  010A  0087               	movwf	7
  7811  010B  0856               	movf	??_USBStdFeatureReqHandler,w
  7812  010C  0581               	andwf	1,f
  7813  010D                     i1l3362:
  7814                           
  7815                           ;usb_device.c: 2862:                     p->STAT.Val |= 0x40;
  7816  010D  085B               	movf	USBStdFeatureReqHandler@p,w
  7817  010E  0086               	movwf	6
  7818  010F  085C               	movf	USBStdFeatureReqHandler@p+1,w
  7819  0110  0087               	movwf	7
  7820  0111  1701               	bsf	1,6
  7821  0112                     i1l3364:
  7822                           
  7823                           ;usb_device.c: 2863:                     USER_USB_CALLBACK_EVENT_HANDLER((USB_EVENT)EVEN
      +                          T_TRANSFER_TERMINATED,p,sizeof(p));
  7824  0112  3005               	movlw	5
  7825  0113  00D0               	movwf	USER_USB_CALLBACK_EVENT_HANDLER@event
  7826  0114  3000               	movlw	0
  7827  0115  00D1               	movwf	USER_USB_CALLBACK_EVENT_HANDLER@event+1
  7828  0116  085C               	movf	USBStdFeatureReqHandler@p+1,w
  7829  0117  00D3               	movwf	USER_USB_CALLBACK_EVENT_HANDLER@pdata+1
  7830  0118  085B               	movf	USBStdFeatureReqHandler@p,w
  7831  0119  00D2               	movwf	USER_USB_CALLBACK_EVENT_HANDLER@pdata
  7832  011A  3002               	movlw	2
  7833  011B  00D4               	movwf	USER_USB_CALLBACK_EVENT_HANDLER@size
  7834  011C  3000               	movlw	0
  7835  011D  00D5               	movwf	USER_USB_CALLBACK_EVENT_HANDLER@size+1
  7836  011E  318B  2304  3180   	fcall	_USER_USB_CALLBACK_EVENT_HANDLER
  7837                           
  7838                           ;usb_device.c: 2864:                 }
  7839  0121  2927               	goto	i1l3368
  7840  0122                     i1l3366:
  7841                           
  7842                           ;usb_device.c: 2866:                 {;usb_device.c: 2868:      p->STAT.Val |= 0x40;
  7843  0122  085B               	movf	USBStdFeatureReqHandler@p,w
  7844  0123  0086               	movwf	6
  7845  0124  085C               	movf	USBStdFeatureReqHandler@p+1,w
  7846  0125  0087               	movwf	7
  7847  0126  1701               	bsf	1,6
  7848  0127                     i1l3368:
  7849                           
  7850                           ;usb_device.c: 2873:                 p = (BDT_ENTRY*)(((uint16_t)p) ^ 0x0004);
  7851  0127  3004               	movlw	4
  7852  0128  0020               	movlb	0	; select bank0
  7853  0129  065B               	xorwf	USBStdFeatureReqHandler@p,w
  7854  012A  00DB               	movwf	USBStdFeatureReqHandler@p
  7855  012B  3000               	movlw	0
  7856  012C  065C               	xorwf	USBStdFeatureReqHandler@p+1,w
  7857  012D  00DC               	movwf	USBStdFeatureReqHandler@p+1
  7858  012E                     i1l3370:
  7859                           
  7860                           ;usb_device.c: 2879:                 if((current_ep_data.bits.transfer_terminated != 0) 
      +                          || (p->STAT.UOWN == 1))
  7861  012E  18DA               	btfsc	USBStdFeatureReqHandler@current_ep_data,1
  7862  012F  2931               	goto	u201_21
  7863  0130  2932               	goto	u201_20
  7864  0131                     u201_21:
  7865  0131  293A               	goto	i1l491
  7866  0132                     u201_20:
  7867  0132                     i1l3372:
  7868  0132  085B               	movf	USBStdFeatureReqHandler@p,w
  7869  0133  0086               	movwf	6
  7870  0134  085C               	movf	USBStdFeatureReqHandler@p+1,w
  7871  0135  0087               	movwf	7
  7872  0136  1F81               	btfss	1,7
  7873  0137  2939               	goto	u202_21
  7874  0138  293A               	goto	u202_20
  7875  0139                     u202_21:
  7876  0139  2965               	goto	i1l3380
  7877  013A                     u202_20:
  7878  013A                     i1l491:
  7879                           
  7880                           ;usb_device.c: 2880:                 {;usb_device.c: 2881:                     if(SetupP
      +                          kt.EPDir == 0)
  7881  013A  1BC4               	btfsc	68,7	;volatile
  7882  013B  293D               	goto	u203_21
  7883  013C  293E               	goto	u203_20
  7884  013D                     u203_21:
  7885  013D  2946               	goto	i1l3376
  7886  013E                     u203_20:
  7887  013E                     i1l3374:
  7888                           
  7889                           ;usb_device.c: 2882:                     {;usb_device.c: 2883:                         e
      +                          p_data_out[SetupPkt.EPNum].bits.transfer_terminated = 0;
  7890  013E  0844               	movf	68,w	;volatile
  7891  013F  390F               	andlw	15
  7892  0140  3EA8               	addlw	(low (_ep_data_out| (0+256)))& (0+255)
  7893  0141  0086               	movwf	6
  7894  0142  3001               	movlw	1	; select bank3/4
  7895  0143  0087               	movwf	7
  7896  0144  1081               	bcf	1,1
  7897                           
  7898                           ;usb_device.c: 2884:                     }
  7899  0145  294D               	goto	i1l493
  7900  0146                     i1l3376:
  7901                           
  7902                           ;usb_device.c: 2886:                     {;usb_device.c: 2887:                         e
      +                          p_data_in[SetupPkt.EPNum].bits.transfer_terminated = 0;
  7903  0146  0844               	movf	68,w	;volatile
  7904  0147  390F               	andlw	15
  7905  0148  3E67               	addlw	(low (_ep_data_in| (0+256)))& (0+255)
  7906  0149  0086               	movwf	6
  7907  014A  3001               	movlw	1	; select bank2/3
  7908  014B  0087               	movwf	7
  7909  014C  1081               	bcf	1,1
  7910  014D                     i1l493:	
  7911                           ;usb_device.c: 2888:                     }
  7912                           
  7913                           
  7914                           ;usb_device.c: 2890:                     p->STAT.Val &= ~(0x80 | 0x40 | 0x04);
  7915  014D  303B               	movlw	59
  7916  014E  00D6               	movwf	??_USBStdFeatureReqHandler
  7917  014F  085B               	movf	USBStdFeatureReqHandler@p,w
  7918  0150  0086               	movwf	6
  7919  0151  085C               	movf	USBStdFeatureReqHandler@p+1,w
  7920  0152  0087               	movwf	7
  7921  0153  0856               	movf	??_USBStdFeatureReqHandler,w
  7922  0154  0581               	andwf	1,f
  7923  0155                     i1l3378:
  7924                           
  7925                           ;usb_device.c: 2893:                     USER_USB_CALLBACK_EVENT_HANDLER((USB_EVENT)EVEN
      +                          T_TRANSFER_TERMINATED,p,sizeof(p));
  7926  0155  3005               	movlw	5
  7927  0156  00D0               	movwf	USER_USB_CALLBACK_EVENT_HANDLER@event
  7928  0157  3000               	movlw	0
  7929  0158  00D1               	movwf	USER_USB_CALLBACK_EVENT_HANDLER@event+1
  7930  0159  085C               	movf	USBStdFeatureReqHandler@p+1,w
  7931  015A  00D3               	movwf	USER_USB_CALLBACK_EVENT_HANDLER@pdata+1
  7932  015B  085B               	movf	USBStdFeatureReqHandler@p,w
  7933  015C  00D2               	movwf	USER_USB_CALLBACK_EVENT_HANDLER@pdata
  7934  015D  3002               	movlw	2
  7935  015E  00D4               	movwf	USER_USB_CALLBACK_EVENT_HANDLER@size
  7936  015F  3000               	movlw	0
  7937  0160  00D5               	movwf	USER_USB_CALLBACK_EVENT_HANDLER@size+1
  7938  0161  318B  2304  3180   	fcall	_USER_USB_CALLBACK_EVENT_HANDLER
  7939                           
  7940                           ;usb_device.c: 2894:                 }
  7941  0164  296D               	goto	i1l3382
  7942  0165                     i1l3380:
  7943                           
  7944                           ;usb_device.c: 2896:                 {;usb_device.c: 2898:                     p->STAT.V
      +                          al &= ~(0x80 | 0x40 | 0x04);
  7945  0165  303B               	movlw	59
  7946  0166  00D6               	movwf	??_USBStdFeatureReqHandler
  7947  0167  085B               	movf	USBStdFeatureReqHandler@p,w
  7948  0168  0086               	movwf	6
  7949  0169  085C               	movf	USBStdFeatureReqHandler@p+1,w
  7950  016A  0087               	movwf	7
  7951  016B  0856               	movf	??_USBStdFeatureReqHandler,w
  7952  016C  0581               	andwf	1,f
  7953  016D                     i1l3382:
  7954                           
  7955                           ;usb_device.c: 2946:                 pUEP = (unsigned char*)(&UEP0+SetupPkt.EPNum);
  7956  016D  0020               	movlb	0	; select bank0
  7957  016E  0844               	movf	68,w	;volatile
  7958  016F  390F               	andlw	15
  7959  0170  3E98               	addlw	152
  7960  0171  00D6               	movwf	??_USBStdFeatureReqHandler
  7961  0172  01D7               	clrf	??_USBStdFeatureReqHandler+1
  7962  0173  300E               	movlw	14
  7963  0174  3DD7               	addwfc	??_USBStdFeatureReqHandler+1,f
  7964  0175  0856               	movf	??_USBStdFeatureReqHandler,w
  7965  0176  00D8               	movwf	USBStdFeatureReqHandler@pUEP
  7966  0177  0857               	movf	??_USBStdFeatureReqHandler+1,w
  7967  0178  00D9               	movwf	USBStdFeatureReqHandler@pUEP+1
  7968  0179                     i1l3384:
  7969                           
  7970                           ;usb_device.c: 2950:             *pUEP &= ~0x0001;
  7971  0179  30FE               	movlw	254
  7972  017A  00D6               	movwf	??_USBStdFeatureReqHandler
  7973  017B  0858               	movf	USBStdFeatureReqHandler@pUEP,w
  7974  017C  0086               	movwf	6
  7975  017D  0859               	movf	USBStdFeatureReqHandler@pUEP+1,w
  7976  017E  0087               	movwf	7
  7977  017F  0856               	movf	??_USBStdFeatureReqHandler,w
  7978  0180  0581               	andwf	1,f
  7979  0181                     i1l495:
  7980  0181  0008               	return
  7981  0182                     __end_of_USBStdFeatureReqHandler:
  7982                           
  7983                           	psect	text29
  7984  0B04                     __ptext29:	
  7985 ;; *************** function _USER_USB_CALLBACK_EVENT_HANDLER *****************
  7986 ;; Defined at:
  7987 ;;		line 51 in file "usb_events.c"
  7988 ;; Parameters:    Size  Location     Type
  7989 ;;  event           2    0[BANK0 ] enum E2550
  7990 ;;  pdata           2    2[BANK0 ] PTR void 
  7991 ;;		 -> RAM(4096), USTATcopy(1), USBActiveConfiguration(1), BDT(32), 
  7992 ;;		 -> NULL(0), 
  7993 ;;  size            2    4[BANK0 ] unsigned short 
  7994 ;; Auto vars:     Size  Location     Type
  7995 ;;		None
  7996 ;; Return value:  Size  Location     Type
  7997 ;;                  1    wreg      _Bool 
  7998 ;; Registers used:
  7999 ;;		wreg, fsr0l, fsr0h, fsr1l, fsr1h, status,2, status,0, pclath, cstack
  8000 ;; Tracked objects:
  8001 ;;		On entry : 0/0
  8002 ;;		On exit  : 0/0
  8003 ;;		Unchanged: 0/0
  8004 ;; Data sizes:     COMMON   BANK0   BANK1   BANK2   BANK3   BANK4   BANK5   BANK6   BANK7   BANK8   BANK9  BANK10  BANK1
      +1  BANK12
  8005 ;;      Params:         0       6       0       0       0       0       0       0       0       0       0       0       
      +0       0
  8006 ;;      Locals:         0       0       0       0       0       0       0       0       0       0       0       0       
      +0       0
  8007 ;;      Temps:          0       0       0       0       0       0       0       0       0       0       0       0       
      +0       0
  8008 ;;      Totals:         0       6       0       0       0       0       0       0       0       0       0       0       
      +0       0
  8009 ;;Total ram usage:        6 bytes
  8010 ;; Hardware stack levels used: 1
  8011 ;; Hardware stack levels required when called: 3
  8012 ;; This function calls:
  8013 ;;		_APP_DeviceCustomHIDInitialize
  8014 ;;		_USBCheckHIDRequest
  8015 ;;		i1_LED_Off
  8016 ;;		i1_LED_On
  8017 ;;		i1_SYSTEM_Initialize
  8018 ;; This function is called by:
  8019 ;;		_USBDeviceTasks
  8020 ;;		_USBStdSetCfgHandler
  8021 ;;		_USBSuspend
  8022 ;;		_USBWakeFromSuspend
  8023 ;;		_USBCtrlTrfSetupHandler
  8024 ;;		_USBCheckStdRequest
  8025 ;;		_USBStdFeatureReqHandler
  8026 ;; This function uses a non-reentrant model
  8027 ;;
  8028                           
  8029  0B04                     _USER_USB_CALLBACK_EVENT_HANDLER:	
  8030                           ;psect for function _USER_USB_CALLBACK_EVENT_HANDLER
  8031                           
  8032  0B04                     i1l3012:	
  8033                           ;incstack = 0
  8034                           ; Regs used in _USER_USB_CALLBACK_EVENT_HANDLER: [wreg-fsr1h+status,2+status,0+pclath+cs
      +                          tack]
  8035                           
  8036                           
  8037                           ;usb_events.c: 51: _Bool USER_USB_CALLBACK_EVENT_HANDLER(USB_EVENT event, void *pdata, u
      +                          int16_t size);usb_events.c: 52: {;usb_events.c: 53:     switch((int)event)
  8038  0B04  2B2B               	goto	i1l3026
  8039  0B05                     i1l3014:
  8040                           
  8041                           ;usb_events.c: 74:             SYSTEM_Initialize(SYSTEM_STATE_USB_SUSPEND);
  8042  0B05  3001               	movlw	1
  8043  0B06  3189  218B  318B   	fcall	i1_SYSTEM_Initialize
  8044                           
  8045                           ;usb_events.c: 75:             LED_Off(LED_CONNECT);
  8046  0B09  3001               	movlw	1
  8047  0B0A  3188  20E7  318B   	fcall	i1_LED_Off
  8048                           
  8049                           ;usb_events.c: 76:             LED_Off(LED_SCANNING);
  8050  0B0D  3002               	movlw	2
  8051  0B0E  3188  20E7  318B   	fcall	i1_LED_Off
  8052                           
  8053                           ;usb_events.c: 77:             LED_Off(LED_OK);
  8054  0B11  3003               	movlw	3
  8055  0B12  3188  20E7  318B   	fcall	i1_LED_Off
  8056                           
  8057                           ;usb_events.c: 78:             LED_Off(LED_NG);
  8058  0B15  3004               	movlw	4
  8059  0B16  3188  20E7  318B   	fcall	i1_LED_Off
  8060                           
  8061                           ;usb_events.c: 79:             break;
  8062  0B19  2B53               	goto	i1l565
  8063  0B1A                     i1l3016:
  8064                           
  8065                           ;usb_events.c: 89:             SYSTEM_Initialize(SYSTEM_STATE_USB_RESUME);
  8066  0B1A  3002               	movlw	2
  8067  0B1B  3189  218B  318B   	fcall	i1_SYSTEM_Initialize
  8068                           
  8069                           ;usb_events.c: 90:             break;
  8070  0B1E  2B53               	goto	i1l565
  8071  0B1F                     i1l3018:
  8072                           
  8073                           ;usb_events.c: 95:             APP_DeviceCustomHIDInitialize();
  8074  0B1F  3188  201A  318B   	fcall	_APP_DeviceCustomHIDInitialize
  8075  0B22                     i1l3020:
  8076                           
  8077                           ;usb_events.c: 96:             LED_On(LED_CONNECT);
  8078  0B22  3001               	movlw	1
  8079  0B23  3188  20BF  318B   	fcall	i1_LED_On
  8080                           
  8081                           ;usb_events.c: 97:             break;
  8082  0B26  2B53               	goto	i1l565
  8083  0B27                     i1l3022:
  8084                           
  8085                           ;usb_events.c: 105:             USBCheckHIDRequest();
  8086  0B27  3186  26C5  318B   	fcall	_USBCheckHIDRequest
  8087                           
  8088                           ;usb_events.c: 106:             break;
  8089  0B2A  2B53               	goto	i1l565
  8090  0B2B                     i1l3026:
  8091                           
  8092                           ; Switch on 2 bytes has been partitioned into a top level switch of size 1, and 2 sub-sw
      +                          itches
  8093                           ; Switch size 1, requested type "simple"
  8094                           ; Number of cases is 2, Range of values is 0 to 127
  8095                           ; switch strategies available:
  8096                           ; Name         Instructions Cycles
  8097                           ; simple_byte            7     4 (average)
  8098                           ; direct_byte          262     6 (fixed)
  8099                           ; jumptable            260     6 (fixed)
  8100                           ;	Chosen strategy is simple_byte
  8101  0B2B  0020               	movlb	0	; select bank0
  8102  0B2C  0851               	movf	USER_USB_CALLBACK_EVENT_HANDLER@event+1,w
  8103  0B2D  3A00               	xorlw	0	; case 0
  8104  0B2E  1903               	skipnz
  8105  0B2F  2B34               	goto	i1l5082
  8106  0B30  3A7F               	xorlw	127	; case 127
  8107  0B31  1903               	skipnz
  8108  0B32  2B4E               	goto	i1l5084
  8109  0B33  2B53               	goto	i1l565
  8110  0B34                     i1l5082:
  8111                           
  8112                           ; Switch size 1, requested type "simple"
  8113                           ; Number of cases is 8, Range of values is 1 to 117
  8114                           ; switch strategies available:
  8115                           ; Name         Instructions Cycles
  8116                           ; simple_byte           25    13 (average)
  8117                           ; direct_byte          243     9 (fixed)
  8118                           ; jumptable            263     9 (fixed)
  8119                           ;	Chosen strategy is simple_byte
  8120  0B34  0850               	movf	USER_USB_CALLBACK_EVENT_HANDLER@event,w
  8121  0B35  3A01               	xorlw	1	; case 1
  8122  0B36  1903               	skipnz
  8123  0B37  2B1F               	goto	i1l3018
  8124  0B38  3A03               	xorlw	3	; case 2
  8125  0B39  1903               	skipnz
  8126  0B3A  2B53               	goto	i1l565
  8127  0B3B  3A01               	xorlw	1	; case 3
  8128  0B3C  1903               	skipnz
  8129  0B3D  2B27               	goto	i1l3022
  8130  0B3E  3A06               	xorlw	6	; case 5
  8131  0B3F  1903               	skipnz
  8132  0B40  2B53               	goto	i1l565
  8133  0B41  3A77               	xorlw	119	; case 114
  8134  0B42  1903               	skipnz
  8135  0B43  2B53               	goto	i1l565
  8136  0B44  3A01               	xorlw	1	; case 115
  8137  0B45  1903               	skipnz
  8138  0B46  2B53               	goto	i1l565
  8139  0B47  3A07               	xorlw	7	; case 116
  8140  0B48  1903               	skipnz
  8141  0B49  2B1A               	goto	i1l3016
  8142  0B4A  3A01               	xorlw	1	; case 117
  8143  0B4B  1903               	skipnz
  8144  0B4C  2B05               	goto	i1l3014
  8145  0B4D  2B53               	goto	i1l565
  8146  0B4E                     i1l5084:
  8147                           
  8148                           ; Switch size 1, requested type "simple"
  8149                           ; Number of cases is 1, Range of values is 255 to 255
  8150                           ; switch strategies available:
  8151                           ; Name         Instructions Cycles
  8152                           ; simple_byte            4     3 (average)
  8153                           ; direct_byte            7     5 (fixed)
  8154                           ; jumptable            263     9 (fixed)
  8155                           ;	Chosen strategy is simple_byte
  8156  0B4E  0850               	movf	USER_USB_CALLBACK_EVENT_HANDLER@event,w
  8157  0B4F  3AFF               	xorlw	255	; case 255
  8158  0B50  1903               	skipnz
  8159  0B51  2B53               	goto	i1l565
  8160  0B52  2B53               	goto	i1l565
  8161  0B53                     i1l565:
  8162  0B53  0008               	return
  8163  0B54                     __end_of_USER_USB_CALLBACK_EVENT_HANDLER:
  8164                           
  8165                           	psect	text30
  8166  098B                     __ptext30:	
  8167 ;; *************** function i1_SYSTEM_Initialize *****************
  8168 ;; Defined at:
  8169 ;;		line 85 in file "system.c"
  8170 ;; Parameters:    Size  Location     Type
  8171 ;;  state           1    wreg     enum E2309
  8172 ;; Auto vars:     Size  Location     Type
  8173 ;;  state           1    5[COMMON] enum E2309
  8174 ;; Return value:  Size  Location     Type
  8175 ;;                  1    wreg      void 
  8176 ;; Registers used:
  8177 ;;		wreg, fsr0l, fsr0h, status,2, status,0, pclath, cstack
  8178 ;; Tracked objects:
  8179 ;;		On entry : 0/0
  8180 ;;		On exit  : 0/0
  8181 ;;		Unchanged: 0/0
  8182 ;; Data sizes:     COMMON   BANK0   BANK1   BANK2   BANK3   BANK4   BANK5   BANK6   BANK7   BANK8   BANK9  BANK10  BANK1
      +1  BANK12
  8183 ;;      Params:         0       0       0       0       0       0       0       0       0       0       0       0       
      +0       0
  8184 ;;      Locals:         1       0       0       0       0       0       0       0       0       0       0       0       
      +0       0
  8185 ;;      Temps:          2       0       0       0       0       0       0       0       0       0       0       0       
      +0       0
  8186 ;;      Totals:         3       0       0       0       0       0       0       0       0       0       0       0       
      +0       0
  8187 ;;Total ram usage:        3 bytes
  8188 ;; Hardware stack levels used: 1
  8189 ;; Hardware stack levels required when called: 1
  8190 ;; This function calls:
  8191 ;;		i1_LED_Init
  8192 ;;		i1_LED_Off
  8193 ;;		i1_init_alcohol
  8194 ;; This function is called by:
  8195 ;;		_USER_USB_CALLBACK_EVENT_HANDLER
  8196 ;; This function uses a non-reentrant model
  8197 ;;
  8198                           
  8199  098B                     i1_SYSTEM_Initialize:	
  8200                           ;psect for function i1_SYSTEM_Initialize
  8201                           
  8202                           
  8203                           ;incstack = 0
  8204                           ; Regs used in i1_SYSTEM_Initialize: [wreg-fsr0h+status,2+status,0+pclath+cstack]
  8205                           ;i1SYSTEM_Initialize@state stored from wreg
  8206  098B  00F5               	movwf	i1SYSTEM_Initialize@state
  8207  098C                     i1l2980:
  8208                           
  8209                           ;system.c: 85: void SYSTEM_Initialize( SYSTEM_STATE state );system.c: 86: {;system.c: 87
      +                          :     switch(state)
  8210  098C  29A2               	goto	i1l2996
  8211  098D                     i1l2982:
  8212                           
  8213                           ;system.c: 93:                 OSCCON = 0xFC;
  8214  098D  30FC               	movlw	252
  8215  098E  0021               	movlb	1	; select bank1
  8216  098F  0099               	movwf	25	;volatile
  8217                           
  8218                           ;system.c: 94:                 ACTCON = 0x90;
  8219  0990  3090               	movlw	144
  8220  0991  0027               	movlb	7	; select bank7
  8221  0992  009B               	movwf	27	;volatile
  8222  0993                     i1l2984:
  8223                           
  8224                           ;system.c: 96:             ANSELA = 0x00;
  8225  0993  0023               	movlb	3	; select bank3
  8226  0994  018C               	clrf	12	;volatile
  8227  0995                     i1l2986:
  8228                           
  8229                           ;system.c: 97:             ANSELC = 0x00;
  8230  0995  018E               	clrf	14	;volatile
  8231  0996                     i1l2988:
  8232                           
  8233                           ;system.c: 99:             LED_Init();
  8234  0996  3188  2004  3189   	fcall	i1_LED_Init
  8235  0999                     i1l2990:
  8236                           
  8237                           ;system.c: 101:             init_alcohol();
  8238  0999  3197  27DB  3189   	fcall	i1_init_alcohol
  8239                           
  8240                           ;system.c: 102:             break;
  8241  099C  29B5               	goto	i1l85
  8242  099D                     i1l2992:
  8243                           
  8244                           ;system.c: 105:             LED_Off(LED_CONNECT);
  8245  099D  3001               	movlw	1
  8246  099E  3188  20E7  3189   	fcall	i1_LED_Off
  8247                           
  8248                           ;system.c: 106:             break;
  8249  09A1  29B5               	goto	i1l85
  8250  09A2                     i1l2996:
  8251  09A2  0875               	movf	i1SYSTEM_Initialize@state,w
  8252  09A3  00F3               	movwf	??i1_SYSTEM_Initialize
  8253  09A4  01F4               	clrf	??i1_SYSTEM_Initialize+1
  8254                           
  8255                           ; Switch on 2 bytes has been partitioned into a top level switch of size 1, and 1 sub-sw
      +                          itches
  8256                           ; Switch size 1, requested type "simple"
  8257                           ; Number of cases is 1, Range of values is 0 to 0
  8258                           ; switch strategies available:
  8259                           ; Name         Instructions Cycles
  8260                           ; simple_byte            4     3 (average)
  8261                           ; direct_byte            8     6 (fixed)
  8262                           ; jumptable            260     6 (fixed)
  8263                           ;	Chosen strategy is simple_byte
  8264  09A5  0874               	movf	??i1_SYSTEM_Initialize+1,w
  8265  09A6  3A00               	xorlw	0	; case 0
  8266  09A7  1903               	skipnz
  8267  09A8  29AA               	goto	i1l5086
  8268  09A9  29B5               	goto	i1l85
  8269  09AA                     i1l5086:
  8270                           
  8271                           ; Switch size 1, requested type "simple"
  8272                           ; Number of cases is 3, Range of values is 0 to 2
  8273                           ; switch strategies available:
  8274                           ; Name         Instructions Cycles
  8275                           ; simple_byte           10     6 (average)
  8276                           ; direct_byte           12     6 (fixed)
  8277                           ; jumptable            260     6 (fixed)
  8278                           ;	Chosen strategy is simple_byte
  8279  09AA  0873               	movf	??i1_SYSTEM_Initialize,w
  8280  09AB  3A00               	xorlw	0	; case 0
  8281  09AC  1903               	skipnz
  8282  09AD  298D               	goto	i1l2982
  8283  09AE  3A01               	xorlw	1	; case 1
  8284  09AF  1903               	skipnz
  8285  09B0  299D               	goto	i1l2992
  8286  09B1  3A03               	xorlw	3	; case 2
  8287  09B2  1903               	skipnz
  8288  09B3  29B5               	goto	i1l85
  8289  09B4  29B5               	goto	i1l85
  8290  09B5                     i1l85:
  8291  09B5  0008               	return
  8292  09B6                     __end_ofi1_SYSTEM_Initialize:
  8293                           
  8294                           	psect	text31
  8295  17DB                     __ptext31:	
  8296 ;; *************** function i1_init_alcohol *****************
  8297 ;; Defined at:
  8298 ;;		line 10 in file "alcohol_drive.c"
  8299 ;; Parameters:    Size  Location     Type
  8300 ;;		None
  8301 ;; Auto vars:     Size  Location     Type
  8302 ;;		None
  8303 ;; Return value:  Size  Location     Type
  8304 ;;                  1    wreg      void 
  8305 ;; Registers used:
  8306 ;;		None
  8307 ;; Tracked objects:
  8308 ;;		On entry : 0/0
  8309 ;;		On exit  : 0/0
  8310 ;;		Unchanged: 0/0
  8311 ;; Data sizes:     COMMON   BANK0   BANK1   BANK2   BANK3   BANK4   BANK5   BANK6   BANK7   BANK8   BANK9  BANK10  BANK1
      +1  BANK12
  8312 ;;      Params:         0       0       0       0       0       0       0       0       0       0       0       0       
      +0       0
  8313 ;;      Locals:         0       0       0       0       0       0       0       0       0       0       0       0       
      +0       0
  8314 ;;      Temps:          0       0       0       0       0       0       0       0       0       0       0       0       
      +0       0
  8315 ;;      Totals:         0       0       0       0       0       0       0       0       0       0       0       0       
      +0       0
  8316 ;;Total ram usage:        0 bytes
  8317 ;; Hardware stack levels used: 1
  8318 ;; This function calls:
  8319 ;;		Nothing
  8320 ;; This function is called by:
  8321 ;;		i1_SYSTEM_Initialize
  8322 ;; This function uses a non-reentrant model
  8323 ;;
  8324                           
  8325  17DB                     i1_init_alcohol:	
  8326                           ;psect for function i1_init_alcohol
  8327                           
  8328  17DB                     i1l2914:	
  8329                           ;incstack = 0
  8330                           ; Regs used in i1_init_alcohol: []
  8331                           
  8332                           
  8333                           ;alcohol_drive.c: 11:     TRISAbits.TRISA5 = 1;
  8334  17DB  0021               	movlb	1	; select bank1
  8335  17DC  168C               	bsf	12,5	;volatile
  8336  17DD                     i1l601:
  8337  17DD  0008               	return
  8338  17DE                     __end_ofi1_init_alcohol:
  8339                           
  8340                           	psect	text32
  8341  08E7                     __ptext32:	
  8342 ;; *************** function i1_LED_Off *****************
  8343 ;; Defined at:
  8344 ;;		line 51 in file "leds.c"
  8345 ;; Parameters:    Size  Location     Type
  8346 ;;  led             1    wreg     enum E2
  8347 ;; Auto vars:     Size  Location     Type
  8348 ;;  led             1    2[COMMON] enum E2
  8349 ;; Return value:  Size  Location     Type
  8350 ;;                  1    wreg      void 
  8351 ;; Registers used:
  8352 ;;		wreg, fsr0l, fsr0h, status,2, status,0
  8353 ;; Tracked objects:
  8354 ;;		On entry : 0/0
  8355 ;;		On exit  : 0/0
  8356 ;;		Unchanged: 0/0
  8357 ;; Data sizes:     COMMON   BANK0   BANK1   BANK2   BANK3   BANK4   BANK5   BANK6   BANK7   BANK8   BANK9  BANK10  BANK1
      +1  BANK12
  8358 ;;      Params:         0       0       0       0       0       0       0       0       0       0       0       0       
      +0       0
  8359 ;;      Locals:         1       0       0       0       0       0       0       0       0       0       0       0       
      +0       0
  8360 ;;      Temps:          2       0       0       0       0       0       0       0       0       0       0       0       
      +0       0
  8361 ;;      Totals:         3       0       0       0       0       0       0       0       0       0       0       0       
      +0       0
  8362 ;;Total ram usage:        3 bytes
  8363 ;; Hardware stack levels used: 1
  8364 ;; This function calls:
  8365 ;;		Nothing
  8366 ;; This function is called by:
  8367 ;;		_USER_USB_CALLBACK_EVENT_HANDLER
  8368 ;;		i1_SYSTEM_Initialize
  8369 ;; This function uses a non-reentrant model
  8370 ;;
  8371                           
  8372  08E7                     i1_LED_Off:	
  8373                           ;psect for function i1_LED_Off
  8374                           
  8375                           
  8376                           ;incstack = 0
  8377                           ; Regs used in i1_LED_Off: [wreg-fsr0h+status,2+status,0]
  8378                           ;i1LED_Off@led stored from wreg
  8379  08E7  00F2               	movwf	i1LED_Off@led
  8380  08E8                     i1l2902:
  8381                           
  8382                           ;leds.c: 51: void LED_Off(LED led);leds.c: 52: {;leds.c: 53:     switch(led)
  8383  08E8  28F5               	goto	i1l2906
  8384  08E9                     i1l583:	
  8385                           ;leds.c: 54:     {;leds.c: 55:         case LED_CONNECT:
  8386                           
  8387                           
  8388                           ;leds.c: 56:             LATCbits.LATC5 = 0;
  8389  08E9  0022               	movlb	2	; select bank2
  8390  08EA  128E               	bcf	14,5	;volatile
  8391                           
  8392                           ;leds.c: 57:             break;
  8393  08EB  290E               	goto	i1l589
  8394  08EC                     i1l585:	
  8395                           ;leds.c: 58:         case LED_SCANNING:
  8396                           
  8397                           
  8398                           ;leds.c: 59:             LATCbits.LATC4 = 0;
  8399  08EC  0022               	movlb	2	; select bank2
  8400  08ED  120E               	bcf	14,4	;volatile
  8401                           
  8402                           ;leds.c: 60:             break;
  8403  08EE  290E               	goto	i1l589
  8404  08EF                     i1l586:	
  8405                           ;leds.c: 61:         case LED_OK:
  8406                           
  8407                           
  8408                           ;leds.c: 62:             LATCbits.LATC3 = 0;
  8409  08EF  0022               	movlb	2	; select bank2
  8410  08F0  118E               	bcf	14,3	;volatile
  8411                           
  8412                           ;leds.c: 63:             break;
  8413  08F1  290E               	goto	i1l589
  8414  08F2                     i1l587:	
  8415                           ;leds.c: 64:         case LED_NG:
  8416                           
  8417                           
  8418                           ;leds.c: 65:             LATCbits.LATC6 = 0;
  8419  08F2  0022               	movlb	2	; select bank2
  8420  08F3  130E               	bcf	14,6	;volatile
  8421                           
  8422                           ;leds.c: 66:             break;
  8423  08F4  290E               	goto	i1l589
  8424  08F5                     i1l2906:
  8425  08F5  0872               	movf	i1LED_Off@led,w
  8426  08F6  00F0               	movwf	??i1_LED_Off
  8427  08F7  01F1               	clrf	??i1_LED_Off+1
  8428                           
  8429                           ; Switch on 2 bytes has been partitioned into a top level switch of size 1, and 1 sub-sw
      +                          itches
  8430                           ; Switch size 1, requested type "simple"
  8431                           ; Number of cases is 1, Range of values is 0 to 0
  8432                           ; switch strategies available:
  8433                           ; Name         Instructions Cycles
  8434                           ; simple_byte            4     3 (average)
  8435                           ; direct_byte            8     6 (fixed)
  8436                           ; jumptable            260     6 (fixed)
  8437                           ;	Chosen strategy is simple_byte
  8438  08F8  0871               	movf	??i1_LED_Off+1,w
  8439  08F9  3A00               	xorlw	0	; case 0
  8440  08FA  1903               	skipnz
  8441  08FB  28FD               	goto	i1l5088
  8442  08FC  290E               	goto	i1l589
  8443  08FD                     i1l5088:
  8444                           
  8445                           ; Switch size 1, requested type "simple"
  8446                           ; Number of cases is 5, Range of values is 0 to 4
  8447                           ; switch strategies available:
  8448                           ; Name         Instructions Cycles
  8449                           ; direct_byte           16     6 (fixed)
  8450                           ; simple_byte           16     9 (average)
  8451                           ; jumptable            260     6 (fixed)
  8452                           ;	Chosen strategy is simple_byte
  8453  08FD  0870               	movf	??i1_LED_Off,w
  8454  08FE  3A00               	xorlw	0	; case 0
  8455  08FF  1903               	skipnz
  8456  0900  290E               	goto	i1l589
  8457  0901  3A01               	xorlw	1	; case 1
  8458  0902  1903               	skipnz
  8459  0903  28E9               	goto	i1l583
  8460  0904  3A03               	xorlw	3	; case 2
  8461  0905  1903               	skipnz
  8462  0906  28EC               	goto	i1l585
  8463  0907  3A01               	xorlw	1	; case 3
  8464  0908  1903               	skipnz
  8465  0909  28EF               	goto	i1l586
  8466  090A  3A07               	xorlw	7	; case 4
  8467  090B  1903               	skipnz
  8468  090C  28F2               	goto	i1l587
  8469  090D  290E               	goto	i1l589
  8470  090E                     i1l589:
  8471  090E  0008               	return
  8472  090F                     __end_ofi1_LED_Off:
  8473                           
  8474                           	psect	text33
  8475  0804                     __ptext33:	
  8476 ;; *************** function i1_LED_Init *****************
  8477 ;; Defined at:
  8478 ;;		line 75 in file "leds.c"
  8479 ;; Parameters:    Size  Location     Type
  8480 ;;		None
  8481 ;; Auto vars:     Size  Location     Type
  8482 ;;		None
  8483 ;; Return value:  Size  Location     Type
  8484 ;;                  1    wreg      void 
  8485 ;; Registers used:
  8486 ;;		None
  8487 ;; Tracked objects:
  8488 ;;		On entry : 0/0
  8489 ;;		On exit  : 0/0
  8490 ;;		Unchanged: 0/0
  8491 ;; Data sizes:     COMMON   BANK0   BANK1   BANK2   BANK3   BANK4   BANK5   BANK6   BANK7   BANK8   BANK9  BANK10  BANK1
      +1  BANK12
  8492 ;;      Params:         0       0       0       0       0       0       0       0       0       0       0       0       
      +0       0
  8493 ;;      Locals:         0       0       0       0       0       0       0       0       0       0       0       0       
      +0       0
  8494 ;;      Temps:          0       0       0       0       0       0       0       0       0       0       0       0       
      +0       0
  8495 ;;      Totals:         0       0       0       0       0       0       0       0       0       0       0       0       
      +0       0
  8496 ;;Total ram usage:        0 bytes
  8497 ;; Hardware stack levels used: 1
  8498 ;; This function calls:
  8499 ;;		Nothing
  8500 ;; This function is called by:
  8501 ;;		i1_SYSTEM_Initialize
  8502 ;; This function uses a non-reentrant model
  8503 ;;
  8504                           
  8505  0804                     i1_LED_Init:	
  8506                           ;psect for function i1_LED_Init
  8507                           
  8508  0804                     i1l2912:	
  8509                           ;incstack = 0
  8510                           ; Regs used in i1_LED_Init: []
  8511                           
  8512                           
  8513                           ;leds.c: 77:     TRISCbits.TRISC5 = 0;
  8514  0804  0021               	movlb	1	; select bank1
  8515  0805  128E               	bcf	14,5	;volatile
  8516                           
  8517                           ;leds.c: 78:     TRISCbits.TRISC4 = 0;
  8518  0806  120E               	bcf	14,4	;volatile
  8519                           
  8520                           ;leds.c: 79:     TRISCbits.TRISC3 = 0;
  8521  0807  118E               	bcf	14,3	;volatile
  8522                           
  8523                           ;leds.c: 80:     TRISCbits.TRISC6 = 0;
  8524  0808  130E               	bcf	14,6	;volatile
  8525                           
  8526                           ;leds.c: 82:     LATCbits.LATC5 = 0;
  8527  0809  0022               	movlb	2	; select bank2
  8528  080A  128E               	bcf	14,5	;volatile
  8529                           
  8530                           ;leds.c: 83:     LATCbits.LATC4 = 0;
  8531  080B  120E               	bcf	14,4	;volatile
  8532                           
  8533                           ;leds.c: 84:     LATCbits.LATC3 = 0;
  8534  080C  118E               	bcf	14,3	;volatile
  8535                           
  8536                           ;leds.c: 85:     LATCbits.LATC6 = 0;
  8537  080D  130E               	bcf	14,6	;volatile
  8538  080E                     i1l592:
  8539  080E  0008               	return
  8540  080F                     __end_ofi1_LED_Init:
  8541                           
  8542                           	psect	text34
  8543  08BF                     __ptext34:	
  8544 ;; *************** function i1_LED_On *****************
  8545 ;; Defined at:
  8546 ;;		line 26 in file "leds.c"
  8547 ;; Parameters:    Size  Location     Type
  8548 ;;  led             1    wreg     enum E2
  8549 ;; Auto vars:     Size  Location     Type
  8550 ;;  led             1    2[COMMON] enum E2
  8551 ;; Return value:  Size  Location     Type
  8552 ;;                  1    wreg      void 
  8553 ;; Registers used:
  8554 ;;		wreg, fsr0l, fsr0h, status,2, status,0
  8555 ;; Tracked objects:
  8556 ;;		On entry : 0/0
  8557 ;;		On exit  : 0/0
  8558 ;;		Unchanged: 0/0
  8559 ;; Data sizes:     COMMON   BANK0   BANK1   BANK2   BANK3   BANK4   BANK5   BANK6   BANK7   BANK8   BANK9  BANK10  BANK1
      +1  BANK12
  8560 ;;      Params:         0       0       0       0       0       0       0       0       0       0       0       0       
      +0       0
  8561 ;;      Locals:         1       0       0       0       0       0       0       0       0       0       0       0       
      +0       0
  8562 ;;      Temps:          2       0       0       0       0       0       0       0       0       0       0       0       
      +0       0
  8563 ;;      Totals:         3       0       0       0       0       0       0       0       0       0       0       0       
      +0       0
  8564 ;;Total ram usage:        3 bytes
  8565 ;; Hardware stack levels used: 1
  8566 ;; This function calls:
  8567 ;;		Nothing
  8568 ;; This function is called by:
  8569 ;;		_USER_USB_CALLBACK_EVENT_HANDLER
  8570 ;; This function uses a non-reentrant model
  8571 ;;
  8572                           
  8573  08BF                     i1_LED_On:	
  8574                           ;psect for function i1_LED_On
  8575                           
  8576                           
  8577                           ;incstack = 0
  8578                           ; Regs used in i1_LED_On: [wreg-fsr0h+status,2+status,0]
  8579                           ;i1LED_On@led stored from wreg
  8580  08BF  00F2               	movwf	i1LED_On@led
  8581  08C0                     i1l3002:
  8582                           
  8583                           ;leds.c: 26: void LED_On(LED led);leds.c: 27: {;leds.c: 28:     switch(led)
  8584  08C0  28CD               	goto	i1l3006
  8585  08C1                     i1l573:	
  8586                           ;leds.c: 29:     {;leds.c: 30:         case LED_CONNECT:
  8587                           
  8588                           
  8589                           ;leds.c: 31:             LATCbits.LATC5 = 1;
  8590  08C1  0022               	movlb	2	; select bank2
  8591  08C2  168E               	bsf	14,5	;volatile
  8592                           
  8593                           ;leds.c: 32:             break;
  8594  08C3  28E6               	goto	i1l579
  8595  08C4                     i1l575:	
  8596                           ;leds.c: 33:         case LED_SCANNING:
  8597                           
  8598                           
  8599                           ;leds.c: 34:             LATCbits.LATC4 = 1;
  8600  08C4  0022               	movlb	2	; select bank2
  8601  08C5  160E               	bsf	14,4	;volatile
  8602                           
  8603                           ;leds.c: 35:             break;
  8604  08C6  28E6               	goto	i1l579
  8605  08C7                     i1l576:	
  8606                           ;leds.c: 36:         case LED_OK:
  8607                           
  8608                           
  8609                           ;leds.c: 37:             LATCbits.LATC3 = 1;
  8610  08C7  0022               	movlb	2	; select bank2
  8611  08C8  158E               	bsf	14,3	;volatile
  8612                           
  8613                           ;leds.c: 38:             break;
  8614  08C9  28E6               	goto	i1l579
  8615  08CA                     i1l577:	
  8616                           ;leds.c: 39:         case LED_NG:
  8617                           
  8618                           
  8619                           ;leds.c: 40:             LATCbits.LATC6 = 1;
  8620  08CA  0022               	movlb	2	; select bank2
  8621  08CB  170E               	bsf	14,6	;volatile
  8622                           
  8623                           ;leds.c: 41:             break;
  8624  08CC  28E6               	goto	i1l579
  8625  08CD                     i1l3006:
  8626  08CD  0872               	movf	i1LED_On@led,w
  8627  08CE  00F0               	movwf	??i1_LED_On
  8628  08CF  01F1               	clrf	??i1_LED_On+1
  8629                           
  8630                           ; Switch on 2 bytes has been partitioned into a top level switch of size 1, and 1 sub-sw
      +                          itches
  8631                           ; Switch size 1, requested type "simple"
  8632                           ; Number of cases is 1, Range of values is 0 to 0
  8633                           ; switch strategies available:
  8634                           ; Name         Instructions Cycles
  8635                           ; simple_byte            4     3 (average)
  8636                           ; direct_byte            8     6 (fixed)
  8637                           ; jumptable            260     6 (fixed)
  8638                           ;	Chosen strategy is simple_byte
  8639  08D0  0871               	movf	??i1_LED_On+1,w
  8640  08D1  3A00               	xorlw	0	; case 0
  8641  08D2  1903               	skipnz
  8642  08D3  28D5               	goto	i1l5090
  8643  08D4  28E6               	goto	i1l579
  8644  08D5                     i1l5090:
  8645                           
  8646                           ; Switch size 1, requested type "simple"
  8647                           ; Number of cases is 5, Range of values is 0 to 4
  8648                           ; switch strategies available:
  8649                           ; Name         Instructions Cycles
  8650                           ; direct_byte           16     6 (fixed)
  8651                           ; simple_byte           16     9 (average)
  8652                           ; jumptable            260     6 (fixed)
  8653                           ;	Chosen strategy is simple_byte
  8654  08D5  0870               	movf	??i1_LED_On,w
  8655  08D6  3A00               	xorlw	0	; case 0
  8656  08D7  1903               	skipnz
  8657  08D8  28E6               	goto	i1l579
  8658  08D9  3A01               	xorlw	1	; case 1
  8659  08DA  1903               	skipnz
  8660  08DB  28C1               	goto	i1l573
  8661  08DC  3A03               	xorlw	3	; case 2
  8662  08DD  1903               	skipnz
  8663  08DE  28C4               	goto	i1l575
  8664  08DF  3A01               	xorlw	1	; case 3
  8665  08E0  1903               	skipnz
  8666  08E1  28C7               	goto	i1l576
  8667  08E2  3A07               	xorlw	7	; case 4
  8668  08E3  1903               	skipnz
  8669  08E4  28CA               	goto	i1l577
  8670  08E5  28E6               	goto	i1l579
  8671  08E6                     i1l579:
  8672  08E6  0008               	return
  8673  08E7                     __end_ofi1_LED_On:
  8674                           
  8675                           	psect	text35
  8676  06C5                     __ptext35:	
  8677 ;; *************** function _USBCheckHIDRequest *****************
  8678 ;; Defined at:
  8679 ;;		line 161 in file "usb_device_hid.c"
  8680 ;; Parameters:    Size  Location     Type
  8681 ;;		None
  8682 ;; Auto vars:     Size  Location     Type
  8683 ;;		None
  8684 ;; Return value:  Size  Location     Type
  8685 ;;                  1    wreg      void 
  8686 ;; Registers used:
  8687 ;;		wreg, fsr0l, fsr0h, status,2, status,0
  8688 ;; Tracked objects:
  8689 ;;		On entry : 0/0
  8690 ;;		On exit  : 0/0
  8691 ;;		Unchanged: 0/0
  8692 ;; Data sizes:     COMMON   BANK0   BANK1   BANK2   BANK3   BANK4   BANK5   BANK6   BANK7   BANK8   BANK9  BANK10  BANK1
      +1  BANK12
  8693 ;;      Params:         0       0       0       0       0       0       0       0       0       0       0       0       
      +0       0
  8694 ;;      Locals:         0       0       0       0       0       0       0       0       0       0       0       0       
      +0       0
  8695 ;;      Temps:          2       0       0       0       0       0       0       0       0       0       0       0       
      +0       0
  8696 ;;      Totals:         2       0       0       0       0       0       0       0       0       0       0       0       
      +0       0
  8697 ;;Total ram usage:        2 bytes
  8698 ;; Hardware stack levels used: 1
  8699 ;; This function calls:
  8700 ;;		Nothing
  8701 ;; This function is called by:
  8702 ;;		_USER_USB_CALLBACK_EVENT_HANDLER
  8703 ;; This function uses a non-reentrant model
  8704 ;;
  8705                           
  8706  06C5                     _USBCheckHIDRequest:	
  8707                           ;psect for function _USBCheckHIDRequest
  8708                           
  8709  06C5                     i1l2922:	
  8710                           ;incstack = 0
  8711                           ; Regs used in _USBCheckHIDRequest: [wreg-fsr0h+status,2+status,0]
  8712                           
  8713                           
  8714                           ;usb_device_hid.c: 163:     if(SetupPkt.Recipient != (0x01)) return;
  8715  06C5  0020               	movlb	0	; select bank0
  8716  06C6  0840               	movf	64,w	;volatile
  8717  06C7  391F               	andlw	31
  8718  06C8  3A01               	xorlw	1
  8719  06C9  1903               	skipnz
  8720  06CA  2ECC               	goto	u152_21
  8721  06CB  2ECD               	goto	u152_20
  8722  06CC                     u152_21:
  8723  06CC  2ECE               	goto	i1l2926
  8724  06CD                     u152_20:
  8725  06CD  2F63               	goto	i1l523
  8726  06CE                     i1l2926:
  8727                           
  8728                           ;usb_device_hid.c: 164:     if(SetupPkt.bIntfID != 0x00) return;
  8729  06CE  0844               	movf	68,w	;volatile
  8730  06CF  1903               	btfsc	3,2
  8731  06D0  2ED2               	goto	u153_21
  8732  06D1  2ED3               	goto	u153_20
  8733  06D2                     u153_21:
  8734  06D2  2ED4               	goto	i1l2930
  8735  06D3                     u153_20:
  8736  06D3  2F63               	goto	i1l523
  8737  06D4                     i1l2930:
  8738                           
  8739                           ;usb_device_hid.c: 171:     if(SetupPkt.bRequest == 6)
  8740  06D4  3006               	movlw	6
  8741  06D5  0641               	xorwf	65,w	;volatile
  8742  06D6  1D03               	btfss	3,2
  8743  06D7  2ED9               	goto	u154_21
  8744  06D8  2EDA               	goto	u154_20
  8745  06D9                     u154_21:
  8746  06D9  2F0F               	goto	i1l2948
  8747  06DA                     u154_20:
  8748  06DA  2EFC               	goto	i1l2946
  8749  06DB                     i1l2934:
  8750                           
  8751                           ;usb_device_hid.c: 176:                 if(USBActiveConfiguration == 1)
  8752  06DB  0022               	movlb	2	; select bank2
  8753  06DC  036F               	decf	_USBActiveConfiguration^(0+256),w	;volatile
  8754  06DD  1D03               	btfss	3,2
  8755  06DE  2EE0               	goto	u155_21
  8756  06DF  2EE1               	goto	u155_20
  8757  06E0                     u155_21:
  8758  06E0  2F0F               	goto	i1l2948
  8759  06E1                     u155_20:
  8760  06E1                     i1l2936:
  8761                           
  8762                           ;usb_device_hid.c: 177:                 {;usb_device_hid.c: 178:                     { i
      +                          nPipes[0].pSrc.bRom = (const uint8_t*)&configDescriptor1 + 18; inPipes[0].wCount.Val = s
      +                          izeof(USB_HID_DSC)+3; inPipes[0].info.Val = 0x40 | 0x80 | 0x00; };
  8763  06E1  303C               	movlw	low ((_configDescriptor1| (0+32768)+18))
  8764  06E2  0020               	movlb	0	; select bank0
  8765  06E3  00E5               	movwf	_inPipes	;volatile
  8766  06E4  3090               	movlw	high ((_configDescriptor1| (0+32768)+18))
  8767  06E5  00E6               	movwf	_inPipes+1	;volatile
  8768  06E6                     i1l2938:
  8769  06E6  3000               	movlw	0
  8770  06E7  00E9               	movwf	_inPipes+4	;volatile
  8771  06E8  3009               	movlw	9
  8772  06E9  00E8               	movwf	_inPipes+3	;volatile
  8773  06EA  30C0               	movlw	192
  8774  06EB  00F0               	movwf	??_USBCheckHIDRequest
  8775  06EC  0870               	movf	??_USBCheckHIDRequest,w
  8776  06ED  00E7               	movwf	_inPipes+2	;volatile
  8777  06EE  2F0F               	goto	i1l2948
  8778  06EF                     i1l2940:
  8779                           
  8780                           ;usb_device_hid.c: 186:                 {;usb_device_hid.c: 187:                     { i
      +                          nPipes[0].pSrc.bRom = (const uint8_t*)&hid_rpt01; inPipes[0].wCount.Val = 29; inPipes[0]
      +                          .info.Val = 0x40 | 0x80 | 0x00; };
  8781  06EF  3075               	movlw	low (_hid_rpt01| (0+32768))
  8782  06F0  00E5               	movwf	_inPipes	;volatile
  8783  06F1  3090               	movlw	high (_hid_rpt01| (0+32768))
  8784  06F2  00E6               	movwf	_inPipes+1	;volatile
  8785  06F3                     i1l2942:
  8786  06F3  3000               	movlw	0
  8787  06F4  00E9               	movwf	_inPipes+4	;volatile
  8788  06F5  301D               	movlw	29
  8789  06F6  00E8               	movwf	_inPipes+3	;volatile
  8790  06F7  30C0               	movlw	192
  8791  06F8  00F0               	movwf	??_USBCheckHIDRequest
  8792  06F9  0870               	movf	??_USBCheckHIDRequest,w
  8793  06FA  00E7               	movwf	_inPipes+2	;volatile
  8794                           
  8795                           ;usb_device_hid.c: 191:                 };usb_device_hid.c: 192:                 break;
  8796  06FB  2F0F               	goto	i1l2948
  8797  06FC                     i1l2946:
  8798  06FC  0843               	movf	67,w	;volatile
  8799  06FD  00F0               	movwf	??_USBCheckHIDRequest
  8800  06FE  01F1               	clrf	??_USBCheckHIDRequest+1
  8801                           
  8802                           ; Switch on 2 bytes has been partitioned into a top level switch of size 1, and 1 sub-sw
      +                          itches
  8803                           ; Switch size 1, requested type "simple"
  8804                           ; Number of cases is 1, Range of values is 0 to 0
  8805                           ; switch strategies available:
  8806                           ; Name         Instructions Cycles
  8807                           ; simple_byte            4     3 (average)
  8808                           ; direct_byte            8     6 (fixed)
  8809                           ; jumptable            260     6 (fixed)
  8810                           ;	Chosen strategy is simple_byte
  8811  06FF  0871               	movf	??_USBCheckHIDRequest+1,w
  8812  0700  3A00               	xorlw	0	; case 0
  8813  0701  1903               	skipnz
  8814  0702  2F04               	goto	i1l5092
  8815  0703  2F0F               	goto	i1l2948
  8816  0704                     i1l5092:
  8817                           
  8818                           ; Switch size 1, requested type "simple"
  8819                           ; Number of cases is 3, Range of values is 33 to 35
  8820                           ; switch strategies available:
  8821                           ; Name         Instructions Cycles
  8822                           ; simple_byte           10     6 (average)
  8823                           ; direct_byte           15     9 (fixed)
  8824                           ; jumptable            263     9 (fixed)
  8825                           ;	Chosen strategy is simple_byte
  8826  0704  0870               	movf	??_USBCheckHIDRequest,w
  8827  0705  3A21               	xorlw	33	; case 33
  8828  0706  1903               	skipnz
  8829  0707  2EDB               	goto	i1l2934
  8830  0708  3A03               	xorlw	3	; case 34
  8831  0709  1903               	skipnz
  8832  070A  2EEF               	goto	i1l2940
  8833  070B  3A01               	xorlw	1	; case 35
  8834  070C  1903               	skipnz
  8835  070D  2F0F               	goto	i1l2948
  8836  070E  2F0F               	goto	i1l2948
  8837  070F                     i1l2948:
  8838                           
  8839                           ;usb_device_hid.c: 209:     if(SetupPkt.RequestType != (0x20>>5))
  8840  070F  0020               	movlb	0	; select bank0
  8841  0710  0E40               	swapf	64,w	;volatile
  8842  0711  0C89               	rrf	9,f
  8843  0712  3903               	andlw	3
  8844  0713  3A01               	xorlw	1
  8845  0714  1903               	skipnz
  8846  0715  2F17               	goto	u156_21
  8847  0716  2F18               	goto	u156_20
  8848  0717                     u156_21:
  8849  0717  2F47               	goto	i1l2970
  8850  0718                     u156_20:
  8851  0718  2F63               	goto	i1l523
  8852  0719                     i1l2952:
  8853                           
  8854                           ;usb_device_hid.c: 227:             { inPipes[0].pSrc.bRam = (uint8_t*)&idle_rate; inPip
      +                          es[0].wCount.Val = 1; inPipes[0].info.Val = 0x40 | 0x80 | 0x01; };
  8855  0719  30B9               	movlw	low _idle_rate
  8856  071A  00E5               	movwf	_inPipes	;volatile
  8857  071B  3001               	movlw	high _idle_rate
  8858  071C  00E6               	movwf	_inPipes+1	;volatile
  8859  071D                     i1l2954:
  8860  071D  3000               	movlw	0
  8861  071E  00E9               	movwf	_inPipes+4	;volatile
  8862  071F  3001               	movlw	1
  8863  0720  00E8               	movwf	_inPipes+3	;volatile
  8864  0721                     i1l2956:
  8865  0721  30C1               	movlw	193
  8866  0722  00F0               	movwf	??_USBCheckHIDRequest
  8867  0723  0870               	movf	??_USBCheckHIDRequest,w
  8868  0724  00E7               	movwf	_inPipes+2	;volatile
  8869                           
  8870                           ;usb_device_hid.c: 231:             break;
  8871  0725  2F63               	goto	i1l523
  8872  0726                     i1l2958:
  8873                           
  8874                           ;usb_device_hid.c: 233:             inPipes[0].info.Val = 0x00 | 0x80;
  8875  0726  3080               	movlw	128
  8876  0727  00F0               	movwf	??_USBCheckHIDRequest
  8877  0728  0870               	movf	??_USBCheckHIDRequest,w
  8878  0729  00E7               	movwf	_inPipes+2	;volatile
  8879                           
  8880                           ;usb_device_hid.c: 234:             idle_rate = SetupPkt.W_Value.byte.HB;
  8881  072A  0843               	movf	67,w	;volatile
  8882  072B  00F0               	movwf	??_USBCheckHIDRequest
  8883  072C  0870               	movf	??_USBCheckHIDRequest,w
  8884  072D  0023               	movlb	3	; select bank3
  8885  072E  00B9               	movwf	_idle_rate^(0+384)
  8886                           
  8887                           ;usb_device_hid.c: 236:             break;
  8888  072F  2F63               	goto	i1l523
  8889  0730                     i1l2960:
  8890                           
  8891                           ;usb_device_hid.c: 238:             { inPipes[0].pSrc.bRam = (uint8_t*)&active_protocol;
      +                           inPipes[0].wCount.Val = 1; inPipes[0].info.Val = 0x00 | 0x80 | 0x01; };
  8892  0730  30B8               	movlw	low _active_protocol
  8893  0731  00E5               	movwf	_inPipes	;volatile
  8894  0732  3001               	movlw	high _active_protocol
  8895  0733  00E6               	movwf	_inPipes+1	;volatile
  8896  0734                     i1l2962:
  8897  0734  3000               	movlw	0
  8898  0735  00E9               	movwf	_inPipes+4	;volatile
  8899  0736  3001               	movlw	1
  8900  0737  00E8               	movwf	_inPipes+3	;volatile
  8901  0738                     i1l2964:
  8902  0738  3081               	movlw	129
  8903  0739  00F0               	movwf	??_USBCheckHIDRequest
  8904  073A  0870               	movf	??_USBCheckHIDRequest,w
  8905  073B  00E7               	movwf	_inPipes+2	;volatile
  8906                           
  8907                           ;usb_device_hid.c: 242:             break;
  8908  073C  2F63               	goto	i1l523
  8909  073D                     i1l2966:
  8910                           
  8911                           ;usb_device_hid.c: 244:             inPipes[0].info.Val = 0x00 | 0x80;
  8912  073D  3080               	movlw	128
  8913  073E  00F0               	movwf	??_USBCheckHIDRequest
  8914  073F  0870               	movf	??_USBCheckHIDRequest,w
  8915  0740  00E7               	movwf	_inPipes+2	;volatile
  8916                           
  8917                           ;usb_device_hid.c: 245:             active_protocol = SetupPkt.W_Value.byte.LB;
  8918  0741  0842               	movf	66,w	;volatile
  8919  0742  00F0               	movwf	??_USBCheckHIDRequest
  8920  0743  0870               	movf	??_USBCheckHIDRequest,w
  8921  0744  0023               	movlb	3	; select bank3
  8922  0745  00B8               	movwf	_active_protocol^(0+384)
  8923                           
  8924                           ;usb_device_hid.c: 246:             break;
  8925  0746  2F63               	goto	i1l523
  8926  0747                     i1l2970:
  8927  0747  0841               	movf	65,w	;volatile
  8928  0748  00F0               	movwf	??_USBCheckHIDRequest
  8929  0749  01F1               	clrf	??_USBCheckHIDRequest+1
  8930                           
  8931                           ; Switch on 2 bytes has been partitioned into a top level switch of size 1, and 1 sub-sw
      +                          itches
  8932                           ; Switch size 1, requested type "simple"
  8933                           ; Number of cases is 1, Range of values is 0 to 0
  8934                           ; switch strategies available:
  8935                           ; Name         Instructions Cycles
  8936                           ; simple_byte            4     3 (average)
  8937                           ; direct_byte            8     6 (fixed)
  8938                           ; jumptable            260     6 (fixed)
  8939                           ;	Chosen strategy is simple_byte
  8940  074A  0871               	movf	??_USBCheckHIDRequest+1,w
  8941  074B  3A00               	xorlw	0	; case 0
  8942  074C  1903               	skipnz
  8943  074D  2F4F               	goto	i1l5094
  8944  074E  2F63               	goto	i1l523
  8945  074F                     i1l5094:
  8946                           
  8947                           ; Switch size 1, requested type "simple"
  8948                           ; Number of cases is 6, Range of values is 1 to 11
  8949                           ; switch strategies available:
  8950                           ; Name         Instructions Cycles
  8951                           ; simple_byte           19    10 (average)
  8952                           ; direct_byte           31     9 (fixed)
  8953                           ; jumptable            263     9 (fixed)
  8954                           ;	Chosen strategy is simple_byte
  8955  074F  0870               	movf	??_USBCheckHIDRequest,w
  8956  0750  3A01               	xorlw	1	; case 1
  8957  0751  1903               	skipnz
  8958  0752  2F63               	goto	i1l523
  8959  0753  3A03               	xorlw	3	; case 2
  8960  0754  1903               	skipnz
  8961  0755  2F19               	goto	i1l2952
  8962  0756  3A01               	xorlw	1	; case 3
  8963  0757  1903               	skipnz
  8964  0758  2F30               	goto	i1l2960
  8965  0759  3A0A               	xorlw	10	; case 9
  8966  075A  1903               	skipnz
  8967  075B  2F63               	goto	i1l523
  8968  075C  3A03               	xorlw	3	; case 10
  8969  075D  1903               	skipnz
  8970  075E  2F26               	goto	i1l2958
  8971  075F  3A01               	xorlw	1	; case 11
  8972  0760  1903               	skipnz
  8973  0761  2F3D               	goto	i1l2966
  8974  0762  2F63               	goto	i1l523
  8975  0763                     i1l523:
  8976  0763  0008               	return
  8977  0764                     __end_of_USBCheckHIDRequest:
  8978                           
  8979                           	psect	text36
  8980  081A                     __ptext36:	
  8981 ;; *************** function _APP_DeviceCustomHIDInitialize *****************
  8982 ;; Defined at:
  8983 ;;		line 40 in file "app_device_custom_hid.c"
  8984 ;; Parameters:    Size  Location     Type
  8985 ;;		None
  8986 ;; Auto vars:     Size  Location     Type
  8987 ;;		None
  8988 ;; Return value:  Size  Location     Type
  8989 ;;                  1    wreg      void 
  8990 ;; Registers used:
  8991 ;;		wreg, fsr1l, fsr1h, status,2, status,0, pclath, cstack
  8992 ;; Tracked objects:
  8993 ;;		On entry : 0/0
  8994 ;;		On exit  : 0/0
  8995 ;;		Unchanged: 0/0
  8996 ;; Data sizes:     COMMON   BANK0   BANK1   BANK2   BANK3   BANK4   BANK5   BANK6   BANK7   BANK8   BANK9  BANK10  BANK1
      +1  BANK12
  8997 ;;      Params:         0       0       0       0       0       0       0       0       0       0       0       0       
      +0       0
  8998 ;;      Locals:         0       0       0       0       0       0       0       0       0       0       0       0       
      +0       0
  8999 ;;      Temps:          1       0       0       0       0       0       0       0       0       0       0       0       
      +0       0
  9000 ;;      Totals:         1       0       0       0       0       0       0       0       0       0       0       0       
      +0       0
  9001 ;;Total ram usage:        1 bytes
  9002 ;; Hardware stack levels used: 1
  9003 ;; Hardware stack levels required when called: 2
  9004 ;; This function calls:
  9005 ;;		_USBEnableEndpoint
  9006 ;;		i1_USBTransferOnePacket
  9007 ;; This function is called by:
  9008 ;;		_USER_USB_CALLBACK_EVENT_HANDLER
  9009 ;; This function uses a non-reentrant model
  9010 ;;
  9011                           
  9012  081A                     _APP_DeviceCustomHIDInitialize:	
  9013                           ;psect for function _APP_DeviceCustomHIDInitialize
  9014                           
  9015  081A                     i1l2916:	
  9016                           ;incstack = 0
  9017                           ; Regs used in _APP_DeviceCustomHIDInitialize: [wreg+fsr1l+fsr1h+status,2+status,0+pclat
      +                          h+cstack]
  9018                           
  9019                           
  9020                           ;app_device_custom_hid.c: 44:     USBInHandle = 0;
  9021  081A  0023               	movlb	3	; select bank3
  9022  081B  01AA               	clrf	_USBInHandle^(0+384)
  9023  081C  01AB               	clrf	(_USBInHandle+1)^(0+384)
  9024  081D                     i1l2918:
  9025                           
  9026                           ;app_device_custom_hid.c: 47:     USBEnableEndpoint(1, 0x02|0x04|0x10|0x08);
  9027  081D  301E               	movlw	30
  9028  081E  00FD               	movwf	??_APP_DeviceCustomHIDInitialize
  9029  081F  087D               	movf	??_APP_DeviceCustomHIDInitialize,w
  9030  0820  00F7               	movwf	USBEnableEndpoint@options
  9031  0821  3001               	movlw	1
  9032  0822  3188  209A  3188   	fcall	_USBEnableEndpoint
  9033  0825                     i1l2920:
  9034                           
  9035                           ;app_device_custom_hid.c: 50:     USBOutHandle = (volatile void*)USBTransferOnePacket(1,
      +                          0,(uint8_t*)&ReceivedDataBuffer[0],64);
  9036  0825  01F0               	clrf	i1USBTransferOnePacket@dir
  9037  0826  30A0               	movlw	160
  9038  0827  00F1               	movwf	i1USBTransferOnePacket@data
  9039  0828  3000               	movlw	0
  9040  0829  00F2               	movwf	i1USBTransferOnePacket@data+1
  9041  082A  3040               	movlw	64
  9042  082B  00FD               	movwf	??_APP_DeviceCustomHIDInitialize
  9043  082C  087D               	movf	??_APP_DeviceCustomHIDInitialize,w
  9044  082D  00F3               	movwf	i1USBTransferOnePacket@len
  9045  082E  3001               	movlw	1
  9046  082F  318E  26F1  3188   	fcall	i1_USBTransferOnePacket
  9047  0832  0871               	movf	?i1_USBTransferOnePacket+1,w
  9048  0833  0023               	movlb	3	; select bank3
  9049  0834  00AD               	movwf	(_USBOutHandle+1)^(0+384)
  9050  0835  0870               	movf	?i1_USBTransferOnePacket,w
  9051  0836  00AC               	movwf	_USBOutHandle^(0+384)
  9052  0837                     i1l25:
  9053  0837  0008               	return
  9054  0838                     __end_of_APP_DeviceCustomHIDInitialize:
  9055                           
  9056                           	psect	text37
  9057  0EF1                     __ptext37:	
  9058 ;; *************** function i1_USBTransferOnePacket *****************
  9059 ;; Defined at:
  9060 ;;		line 999 in file "usb_device.c"
  9061 ;; Parameters:    Size  Location     Type
  9062 ;;  ep              1    wreg     unsigned char 
  9063 ;;  dir             1    0[COMMON] unsigned char 
  9064 ;;  data            2    1[COMMON] PTR unsigned char 
  9065 ;;		 -> ToSendDataBuffer(64), ReceivedDataBuffer(64), 
  9066 ;;  len             1    3[COMMON] unsigned char 
  9067 ;; Auto vars:     Size  Location     Type
  9068 ;;  ep              1    8[COMMON] unsigned char 
  9069 ;;  handle          2    9[COMMON] PTR volatile struct __BD
  9070 ;;		 -> RAM(4096), BDT(32), NULL(0), 
  9071 ;; Return value:  Size  Location     Type
  9072 ;;                  2    0[COMMON] PTR void 
  9073 ;; Registers used:
  9074 ;;		wreg, fsr1l, fsr1h, status,2, status,0
  9075 ;; Tracked objects:
  9076 ;;		On entry : 0/0
  9077 ;;		On exit  : 0/0
  9078 ;;		Unchanged: 0/0
  9079 ;; Data sizes:     COMMON   BANK0   BANK1   BANK2   BANK3   BANK4   BANK5   BANK6   BANK7   BANK8   BANK9  BANK10  BANK1
      +1  BANK12
  9080 ;;      Params:         4       0       0       0       0       0       0       0       0       0       0       0       
      +0       0
  9081 ;;      Locals:         3       0       0       0       0       0       0       0       0       0       0       0       
      +0       0
  9082 ;;      Temps:          4       0       0       0       0       0       0       0       0       0       0       0       
      +0       0
  9083 ;;      Totals:        11       0       0       0       0       0       0       0       0       0       0       0       
      +0       0
  9084 ;;Total ram usage:       11 bytes
  9085 ;; Hardware stack levels used: 1
  9086 ;; This function calls:
  9087 ;;		Nothing
  9088 ;; This function is called by:
  9089 ;;		_APP_DeviceCustomHIDInitialize
  9090 ;; This function uses a non-reentrant model
  9091 ;;
  9092                           
  9093  0EF1                     i1_USBTransferOnePacket:	
  9094                           ;psect for function i1_USBTransferOnePacket
  9095                           
  9096                           
  9097                           ;incstack = 0
  9098                           ; Regs used in i1_USBTransferOnePacket: [wreg+fsr1l+fsr1h+status,2+status,0]
  9099                           ;i1USBTransferOnePacket@ep stored from wreg
  9100  0EF1  00F8               	movwf	i1USBTransferOnePacket@ep
  9101  0EF2                     i1l2874:
  9102                           
  9103                           ;usb_device.c: 999: void* USBTransferOnePacket(uint8_t ep,uint8_t dir,uint8_t* data,uint
      +                          8_t len);usb_device.c: 1000: {;usb_device.c: 1001:     volatile BDT_ENTRY* handle;;usb_d
      +                          evice.c: 1004:     if(dir != 0)
  9104  0EF2  0870               	movf	i1USBTransferOnePacket@dir,w
  9105  0EF3  1903               	btfsc	3,2
  9106  0EF4  2EF6               	goto	u149_21
  9107  0EF5  2EF7               	goto	u149_20
  9108  0EF6                     u149_21:
  9109  0EF6  2F00               	goto	i1l2878
  9110  0EF7                     u149_20:
  9111  0EF7                     i1l2876:
  9112                           
  9113                           ;usb_device.c: 1005:     {;usb_device.c: 1007:         handle = pBDTEntryIn[ep];
  9114  0EF7  3578               	lslf	i1USBTransferOnePacket@ep,w
  9115  0EF8  3E6A               	addlw	(low (_pBDTEntryIn| 0))& (0+255)
  9116  0EF9  0086               	movwf	6
  9117  0EFA  0187               	clrf	7
  9118  0EFB  3F40               	moviw [0]fsr1
  9119  0EFC  00F9               	movwf	i1USBTransferOnePacket@handle
  9120  0EFD  3F41               	moviw [1]fsr1
  9121  0EFE  00FA               	movwf	i1USBTransferOnePacket@handle+1
  9122                           
  9123                           ;usb_device.c: 1008:     }
  9124  0EFF  2F09               	goto	i1l2880
  9125  0F00                     i1l2878:
  9126                           
  9127                           ;usb_device.c: 1010:     {;usb_device.c: 1012:         handle = pBDTEntryOut[ep];
  9128  0F00  3578               	lslf	i1USBTransferOnePacket@ep,w
  9129  0F01  3EA4               	addlw	(low (_pBDTEntryOut| (0+256)))& (0+255)
  9130  0F02  0086               	movwf	6
  9131  0F03  3001               	movlw	1	; select bank3/4
  9132  0F04  0087               	movwf	7
  9133  0F05  3F40               	moviw [0]fsr1
  9134  0F06  00F9               	movwf	i1USBTransferOnePacket@handle
  9135  0F07  3F41               	moviw [1]fsr1
  9136  0F08  00FA               	movwf	i1USBTransferOnePacket@handle+1
  9137  0F09                     i1l2880:
  9138                           
  9139                           ;usb_device.c: 1017:     if(handle == 0)
  9140  0F09  0879               	movf	i1USBTransferOnePacket@handle,w
  9141  0F0A  047A               	iorwf	i1USBTransferOnePacket@handle+1,w
  9142  0F0B  1D03               	btfss	3,2
  9143  0F0C  2F0E               	goto	u150_21
  9144  0F0D  2F0F               	goto	u150_20
  9145  0F0E                     u150_21:
  9146  0F0E  2F12               	goto	i1l2886
  9147  0F0F                     u150_20:
  9148  0F0F                     i1l2882:
  9149                           
  9150                           ;usb_device.c: 1018:     {;usb_device.c: 1019:         return 0;
  9151  0F0F  01F0               	clrf	?i1_USBTransferOnePacket
  9152  0F10  01F1               	clrf	?i1_USBTransferOnePacket+1
  9153  0F11  2F77               	goto	i1l285
  9154  0F12                     i1l2886:
  9155                           
  9156                           ;usb_device.c: 1033:     handle->ADR = (((uint16_t)(data)) & 0x7FFF);
  9157  0F12  30FF               	movlw	255
  9158  0F13  0571               	andwf	i1USBTransferOnePacket@data,w
  9159  0F14  00F4               	movwf	??i1_USBTransferOnePacket
  9160  0F15  307F               	movlw	127
  9161  0F16  0572               	andwf	i1USBTransferOnePacket@data+1,w
  9162  0F17  00F5               	movwf	??i1_USBTransferOnePacket+1
  9163  0F18  0879               	movf	i1USBTransferOnePacket@handle,w
  9164  0F19  0086               	movwf	6
  9165  0F1A  087A               	movf	i1USBTransferOnePacket@handle+1,w
  9166  0F1B  0087               	movwf	7
  9167  0F1C  3142               	addfsr 1,2
  9168  0F1D  0874               	movf	??i1_USBTransferOnePacket,w
  9169  0F1E  3FC0               	movwi [0]fsr1
  9170  0F1F  0875               	movf	??i1_USBTransferOnePacket+1,w
  9171  0F20  3FC1               	movwi [1]fsr1
  9172  0F21                     i1l2888:
  9173                           
  9174                           ;usb_device.c: 1034:     handle->CNT = len;
  9175  0F21  0879               	movf	i1USBTransferOnePacket@handle,w
  9176  0F22  3E01               	addlw	1
  9177  0F23  00F4               	movwf	??i1_USBTransferOnePacket
  9178  0F24  3000               	movlw	0
  9179  0F25  3D7A               	addwfc	i1USBTransferOnePacket@handle+1,w
  9180  0F26  00F5               	movwf	??i1_USBTransferOnePacket+1
  9181  0F27  0874               	movf	??i1_USBTransferOnePacket,w
  9182  0F28  0086               	movwf	6
  9183  0F29  0875               	movf	??i1_USBTransferOnePacket+1,w
  9184  0F2A  0087               	movwf	7
  9185  0F2B  0873               	movf	i1USBTransferOnePacket@len,w
  9186  0F2C  0081               	movwf	1
  9187  0F2D                     i1l2890:
  9188                           
  9189                           ;usb_device.c: 1035:     handle->STAT.Val &= 0x40;
  9190  0F2D  3040               	movlw	64
  9191  0F2E  00F4               	movwf	??i1_USBTransferOnePacket
  9192  0F2F  0879               	movf	i1USBTransferOnePacket@handle,w
  9193  0F30  0086               	movwf	6
  9194  0F31  087A               	movf	i1USBTransferOnePacket@handle+1,w
  9195  0F32  0087               	movwf	7
  9196  0F33  0874               	movf	??i1_USBTransferOnePacket,w
  9197  0F34  0581               	andwf	1,f
  9198                           
  9199                           ;usb_device.c: 1036:     handle->STAT.Val |= (0x08 & 0x08);
  9200  0F35  0879               	movf	i1USBTransferOnePacket@handle,w
  9201  0F36  0086               	movwf	6
  9202  0F37  087A               	movf	i1USBTransferOnePacket@handle+1,w
  9203  0F38  0087               	movwf	7
  9204  0F39  1581               	bsf	1,3
  9205                           
  9206                           ;usb_device.c: 1037:     handle->STAT.Val |= 0x80;
  9207  0F3A  0879               	movf	i1USBTransferOnePacket@handle,w
  9208  0F3B  0086               	movwf	6
  9209  0F3C  087A               	movf	i1USBTransferOnePacket@handle+1,w
  9210  0F3D  0087               	movwf	7
  9211  0F3E  1781               	bsf	1,7
  9212  0F3F                     i1l2892:
  9213                           
  9214                           ;usb_device.c: 1040:     if(dir != 0)
  9215  0F3F  0870               	movf	i1USBTransferOnePacket@dir,w
  9216  0F40  1903               	btfsc	3,2
  9217  0F41  2F43               	goto	u151_21
  9218  0F42  2F44               	goto	u151_20
  9219  0F43                     u151_21:
  9220  0F43  2F5B               	goto	i1l2896
  9221  0F44                     u151_20:
  9222  0F44                     i1l2894:
  9223                           
  9224                           ;usb_device.c: 1041:     {;usb_device.c: 1043:         pBDTEntryIn[ep] = (BDT_ENTRY*)(((
      +                          uint16_t)pBDTEntryIn[ep]) ^ 0x0004);
  9225  0F44  3578               	lslf	i1USBTransferOnePacket@ep,w
  9226  0F45  3E6A               	addlw	(low (_pBDTEntryIn| 0))& (0+255)
  9227  0F46  0086               	movwf	6
  9228  0F47  0187               	clrf	7
  9229  0F48  3F40               	moviw [0]fsr1
  9230  0F49  00F4               	movwf	??i1_USBTransferOnePacket
  9231  0F4A  3F41               	moviw [1]fsr1
  9232  0F4B  00F5               	movwf	??i1_USBTransferOnePacket+1
  9233  0F4C  3004               	movlw	4
  9234  0F4D  0674               	xorwf	??i1_USBTransferOnePacket,w
  9235  0F4E  00F6               	movwf	??i1_USBTransferOnePacket+2
  9236  0F4F  3000               	movlw	0
  9237  0F50  0675               	xorwf	??i1_USBTransferOnePacket+1,w
  9238  0F51  00F7               	movwf	??i1_USBTransferOnePacket+3
  9239  0F52  3578               	lslf	i1USBTransferOnePacket@ep,w
  9240  0F53  3E6A               	addlw	(low (_pBDTEntryIn| 0))& (0+255)
  9241  0F54  0086               	movwf	6
  9242  0F55  0187               	clrf	7
  9243  0F56  0876               	movf	??i1_USBTransferOnePacket+2,w
  9244  0F57  3FC0               	movwi [0]fsr1
  9245  0F58  0877               	movf	??i1_USBTransferOnePacket+3,w
  9246  0F59  3FC1               	movwi [1]fsr1
  9247                           
  9248                           ;usb_device.c: 1044:     }
  9249  0F5A  2F73               	goto	i1l2898
  9250  0F5B                     i1l2896:
  9251                           
  9252                           ;usb_device.c: 1046:     {;usb_device.c: 1048:         pBDTEntryOut[ep] = (BDT_ENTRY*)((
      +                          (uint16_t)pBDTEntryOut[ep]) ^ 0x0004);
  9253  0F5B  3578               	lslf	i1USBTransferOnePacket@ep,w
  9254  0F5C  3EA4               	addlw	(low (_pBDTEntryOut| (0+256)))& (0+255)
  9255  0F5D  0086               	movwf	6
  9256  0F5E  3001               	movlw	1	; select bank3/4
  9257  0F5F  0087               	movwf	7
  9258  0F60  3F40               	moviw [0]fsr1
  9259  0F61  00F4               	movwf	??i1_USBTransferOnePacket
  9260  0F62  3F41               	moviw [1]fsr1
  9261  0F63  00F5               	movwf	??i1_USBTransferOnePacket+1
  9262  0F64  3004               	movlw	4
  9263  0F65  0674               	xorwf	??i1_USBTransferOnePacket,w
  9264  0F66  00F6               	movwf	??i1_USBTransferOnePacket+2
  9265  0F67  3000               	movlw	0
  9266  0F68  0675               	xorwf	??i1_USBTransferOnePacket+1,w
  9267  0F69  00F7               	movwf	??i1_USBTransferOnePacket+3
  9268  0F6A  3578               	lslf	i1USBTransferOnePacket@ep,w
  9269  0F6B  3EA4               	addlw	(low (_pBDTEntryOut| (0+256)))& (0+255)
  9270  0F6C  0086               	movwf	6
  9271  0F6D  3001               	movlw	1	; select bank3/4
  9272  0F6E  0087               	movwf	7
  9273  0F6F  0876               	movf	??i1_USBTransferOnePacket+2,w
  9274  0F70  3FC0               	movwi [0]fsr1
  9275  0F71  0877               	movf	??i1_USBTransferOnePacket+3,w
  9276  0F72  3FC1               	movwi [1]fsr1
  9277  0F73                     i1l2898:
  9278                           
  9279                           ;usb_device.c: 1050:     return (void*)handle;
  9280  0F73  087A               	movf	i1USBTransferOnePacket@handle+1,w
  9281  0F74  00F1               	movwf	?i1_USBTransferOnePacket+1
  9282  0F75  0879               	movf	i1USBTransferOnePacket@handle,w
  9283  0F76  00F0               	movwf	?i1_USBTransferOnePacket
  9284  0F77                     i1l285:
  9285  0F77  0008               	return
  9286  0F78                     __end_ofi1_USBTransferOnePacket:
  9287                           
  9288                           	psect	text38
  9289  089A                     __ptext38:	
  9290 ;; *************** function _USBEnableEndpoint *****************
  9291 ;; Defined at:
  9292 ;;		line 882 in file "usb_device.c"
  9293 ;; Parameters:    Size  Location     Type
  9294 ;;  ep              1    wreg     unsigned char 
  9295 ;;  options         1    7[COMMON] unsigned char 
  9296 ;; Auto vars:     Size  Location     Type
  9297 ;;  ep              1   12[COMMON] unsigned char 
  9298 ;;  p               2   10[COMMON] PTR unsigned char 
  9299 ;;		 -> UEP0(1), 
  9300 ;; Return value:  Size  Location     Type
  9301 ;;                  1    wreg      void 
  9302 ;; Registers used:
  9303 ;;		wreg, fsr1l, fsr1h, status,2, status,0, pclath, cstack
  9304 ;; Tracked objects:
  9305 ;;		On entry : 0/0
  9306 ;;		On exit  : 0/0
  9307 ;;		Unchanged: 0/0
  9308 ;; Data sizes:     COMMON   BANK0   BANK1   BANK2   BANK3   BANK4   BANK5   BANK6   BANK7   BANK8   BANK9  BANK10  BANK1
      +1  BANK12
  9309 ;;      Params:         1       0       0       0       0       0       0       0       0       0       0       0       
      +0       0
  9310 ;;      Locals:         3       0       0       0       0       0       0       0       0       0       0       0       
      +0       0
  9311 ;;      Temps:          2       0       0       0       0       0       0       0       0       0       0       0       
      +0       0
  9312 ;;      Totals:         6       0       0       0       0       0       0       0       0       0       0       0       
      +0       0
  9313 ;;Total ram usage:        6 bytes
  9314 ;; Hardware stack levels used: 1
  9315 ;; Hardware stack levels required when called: 1
  9316 ;; This function calls:
  9317 ;;		_USBConfigureEndpoint
  9318 ;; This function is called by:
  9319 ;;		_APP_DeviceCustomHIDInitialize
  9320 ;; This function uses a non-reentrant model
  9321 ;;
  9322                           
  9323  089A                     _USBEnableEndpoint:	
  9324                           ;psect for function _USBEnableEndpoint
  9325                           
  9326                           
  9327                           ;incstack = 0
  9328                           ; Regs used in _USBEnableEndpoint: [wreg+fsr1l+fsr1h+status,2+status,0+pclath+cstack]
  9329                           ;USBEnableEndpoint@ep stored from wreg
  9330  089A  00FC               	movwf	USBEnableEndpoint@ep
  9331  089B                     i1l2862:
  9332                           
  9333                           ;usb_device.c: 882: void USBEnableEndpoint(uint8_t ep, uint8_t options);usb_device.c: 88
      +                          3: {;usb_device.c: 884:     unsigned char* p;;usb_device.c: 888:     if(options & 0x04)
  9334  089B  1D77               	btfss	USBEnableEndpoint@options,2
  9335  089C  289E               	goto	u147_21
  9336  089D  289F               	goto	u147_20
  9337  089E                     u147_21:
  9338  089E  28A4               	goto	i1l2866
  9339  089F                     u147_20:
  9340  089F                     i1l2864:
  9341                           
  9342                           ;usb_device.c: 889:     {;usb_device.c: 890:         USBConfigureEndpoint(ep, 0);
  9343  089F  01F0               	clrf	USBConfigureEndpoint@direction
  9344  08A0  087C               	movf	USBEnableEndpoint@ep,w
  9345  08A1  318A  2276  3188   	fcall	_USBConfigureEndpoint
  9346  08A4                     i1l2866:
  9347                           
  9348                           ;usb_device.c: 892:     if(options & 0x02)
  9349  08A4  1CF7               	btfss	USBEnableEndpoint@options,1
  9350  08A5  28A7               	goto	u148_21
  9351  08A6  28A8               	goto	u148_20
  9352  08A7                     u148_21:
  9353  08A7  28AE               	goto	i1l2870
  9354  08A8                     u148_20:
  9355  08A8                     i1l2868:
  9356                           
  9357                           ;usb_device.c: 893:     {;usb_device.c: 894:         USBConfigureEndpoint(ep, 1);
  9358  08A8  01F0               	clrf	USBConfigureEndpoint@direction
  9359  08A9  0AF0               	incf	USBConfigureEndpoint@direction,f
  9360  08AA  087C               	movf	USBEnableEndpoint@ep,w
  9361  08AB  318A  2276  3188   	fcall	_USBConfigureEndpoint
  9362  08AE                     i1l2870:
  9363                           
  9364                           ;usb_device.c: 903:         p = (unsigned char*)(&UEP0+ep);
  9365  08AE  087C               	movf	USBEnableEndpoint@ep,w
  9366  08AF  3E98               	addlw	152
  9367  08B0  00F8               	movwf	??_USBEnableEndpoint
  9368  08B1  01F9               	clrf	??_USBEnableEndpoint+1
  9369  08B2  300E               	movlw	14
  9370  08B3  3DF9               	addwfc	??_USBEnableEndpoint+1,f
  9371  08B4  0878               	movf	??_USBEnableEndpoint,w
  9372  08B5  00FA               	movwf	USBEnableEndpoint@p
  9373  08B6  0879               	movf	??_USBEnableEndpoint+1,w
  9374  08B7  00FB               	movwf	USBEnableEndpoint@p+1
  9375  08B8                     i1l2872:
  9376                           
  9377                           ;usb_device.c: 905:     *p = options;
  9378  08B8  087A               	movf	USBEnableEndpoint@p,w
  9379  08B9  0086               	movwf	6
  9380  08BA  087B               	movf	USBEnableEndpoint@p+1,w
  9381  08BB  0087               	movwf	7
  9382  08BC  0877               	movf	USBEnableEndpoint@options,w
  9383  08BD  0081               	movwf	1
  9384  08BE                     i1l279:
  9385  08BE  0008               	return
  9386  08BF                     __end_of_USBEnableEndpoint:
  9387                           
  9388                           	psect	text39
  9389  0A76                     __ptext39:	
  9390 ;; *************** function _USBConfigureEndpoint *****************
  9391 ;; Defined at:
  9392 ;;		line 1547 in file "usb_device.c"
  9393 ;; Parameters:    Size  Location     Type
  9394 ;;  EPNum           1    wreg     unsigned char 
  9395 ;;  direction       1    0[COMMON] unsigned char 
  9396 ;; Auto vars:     Size  Location     Type
  9397 ;;  EPNum           1    5[COMMON] unsigned char 
  9398 ;;  handle          1    6[COMMON] PTR volatile struct __BD
  9399 ;;		 -> BDT(32), 
  9400 ;; Return value:  Size  Location     Type
  9401 ;;                  1    wreg      void 
  9402 ;; Registers used:
  9403 ;;		wreg, fsr1l, fsr1h, status,2, status,0
  9404 ;; Tracked objects:
  9405 ;;		On entry : 0/0
  9406 ;;		On exit  : 0/0
  9407 ;;		Unchanged: 0/0
  9408 ;; Data sizes:     COMMON   BANK0   BANK1   BANK2   BANK3   BANK4   BANK5   BANK6   BANK7   BANK8   BANK9  BANK10  BANK1
      +1  BANK12
  9409 ;;      Params:         1       0       0       0       0       0       0       0       0       0       0       0       
      +0       0
  9410 ;;      Locals:         2       0       0       0       0       0       0       0       0       0       0       0       
      +0       0
  9411 ;;      Temps:          4       0       0       0       0       0       0       0       0       0       0       0       
      +0       0
  9412 ;;      Totals:         7       0       0       0       0       0       0       0       0       0       0       0       
      +0       0
  9413 ;;Total ram usage:        7 bytes
  9414 ;; Hardware stack levels used: 1
  9415 ;; This function calls:
  9416 ;;		Nothing
  9417 ;; This function is called by:
  9418 ;;		_USBEnableEndpoint
  9419 ;; This function uses a non-reentrant model
  9420 ;;
  9421                           
  9422  0A76                     _USBConfigureEndpoint:	
  9423                           ;psect for function _USBConfigureEndpoint
  9424                           
  9425                           
  9426                           ;incstack = 0
  9427                           ; Regs used in _USBConfigureEndpoint: [wreg+fsr1l+fsr1h+status,2+status,0]
  9428                           ;USBConfigureEndpoint@EPNum stored from wreg
  9429  0A76  00F5               	movwf	USBConfigureEndpoint@EPNum
  9430  0A77                     i1l2846:
  9431                           
  9432                           ;usb_device.c: 1547: static void USBConfigureEndpoint(uint8_t EPNum, uint8_t direction);
      +                          usb_device.c: 1548: {;usb_device.c: 1549:     volatile BDT_ENTRY* handle;;usb_device.c: 
      +                          1553:     handle = (volatile BDT_ENTRY*)&BDT[0];
  9433  0A77  3020               	movlw	32
  9434  0A78  00F1               	movwf	??_USBConfigureEndpoint
  9435  0A79  0871               	movf	??_USBConfigureEndpoint,w
  9436  0A7A  00F6               	movwf	USBConfigureEndpoint@handle
  9437  0A7B                     i1l2848:
  9438                           
  9439                           ;usb_device.c: 1554:     handle += (4*EPNum+2*direction+0u);
  9440  0A7B  0870               	movf	USBConfigureEndpoint@direction,w
  9441  0A7C  00F1               	movwf	??_USBConfigureEndpoint
  9442  0A7D  3001               	movlw	1
  9443  0A7E                     u143_25:
  9444  0A7E  35F1               	lslf	??_USBConfigureEndpoint,f
  9445  0A7F  0B89               	decfsz	9,f
  9446  0A80  2A7E               	goto	u143_25
  9447  0A81  0875               	movf	USBConfigureEndpoint@EPNum,w
  9448  0A82  00F2               	movwf	??_USBConfigureEndpoint+1
  9449  0A83  3001               	movlw	1
  9450  0A84                     u144_25:
  9451  0A84  35F2               	lslf	??_USBConfigureEndpoint+1,f
  9452  0A85  3EFF               	addlw	-1
  9453  0A86  1D03               	skipz
  9454  0A87  2A84               	goto	u144_25
  9455  0A88  3572               	lslf	??_USBConfigureEndpoint+1,w
  9456  0A89  0771               	addwf	??_USBConfigureEndpoint,w
  9457  0A8A  00F3               	movwf	??_USBConfigureEndpoint+2
  9458  0A8B  3001               	movlw	1
  9459  0A8C                     u145_25:
  9460  0A8C  35F3               	lslf	??_USBConfigureEndpoint+2,f
  9461  0A8D  3EFF               	addlw	-1
  9462  0A8E  1D03               	skipz
  9463  0A8F  2A8C               	goto	u145_25
  9464  0A90  3573               	lslf	??_USBConfigureEndpoint+2,w
  9465  0A91  00F4               	movwf	??_USBConfigureEndpoint+3
  9466  0A92  0874               	movf	??_USBConfigureEndpoint+3,w
  9467  0A93  07F6               	addwf	USBConfigureEndpoint@handle,f
  9468  0A94                     i1l2850:
  9469                           
  9470                           ;usb_device.c: 1556:     handle->STAT.UOWN = 0;
  9471  0A94  0876               	movf	USBConfigureEndpoint@handle,w
  9472  0A95  0086               	movwf	6
  9473  0A96  0187               	clrf	7
  9474  0A97  1381               	bcf	1,7
  9475  0A98                     i1l2852:
  9476                           
  9477                           ;usb_device.c: 1561:     if(direction == 0)
  9478  0A98  0870               	movf	USBConfigureEndpoint@direction,w
  9479  0A99  1D03               	btfss	3,2
  9480  0A9A  2A9C               	goto	u146_21
  9481  0A9B  2A9D               	goto	u146_20
  9482  0A9C                     u146_21:
  9483  0A9C  2AA7               	goto	i1l2856
  9484  0A9D                     u146_20:
  9485  0A9D                     i1l2854:
  9486                           
  9487                           ;usb_device.c: 1562:     {;usb_device.c: 1563:         pBDTEntryOut[EPNum] = handle;
  9488  0A9D  3575               	lslf	USBConfigureEndpoint@EPNum,w
  9489  0A9E  3EA4               	addlw	(low (_pBDTEntryOut| (0+256)))& (0+255)
  9490  0A9F  0086               	movwf	6
  9491  0AA0  3001               	movlw	1	; select bank3/4
  9492  0AA1  0087               	movwf	7
  9493  0AA2  0876               	movf	USBConfigureEndpoint@handle,w
  9494  0AA3  3FC0               	movwi [0]fsr1
  9495  0AA4  3000               	movlw	0
  9496  0AA5  3FC1               	movwi [1]fsr1
  9497                           
  9498                           ;usb_device.c: 1564:     }
  9499  0AA6  2AAF               	goto	i1l2858
  9500  0AA7                     i1l2856:
  9501                           
  9502                           ;usb_device.c: 1566:     {;usb_device.c: 1567:         pBDTEntryIn[EPNum] = handle;
  9503  0AA7  3575               	lslf	USBConfigureEndpoint@EPNum,w
  9504  0AA8  3E6A               	addlw	(low (_pBDTEntryIn| 0))& (0+255)
  9505  0AA9  0086               	movwf	6
  9506  0AAA  0187               	clrf	7
  9507  0AAB  0876               	movf	USBConfigureEndpoint@handle,w
  9508  0AAC  3FC0               	movwi [0]fsr1
  9509  0AAD  3000               	movlw	0
  9510  0AAE  3FC1               	movwi [1]fsr1
  9511  0AAF                     i1l2858:
  9512                           
  9513                           ;usb_device.c: 1571:         handle->STAT.DTS = 0;
  9514  0AAF  0876               	movf	USBConfigureEndpoint@handle,w
  9515  0AB0  0086               	movwf	6
  9516  0AB1  0187               	clrf	7
  9517  0AB2  1301               	bcf	1,6
  9518  0AB3                     i1l2860:
  9519                           
  9520                           ;usb_device.c: 1572:         (handle+1)->STAT.DTS = 1;
  9521  0AB3  0876               	movf	USBConfigureEndpoint@handle,w
  9522  0AB4  3E04               	addlw	4
  9523  0AB5  0086               	movwf	6
  9524  0AB6  0187               	clrf	7
  9525  0AB7  1701               	bsf	1,6
  9526  0AB8                     i1l326:
  9527  0AB8  0008               	return
  9528  0AB9                     __end_of_USBConfigureEndpoint:
  9529                           
  9530                           	psect	text40
  9531  0A3C                     __ptext40:	
  9532 ;; *************** function _USBCtrlTrfOutHandler *****************
  9533 ;; Defined at:
  9534 ;;		line 2545 in file "usb_device.c"
  9535 ;; Parameters:    Size  Location     Type
  9536 ;;		None
  9537 ;; Auto vars:     Size  Location     Type
  9538 ;;		None
  9539 ;; Return value:  Size  Location     Type
  9540 ;;                  1    wreg      void 
  9541 ;; Registers used:
  9542 ;;		wreg, fsr1l, fsr1h, status,2, status,0, pclath, cstack
  9543 ;; Tracked objects:
  9544 ;;		On entry : 0/0
  9545 ;;		On exit  : 0/0
  9546 ;;		Unchanged: 0/0
  9547 ;; Data sizes:     COMMON   BANK0   BANK1   BANK2   BANK3   BANK4   BANK5   BANK6   BANK7   BANK8   BANK9  BANK10  BANK1
      +1  BANK12
  9548 ;;      Params:         0       0       0       0       0       0       0       0       0       0       0       0       
      +0       0
  9549 ;;      Locals:         0       0       0       0       0       0       0       0       0       0       0       0       
      +0       0
  9550 ;;      Temps:          2       0       0       0       0       0       0       0       0       0       0       0       
      +0       0
  9551 ;;      Totals:         2       0       0       0       0       0       0       0       0       0       0       0       
      +0       0
  9552 ;;Total ram usage:        2 bytes
  9553 ;; Hardware stack levels used: 1
  9554 ;; Hardware stack levels required when called: 2
  9555 ;; This function calls:
  9556 ;;		_USBCtrlTrfRxService
  9557 ;; This function is called by:
  9558 ;;		_USBCtrlEPService
  9559 ;; This function uses a non-reentrant model
  9560 ;;
  9561                           
  9562  0A3C                     _USBCtrlTrfOutHandler:	
  9563                           ;psect for function _USBCtrlTrfOutHandler
  9564                           
  9565  0A3C                     i1l3564:	
  9566                           ;incstack = 0
  9567                           ; Regs used in _USBCtrlTrfOutHandler: [wreg+fsr1l+fsr1h+status,2+status,0+pclath+cstack]
  9568                           
  9569                           
  9570                           ;usb_device.c: 2547:     if(controlTransferState == 2)
  9571  0A3C  3002               	movlw	2
  9572  0A3D  0022               	movlb	2	; select bank2
  9573  0A3E  066B               	xorwf	_controlTransferState^(0+256),w	;volatile
  9574  0A3F  1D03               	btfss	3,2
  9575  0A40  2A42               	goto	u218_21
  9576  0A41  2A43               	goto	u218_20
  9577  0A42                     u218_21:
  9578  0A42  2A47               	goto	i1l3568
  9579  0A43                     u218_20:
  9580  0A43                     i1l3566:
  9581                           
  9582                           ;usb_device.c: 2548:     {;usb_device.c: 2549:         USBCtrlTrfRxService();
  9583  0A43  3184  2423  318A   	fcall	_USBCtrlTrfRxService
  9584                           
  9585                           ;usb_device.c: 2550:     }
  9586  0A46  2A75               	goto	i1l437
  9587  0A47                     i1l3568:
  9588                           
  9589                           ;usb_device.c: 2552:     {;usb_device.c: 2555:         controlTransferState = 0;
  9590  0A47  01EB               	clrf	_controlTransferState^(0+256)	;volatile
  9591  0A48                     i1l3570:
  9592                           
  9593                           ;usb_device.c: 2562:         if(BothEP0OutUOWNsSet == 0)
  9594  0A48  0023               	movlb	3	; select bank3
  9595  0A49  0834               	movf	_BothEP0OutUOWNsSet^(0+384),w	;volatile
  9596  0A4A  1D03               	btfss	3,2
  9597  0A4B  2A4D               	goto	u219_21
  9598  0A4C  2A4E               	goto	u219_20
  9599  0A4D                     u219_21:
  9600  0A4D  2A74               	goto	i1l3580
  9601  0A4E                     u219_20:
  9602  0A4E                     i1l3572:
  9603                           
  9604                           ;usb_device.c: 2563:         {;usb_device.c: 2564:             pBDTEntryEP0OutNext->CNT 
      +                          = 8;
  9605  0A4E  0020               	movlb	0	; select bank0
  9606  0A4F  086E               	movf	_pBDTEntryEP0OutNext,w
  9607  0A50  3E01               	addlw	1
  9608  0A51  00F6               	movwf	??_USBCtrlTrfOutHandler
  9609  0A52  3000               	movlw	0
  9610  0A53  3D6F               	addwfc	_pBDTEntryEP0OutNext+1,w
  9611  0A54  00F7               	movwf	??_USBCtrlTrfOutHandler+1
  9612  0A55  0876               	movf	??_USBCtrlTrfOutHandler,w
  9613  0A56  0086               	movwf	6
  9614  0A57  0877               	movf	??_USBCtrlTrfOutHandler+1,w
  9615  0A58  0087               	movwf	7
  9616  0A59  3008               	movlw	8
  9617  0A5A  0081               	movwf	1
  9618  0A5B                     i1l3574:
  9619                           
  9620                           ;usb_device.c: 2565:             pBDTEntryEP0OutNext->ADR = (((uint16_t)(&SetupPkt)) & 0
      +                          x7FFF);
  9621  0A5B  3040               	movlw	64
  9622  0A5C  00F6               	movwf	??_USBCtrlTrfOutHandler
  9623  0A5D  3000               	movlw	0
  9624  0A5E  00F7               	movwf	??_USBCtrlTrfOutHandler+1
  9625  0A5F  086E               	movf	_pBDTEntryEP0OutNext,w
  9626  0A60  0086               	movwf	6
  9627  0A61  086F               	movf	_pBDTEntryEP0OutNext+1,w
  9628  0A62  0087               	movwf	7
  9629  0A63  3142               	addfsr 1,2
  9630  0A64  0876               	movf	??_USBCtrlTrfOutHandler,w
  9631  0A65  3FC0               	movwi [0]fsr1
  9632  0A66  0877               	movf	??_USBCtrlTrfOutHandler+1,w
  9633  0A67  3FC1               	movwi [1]fsr1
  9634  0A68                     i1l3576:
  9635                           
  9636                           ;usb_device.c: 2566:             pBDTEntryEP0OutNext->STAT.Val = 0x00|(0x08 & 0x08)|0x04
      +                          ;
  9637  0A68  086E               	movf	_pBDTEntryEP0OutNext,w
  9638  0A69  0086               	movwf	6
  9639  0A6A  086F               	movf	_pBDTEntryEP0OutNext+1,w
  9640  0A6B  0087               	movwf	7
  9641  0A6C  300C               	movlw	12
  9642  0A6D  0081               	movwf	1
  9643  0A6E                     i1l3578:
  9644                           
  9645                           ;usb_device.c: 2567:             pBDTEntryEP0OutNext->STAT.Val |= 0x80;
  9646  0A6E  086E               	movf	_pBDTEntryEP0OutNext,w
  9647  0A6F  0086               	movwf	6
  9648  0A70  086F               	movf	_pBDTEntryEP0OutNext+1,w
  9649  0A71  0087               	movwf	7
  9650  0A72  1781               	bsf	1,7
  9651                           
  9652                           ;usb_device.c: 2568:         }
  9653  0A73  2A75               	goto	i1l437
  9654  0A74                     i1l3580:
  9655                           
  9656                           ;usb_device.c: 2570:         {;usb_device.c: 2571:             BothEP0OutUOWNsSet = 0;
  9657  0A74  01B4               	clrf	_BothEP0OutUOWNsSet^(0+384)	;volatile
  9658  0A75                     i1l437:
  9659  0A75  0008               	return
  9660  0A76                     __end_of_USBCtrlTrfOutHandler:
  9661                           
  9662                           	psect	text41
  9663  0423                     __ptext41:	
  9664 ;; *************** function _USBCtrlTrfRxService *****************
  9665 ;; Defined at:
  9666 ;;		line 1856 in file "usb_device.c"
  9667 ;; Parameters:    Size  Location     Type
  9668 ;;		None
  9669 ;; Auto vars:     Size  Location     Type
  9670 ;;  byteToRead      1    5[COMMON] unsigned char 
  9671 ;;  i               1    4[COMMON] unsigned char 
  9672 ;; Return value:  Size  Location     Type
  9673 ;;                  1    wreg      void 
  9674 ;; Registers used:
  9675 ;;		wreg, fsr1l, fsr1h, status,2, status,0, pclath, cstack
  9676 ;; Tracked objects:
  9677 ;;		On entry : 0/0
  9678 ;;		On exit  : 0/0
  9679 ;;		Unchanged: 0/0
  9680 ;; Data sizes:     COMMON   BANK0   BANK1   BANK2   BANK3   BANK4   BANK5   BANK6   BANK7   BANK8   BANK9  BANK10  BANK1
      +1  BANK12
  9681 ;;      Params:         0       0       0       0       0       0       0       0       0       0       0       0       
      +0       0
  9682 ;;      Locals:         2       0       0       0       0       0       0       0       0       0       0       0       
      +0       0
  9683 ;;      Temps:          2       0       0       0       0       0       0       0       0       0       0       0       
      +0       0
  9684 ;;      Totals:         4       0       0       0       0       0       0       0       0       0       0       0       
      +0       0
  9685 ;;Total ram usage:        4 bytes
  9686 ;; Hardware stack levels used: 1
  9687 ;; Hardware stack levels required when called: 1
  9688 ;; This function calls:
  9689 ;;		_USBCtrlEPAllowStatusStage
  9690 ;; This function is called by:
  9691 ;;		_USBCtrlTrfOutHandler
  9692 ;; This function uses a non-reentrant model
  9693 ;;
  9694                           
  9695  0423                     _USBCtrlTrfRxService:	
  9696                           ;psect for function _USBCtrlTrfRxService
  9697                           
  9698  0423                     i1l3442:	
  9699                           ;incstack = 0
  9700                           ; Regs used in _USBCtrlTrfRxService: [wreg+fsr1l+fsr1h+status,2+status,0+pclath+cstack]
  9701                           
  9702                           
  9703                           ;usb_device.c: 1858:     uint8_t byteToRead;;usb_device.c: 1859:     uint8_t i;;usb_devi
      +                          ce.c: 1863:     byteToRead = pBDTEntryEP0OutCurrent->CNT;
  9704  0423  0021               	movlb	1	; select bank1
  9705  0424  086E               	movf	_pBDTEntryEP0OutCurrent^(0+128),w
  9706  0425  0086               	movwf	6
  9707  0426  0187               	clrf	7
  9708  0427  3F41               	moviw [1]fsr1
  9709  0428  00F5               	movwf	USBCtrlTrfRxService@byteToRead
  9710  0429                     i1l3444:
  9711                           
  9712                           ;usb_device.c: 1869:     if(byteToRead > outPipes[0].wCount.Val)
  9713  0429  0875               	movf	USBCtrlTrfRxService@byteToRead,w
  9714  042A  00F2               	movwf	??_USBCtrlTrfRxService
  9715  042B  01F3               	clrf	??_USBCtrlTrfRxService+1
  9716  042C  0873               	movf	??_USBCtrlTrfRxService+1,w
  9717  042D  0022               	movlb	2	; select bank2
  9718  042E  0264               	subwf	((_outPipes+1)^(0+256)+3),w	;volatile
  9719  042F  1D03               	skipz
  9720  0430  2C33               	goto	u211_25
  9721  0431  0872               	movf	??_USBCtrlTrfRxService,w
  9722  0432  0263               	subwf	(_outPipes^(0+256)+3),w	;volatile
  9723  0433                     u211_25:
  9724  0433  1803               	skipnc
  9725  0434  2C36               	goto	u211_21
  9726  0435  2C37               	goto	u211_20
  9727  0436                     u211_21:
  9728  0436  2C3B               	goto	i1l357
  9729  0437                     u211_20:
  9730  0437                     i1l3446:
  9731                           
  9732                           ;usb_device.c: 1870:     {;usb_device.c: 1871:         byteToRead = outPipes[0].wCount.V
      +                          al;
  9733  0437  0863               	movf	(_outPipes^(0+256)+3),w	;volatile
  9734  0438  00F2               	movwf	??_USBCtrlTrfRxService
  9735  0439  0872               	movf	??_USBCtrlTrfRxService,w
  9736  043A  00F5               	movwf	USBCtrlTrfRxService@byteToRead
  9737  043B                     i1l357:	
  9738                           ;usb_device.c: 1872:     }
  9739                           
  9740                           
  9741                           ;usb_device.c: 1874:     outPipes[0].wCount.Val -= byteToRead;
  9742  043B  0875               	movf	USBCtrlTrfRxService@byteToRead,w
  9743  043C  00F2               	movwf	??_USBCtrlTrfRxService
  9744  043D  01F3               	clrf	??_USBCtrlTrfRxService+1
  9745  043E  0872               	movf	??_USBCtrlTrfRxService,w
  9746  043F  02E3               	subwf	(_outPipes^(0+256)+3),f	;volatile
  9747  0440  0873               	movf	??_USBCtrlTrfRxService+1,w
  9748  0441  3BE4               	subwfb	((_outPipes+1)^(0+256)+3),f	;volatile
  9749  0442                     i1l3448:
  9750                           
  9751                           ;usb_device.c: 1878:     for(i=0;i<byteToRead;i++)
  9752  0442  01F4               	clrf	USBCtrlTrfRxService@i
  9753  0443  2C57               	goto	i1l3456
  9754  0444                     i1l3450:
  9755                           
  9756                           ;usb_device.c: 1879:     {;usb_device.c: 1880:         *outPipes[0].pDst.bRam++ = CtrlTr
      +                          fData[i];
  9757  0444  0874               	movf	USBCtrlTrfRxService@i,w
  9758  0445  3E48               	addlw	72
  9759  0446  0086               	movwf	6
  9760  0447  0187               	clrf	7
  9761  0448  0801               	movf	1,w
  9762  0449  00F2               	movwf	??_USBCtrlTrfRxService
  9763  044A  0860               	movf	_outPipes^(0+256),w	;volatile
  9764  044B  0086               	movwf	6
  9765  044C  0187               	clrf	7
  9766  044D  0872               	movf	??_USBCtrlTrfRxService,w
  9767  044E  0081               	movwf	1
  9768  044F                     i1l3452:
  9769  044F  3001               	movlw	1
  9770  0450  00F2               	movwf	??_USBCtrlTrfRxService
  9771  0451  0872               	movf	??_USBCtrlTrfRxService,w
  9772  0452  07E0               	addwf	_outPipes^(0+256),f	;volatile
  9773  0453                     i1l3454:
  9774                           
  9775                           ;usb_device.c: 1881:     }
  9776  0453  3001               	movlw	1
  9777  0454  00F2               	movwf	??_USBCtrlTrfRxService
  9778  0455  0872               	movf	??_USBCtrlTrfRxService,w
  9779  0456  07F4               	addwf	USBCtrlTrfRxService@i,f
  9780  0457                     i1l3456:
  9781  0457  0875               	movf	USBCtrlTrfRxService@byteToRead,w
  9782  0458  0274               	subwf	USBCtrlTrfRxService@i,w
  9783  0459  1C03               	skipc
  9784  045A  2C5C               	goto	u212_21
  9785  045B  2C5D               	goto	u212_20
  9786  045C                     u212_21:
  9787  045C  2C44               	goto	i1l3450
  9788  045D                     u212_20:
  9789  045D                     i1l3458:
  9790                           
  9791                           ;usb_device.c: 1885:     if(outPipes[0].wCount.Val > 0)
  9792  045D  0863               	movf	(_outPipes^(0+256)+3),w	;volatile
  9793  045E  0464               	iorwf	((_outPipes+1)^(0+256)+3),w	;volatile
  9794  045F  1903               	btfsc	3,2
  9795  0460  2C62               	goto	u213_21
  9796  0461  2C63               	goto	u213_20
  9797  0462                     u213_21:
  9798  0462  2C9F               	goto	i1l3470
  9799  0463                     u213_20:
  9800  0463                     i1l3460:
  9801                           
  9802                           ;usb_device.c: 1886:     {;usb_device.c: 1887:         pBDTEntryEP0OutNext->CNT = 8;
  9803  0463  0020               	movlb	0	; select bank0
  9804  0464  086E               	movf	_pBDTEntryEP0OutNext,w
  9805  0465  3E01               	addlw	1
  9806  0466  00F2               	movwf	??_USBCtrlTrfRxService
  9807  0467  3000               	movlw	0
  9808  0468  3D6F               	addwfc	_pBDTEntryEP0OutNext+1,w
  9809  0469  00F3               	movwf	??_USBCtrlTrfRxService+1
  9810  046A  0872               	movf	??_USBCtrlTrfRxService,w
  9811  046B  0086               	movwf	6
  9812  046C  0873               	movf	??_USBCtrlTrfRxService+1,w
  9813  046D  0087               	movwf	7
  9814  046E  3008               	movlw	8
  9815  046F  0081               	movwf	1
  9816  0470                     i1l3462:
  9817                           
  9818                           ;usb_device.c: 1888:         pBDTEntryEP0OutNext->ADR = (((uint16_t)(&CtrlTrfData)) & 0x
      +                          7FFF);
  9819  0470  3048               	movlw	72
  9820  0471  00F2               	movwf	??_USBCtrlTrfRxService
  9821  0472  3000               	movlw	0
  9822  0473  00F3               	movwf	??_USBCtrlTrfRxService+1
  9823  0474  086E               	movf	_pBDTEntryEP0OutNext,w
  9824  0475  0086               	movwf	6
  9825  0476  086F               	movf	_pBDTEntryEP0OutNext+1,w
  9826  0477  0087               	movwf	7
  9827  0478  3142               	addfsr 1,2
  9828  0479  0872               	movf	??_USBCtrlTrfRxService,w
  9829  047A  3FC0               	movwi [0]fsr1
  9830  047B  0873               	movf	??_USBCtrlTrfRxService+1,w
  9831  047C  3FC1               	movwi [1]fsr1
  9832  047D                     i1l3464:
  9833                           
  9834                           ;usb_device.c: 1889:         if(pBDTEntryEP0OutCurrent->STAT.DTS == 0)
  9835  047D  0021               	movlb	1	; select bank1
  9836  047E  086E               	movf	_pBDTEntryEP0OutCurrent^(0+128),w
  9837  047F  0086               	movwf	6
  9838  0480  0187               	clrf	7
  9839  0481  1B01               	btfsc	1,6
  9840  0482  2C84               	goto	u214_21
  9841  0483  2C85               	goto	u214_20
  9842  0484                     u214_21:
  9843  0484  2C92               	goto	i1l3468
  9844  0485                     u214_20:
  9845  0485                     i1l3466:
  9846                           
  9847                           ;usb_device.c: 1890:         {;usb_device.c: 1891:             pBDTEntryEP0OutNext->STAT
      +                          .Val = 0x40|(0x08 & 0x08);
  9848  0485  0020               	movlb	0	; select bank0
  9849  0486  086E               	movf	_pBDTEntryEP0OutNext,w
  9850  0487  0086               	movwf	6
  9851  0488  086F               	movf	_pBDTEntryEP0OutNext+1,w
  9852  0489  0087               	movwf	7
  9853  048A  3048               	movlw	72
  9854  048B  0081               	movwf	1
  9855                           
  9856                           ;usb_device.c: 1892:             pBDTEntryEP0OutNext->STAT.Val |= 0x80;
  9857  048C  086E               	movf	_pBDTEntryEP0OutNext,w
  9858  048D  0086               	movwf	6
  9859  048E  086F               	movf	_pBDTEntryEP0OutNext+1,w
  9860  048F  0087               	movwf	7
  9861  0490  1781               	bsf	1,7
  9862                           
  9863                           ;usb_device.c: 1893:         }
  9864  0491  2CD0               	goto	i1l367
  9865  0492                     i1l3468:
  9866                           
  9867                           ;usb_device.c: 1895:         {;usb_device.c: 1896:             pBDTEntryEP0OutNext->STAT
      +                          .Val = 0x00|(0x08 & 0x08);
  9868  0492  0020               	movlb	0	; select bank0
  9869  0493  086E               	movf	_pBDTEntryEP0OutNext,w
  9870  0494  0086               	movwf	6
  9871  0495  086F               	movf	_pBDTEntryEP0OutNext+1,w
  9872  0496  0087               	movwf	7
  9873  0497  3008               	movlw	8
  9874  0498  0081               	movwf	1
  9875                           
  9876                           ;usb_device.c: 1897:             pBDTEntryEP0OutNext->STAT.Val |= 0x80;
  9877  0499  086E               	movf	_pBDTEntryEP0OutNext,w
  9878  049A  0086               	movwf	6
  9879  049B  086F               	movf	_pBDTEntryEP0OutNext+1,w
  9880  049C  0087               	movwf	7
  9881  049D  1781               	bsf	1,7
  9882  049E  2CD0               	goto	i1l367
  9883  049F                     i1l3470:
  9884                           
  9885                           ;usb_device.c: 1901:     {;usb_device.c: 1905:         pBDTEntryEP0OutNext->CNT = 8;
  9886  049F  0020               	movlb	0	; select bank0
  9887  04A0  086E               	movf	_pBDTEntryEP0OutNext,w
  9888  04A1  3E01               	addlw	1
  9889  04A2  00F2               	movwf	??_USBCtrlTrfRxService
  9890  04A3  3000               	movlw	0
  9891  04A4  3D6F               	addwfc	_pBDTEntryEP0OutNext+1,w
  9892  04A5  00F3               	movwf	??_USBCtrlTrfRxService+1
  9893  04A6  0872               	movf	??_USBCtrlTrfRxService,w
  9894  04A7  0086               	movwf	6
  9895  04A8  0873               	movf	??_USBCtrlTrfRxService+1,w
  9896  04A9  0087               	movwf	7
  9897  04AA  3008               	movlw	8
  9898  04AB  0081               	movwf	1
  9899  04AC                     i1l3472:
  9900                           
  9901                           ;usb_device.c: 1906:         pBDTEntryEP0OutNext->ADR = (((uint16_t)(&SetupPkt)) & 0x7FF
      +                          F);
  9902  04AC  3040               	movlw	64
  9903  04AD  00F2               	movwf	??_USBCtrlTrfRxService
  9904  04AE  3000               	movlw	0
  9905  04AF  00F3               	movwf	??_USBCtrlTrfRxService+1
  9906  04B0  086E               	movf	_pBDTEntryEP0OutNext,w
  9907  04B1  0086               	movwf	6
  9908  04B2  086F               	movf	_pBDTEntryEP0OutNext+1,w
  9909  04B3  0087               	movwf	7
  9910  04B4  3142               	addfsr 1,2
  9911  04B5  0872               	movf	??_USBCtrlTrfRxService,w
  9912  04B6  3FC0               	movwi [0]fsr1
  9913  04B7  0873               	movf	??_USBCtrlTrfRxService+1,w
  9914  04B8  3FC1               	movwi [1]fsr1
  9915  04B9                     i1l3474:
  9916                           
  9917                           ;usb_device.c: 1910:         pBDTEntryEP0OutNext->STAT.Val = 0x04;
  9918  04B9  086E               	movf	_pBDTEntryEP0OutNext,w
  9919  04BA  0086               	movwf	6
  9920  04BB  086F               	movf	_pBDTEntryEP0OutNext+1,w
  9921  04BC  0087               	movwf	7
  9922  04BD  3004               	movlw	4
  9923  04BE  0081               	movwf	1
  9924  04BF                     i1l3476:
  9925                           
  9926                           ;usb_device.c: 1911:         pBDTEntryEP0OutNext->STAT.Val |= 0x80;
  9927  04BF  086E               	movf	_pBDTEntryEP0OutNext,w
  9928  04C0  0086               	movwf	6
  9929  04C1  086F               	movf	_pBDTEntryEP0OutNext+1,w
  9930  04C2  0087               	movwf	7
  9931  04C3  1781               	bsf	1,7
  9932  04C4                     i1l3478:
  9933                           
  9934                           ;usb_device.c: 1919:         {
  9935  04C4  0022               	movlb	2	; select bank2
  9936  04C5  0865               	movf	(low ((_outPipes| (0+256)+5)))^0,w	;volatile
  9937  04C6  0866               	movf	((low ((_outPipes| (0+256)+5))+1))^0,w	;volatile
  9938  04C7                     i1l365:
  9939  04C7  13E2               	bcf	(_outPipes^(0+256)+2),7	;volatile
  9940  04C8                     i1l3480:
  9941                           
  9942                           ;usb_device.c: 1945:         if(USBDeferStatusStagePacket == 0)
  9943  04C8  0869               	movf	_USBDeferStatusStagePacket^(0+256),w	;volatile
  9944  04C9  1D03               	btfss	3,2
  9945  04CA  2CCC               	goto	u215_21
  9946  04CB  2CCD               	goto	u215_20
  9947  04CC                     u215_21:
  9948  04CC  2CD0               	goto	i1l367
  9949  04CD                     u215_20:
  9950  04CD                     i1l3482:
  9951                           
  9952                           ;usb_device.c: 1946:         {;usb_device.c: 1947:             USBCtrlEPAllowStatusStage
      +                          ();
  9953  04CD  318C  2475  3184   	fcall	_USBCtrlEPAllowStatusStage
  9954  04D0                     i1l367:
  9955  04D0  0008               	return
  9956  04D1                     __end_of_USBCtrlTrfRxService:
  9957                           
  9958                           	psect	text42
  9959  0C75                     __ptext42:	
  9960 ;; *************** function _USBCtrlEPAllowStatusStage *****************
  9961 ;; Defined at:
  9962 ;;		line 1420 in file "usb_device.c"
  9963 ;; Parameters:    Size  Location     Type
  9964 ;;		None
  9965 ;; Auto vars:     Size  Location     Type
  9966 ;;		None
  9967 ;; Return value:  Size  Location     Type
  9968 ;;                  1    wreg      void 
  9969 ;; Registers used:
  9970 ;;		wreg, fsr1l, fsr1h, status,2, status,0
  9971 ;; Tracked objects:
  9972 ;;		On entry : 0/0
  9973 ;;		On exit  : 0/0
  9974 ;;		Unchanged: 0/0
  9975 ;; Data sizes:     COMMON   BANK0   BANK1   BANK2   BANK3   BANK4   BANK5   BANK6   BANK7   BANK8   BANK9  BANK10  BANK1
      +1  BANK12
  9976 ;;      Params:         0       0       0       0       0       0       0       0       0       0       0       0       
      +0       0
  9977 ;;      Locals:         0       0       0       0       0       0       0       0       0       0       0       0       
      +0       0
  9978 ;;      Temps:          2       0       0       0       0       0       0       0       0       0       0       0       
      +0       0
  9979 ;;      Totals:         2       0       0       0       0       0       0       0       0       0       0       0       
      +0       0
  9980 ;;Total ram usage:        2 bytes
  9981 ;; Hardware stack levels used: 1
  9982 ;; This function calls:
  9983 ;;		Nothing
  9984 ;; This function is called by:
  9985 ;;		_USBDeviceTasks
  9986 ;;		_USBCtrlEPServiceComplete
  9987 ;;		_USBCtrlTrfRxService
  9988 ;; This function uses a non-reentrant model
  9989 ;;
  9990                           
  9991  0C75                     _USBCtrlEPAllowStatusStage:	
  9992                           ;psect for function _USBCtrlEPAllowStatusStage
  9993                           
  9994  0C75                     i1l3118:	
  9995                           ;incstack = 0
  9996                           ; Regs used in _USBCtrlEPAllowStatusStage: [wreg+fsr1l+fsr1h+status,2+status,0]
  9997                           
  9998                           
  9999                           ;usb_device.c: 1427:     if(USBStatusStageEnabledFlag1 == 0)
 10000  0C75  0023               	movlb	3	; select bank3
 10001  0C76  0832               	movf	_USBStatusStageEnabledFlag1^(0+384),w	;volatile
 10002  0C77  1D03               	btfss	3,2
 10003  0C78  2C7A               	goto	u168_21
 10004  0C79  2C7B               	goto	u168_20
 10005  0C7A                     u168_21:
 10006  0C7A  2CEE               	goto	i1l315
 10007  0C7B                     u168_20:
 10008  0C7B                     i1l3120:
 10009                           
 10010                           ;usb_device.c: 1428:     {;usb_device.c: 1429:         USBStatusStageEnabledFlag1 = 1;
 10011  0C7B  3001               	movlw	1
 10012  0C7C  00F0               	movwf	??_USBCtrlEPAllowStatusStage
 10013  0C7D  0870               	movf	??_USBCtrlEPAllowStatusStage,w
 10014  0C7E  00B2               	movwf	_USBStatusStageEnabledFlag1^(0+384)	;volatile
 10015  0C7F                     i1l3122:
 10016                           
 10017                           ;usb_device.c: 1430:         if(USBStatusStageEnabledFlag2 == 0)
 10018  0C7F  0831               	movf	_USBStatusStageEnabledFlag2^(0+384),w	;volatile
 10019  0C80  1D03               	btfss	3,2
 10020  0C81  2C83               	goto	u169_21
 10021  0C82  2C84               	goto	u169_20
 10022  0C83                     u169_21:
 10023  0C83  2CEE               	goto	i1l315
 10024  0C84                     u169_20:
 10025  0C84                     i1l3124:
 10026                           
 10027                           ;usb_device.c: 1431:         {;usb_device.c: 1432:             USBStatusStageEnabledFlag
      +                          2 = 1;
 10028  0C84  3001               	movlw	1
 10029  0C85  00F0               	movwf	??_USBCtrlEPAllowStatusStage
 10030  0C86  0870               	movf	??_USBCtrlEPAllowStatusStage,w
 10031  0C87  00B1               	movwf	_USBStatusStageEnabledFlag2^(0+384)	;volatile
 10032  0C88                     i1l3126:
 10033                           
 10034                           ;usb_device.c: 1436:             if(controlTransferState == 2)
 10035  0C88  3002               	movlw	2
 10036  0C89  0022               	movlb	2	; select bank2
 10037  0C8A  066B               	xorwf	_controlTransferState^(0+256),w	;volatile
 10038  0C8B  1D03               	btfss	3,2
 10039  0C8C  2C8E               	goto	u170_21
 10040  0C8D  2C8F               	goto	u170_20
 10041  0C8E                     u170_21:
 10042  0C8E  2CA2               	goto	i1l3134
 10043  0C8F                     u170_20:
 10044  0C8F                     i1l3128:
 10045                           
 10046                           ;usb_device.c: 1437:             {;usb_device.c: 1438:                 pBDTEntryIn[0]->C
      +                          NT = 0;
 10047  0C8F  0020               	movlb	0	; select bank0
 10048  0C90  086A               	movf	_pBDTEntryIn,w
 10049  0C91  0086               	movwf	6
 10050  0C92  086B               	movf	_pBDTEntryIn+1,w
 10051  0C93  0087               	movwf	7
 10052  0C94  3141               	addfsr 1,1
 10053  0C95  0181               	clrf	1
 10054  0C96                     i1l3130:
 10055                           
 10056                           ;usb_device.c: 1439:                 pBDTEntryIn[0]->STAT.Val = 0x40|(0x08 & 0x08);
 10057  0C96  086A               	movf	_pBDTEntryIn,w
 10058  0C97  0086               	movwf	6
 10059  0C98  086B               	movf	_pBDTEntryIn+1,w
 10060  0C99  0087               	movwf	7
 10061  0C9A  3048               	movlw	72
 10062  0C9B  0081               	movwf	1
 10063  0C9C                     i1l3132:
 10064                           
 10065                           ;usb_device.c: 1440:                 pBDTEntryIn[0]->STAT.Val |= 0x80;
 10066  0C9C  086A               	movf	_pBDTEntryIn,w
 10067  0C9D  0086               	movwf	6
 10068  0C9E  086B               	movf	_pBDTEntryIn+1,w
 10069  0C9F  0087               	movwf	7
 10070  0CA0  1781               	bsf	1,7
 10071                           
 10072                           ;usb_device.c: 1441:             }
 10073  0CA1  2CEE               	goto	i1l315
 10074  0CA2                     i1l3134:
 10075  0CA2  036B               	decf	_controlTransferState^(0+256),w	;volatile
 10076  0CA3  1D03               	btfss	3,2
 10077  0CA4  2CA6               	goto	u171_21
 10078  0CA5  2CA7               	goto	u171_20
 10079  0CA6                     u171_21:
 10080  0CA6  2CEE               	goto	i1l311
 10081  0CA7                     u171_20:
 10082  0CA7                     i1l3136:
 10083                           
 10084                           ;usb_device.c: 1443:             {;usb_device.c: 1444:                 BothEP0OutUOWNsSe
      +                          t = 0;
 10085  0CA7  0023               	movlb	3	; select bank3
 10086  0CA8  01B4               	clrf	_BothEP0OutUOWNsSet^(0+384)	;volatile
 10087  0CA9                     i1l3138:
 10088                           
 10089                           ;usb_device.c: 1449:                     pBDTEntryEP0OutCurrent->CNT = 8;
 10090  0CA9  3008               	movlw	8
 10091  0CAA  00F0               	movwf	??_USBCtrlEPAllowStatusStage
 10092  0CAB  0021               	movlb	1	; select bank1
 10093  0CAC  0A6E               	incf	_pBDTEntryEP0OutCurrent^(0+128),w
 10094  0CAD  0086               	movwf	6
 10095  0CAE  0187               	clrf	7
 10096  0CAF  0870               	movf	??_USBCtrlEPAllowStatusStage,w
 10097  0CB0  0081               	movwf	1
 10098  0CB1                     i1l3140:
 10099                           
 10100                           ;usb_device.c: 1450:                     pBDTEntryEP0OutCurrent->ADR = (((uint16_t)(&Set
      +                          upPkt)) & 0x7FFF);
 10101  0CB1  3040               	movlw	64
 10102  0CB2  00F0               	movwf	??_USBCtrlEPAllowStatusStage
 10103  0CB3  3000               	movlw	0
 10104  0CB4  00F1               	movwf	??_USBCtrlEPAllowStatusStage+1
 10105  0CB5  086E               	movf	_pBDTEntryEP0OutCurrent^(0+128),w
 10106  0CB6  3E02               	addlw	2
 10107  0CB7  0086               	movwf	6
 10108  0CB8  0187               	clrf	7
 10109  0CB9  0870               	movf	??_USBCtrlEPAllowStatusStage,w
 10110  0CBA  3FC0               	movwi [0]fsr1
 10111  0CBB  0871               	movf	??_USBCtrlEPAllowStatusStage+1,w
 10112  0CBC  3FC1               	movwi [1]fsr1
 10113  0CBD                     i1l3142:
 10114                           
 10115                           ;usb_device.c: 1451:                     pBDTEntryEP0OutCurrent->STAT.Val = 0x04;
 10116  0CBD  3004               	movlw	4
 10117  0CBE  00F0               	movwf	??_USBCtrlEPAllowStatusStage
 10118  0CBF  086E               	movf	_pBDTEntryEP0OutCurrent^(0+128),w
 10119  0CC0  0086               	movwf	6
 10120  0CC1  0187               	clrf	7
 10121  0CC2  0870               	movf	??_USBCtrlEPAllowStatusStage,w
 10122  0CC3  0081               	movwf	1
 10123  0CC4                     i1l3144:
 10124                           
 10125                           ;usb_device.c: 1452:                     pBDTEntryEP0OutCurrent->STAT.Val |= 0x80;
 10126  0CC4  086E               	movf	_pBDTEntryEP0OutCurrent^(0+128),w
 10127  0CC5  0086               	movwf	6
 10128  0CC6  0187               	clrf	7
 10129  0CC7  1781               	bsf	1,7
 10130  0CC8                     i1l3146:
 10131                           
 10132                           ;usb_device.c: 1453:                     BothEP0OutUOWNsSet = 1;
 10133  0CC8  3001               	movlw	1
 10134  0CC9  00F0               	movwf	??_USBCtrlEPAllowStatusStage
 10135  0CCA  0870               	movf	??_USBCtrlEPAllowStatusStage,w
 10136  0CCB  0023               	movlb	3	; select bank3
 10137  0CCC  00B4               	movwf	_BothEP0OutUOWNsSet^(0+384)	;volatile
 10138  0CCD                     i1l3148:
 10139                           
 10140                           ;usb_device.c: 1457:                 pBDTEntryEP0OutNext->CNT = 8;
 10141  0CCD  0020               	movlb	0	; select bank0
 10142  0CCE  086E               	movf	_pBDTEntryEP0OutNext,w
 10143  0CCF  3E01               	addlw	1
 10144  0CD0  00F0               	movwf	??_USBCtrlEPAllowStatusStage
 10145  0CD1  3000               	movlw	0
 10146  0CD2  3D6F               	addwfc	_pBDTEntryEP0OutNext+1,w
 10147  0CD3  00F1               	movwf	??_USBCtrlEPAllowStatusStage+1
 10148  0CD4  0870               	movf	??_USBCtrlEPAllowStatusStage,w
 10149  0CD5  0086               	movwf	6
 10150  0CD6  0871               	movf	??_USBCtrlEPAllowStatusStage+1,w
 10151  0CD7  0087               	movwf	7
 10152  0CD8  3008               	movlw	8
 10153  0CD9  0081               	movwf	1
 10154  0CDA                     i1l3150:
 10155                           
 10156                           ;usb_device.c: 1458:                 pBDTEntryEP0OutNext->ADR = (((uint16_t)(&SetupPkt))
      +                           & 0x7FFF);
 10157  0CDA  3040               	movlw	64
 10158  0CDB  00F0               	movwf	??_USBCtrlEPAllowStatusStage
 10159  0CDC  3000               	movlw	0
 10160  0CDD  00F1               	movwf	??_USBCtrlEPAllowStatusStage+1
 10161  0CDE  086E               	movf	_pBDTEntryEP0OutNext,w
 10162  0CDF  0086               	movwf	6
 10163  0CE0  086F               	movf	_pBDTEntryEP0OutNext+1,w
 10164  0CE1  0087               	movwf	7
 10165  0CE2  3142               	addfsr 1,2
 10166  0CE3  0870               	movf	??_USBCtrlEPAllowStatusStage,w
 10167  0CE4  3FC0               	movwi [0]fsr1
 10168  0CE5  0871               	movf	??_USBCtrlEPAllowStatusStage+1,w
 10169  0CE6  3FC1               	movwi [1]fsr1
 10170  0CE7                     i1l3152:
 10171                           
 10172                           ;usb_device.c: 1459:                 pBDTEntryEP0OutNext->STAT.Val = 0x80;
 10173  0CE7  086E               	movf	_pBDTEntryEP0OutNext,w
 10174  0CE8  0086               	movwf	6
 10175  0CE9  086F               	movf	_pBDTEntryEP0OutNext+1,w
 10176  0CEA  0087               	movwf	7
 10177  0CEB  3080               	movlw	128
 10178  0CEC  0081               	movwf	1
 10179  0CED  2CEE               	goto	i1l315
 10180  0CEE                     i1l311:	
 10181                           ;usb_device.c: 1461:         }
 10182                           
 10183  0CEE                     i1l315:
 10184  0CEE  0008               	return
 10185  0CEF                     __end_of_USBCtrlEPAllowStatusStage:
 10186                           
 10187                           	psect	text43
 10188  0CEF                     __ptext43:	
 10189 ;; *************** function _USBCtrlTrfInHandler *****************
 10190 ;; Defined at:
 10191 ;;		line 2599 in file "usb_device.c"
 10192 ;; Parameters:    Size  Location     Type
 10193 ;;		None
 10194 ;; Auto vars:     Size  Location     Type
 10195 ;;  lastDTS         1    5[COMMON] unsigned char 
 10196 ;; Return value:  Size  Location     Type
 10197 ;;                  1    wreg      void 
 10198 ;; Registers used:
 10199 ;;		wreg, fsr0l, fsr0h, fsr1l, fsr1h, status,2, status,0, pclath, cstack
 10200 ;; Tracked objects:
 10201 ;;		On entry : 0/0
 10202 ;;		On exit  : 0/0
 10203 ;;		Unchanged: 0/0
 10204 ;; Data sizes:     COMMON   BANK0   BANK1   BANK2   BANK3   BANK4   BANK5   BANK6   BANK7   BANK8   BANK9  BANK10  BANK1
      +1  BANK12
 10205 ;;      Params:         0       0       0       0       0       0       0       0       0       0       0       0       
      +0       0
 10206 ;;      Locals:         1       0       0       0       0       0       0       0       0       0       0       0       
      +0       0
 10207 ;;      Temps:          2       0       0       0       0       0       0       0       0       0       0       0       
      +0       0
 10208 ;;      Totals:         3       0       0       0       0       0       0       0       0       0       0       0       
      +0       0
 10209 ;;Total ram usage:        3 bytes
 10210 ;; Hardware stack levels used: 1
 10211 ;; Hardware stack levels required when called: 1
 10212 ;; This function calls:
 10213 ;;		_USBCtrlTrfTxService
 10214 ;; This function is called by:
 10215 ;;		_USBCtrlEPService
 10216 ;; This function uses a non-reentrant model
 10217 ;;
 10218                           
 10219  0CEF                     _USBCtrlTrfInHandler:	
 10220                           ;psect for function _USBCtrlTrfInHandler
 10221                           
 10222  0CEF                     i1l3582:	
 10223                           ;incstack = 0
 10224                           ; Regs used in _USBCtrlTrfInHandler: [wreg-fsr1h+status,2+status,0+pclath+cstack]
 10225                           
 10226                           
 10227                           ;usb_device.c: 2601:     uint8_t lastDTS;;usb_device.c: 2603:     lastDTS = pBDTEntryIn[
      +                          0]->STAT.DTS;
 10228  0CEF  0020               	movlb	0	; select bank0
 10229  0CF0  086A               	movf	_pBDTEntryIn,w
 10230  0CF1  0086               	movwf	6
 10231  0CF2  086B               	movf	_pBDTEntryIn+1,w
 10232  0CF3  0087               	movwf	7
 10233  0CF4  3000               	movlw	0
 10234  0CF5  1B01               	btfsc	1,6
 10235  0CF6  3001               	movlw	1
 10236  0CF7  00F5               	movwf	USBCtrlTrfInHandler@lastDTS
 10237  0CF8                     i1l3584:
 10238                           
 10239                           ;usb_device.c: 2606:     pBDTEntryIn[0] = (volatile BDT_ENTRY*)(((uint16_t)pBDTEntryIn[0
      +                          ]) ^ 0x0004);
 10240  0CF8  3004               	movlw	4
 10241  0CF9  066A               	xorwf	_pBDTEntryIn,w
 10242  0CFA  00EA               	movwf	_pBDTEntryIn
 10243  0CFB  3000               	movlw	0
 10244  0CFC  066B               	xorwf	_pBDTEntryIn+1,w
 10245  0CFD  00EB               	movwf	_pBDTEntryIn+1
 10246  0CFE                     i1l3586:
 10247                           
 10248                           ;usb_device.c: 2611:     if(USBDeviceState == ADR_PENDING_STATE)
 10249  0CFE  3008               	movlw	8
 10250  0CFF  0021               	movlb	1	; select bank1
 10251  0D00  066F               	xorwf	_USBDeviceState^(0+128),w	;volatile
 10252  0D01  1D03               	btfss	3,2
 10253  0D02  2D04               	goto	u220_21
 10254  0D03  2D05               	goto	u220_20
 10255  0D04                     u220_21:
 10256  0D04  2D1A               	goto	i1l3596
 10257  0D05                     u220_20:
 10258  0D05                     i1l3588:
 10259                           
 10260                           ;usb_device.c: 2612:     {;usb_device.c: 2613:         UADDR = (SetupPkt.bDevADR & 0x7F)
      +                          ;
 10261  0D05  0020               	movlb	0	; select bank0
 10262  0D06  0842               	movf	66,w	;volatile
 10263  0D07  397F               	andlw	127
 10264  0D08  003D               	movlb	29	; select bank29
 10265  0D09  0096               	movwf	22	;volatile
 10266  0D0A                     i1l3590:
 10267                           
 10268                           ;usb_device.c: 2614:         if(UADDR != 0u)
 10269  0D0A  0816               	movf	22,w	;volatile
 10270  0D0B  1903               	btfsc	3,2
 10271  0D0C  2D0E               	goto	u221_21
 10272  0D0D  2D0F               	goto	u221_20
 10273  0D0E                     u221_21:
 10274  0D0E  2D15               	goto	i1l3594
 10275  0D0F                     u221_20:
 10276  0D0F                     i1l3592:
 10277                           
 10278                           ;usb_device.c: 2615:         {;usb_device.c: 2616:             USBDeviceState=ADDRESS_ST
      +                          ATE;
 10279  0D0F  3010               	movlw	16
 10280  0D10  00F3               	movwf	??_USBCtrlTrfInHandler
 10281  0D11  0873               	movf	??_USBCtrlTrfInHandler,w
 10282  0D12  0021               	movlb	1	; select bank1
 10283  0D13  00EF               	movwf	_USBDeviceState^(0+128)	;volatile
 10284                           
 10285                           ;usb_device.c: 2617:         }
 10286  0D14  2D1A               	goto	i1l3596
 10287  0D15                     i1l3594:
 10288                           
 10289                           ;usb_device.c: 2619:         {;usb_device.c: 2620:             USBDeviceState=DEFAULT_ST
      +                          ATE;
 10290  0D15  3004               	movlw	4
 10291  0D16  00F3               	movwf	??_USBCtrlTrfInHandler
 10292  0D17  0873               	movf	??_USBCtrlTrfInHandler,w
 10293  0D18  0021               	movlb	1	; select bank1
 10294  0D19  00EF               	movwf	_USBDeviceState^(0+128)	;volatile
 10295  0D1A                     i1l3596:
 10296                           
 10297                           ;usb_device.c: 2625:     if(controlTransferState == 1)
 10298  0D1A  0022               	movlb	2	; select bank2
 10299  0D1B  036B               	decf	_controlTransferState^(0+256),w	;volatile
 10300  0D1C  1D03               	btfss	3,2
 10301  0D1D  2D1F               	goto	u222_21
 10302  0D1E  2D20               	goto	u222_20
 10303  0D1F                     u222_21:
 10304  0D1F  2D64               	goto	i1l443
 10305  0D20                     u222_20:
 10306  0D20                     i1l3598:
 10307                           
 10308                           ;usb_device.c: 2626:     {;usb_device.c: 2627:         pBDTEntryIn[0]->ADR = (((uint16_t
      +                          )(CtrlTrfData)) & 0x7FFF);
 10309  0D20  3048               	movlw	72
 10310  0D21  00F3               	movwf	??_USBCtrlTrfInHandler
 10311  0D22  3000               	movlw	0
 10312  0D23  00F4               	movwf	??_USBCtrlTrfInHandler+1
 10313  0D24  0020               	movlb	0	; select bank0
 10314  0D25  086A               	movf	_pBDTEntryIn,w
 10315  0D26  0086               	movwf	6
 10316  0D27  086B               	movf	_pBDTEntryIn+1,w
 10317  0D28  0087               	movwf	7
 10318  0D29  3142               	addfsr 1,2
 10319  0D2A  0873               	movf	??_USBCtrlTrfInHandler,w
 10320  0D2B  3FC0               	movwi [0]fsr1
 10321  0D2C  0874               	movf	??_USBCtrlTrfInHandler+1,w
 10322  0D2D  3FC1               	movwi [1]fsr1
 10323  0D2E                     i1l3600:
 10324                           
 10325                           ;usb_device.c: 2628:         USBCtrlTrfTxService();
 10326  0D2E  318D  25EB  318C   	fcall	_USBCtrlTrfTxService
 10327  0D31                     i1l3602:
 10328                           
 10329                           ;usb_device.c: 2634:         if(shortPacketStatus == 2)
 10330  0D31  3002               	movlw	2
 10331  0D32  0022               	movlb	2	; select bank2
 10332  0D33  066C               	xorwf	_shortPacketStatus^(0+256),w	;volatile
 10333  0D34  1D03               	btfss	3,2
 10334  0D35  2D37               	goto	u223_21
 10335  0D36  2D38               	goto	u223_20
 10336  0D37                     u223_21:
 10337  0D37  2D45               	goto	i1l3606
 10338  0D38                     u223_20:
 10339  0D38                     i1l3604:
 10340                           
 10341                           ;usb_device.c: 2635:         {;usb_device.c: 2638:             pBDTEntryIn[0]->STAT.Val 
      +                          = 0x04;
 10342  0D38  0020               	movlb	0	; select bank0
 10343  0D39  086A               	movf	_pBDTEntryIn,w
 10344  0D3A  0086               	movwf	6
 10345  0D3B  086B               	movf	_pBDTEntryIn+1,w
 10346  0D3C  0087               	movwf	7
 10347  0D3D  3004               	movlw	4
 10348  0D3E  0081               	movwf	1
 10349                           
 10350                           ;usb_device.c: 2639:             pBDTEntryIn[0]->STAT.Val |= 0x80;
 10351  0D3F  086A               	movf	_pBDTEntryIn,w
 10352  0D40  0086               	movwf	6
 10353  0D41  086B               	movf	_pBDTEntryIn+1,w
 10354  0D42  0087               	movwf	7
 10355  0D43  1781               	bsf	1,7
 10356                           
 10357                           ;usb_device.c: 2640:         }
 10358  0D44  2D6C               	goto	i1l451
 10359  0D45                     i1l3606:
 10360                           
 10361                           ;usb_device.c: 2642:         {;usb_device.c: 2643:             if(lastDTS == 0)
 10362  0D45  0875               	movf	USBCtrlTrfInHandler@lastDTS,w
 10363  0D46  1D03               	btfss	3,2
 10364  0D47  2D49               	goto	u224_21
 10365  0D48  2D4A               	goto	u224_20
 10366  0D49                     u224_21:
 10367  0D49  2D57               	goto	i1l3610
 10368  0D4A                     u224_20:
 10369  0D4A                     i1l3608:
 10370                           
 10371                           ;usb_device.c: 2644:             {;usb_device.c: 2645:                 pBDTEntryIn[0]->S
      +                          TAT.Val = 0x40|(0x08 & 0x08);
 10372  0D4A  0020               	movlb	0	; select bank0
 10373  0D4B  086A               	movf	_pBDTEntryIn,w
 10374  0D4C  0086               	movwf	6
 10375  0D4D  086B               	movf	_pBDTEntryIn+1,w
 10376  0D4E  0087               	movwf	7
 10377  0D4F  3048               	movlw	72
 10378  0D50  0081               	movwf	1
 10379                           
 10380                           ;usb_device.c: 2646:                 pBDTEntryIn[0]->STAT.Val |= 0x80;
 10381  0D51  086A               	movf	_pBDTEntryIn,w
 10382  0D52  0086               	movwf	6
 10383  0D53  086B               	movf	_pBDTEntryIn+1,w
 10384  0D54  0087               	movwf	7
 10385  0D55  1781               	bsf	1,7
 10386                           
 10387                           ;usb_device.c: 2647:             }
 10388  0D56  2D6C               	goto	i1l451
 10389  0D57                     i1l3610:
 10390                           
 10391                           ;usb_device.c: 2649:             {;usb_device.c: 2650:                 pBDTEntryIn[0]->S
      +                          TAT.Val = 0x00|(0x08 & 0x08);
 10392  0D57  0020               	movlb	0	; select bank0
 10393  0D58  086A               	movf	_pBDTEntryIn,w
 10394  0D59  0086               	movwf	6
 10395  0D5A  086B               	movf	_pBDTEntryIn+1,w
 10396  0D5B  0087               	movwf	7
 10397  0D5C  3008               	movlw	8
 10398  0D5D  0081               	movwf	1
 10399                           
 10400                           ;usb_device.c: 2651:                 pBDTEntryIn[0]->STAT.Val |= 0x80;
 10401  0D5E  086A               	movf	_pBDTEntryIn,w
 10402  0D5F  0086               	movwf	6
 10403  0D60  086B               	movf	_pBDTEntryIn+1,w
 10404  0D61  0087               	movwf	7
 10405  0D62  1781               	bsf	1,7
 10406  0D63  2D6C               	goto	i1l451
 10407  0D64                     i1l443:	
 10408                           ;usb_device.c: 2655:  else
 10409                           
 10410                           
 10411                           ;usb_device.c: 2656:  {;usb_device.c: 2660:         if(outPipes[0].info.bits.busy == 1)
 10412  0D64  1FE2               	btfss	(_outPipes^(0+256)+2),7	;volatile
 10413  0D65  2D67               	goto	u225_21
 10414  0D66  2D68               	goto	u225_20
 10415  0D67                     u225_21:
 10416  0D67  2D6B               	goto	i1l3614
 10417  0D68                     u225_20:
 10418  0D68                     i1l3612:
 10419                           
 10420                           ;usb_device.c: 2663:             {;usb_device.c: 2664:                 outPipes[0].pFunc
      +                          ();
 10421  0D68  0865               	movf	(low ((_outPipes| (0+256)+5)))^0,w	;volatile
 10422  0D69  0866               	movf	((low ((_outPipes| (0+256)+5))+1))^0,w	;volatile
 10423  0D6A                     i1l450:	
 10424                           ;usb_device.c: 2665:             }
 10425                           
 10426                           
 10427                           ;usb_device.c: 2666:             outPipes[0].info.bits.busy = 0;
 10428  0D6A  13E2               	bcf	(_outPipes^(0+256)+2),7	;volatile
 10429  0D6B                     i1l3614:
 10430                           
 10431                           ;usb_device.c: 2669:         controlTransferState = 0;
 10432  0D6B  01EB               	clrf	_controlTransferState^(0+256)	;volatile
 10433  0D6C                     i1l451:
 10434  0D6C  0008               	return
 10435  0D6D                     __end_of_USBCtrlTrfInHandler:
 10436                           
 10437                           	psect	text44
 10438  0DEB                     __ptext44:	
 10439 ;; *************** function _USBCtrlTrfTxService *****************
 10440 ;; Defined at:
 10441 ;;		line 1775 in file "usb_device.c"
 10442 ;; Parameters:    Size  Location     Type
 10443 ;;		None
 10444 ;; Auto vars:     Size  Location     Type
 10445 ;;  byteToSend      1    2[COMMON] unsigned char 
 10446 ;; Return value:  Size  Location     Type
 10447 ;;                  1    wreg      void 
 10448 ;; Registers used:
 10449 ;;		wreg, fsr0l, fsr0h, fsr1l, fsr1h, status,2, status,0, pclath
 10450 ;; Tracked objects:
 10451 ;;		On entry : 0/0
 10452 ;;		On exit  : 0/0
 10453 ;;		Unchanged: 0/0
 10454 ;; Data sizes:     COMMON   BANK0   BANK1   BANK2   BANK3   BANK4   BANK5   BANK6   BANK7   BANK8   BANK9  BANK10  BANK1
      +1  BANK12
 10455 ;;      Params:         0       0       0       0       0       0       0       0       0       0       0       0       
      +0       0
 10456 ;;      Locals:         1       0       0       0       0       0       0       0       0       0       0       0       
      +0       0
 10457 ;;      Temps:          2       0       0       0       0       0       0       0       0       0       0       0       
      +0       0
 10458 ;;      Totals:         3       0       0       0       0       0       0       0       0       0       0       0       
      +0       0
 10459 ;;Total ram usage:        3 bytes
 10460 ;; Hardware stack levels used: 1
 10461 ;; This function calls:
 10462 ;;		Nothing
 10463 ;; This function is called by:
 10464 ;;		_USBCtrlEPAllowDataStage
 10465 ;;		_USBCtrlTrfInHandler
 10466 ;; This function uses a non-reentrant model
 10467 ;;
 10468                           
 10469  0DEB                     _USBCtrlTrfTxService:	
 10470                           ;psect for function _USBCtrlTrfTxService
 10471                           
 10472  0DEB                     i1l3036:	
 10473                           ;incstack = 0
 10474                           ; Regs used in _USBCtrlTrfTxService: [wreg-fsr1h+status,2+status,0+pclath]
 10475                           
 10476                           
 10477                           ;usb_device.c: 1777:     uint8_t byteToSend;;usb_device.c: 1781:     byteToSend = 8;
 10478  0DEB  3008               	movlw	8
 10479  0DEC  00F0               	movwf	??_USBCtrlTrfTxService
 10480  0DED  0870               	movf	??_USBCtrlTrfTxService,w
 10481  0DEE  00F2               	movwf	USBCtrlTrfTxService@byteToSend
 10482                           
 10483                           ;usb_device.c: 1782:     if(inPipes[0].wCount.Val < (uint8_t)8)
 10484  0DEF  3000               	movlw	0
 10485  0DF0  0020               	movlb	0	; select bank0
 10486  0DF1  0269               	subwf	_inPipes+4,w	;volatile
 10487  0DF2  3008               	movlw	8
 10488  0DF3  1903               	skipnz
 10489  0DF4  0268               	subwf	_inPipes+3,w	;volatile
 10490  0DF5  1803               	skipnc
 10491  0DF6  2DF8               	goto	u157_21
 10492  0DF7  2DF9               	goto	u157_20
 10493  0DF8                     u157_21:
 10494  0DF8  2E11               	goto	i1l342
 10495  0DF9                     u157_20:
 10496  0DF9                     i1l3038:
 10497                           
 10498                           ;usb_device.c: 1783:     {;usb_device.c: 1784:         byteToSend = inPipes[0].wCount.Va
      +                          l;
 10499  0DF9  0868               	movf	_inPipes+3,w	;volatile
 10500  0DFA  00F0               	movwf	??_USBCtrlTrfTxService
 10501  0DFB  0870               	movf	??_USBCtrlTrfTxService,w
 10502  0DFC  00F2               	movwf	USBCtrlTrfTxService@byteToSend
 10503  0DFD                     i1l3040:
 10504                           
 10505                           ;usb_device.c: 1791:         if(shortPacketStatus == 0)
 10506  0DFD  0022               	movlb	2	; select bank2
 10507  0DFE  086C               	movf	_shortPacketStatus^(0+256),w	;volatile
 10508  0DFF  1D03               	btfss	3,2
 10509  0E00  2E02               	goto	u158_21
 10510  0E01  2E03               	goto	u158_20
 10511  0E02                     u158_21:
 10512  0E02  2E08               	goto	i1l3044
 10513  0E03                     u158_20:
 10514  0E03                     i1l3042:
 10515                           
 10516                           ;usb_device.c: 1792:         {;usb_device.c: 1793:             shortPacketStatus = 1;
 10517  0E03  3001               	movlw	1
 10518  0E04  00F0               	movwf	??_USBCtrlTrfTxService
 10519  0E05  0870               	movf	??_USBCtrlTrfTxService,w
 10520  0E06  00EC               	movwf	_shortPacketStatus^(0+256)	;volatile
 10521                           
 10522                           ;usb_device.c: 1794:         }
 10523  0E07  2E11               	goto	i1l342
 10524  0E08                     i1l3044:
 10525  0E08  036C               	decf	_shortPacketStatus^(0+256),w	;volatile
 10526  0E09  1D03               	btfss	3,2
 10527  0E0A  2E0C               	goto	u159_21
 10528  0E0B  2E0D               	goto	u159_20
 10529  0E0C                     u159_21:
 10530  0E0C  2E11               	goto	i1l342
 10531  0E0D                     u159_20:
 10532  0E0D                     i1l3046:
 10533                           
 10534                           ;usb_device.c: 1796:         {;usb_device.c: 1797:             shortPacketStatus = 2;
 10535  0E0D  3002               	movlw	2
 10536  0E0E  00F0               	movwf	??_USBCtrlTrfTxService
 10537  0E0F  0870               	movf	??_USBCtrlTrfTxService,w
 10538  0E10  00EC               	movwf	_shortPacketStatus^(0+256)	;volatile
 10539  0E11                     i1l342:	
 10540                           ;usb_device.c: 1799:     }
 10541                           
 10542                           
 10543                           ;usb_device.c: 1803:     inPipes[0].wCount.Val -= byteToSend;
 10544  0E11  0872               	movf	USBCtrlTrfTxService@byteToSend,w
 10545  0E12  00F0               	movwf	??_USBCtrlTrfTxService
 10546  0E13  01F1               	clrf	??_USBCtrlTrfTxService+1
 10547  0E14  0870               	movf	??_USBCtrlTrfTxService,w
 10548  0E15  0020               	movlb	0	; select bank0
 10549  0E16  02E8               	subwf	_inPipes+3,f	;volatile
 10550  0E17  0871               	movf	??_USBCtrlTrfTxService+1,w
 10551  0E18  3BE9               	subwfb	_inPipes+4,f	;volatile
 10552  0E19                     i1l3048:
 10553                           
 10554                           ;usb_device.c: 1808:     pBDTEntryIn[0]->CNT = byteToSend;
 10555  0E19  086A               	movf	_pBDTEntryIn,w
 10556  0E1A  3E01               	addlw	1
 10557  0E1B  00F0               	movwf	??_USBCtrlTrfTxService
 10558  0E1C  3000               	movlw	0
 10559  0E1D  3D6B               	addwfc	_pBDTEntryIn+1,w
 10560  0E1E  00F1               	movwf	??_USBCtrlTrfTxService+1
 10561  0E1F  0870               	movf	??_USBCtrlTrfTxService,w
 10562  0E20  0086               	movwf	6
 10563  0E21  0871               	movf	??_USBCtrlTrfTxService+1,w
 10564  0E22  0087               	movwf	7
 10565  0E23  0872               	movf	USBCtrlTrfTxService@byteToSend,w
 10566  0E24  0081               	movwf	1
 10567  0E25                     i1l3050:
 10568                           
 10569                           ;usb_device.c: 1812:     pDst = (volatile uint8_t*)CtrlTrfData;
 10570  0E25  3048               	movlw	72
 10571  0E26  00F0               	movwf	??_USBCtrlTrfTxService
 10572  0E27  0870               	movf	??_USBCtrlTrfTxService,w
 10573  0E28  0023               	movlb	3	; select bank3
 10574  0E29  00B7               	movwf	_pDst^(0+384)
 10575  0E2A                     i1l3052:
 10576                           
 10577                           ;usb_device.c: 1813:     if(inPipes[0].info.bits.ctrl_trf_mem == 0x00)
 10578  0E2A  0020               	movlb	0	; select bank0
 10579  0E2B  1867               	btfsc	_inPipes+2,0	;volatile
 10580  0E2C  2E2E               	goto	u160_21
 10581  0E2D  2E2F               	goto	u160_20
 10582  0E2E                     u160_21:
 10583  0E2E  2E68               	goto	i1l3074
 10584  0E2F                     u160_20:
 10585  0E2F  2E49               	goto	i1l3064
 10586  0E30                     i1l3056:
 10587                           
 10588                           ;usb_device.c: 1816:         {;usb_device.c: 1817:             *pDst++ = *inPipes[0].pSr
      +                          c.bRom++;
 10589  0E30  0020               	movlb	0	; select bank0
 10590  0E31  0865               	movf	_inPipes,w	;volatile
 10591  0E32  0084               	movwf	4
 10592  0E33  0866               	movf	_inPipes+1,w	;volatile
 10593  0E34  0085               	movwf	5
 10594  0E35  0800               	movf	0,w	;code access
 10595  0E36  00F0               	movwf	??_USBCtrlTrfTxService
 10596  0E37  0023               	movlb	3	; select bank3
 10597  0E38  0837               	movf	_pDst^(0+384),w
 10598  0E39  0086               	movwf	6
 10599  0E3A  0187               	clrf	7
 10600  0E3B  0870               	movf	??_USBCtrlTrfTxService,w
 10601  0E3C  0081               	movwf	1
 10602  0E3D                     i1l3058:
 10603  0E3D  3001               	movlw	1
 10604  0E3E  0020               	movlb	0	; select bank0
 10605  0E3F  07E5               	addwf	_inPipes,f	;volatile
 10606  0E40  3000               	movlw	0
 10607  0E41  3DE6               	addwfc	_inPipes+1,f	;volatile
 10608  0E42                     i1l3060:
 10609  0E42  3001               	movlw	1
 10610  0E43  00F0               	movwf	??_USBCtrlTrfTxService
 10611  0E44  0870               	movf	??_USBCtrlTrfTxService,w
 10612  0E45  0023               	movlb	3	; select bank3
 10613  0E46  07B7               	addwf	_pDst^(0+384),f
 10614  0E47                     i1l3062:
 10615                           
 10616                           ;usb_device.c: 1818:             byteToSend--;
 10617  0E47  3001               	movlw	1
 10618  0E48  02F2               	subwf	USBCtrlTrfTxService@byteToSend,f
 10619  0E49                     i1l3064:
 10620                           
 10621                           ;usb_device.c: 1815:         while(byteToSend)
 10622  0E49  0872               	movf	USBCtrlTrfTxService@byteToSend,w
 10623  0E4A  1D03               	btfss	3,2
 10624  0E4B  2E4D               	goto	u161_21
 10625  0E4C  2E4E               	goto	u161_20
 10626  0E4D                     u161_21:
 10627  0E4D  2E30               	goto	i1l3056
 10628  0E4E                     u161_20:
 10629  0E4E  2E6D               	goto	i1l354
 10630  0E4F                     i1l3066:
 10631                           
 10632                           ;usb_device.c: 1824:         {;usb_device.c: 1825:             *pDst++ = *inPipes[0].pSr
      +                          c.bRam++;
 10633  0E4F  0020               	movlb	0	; select bank0
 10634  0E50  0865               	movf	_inPipes,w	;volatile
 10635  0E51  0084               	movwf	4
 10636  0E52  0866               	movf	_inPipes+1,w	;volatile
 10637  0E53  0085               	movwf	5
 10638  0E54  0800               	movf	0,w	;code access
 10639  0E55  00F0               	movwf	??_USBCtrlTrfTxService
 10640  0E56  0023               	movlb	3	; select bank3
 10641  0E57  0837               	movf	_pDst^(0+384),w
 10642  0E58  0086               	movwf	6
 10643  0E59  0187               	clrf	7
 10644  0E5A  0870               	movf	??_USBCtrlTrfTxService,w
 10645  0E5B  0081               	movwf	1
 10646  0E5C                     i1l3068:
 10647  0E5C  3001               	movlw	1
 10648  0E5D  0020               	movlb	0	; select bank0
 10649  0E5E  07E5               	addwf	_inPipes,f	;volatile
 10650  0E5F  3000               	movlw	0
 10651  0E60  3DE6               	addwfc	_inPipes+1,f	;volatile
 10652  0E61                     i1l3070:
 10653  0E61  3001               	movlw	1
 10654  0E62  00F0               	movwf	??_USBCtrlTrfTxService
 10655  0E63  0870               	movf	??_USBCtrlTrfTxService,w
 10656  0E64  0023               	movlb	3	; select bank3
 10657  0E65  07B7               	addwf	_pDst^(0+384),f
 10658  0E66                     i1l3072:
 10659                           
 10660                           ;usb_device.c: 1826:             byteToSend--;
 10661  0E66  3001               	movlw	1
 10662  0E67  02F2               	subwf	USBCtrlTrfTxService@byteToSend,f
 10663  0E68                     i1l3074:
 10664                           
 10665                           ;usb_device.c: 1823:         while(byteToSend)
 10666  0E68  0872               	movf	USBCtrlTrfTxService@byteToSend,w
 10667  0E69  1D03               	btfss	3,2
 10668  0E6A  2E6C               	goto	u162_21
 10669  0E6B  2E6D               	goto	u162_20
 10670  0E6C                     u162_21:
 10671  0E6C  2E4F               	goto	i1l3066
 10672  0E6D                     u162_20:
 10673  0E6D                     i1l354:
 10674  0E6D  0008               	return
 10675  0E6E                     __end_of_USBCtrlTrfTxService:
 10676  007E                     btemp	set	126	;btemp
 10677  007E                     int$flags	set	126
 10678  007E                     wtemp0	set	126
 10679                           
 10680                           	psect	config
 10681                           
 10682                           ;Config register CONFIG1 @ 0x8007
 10683                           ;	Oscillator Selection Bits
 10684                           ;	FOSC = INTOSC, INTOSC oscillator: I/O function on CLKIN pin
 10685                           ;	Watchdog Timer Enable
 10686                           ;	WDTE = OFF, WDT disabled
 10687                           ;	Power-up Timer Enable
 10688                           ;	PWRTE = OFF, PWRT disabled
 10689                           ;	MCLR Pin Function Select
 10690                           ;	MCLRE = OFF, MCLR/VPP pin function is digital input
 10691                           ;	Flash Program Memory Code Protection
 10692                           ;	CP = OFF, Program memory code protection is disabled
 10693                           ;	Brown-out Reset Enable
 10694                           ;	BOREN = ON, Brown-out Reset enabled
 10695                           ;	Clock Out Enable
 10696                           ;	CLKOUTEN = OFF, CLKOUT function is disabled. I/O or oscillator function on the CLKOUT 
      +                          pin
 10697                           ;	Internal/External Switchover Mode
 10698                           ;	IESO = OFF, Internal/External Switchover Mode is disabled
 10699                           ;	Fail-Safe Clock Monitor Enable
 10700                           ;	FCMEN = OFF, Fail-Safe Clock Monitor is disabled
 10701  8007                     	org	32775
 10702  8007  0FA4               	dw	4004
 10703                           
 10704                           ;Config register CONFIG2 @ 0x8008
 10705                           ;	Flash Memory Self-Write Protection
 10706                           ;	WRT = OFF, Write protection off
 10707                           ;	CPU System Clock Selection Bit
 10708                           ;	CPUDIV = NOCLKDIV, NO CPU system divide
 10709                           ;	USB Low SPeed Clock Selection bit
 10710                           ;	USBLSCLK = 48MHz, System clock expects 48 MHz, FS/LS USB CLKENs divide-by is set to 8.
 10711                           ;	PLL Multipler Selection Bit
 10712                           ;	PLLMULT = 3x, 3x Output Frequency Selected
 10713                           ;	PLL Enable Bit
 10714                           ;	PLLEN = ENABLED, 3x or 4x PLL Enabled
 10715                           ;	Stack Overflow/Underflow Reset Enable
 10716                           ;	STVREN = ON, Stack Overflow or Underflow will cause a Reset
 10717                           ;	Brown-out Reset Voltage Selection
 10718                           ;	BORV = LO, Brown-out Reset Voltage (Vbor), low trip point selected.
 10719                           ;	Low-Power Brown Out Reset
 10720                           ;	LPBOR = OFF, Low-Power BOR is disabled
 10721                           ;	Low-Voltage Programming Enable
 10722                           ;	LVP = OFF, High-voltage on MCLR/VPP must be used for programming
 10723  8008                     	org	32776
 10724  8008  1FCF               	dw	8143

Data Sizes:
    Strings     0
    Constant    176
    Data        0
    BSS         55
    Persistent  32
    Stack       0

Auto Spaces:
    Space          Size  Autos    Used
    COMMON           14     14      14
    BANK0            32     21      32
    BANK1            16     14      16
    BANK2            16      0      16
    BANK3            80      0      26
    BANK4            80      0       0
    BANK5            80      0       0
    BANK6            80      0       0
    BANK7            80      0       0
    BANK8            80      0       0
    BANK9            80      0       0
    BANK10           80      0       0
    BANK11           80      0       0
    BANK12           48      0       0

Pointer List with Targets:

    USER_USB_CALLBACK_EVENT_HANDLER@pdata	PTR void  size(2) Largest target is 4096
		 -> RAM(DATA[4096]), USTATcopy(BANK2[1]), USBActiveConfiguration(BANK2[1]), BDT(BANK0[32]), 
		 -> NULL(NULL[0]), 

    memset@dest	PTR void  size(2) Largest target is 32
		 -> USBAlternateInterface(BANK2[1]), BDT(BANK0[32]), 

    memset@s	PTR unsigned char  size(2) Largest target is 32
		 -> USBAlternateInterface(BANK2[1]), BDT(BANK0[32]), 

    memcpy@d1	PTR void  size(1) Largest target is 8
		 -> SetupPkt(BANK0[8]), 

    memcpy@d	PTR unsigned char  size(1) Largest target is 8
		 -> SetupPkt(BANK0[8]), 

    memcpy@s1	PTR const void  size(2) Largest target is 4096
		 -> CtrlTrfData(BANK0[8]), RAM(DATA[4096]), SetupPkt(BANK0[8]), 

    memcpy@s	PTR const unsigned char  size(2) Largest target is 4096
		 -> CtrlTrfData(BANK0[8]), RAM(DATA[4096]), SetupPkt(BANK0[8]), 

    USBStdFeatureReqHandler@pUEP	PTR unsigned char  size(2) Largest target is 1
		 -> UEP0(SFR29[1]), 

    USBStdFeatureReqHandler@p	PTR struct __BDT size(2) Largest target is 4096
		 -> RAM(DATA[4096]), BDT(BANK0[32]), NULL(NULL[0]), 

    sp__memcpy	PTR void  size(1) Largest target is 8
		 -> SetupPkt(BANK0[8]), 

    USBStdGetStatusHandler@p	PTR struct __BDT size(2) Largest target is 4096
		 -> RAM(DATA[4096]), BDT(BANK0[32]), NULL(NULL[0]), 

    sp__memset	PTR void  size(2) Largest target is 32
		 -> USBAlternateInterface(BANK2[1]), BDT(BANK0[32]), 

    USBStdSetCfgHandler@p	PTR unsigned char  size(2) Largest target is 1
		 -> UEP1(SFR29[1]), 

    pDst	PTR volatile unsigned char  size(1) Largest target is 8
		 -> CtrlTrfData(BANK0[8]), NULL(NULL[0]), 

    USBConfigureEndpoint@handle	PTR volatile struct __BDT size(1) Largest target is 32
		 -> BDT(BANK0[32]), 

    pBDTEntryEP0OutCurrent	PTR volatile struct __BDT size(1) Largest target is 32
		 -> BDT(BANK0[32]), NULL(NULL[0]), 

    pBDTEntryEP0OutNext	PTR volatile struct __BDT size(2) Largest target is 4096
		 -> RAM(DATA[4096]), BDT(BANK0[32]), NULL(NULL[0]), 

    USBTransferOnePacket@data	PTR unsigned char  size(2) Largest target is 64
		 -> ToSendDataBuffer(BANK2[64]), ReceivedDataBuffer(BANK1[64]), 

    USBTransferOnePacket@handle	PTR volatile struct __BDT size(2) Largest target is 4096
		 -> RAM(DATA[4096]), BDT(BANK0[32]), NULL(NULL[0]), 

    USBEnableEndpoint@p	PTR unsigned char  size(2) Largest target is 1
		 -> UEP0(SFR29[1]), 

    pBDTEntryOut	PTR volatile struct __BDT[2] size(2) Largest target is 4096
		 -> RAM(DATA[4096]), BDT(BANK0[32]), NULL(NULL[0]), 

    pBDTEntryIn	PTR volatile struct __BDT[2] size(2) Largest target is 4096
		 -> RAM(DATA[4096]), BDT(BANK0[32]), NULL(NULL[0]), 

    S306$pFunc	PTR FTN()void  size(2) Largest target is 0

    outPipes.pFunc	PTR FTN()void  size(2) Largest target is 0

    S296$wRam	PTR unsigned short  size(1) Largest target is 0

    outPipes.pDst.wRam	PTR unsigned short  size(1) Largest target is 0

    S296$bRam	PTR unsigned char  size(1) Largest target is 0

    outPipes.pDst.bRam	PTR unsigned char  size(1) Largest target is 0

    S272$wRom	PTR const unsigned short  size(1) Largest target is 0

    inPipes.pSrc.wRom	PTR const unsigned short  size(1) Largest target is 0

    S272$wRam	PTR unsigned short  size(1) Largest target is 0

    inPipes.pSrc.wRam	PTR unsigned short  size(1) Largest target is 0

    S272$bRom	PTR const unsigned char  size(1) Largest target is 0

    inPipes.pSrc.bRom	PTR const unsigned char  size(1) Largest target is 0

    S272$bRam	PTR unsigned char  size(1) Largest target is 0

    inPipes.pSrc.bRam	PTR unsigned char  size(1) Largest target is 0

    USBDeviceInit@p	PTR unsigned char  size(2) Largest target is 1
		 -> UEP1(SFR29[1]), 

    USB_SD_Ptr	const PTR const unsigned char [3] size(2) Largest target is 42
		 -> sd002(CODE[42]), sd001(CODE[34]), sd000(CODE[4]), 

    USB_CD_Ptr	const PTR const unsigned char [1] size(2) Largest target is 41
		 -> configDescriptor1(CODE[41]), 

    sp__USBTransferOnePacket	PTR void  size(2) Largest target is 4096
		 -> RAM(DATA[4096]), BDT(BANK0[32]), NULL(NULL[0]), 

    USBOutHandle	PTR volatile void  size(2) Largest target is 4096
		 -> RAM(DATA[4096]), BDT(BANK0[32]), NULL(NULL[0]), 

    USBInHandle	PTR volatile void  size(2) Largest target is 4096
		 -> RAM(DATA[4096]), BDT(BANK0[32]), NULL(NULL[0]), 


Critical Paths under _main in COMMON

    None.

Critical Paths under _SYS_InterruptHigh in COMMON

    _USBCtrlEPServiceComplete->_USBCtrlEPAllowDataStage
    _USBCtrlEPAllowDataStage->_USBCtrlTrfTxService
    _USBStdSetCfgHandler->_memset
    _USER_USB_CALLBACK_EVENT_HANDLER->_APP_DeviceCustomHIDInitialize
    i1_SYSTEM_Initialize->i1_LED_Off
    _APP_DeviceCustomHIDInitialize->_USBEnableEndpoint
    _USBEnableEndpoint->_USBConfigureEndpoint
    _USBCtrlTrfOutHandler->_USBCtrlTrfRxService
    _USBCtrlTrfRxService->_USBCtrlEPAllowStatusStage
    _USBCtrlTrfInHandler->_USBCtrlTrfTxService

Critical Paths under _main in BANK0

    None.

Critical Paths under _SYS_InterruptHigh in BANK0

    _SYS_InterruptHigh->_USBDeviceTasks
    _USBDeviceTasks->_USBCtrlEPService
    _USBWakeFromSuspend->_USER_USB_CALLBACK_EVENT_HANDLER
    _USBSuspend->_USER_USB_CALLBACK_EVENT_HANDLER
    _USBCtrlEPService->_USBCtrlTrfSetupHandler
    _USBCtrlTrfSetupHandler->_USBCheckStdRequest
    _USBCheckStdRequest->_USBStdFeatureReqHandler
    _USBStdSetCfgHandler->_USER_USB_CALLBACK_EVENT_HANDLER
    _USBStdFeatureReqHandler->_USER_USB_CALLBACK_EVENT_HANDLER

Critical Paths under _main in BANK1

    _main->_APP_DeviceCustomHIDTasks
    _SYSTEM_Initialize->_LED_Off
    _APP_DeviceCustomHIDTasks->_USBTransferOnePacket

Critical Paths under _SYS_InterruptHigh in BANK1

    None.

Critical Paths under _main in BANK2

    None.

Critical Paths under _SYS_InterruptHigh in BANK2

    None.

Critical Paths under _main in BANK3

    None.

Critical Paths under _SYS_InterruptHigh in BANK3

    None.

Critical Paths under _main in BANK4

    None.

Critical Paths under _SYS_InterruptHigh in BANK4

    None.

Critical Paths under _main in BANK5

    None.

Critical Paths under _SYS_InterruptHigh in BANK5

    None.

Critical Paths under _main in BANK6

    None.

Critical Paths under _SYS_InterruptHigh in BANK6

    None.

Critical Paths under _main in BANK7

    None.

Critical Paths under _SYS_InterruptHigh in BANK7

    None.

Critical Paths under _main in BANK8

    None.

Critical Paths under _SYS_InterruptHigh in BANK8

    None.

Critical Paths under _main in BANK9

    None.

Critical Paths under _SYS_InterruptHigh in BANK9

    None.

Critical Paths under _main in BANK10

    None.

Critical Paths under _SYS_InterruptHigh in BANK10

    None.

Critical Paths under _main in BANK11

    None.

Critical Paths under _SYS_InterruptHigh in BANK11

    None.

Critical Paths under _main in BANK12

    None.

Critical Paths under _SYS_InterruptHigh in BANK12

    None.

Call Graph Tables:

 ---------------------------------------------------------------------------------
 (Depth) Function   	        Calls       Base Space   Used Autos Params    Refs
 ---------------------------------------------------------------------------------
 (0) _main                                                 0     0      0    1553
           _APP_DeviceCustomHIDTasks
                  _SYSTEM_Initialize
                    _USBDeviceAttach
                      _USBDeviceInit
 ---------------------------------------------------------------------------------
 (1) _USBDeviceInit                                        5     5      0     272
                                              0 BANK1      5     5      0
 ---------------------------------------------------------------------------------
 (1) _USBDeviceAttach                                      1     1      0       0
                                              0 BANK1      1     1      0
 ---------------------------------------------------------------------------------
 (1) _SYSTEM_Initialize                                    3     3      0      44
                                              3 BANK1      3     3      0
                           _LED_Init
                            _LED_Off
                       _init_alcohol
 ---------------------------------------------------------------------------------
 (2) _init_alcohol                                         0     0      0       0
 ---------------------------------------------------------------------------------
 (2) _LED_Init                                             0     0      0       0
 ---------------------------------------------------------------------------------
 (1) _APP_DeviceCustomHIDTasks                             3     3      0    1237
                                             11 BANK1      3     3      0
                            _LED_Off
                             _LED_On
               _USBTransferOnePacket
                      _check_alcohol
 ---------------------------------------------------------------------------------
 (2) _check_alcohol                                        6     6      0      71
                                              0 BANK1      6     6      0
 ---------------------------------------------------------------------------------
 (2) _USBTransferOnePacket                                11     7      4    1099
                                              0 BANK1     11     7      4
 ---------------------------------------------------------------------------------
 (2) _LED_On                                               3     3      0      22
                                              0 BANK1      3     3      0
 ---------------------------------------------------------------------------------
 (2) _LED_Off                                              3     3      0      22
                                              0 BANK1      3     3      0
 ---------------------------------------------------------------------------------
 Estimated maximum stack depth 2
 ---------------------------------------------------------------------------------
 (Depth) Function   	        Calls       Base Space   Used Autos Params    Refs
 ---------------------------------------------------------------------------------
 (3) _SYS_InterruptHigh                                    0     0      0   30441
                     _USBDeviceTasks
 ---------------------------------------------------------------------------------
 (4) _USBDeviceTasks                                       3     3      0   30441
                                             18 BANK0      3     3      0
          _USBCtrlEPAllowStatusStage
                   _USBCtrlEPService
      _USBIncrement1msInternalTimers
                    _USBStallHandler
                         _USBSuspend
                 _USBWakeFromSuspend
    _USER_USB_CALLBACK_EVENT_HANDLER
                    i1_USBDeviceInit
 ---------------------------------------------------------------------------------
 (5) i1_USBDeviceInit                                      5     5      0     272
                                              0 COMMON     5     5      0
 ---------------------------------------------------------------------------------
 (5) _USBWakeFromSuspend                                   1     1      0    3878
                                              6 BANK0      1     1      0
    _USER_USB_CALLBACK_EVENT_HANDLER
 ---------------------------------------------------------------------------------
 (5) _USBSuspend                                           1     1      0    3878
                                              6 BANK0      1     1      0
    _USER_USB_CALLBACK_EVENT_HANDLER
 ---------------------------------------------------------------------------------
 (5) _USBStallHandler                                      1     1      0       0
                                              0 COMMON     1     1      0
 ---------------------------------------------------------------------------------
 (5) _USBIncrement1msInternalTimers                        1     1      0       0
                                              0 COMMON     1     1      0
 ---------------------------------------------------------------------------------
 (5) _USBCtrlEPService                                     2     2      0   18467
                                             16 BANK0      2     2      0
                _USBCtrlTrfInHandler
               _USBCtrlTrfOutHandler
             _USBCtrlTrfSetupHandler
                             _memcpy
 ---------------------------------------------------------------------------------
 (6) _memcpy                                              10     6      4     363
                                              0 COMMON    10     6      4
 ---------------------------------------------------------------------------------
 (6) _USBCtrlTrfSetupHandler                               1     1      0   17875
                                             15 BANK0      1     1      0
                 _USBCheckStdRequest
           _USBCtrlEPServiceComplete
    _USER_USB_CALLBACK_EVENT_HANDLER
 ---------------------------------------------------------------------------------
 (7) _USBCtrlEPServiceComplete                             2     2      0      92
                                              5 COMMON     2     2      0
            _USBCtrlEPAllowDataStage
          _USBCtrlEPAllowStatusStage
 ---------------------------------------------------------------------------------
 (8) _USBCtrlEPAllowDataStage                              2     2      0      92
                                              3 COMMON     2     2      0
                _USBCtrlTrfTxService
 ---------------------------------------------------------------------------------
 (7) _USBCheckStdRequest                                   2     2      0   13905
                                             13 BANK0      2     2      0
            _USBStdFeatureReqHandler
                _USBStdGetDscHandler
             _USBStdGetStatusHandler
                _USBStdSetCfgHandler
    _USER_USB_CALLBACK_EVENT_HANDLER
 ---------------------------------------------------------------------------------
 (8) _USBStdSetCfgHandler                                  5     5      0    5632
                                              6 BANK0      5     5      0
    _USER_USB_CALLBACK_EVENT_HANDLER
                             _memset
 ---------------------------------------------------------------------------------
 (9) _memset                                              14     8      6    1519
                                              0 COMMON    14     8      6
 ---------------------------------------------------------------------------------
 (8) _USBStdGetStatusHandler                               4     4      0      46
                                              0 COMMON     4     4      0
 ---------------------------------------------------------------------------------
 (8) _USBStdGetDscHandler                                  3     3      0       0
                                              0 COMMON     3     3      0
 ---------------------------------------------------------------------------------
 (8) _USBStdFeatureReqHandler                              7     7      0    4349
                                              6 BANK0      7     7      0
    _USER_USB_CALLBACK_EVENT_HANDLER
 ---------------------------------------------------------------------------------
 (5) _USER_USB_CALLBACK_EVENT_HANDLER                      6     0      6    3878
                                              0 BANK0      6     0      6
      _APP_DeviceCustomHIDInitialize
                 _USBCheckHIDRequest
                          i1_LED_Off
                           i1_LED_On
                i1_SYSTEM_Initialize
 ---------------------------------------------------------------------------------
 (6) i1_SYSTEM_Initialize                                  3     3      0      44
                                              3 COMMON     3     3      0
                         i1_LED_Init
                          i1_LED_Off
                     i1_init_alcohol
 ---------------------------------------------------------------------------------
 (7) i1_init_alcohol                                       0     0      0       0
 ---------------------------------------------------------------------------------
 (7) i1_LED_Off                                            3     3      0      22
                                              0 COMMON     3     3      0
 ---------------------------------------------------------------------------------
 (7) i1_LED_Init                                           0     0      0       0
 ---------------------------------------------------------------------------------
 (6) i1_LED_On                                             3     3      0      22
                                              0 COMMON     3     3      0
 ---------------------------------------------------------------------------------
 (6) _USBCheckHIDRequest                                   2     2      0       0
                                              0 COMMON     2     2      0
 ---------------------------------------------------------------------------------
 (6) _APP_DeviceCustomHIDInitialize                        1     1      0    1098
                                             13 COMMON     1     1      0
                  _USBEnableEndpoint
             i1_USBTransferOnePacket
 ---------------------------------------------------------------------------------
 (7) i1_USBTransferOnePacket                              11     7      4     454
                                              0 COMMON    11     7      4
 ---------------------------------------------------------------------------------
 (7) _USBEnableEndpoint                                    6     5      1     644
                                              7 COMMON     6     5      1
               _USBConfigureEndpoint
 ---------------------------------------------------------------------------------
 (8) _USBConfigureEndpoint                                 7     6      1     400
                                              0 COMMON     7     6      1
 ---------------------------------------------------------------------------------
 (6) _USBCtrlTrfOutHandler                                 2     2      0     114
                                              6 COMMON     2     2      0
                _USBCtrlTrfRxService
 ---------------------------------------------------------------------------------
 (7) _USBCtrlTrfRxService                                  4     4      0     114
                                              2 COMMON     4     4      0
          _USBCtrlEPAllowStatusStage
 ---------------------------------------------------------------------------------
 (8) _USBCtrlEPAllowStatusStage                            2     2      0       0
                                              0 COMMON     2     2      0
 ---------------------------------------------------------------------------------
 (6) _USBCtrlTrfInHandler                                  3     3      0     115
                                              3 COMMON     3     3      0
                _USBCtrlTrfTxService
 ---------------------------------------------------------------------------------
 (9) _USBCtrlTrfTxService                                  3     3      0      92
                                              0 COMMON     3     3      0
 ---------------------------------------------------------------------------------
 Estimated maximum stack depth 9
 ---------------------------------------------------------------------------------

 Call Graph Graphs:

 _main (ROOT)
   _APP_DeviceCustomHIDTasks
     _LED_Off
     _LED_On
     _USBTransferOnePacket
     _check_alcohol
   _SYSTEM_Initialize
     _LED_Init
     _LED_Off
     _init_alcohol
   _USBDeviceAttach
   _USBDeviceInit

 _SYS_InterruptHigh (ROOT)
   _USBDeviceTasks
     _USBCtrlEPAllowStatusStage
     _USBCtrlEPService
       _USBCtrlTrfInHandler
         _USBCtrlTrfTxService
       _USBCtrlTrfOutHandler
         _USBCtrlTrfRxService
           _USBCtrlEPAllowStatusStage
       _USBCtrlTrfSetupHandler
         _USBCheckStdRequest
           _USBStdFeatureReqHandler
             _USER_USB_CALLBACK_EVENT_HANDLER
               _APP_DeviceCustomHIDInitialize
                 _USBEnableEndpoint
                   _USBConfigureEndpoint
                 i1_USBTransferOnePacket
               _USBCheckHIDRequest
               i1_LED_Off
               i1_LED_On
               i1_SYSTEM_Initialize
                 i1_LED_Init
                 i1_LED_Off
                 i1_init_alcohol
           _USBStdGetDscHandler
           _USBStdGetStatusHandler
           _USBStdSetCfgHandler
             _USER_USB_CALLBACK_EVENT_HANDLER
             _memset
           _USER_USB_CALLBACK_EVENT_HANDLER
         _USBCtrlEPServiceComplete
           _USBCtrlEPAllowDataStage
             _USBCtrlTrfTxService
           _USBCtrlEPAllowStatusStage
         _USER_USB_CALLBACK_EVENT_HANDLER
       _memcpy
     _USBIncrement1msInternalTimers
     _USBStallHandler
     _USBSuspend
       _USER_USB_CALLBACK_EVENT_HANDLER
     _USBWakeFromSuspend
       _USER_USB_CALLBACK_EVENT_HANDLER
     _USER_USB_CALLBACK_EVENT_HANDLER
     i1_USBDeviceInit

 Address spaces:
Name               Size   Autos  Total    Cost      Usage
BIGRAM             3F0      0       0       0        0.0%
NULL                 0      0       0       0        0.0%
CODE                 0      0       0       0        0.0%
BITCOMMON            E      0       0       1        0.0%
BITSFR0              0      0       0       1        0.0%
SFR0                 0      0       0       1        0.0%
COMMON               E      E       E       2      100.0%
BITSFR1              0      0       0       2        0.0%
SFR1                 0      0       0       2        0.0%
BITSFR2              0      0       0       3        0.0%
SFR2                 0      0       0       3        0.0%
STACK                0      0       0       3        0.0%
BITBANK0            20      0       0       4        0.0%
BITSFR3              0      0       0       4        0.0%
SFR3                 0      0       0       4        0.0%
BANK0               20     15      20       5      100.0%
BITSFR4              0      0       0       5        0.0%
SFR4                 0      0       0       5        0.0%
BITBANK1            10      0       0       6        0.0%
BITSFR5              0      0       0       6        0.0%
SFR5                 0      0       0       6        0.0%
BANK1               10      E      10       7      100.0%
BITSFR6              0      0       0       7        0.0%
SFR6                 0      0       0       7        0.0%
BITBANK2            10      0       0       8        0.0%
BITSFR7              0      0       0       8        0.0%
SFR7                 0      0       0       8        0.0%
BANK2               10      0      10       9      100.0%
BITSFR8              0      0       0       9        0.0%
SFR8                 0      0       0       9        0.0%
BITBANK3            50      0       0      10        0.0%
BITSFR9              0      0       0      10        0.0%
SFR9                 0      0       0      10        0.0%
BANK3               50      0      1A      11       32.5%
BITSFR10             0      0       0      11        0.0%
SFR10                0      0       0      11        0.0%
BITBANK4            50      0       0      12        0.0%
BITSFR11             0      0       0      12        0.0%
SFR11                0      0       0      12        0.0%
BANK4               50      0       0      13        0.0%
BITSFR12             0      0       0      13        0.0%
SFR12                0      0       0      13        0.0%
BITBANK5            50      0       0      14        0.0%
BITSFR13             0      0       0      14        0.0%
SFR13                0      0       0      14        0.0%
BANK5               50      0       0      15        0.0%
BITSFR14             0      0       0      15        0.0%
SFR14                0      0       0      15        0.0%
BITBANK6            50      0       0      16        0.0%
BITSFR15             0      0       0      16        0.0%
SFR15                0      0       0      16        0.0%
BANK6               50      0       0      17        0.0%
BITSFR16             0      0       0      17        0.0%
SFR16                0      0       0      17        0.0%
BITBANK7            50      0       0      18        0.0%
BITSFR17             0      0       0      18        0.0%
SFR17                0      0       0      18        0.0%
BANK7               50      0       0      19        0.0%
BITSFR18             0      0       0      19        0.0%
SFR18                0      0       0      19        0.0%
BITSFR19             0      0       0      20        0.0%
SFR19                0      0       0      20        0.0%
ABS                  0      0      68      20        0.0%
BITBANK8            50      0       0      21        0.0%
BITSFR20             0      0       0      21        0.0%
SFR20                0      0       0      21        0.0%
BANK8               50      0       0      22        0.0%
BITSFR21             0      0       0      22        0.0%
SFR21                0      0       0      22        0.0%
BITBANK9            50      0       0      23        0.0%
BITSFR22             0      0       0      23        0.0%
SFR22                0      0       0      23        0.0%
BANK9               50      0       0      24        0.0%
BITSFR23             0      0       0      24        0.0%
SFR23                0      0       0      24        0.0%
BITBANK10           50      0       0      25        0.0%
BITSFR24             0      0       0      25        0.0%
SFR24                0      0       0      25        0.0%
BANK10              50      0       0      26        0.0%
BITSFR25             0      0       0      26        0.0%
SFR25                0      0       0      26        0.0%
BITBANK11           50      0       0      27        0.0%
BITSFR26             0      0       0      27        0.0%
SFR26                0      0       0      27        0.0%
BANK11              50      0       0      28        0.0%
BITSFR27             0      0       0      28        0.0%
SFR27                0      0       0      28        0.0%
BITBANK12           30      0       0      29        0.0%
BITSFR28             0      0       0      29        0.0%
SFR28                0      0       0      29        0.0%
BANK12              30      0       0      30        0.0%
BITSFR29             0      0       0      30        0.0%
SFR29                0      0       0      30        0.0%
BITSFR30             0      0       0      31        0.0%
SFR30                0      0       0      31        0.0%
DATA                 0      0      68      31        0.0%
BITSFR31             0      0       0      32        0.0%
SFR31                0      0       0      32        0.0%


Microchip Technology PIC Macro Assembler V2.35 build 20211206165544 
Symbol Table                                                                                   Thu May 19 15:16:02 2022

                             _USB_SD_Ptr 1812                                       l28 04D9  
                                     l29 0579                                       l58 07F8  
                                     l85 09E0                            _USBDeviceInit 0370  
                     _USBCheckHIDRequest 06C5     USER_USB_CALLBACK_EVENT_HANDLER@event 0050  
   USER_USB_CALLBACK_EVENT_HANDLER@pdata 0052                                      l304 086D  
                                    l305 086C                                      l307 0877  
                                    l244 03B2              __end_of_USBStdGetDscHandler 0EF1  
                                    l601 0803                                      l249 0422  
                                    l285 0FFF                                      l605 096B  
                                    l608 098A                                      l573 093B  
                                    l583 0912                                      l575 093E  
                                    l576 0941                                      l592 0819  
                                    l585 0915                                      l577 0944  
                                    l586 0918                                      l587 091B  
                                    l579 0960                                      _BDT 0020  
                                    l589 0937                                      _UIE 0E92  
                                    _UIR 0E90                               _USBSuspend 0838  
                   USBStdSetCfgHandler@i 005A                     USBStdSetCfgHandler@p 0057  
            __end_ofi1_SYSTEM_Initialize 09B6                                      wreg 0009  
                         _USBDeviceTasks 0182                      ?_USBCheckHIDRequest 0070  
                         _USBDeviceState 00EF                    __end_of_check_alcohol 098B  
                  ??_USBCtrlTrfRxService 0072                 USBEnableEndpoint@options 0077  
                        __end_of_LED_Off 0938                                     l4000 085E  
                                   l4010 0869                                     l4002 0861  
                                   l4012 086A                                     l4004 0863  
                                   l4014 0872                                     l4006 0865  
                                   l4008 0867                                     l4120 07F2  
                                   l4122 07F5               USBConfigureEndpoint@handle 0076  
                                   l4118 07EE                                     l3620 0F88  
                                   l3630 0FA9                                     l3622 0F91  
                                   l5070 055B                                     l5072 094F  
                                   l3640 0FFB                                     l3632 0FB5  
                                   l3624 0F97                                     l3616 0F7A  
                                   l5074 0926                                     l3634 0FC7  
                                   l3618 0F7F                                     l3644 0911  
                                   l3660 0947                                     l3636 0FCC  
                                   l3628 0F9A                                     l5068 09D5  
                                   l3900 09C8                                     l3638 0FE3  
                                   l3670 0964                                     l3648 091E  
                                   l3656 093A                                     l3680 097F  
                                   l3672 0968                                     l3904 09CD  
                                   l3912 0370                                     l3682 0989  
                                   l3674 0970                                     l3850 04DF  
                                   l3930 038E                                     l3922 037C  
                                   l3914 0372                                     l3676 0972  
                                   l3668 0961                                     l3860 050E  
                                   l3852 04E6                                     l3844 04D1  
                                   l3940 03A8                                     l3932 0395  
                                   l3924 0381                                     l3916 0376  
                                   l3678 097A                                     l3870 0529  
                                   l3862 0515                                     l3854 04EF  
                                   l3686 080F                                     l3950 03B7  
                                   l3942 03AC                                     l3926 0385  
                                   l3872 052D                                     l3864 051A  
                                   l3856 04F6                                     l3880 0552  
                                   l3688 0801                                     l3960 03C8  
                                   l3952 03BD                                     l3944 03B4  
                                   l3928 0389                                     l3874 0545  
                                   l3866 051F                                     l3882 0563  
                                   l3858 04FE                                     l3890 09B9  
                                   l3962 03D4                                     l3954 03BF  
                                   l3946 03B5                                     l3938 0397  
                                   l3876 054C                                     l3868 0524  
                                   l3892 09BE                                     l3980 0403  
                                   l3972 03D9                                     l3964 03D5  
                                   l3956 03C1                                     l3948 03B6  
                                   l3894 09C0                                     l3990 0414  
                                   l3982 0406                                     l3974 03F4  
                                   l3966 03D6                                     l3958 03C3  
                                   l3896 09C1                                     l3888 09B8  
                                   l3992 0416                                     l3984 040B  
                                   l3976 03F8                                     l3968 03D7  
                                   l3898 09C4                                     l3994 041F  
                                   l3986 040D                                     l3978 03FE  
                                   l3996 0420                                     l3988 0413  
                                   l3998 0858                                     u2300 0989  
                                   u2301 0988                                     u2305 0985  
                                   u2260 0F7F                                     u2500 04F6  
                                   u2261 0F7E                                     u2501 04F5  
                                   u2270 0F97                                     u2510 04FE  
                                   u2271 0F96                                     u2511 04FD  
                                   u2280 0FCC                                     u2520 051A  
                                   u2600 0872                                     u2281 0FCB  
                                   u2521 0519                                     u2601 0871  
                                   u2290 0970                                     u2530 054C  
                                   u2291 096F                                     u2531 054B  
                                   u2460 04D8                                     u2540 038E  
                                   u2461 04D7                                     u2541 038D  
                                   u2470 04DE                                     u2471 04DD  
                                   u2480 04E6                                     u2560 03B2  
                                   u2481 04E5                                     u2561 03B1  
                                   u2490 04EE                                     u2570 03C8  
                                   u2491 04ED                                     u2571 03C7  
                                   u2555 039A                                     u2580 03FE  
                                   u3277 0976                                     u2581 03FD  
                                   u2590 085E                                     u2591 085D  
                                   i1l25 0837                                     i1l90 0009  
                                   i1l85 09B5                    ??_USBCtrlTrfTxService 0070  
                            ?i1_LED_Init 0070                                     _UCFG 0E91  
                                   _UEP0 0E98                                     _UEP1 0E99  
                                   _UEIE 0E97                                     _UEIR 0E93  
                                   _UCON 0E8E   USBStdFeatureReqHandler@current_ep_data 005A  
                                   _pDst 01B7                                     _main 07EE  
                                   fsr0h 0005                                     fsr1h 0007  
                                   indf0 0000                                     fsr0l 0004  
                                   indf1 0001                                     fsr1l 0006  
                        _USBDeviceAttach 0858                                     btemp 007E  
                                   start 000B                     ??_USBCheckHIDRequest 0070  
             __end_of_USBCheckStdRequest 0DEB                   ??_USBCtrlTrfOutHandler 0076  
              ??_USBStdFeatureReqHandler 0056                             _USBOutHandle 01AC  
               ??_USBStdGetStatusHandler 0070                           ?_USBDeviceInit 0070  
                       __end_of_LED_Init 081A                                    ?_main 0070  
                       __end_ofi1_LED_On 08E7                   __end_of_USBDeviceTasks 02A6  
              ?_USBCtrlEPServiceComplete 0070                                    i1l311 0CEE  
                                  i1l321 0C0A                                    i1l410 0A0D  
                                  i1l315 0CEE                                    i1l500 17FF  
                                  i1l244 05BA                                    i1l405 0C74  
                                  i1l413 0857                                    i1l261 01FE  
                                  i1l342 0E11                                    i1l326 0AB8  
                                  i1l430 0B03                                    i1l255 01B0  
                                  i1l256 02A5                                    i1l601 17DD  
                                  i1l329 0671                                    i1l249 0622  
                                  i1l265 0237                                    i1l354 0E6D  
                                  i1l450 0D6A                                    i1l266 02A3  
                                  i1l451 0D6C                                    i1l443 0D64  
                                  i1l523 0763                                    i1l339 06C4  
                                  i1l427 0BAE                                    i1l419 0899  
                                  i1l267 023E                                    i1l365 04C7  
                                  i1l357 043B                                    i1l437 0A75  
                                  i1l285 0F77                                    i1l390 0EF0  
                                  i1l367 04D0                                    i1l279 08BE  
                                  i1l455 0DEA                                    i1l376 07ED  
                                  i1l457 0D77                                    i1l394 0C0F  
                                  i1l466 0DA5                                    i1l491 013A  
                                  i1l573 08C1                                    i1l565 0B53  
                                  i1l493 014D                                    i1l397 0C66  
                                  i1l398 0C19                                    i1l575 08C4  
                                  i1l583 08E9                                    i1l495 0181  
                                  i1l399 0C1B                                    i1l576 08C7  
                                  i1l592 080E                                    i1l577 08CA  
                                  i1l585 08EC                                    i1l586 08EF  
                                  i1l579 08E6                                    i1l587 08F2  
                                  i1l589 090E                                    _UADDR 0E96  
                                  _USTAT 0E8F                         ??i1_init_alcohol 0070  
        __end_of_USBCtrlEPAllowDataStage 0C0B                                    _sd000 1818  
                                  _sd001 1053                                    _sd002 1000  
         ?_USBIncrement1msInternalTimers 0070                                    status 0003  
                                  wtemp0 007E                          __initialization 000D  
                           __end_of_main 07FE                                   ??_main 00EE  
                        ?_USBDeviceTasks 0070                              ?_USBSuspend 0070  
                              ??_LED_Off 00E0                          i1_USBDeviceInit 057A  
                __end_of_USBDeviceAttach 0878                                   _ACTCON 039B  
                          ?_init_alcohol 0070                                   _ANSELA 018C  
                                 _ANSELC 018E                        __end_ofi1_LED_Off 090F  
                 SYSTEM_Initialize@state 00E5                                   i1l1142 036F  
                                 i1l3002 08C0                                   i1l1138 0A3B  
                                 i1l3020 0B22                                   i1l3012 0B04  
                                 i1l3006 08CD                                   i1l3022 0B27  
                                 i1l3014 0B05                                   i1l3040 0DFD  
                                 i1l3120 0C7B                                   i1l3016 0B1A  
                                 u200_20 0105                                   u200_21 0104  
                                 i1l3050 0E25                                   i1l3042 0E03  
                                 i1l3130 0C96                                   i1l3122 0C7F  
                                 i1l3018 0B1F                                   i1l3026 0B2B  
                                 i1l3060 0E42                                   i1l3052 0E2A  
                                 i1l3044 0E08                                   i1l3036 0DEB  
                                 i1l3140 0CB1                                   i1l3132 0C9C  
                                 i1l3124 0C84                                   i1l3070 0E61  
                                 i1l3062 0E47                                   i1l3046 0E0D  
                                 i1l3038 0DF9                                   i1l3150 0CDA  
                                 i1l3142 0CBD                                   i1l3134 0CA2  
                                 i1l3126 0C88                                   i1l3118 0C75  
                                 i1l3310 0040                                   i1l3302 002C  
                                 i1l3230 0E6E                                   i1l3072 0E66  
                                 i1l3056 0E30                                   i1l3064 0E49  
                                 i1l3048 0E19                                   i1l3152 0CE7  
                                 i1l3144 0CC4                                   i1l3136 0CA7  
                                 i1l3128 0C8F                                   u201_20 0132  
                                 i1l3320 005C                                   i1l3312 0046  
                                 i1l3304 0032                                   i1l3240 0E88  
                                 i1l3232 0E75                                   i1l3160 0BC6  
                                 i1l3400 0640                                   u201_21 0131  
                                 i1l3066 0E4F                                   i1l3058 0E3D  
                                 i1l3074 0E68                                   i1l3146 0CC8  
                                 i1l3138 0CA9                                   i1l3330 009C  
                                 i1l3322 0065                                   i1l3306 0039  
                                 i1l3314 0048                                   i1l3250 0EBE  
                                 i1l3242 0E97                                   i1l3234 0E7A  
                                 i1l3170 0BEE                                   i1l3162 0BD3  
                                 i1l3154 0BAF                                   i1l3410 066B  
                                 i1l3402 064D                                   i1l3068 0E5C  
                                 i1l3148 0CCD                                   i1l3340 00C1  
                                 i1l3332 00A0                                   i1l3324 006C  
                                 i1l3316 004E                                   i1l3308 003A  
                                 i1l3252 0ECD                                   i1l3244 0EA6  
                                 i1l3236 0E7E                                   i1l3260 0EDD  
                                 i1l3172 0BF1                                   i1l3164 0BD9  
                                 i1l3156 0BB2                                   i1l3420 0685  
                                 i1l3412 0675                                   i1l3404 065A  
                                 i1l3350 00E5                                   i1l3342 00CB  
                                 i1l3334 00AB                                   i1l3326 0072  
                                 i1l3318 0055                                   i1l3254 0ED9  
                                 i1l3246 0EB6                                   i1l3238 0E83  
                                 i1l3270 0C10                                   i1l3174 0BFF  
                                 i1l3158 0BB9                                   i1l3166 0BDF  
                                 i1l3430 06A2                                   i1l3422 0686  
                                 i1l3414 067A                                   i1l3406 0660  
                                 i1l3600 0D2E                                   u202_20 013A  
                                 i1l3360 0105                                   i1l3352 00EC  
                                 i1l3344 00D1                                   i1l3336 00B1  
                                 i1l3328 0088                                   i1l3256 0EDB  
                                 i1l3248 0EB8                                   i1l3280 0C33  
                                 i1l3272 0C16                                   i1l3176 0C05  
                                 i1l3168 0BEA                                   u210_20 06C3  
                                 i1l3432 06AF                                   i1l3424 068C  
                                 i1l3416 0680                                   i1l3408 0665  
                                 u202_21 0139                                   u210_21 06C2  
                                 i1l3610 0D57                                   i1l3602 0D31  
                                 i1l3450 0444                                   i1l3442 0423  
                                 i1l3370 012E                                   i1l3362 010D  
                                 i1l3354 00F1                                   i1l3346 00D9  
                                 i1l3338 00B5                                   i1l3282 0C3D  
                                 i1l3274 0C1C                                   i1l3290 0C52  
                                 i1l3266 0C0B                                   i1l3434 06B5  
                                 i1l3418 0683                                   i1l3426 0690  
                                 i1l3530 0A20                                   i1l3612 0D68  
                                 i1l3604 0D38                                   i1l3460 0463  
                                 i1l3452 044F                                   i1l3444 0429  
                                 i1l3380 0165                                   i1l3372 0132  
                                 i1l3364 0112                                   i1l3348 00DD  
                                 i1l3356 00F7                                   i1l3292 0C6B  
                                 i1l3284 0C45                                   i1l3276 0C23  
                                 i1l4500 0352                                   i1l3436 06BA  
                                 i1l3428 0695                                   i1l3532 0A24  
                                 i1l3700 0893                                   i1l3614 0D6B  
                                 i1l3606 0D45                                   i1l3462 0470  
                                 i1l3470 049F                                   i1l3454 0453  
                                 i1l3446 0437                                   i1l2902 08E8  
                                 i1l3382 016D                                   i1l3374 013E  
                                 i1l3366 0122                                   i1l3358 00FD  
                                 i1l3294 0C6F                                   i1l3286 0C4D  
                                 i1l3278 0C27                                   i1l4510 0369  
                                 i1l4502 0356                                   i1l3438 06BC  
                                 i1l3390 062F                                   i1l3534 0A2B  
                                 i1l3526 0A0F                                   i1l3710 0841  
                                 i1l3702 0897                                   i1l3608 0D4A  
                                 i1l3480 04C8                                   i1l3472 04AC  
                                 i1l3464 047D                                   i1l3456 0457  
                                 i1l3448 0442                                   u211_20 0437  
                                 i1l2920 0825                                   i1l2912 0804  
                                 i1l3384 0179                                   i1l3376 0146  
                                 u203_20 013E                                   i1l3368 0127  
                                 i1l5080 0EE5                                   i1l3296 0C70  
                                 i1l4504 035B                                   i1l4520 076B  
                                 i1l4512 0764                                   i1l4600 0DBF  
                                 i1l3392 0633                                   i1l3528 0A18  
                                 i1l3536 0A2F                                   i1l3720 17F2  
                                 i1l3712 0847                                   i1l3704 0838  
                                 i1l3800 05C5                                   u211_21 0436  
                                 u203_21 013D                                   i1l3482 04CD  
                                 i1l3474 04B9                                   i1l3466 0485  
                                 i1l3458 045D                                   i1l3570 0A48  
                                 i1l2850 0A94                                   i1l2930 06D4  
                                 i1l2922 06C5                                   i1l5090 08D5  
                                 i1l2906 08F5                                   i1l2914 17DB  
                                 i1l5082 0B34                                   i1l3378 0155  
                                 i1l4506 0361                                   i1l4530 078B  
                                 i1l4522 0770                                   i1l4514 076A  
                                 i1l3394 0639                                   i1l3386 0623  
                                 i1l4610 0ACB                                   i1l3722 17FB  
                                 i1l3730 09FB                                   i1l3714 0848  
                                 i1l3706 083A                                   i1l3810 05D8  
                                 i1l3802 05C7                                   i1l3476 04BF  
                                 i1l3468 0492                                   i1l3572 0A4E  
                                 i1l3580 0A74                                   i1l3564 0A3C  
                                 i1l2860 0AB3                                   i1l2852 0A98  
                                 i1l2916 081A                                   i1l5092 0704  
                                 i1l2940 06EF                                   i1l5084 0B4E  
                                 i1l4508 0365                                   i1l4540 079B  
                                 i1l4532 078D                                   i1l4524 0774  
                                 i1l5076 0DC7                                   i1l3396 063C  
                                 i1l3388 062A                                   i1l4620 0AE8  
                                 i1l4612 0AD1                                   i1l3716 17E4  
                                 i1l3732 0A07                                   i1l3724 09E1  
                                 i1l3708 0840                                   i1l3820 05F6  
                                 i1l3812 05D9                                   i1l3804 05C9  
                                 i1l4700 01ED                                   u211_25 0433  
                                 i1l3590 0D0A                                   i1l3582 0CEF  
                                 i1l3478 04C4                                   i1l3574 0A5B  
                                 i1l3566 0A43                                   i1l2854 0A9D  
                                 i1l2846 0A77                                   i1l2870 08AE  
                                 i1l2862 089B                                   i1l2918 081D  
                                 i1l5094 074F                                   i1l2942 06F3  
                                 i1l2934 06DB                                   i1l2926 06CE  
                                 i1l5086 09AA                                   i1l5078 0C5B  
                                 i1l4470 02A6                                   i1l4550 07BA  
                                 i1l4542 079F                                   i1l4526 0778  
                                 i1l3398 063E                                   i1l4630 0B00  
                                 i1l4622 0AEA                                   i1l4614 0AD9  
                                 i1l4606 0AB9                                   i1l3718 17ED  
                                 i1l3726 09E6                                   i1l3734 0A09  
                                 i1l3830 060D                                   i1l3822 05FA  
                                 i1l3814 05DA                                   i1l3806 05CE  
                                 i1l4702 01F3                                   i1l4710 0206  
                                 i1l3592 0D0F                                   u220_20 0D05  
                                 i1l3584 0CF8                                   u212_20 045D  
                                 i1l3576 0A68                                   i1l3568 0A47  
                                 i1l2856 0AA7                                   i1l2848 0A7B  
                                 i1l2872 08B8                                   i1l2864 089F  
                                 i1l2880 0F09                                   i1l2960 0730  
                                 i1l2952 0719                                   i1l2936 06E1  
                                 i1l5088 08FD                                   i1l4480 02C9  
                                 i1l4472 02AA                                   i1l4560 07D7  
                                 i1l4552 07BF                                   i1l4544 07A5  
                                 i1l4528 077D                                   u204_20 062A  
                                 i1l4624 0AEC                                   i1l4616 0ADF  
                                 i1l4608 0AC2                                   i1l4640 0B77  
                                 u300_20 0B61                                   i1l4632 0B54  
                                 i1l3728 09F0                                   i1l3840 061F  
                                 i1l3832 060F                                   i1l3824 0600  
                                 i1l3808 05D7                                   i1l3760 057C  
                                 i1l4720 021B                                   i1l4712 020B  
                                 i1l4704 01F6                                   u220_21 0D04  
                                 u212_21 045C                                   u204_21 0629  
                                 u300_21 0B60                                   i1l3594 0D15  
                                 i1l3586 0CFE                                   i1l3578 0A6E  
                                 i1l2858 0AAF                                   i1l2866 08A4  
                                 i1l2890 0F2D                                   i1l2882 0F0F  
                                 i1l2874 0EF2                                   i1l2962 0734  
                                 i1l2954 071D                                   i1l2970 0747  
                                 i1l2938 06E6                                   i1l2946 06FC  
                                 i1l4490 0319                                   i1l4562 07E7  
                                 i1l4554 07C6                                   i1l4546 07B3  
                                 i1l4538 078F                                   i1l4570 0D7E  
                                 i1l4626 0AEE                                   i1l4618 0AE7  
                                 i1l4642 0B7D                                   i1l4650 0BA1  
                                 i1l4634 0B5A                                   i1l3690 0878  
                                 i1l3842 0620                                   i1l3834 0613  
                                 i1l3826 0605                                   i1l3818 05DB  
                                 i1l3770 058A                                   i1l3762 0580  
                                 i1l4722 022B                                   i1l4714 020F  
                                 i1l4706 01FC                                   i1l3588 0D05  
                                 i1l3596 0D1A                                   i1l2868 08A8  
                                 i1l2892 0F3F                                   i1l2876 0EF7  
                                 i1l2964 0738                                   i1l2956 0721  
                                 i1l2948 070F                                   i1l2980 098C  
                                 i1l4492 0337                                   i1l4484 02D3  
                                 i1l4476 02B1                                   i1l4556 07CB  
                                 i1l4548 07B5                                   i1l4580 0D8F  
                                 i1l4572 0D82                                   i1l4564 0D6D  
                                 i1l4628 0AF1                                   i1l4652 0BAB  
                                 i1l4644 0B89                                   i1l4636 0B61  
                                 i1l3692 087A                                   i1l3836 0614  
                                 i1l3828 0608                                   i1l3772 058E  
                                 i1l4740 0259                                   i1l4724 022D  
                                 i1l4716 0212                                   i1l4708 0203  
                                 i1l4660 018E                                   i1l3598 0D20  
                                 i1l2894 0F44                                   i1l2886 0F12  
                                 i1l2878 0F00                                   i1l2966 073D  
                                 i1l2958 0726                                   i1l2990 0999  
                                 i1l2982 098D                                   i1l4486 030F  
                                 i1l4478 02B7                                   i1l4558 07D0  
                                 i1l4590 0D9F                                   i1l4582 0D91  
                                 i1l4574 0D86                                   i1l4646 0B99  
                                 i1l4638 0B70                                   i1l3694 0889  
                                 i1l3838 0616                                   i1l3790 05BC  
                                 i1l3774 0592                                   i1l3758 057A  
                                 i1l4750 0289                                   i1l4742 025E  
                                 i1l4734 0243                                   i1l4726 0234  
                                 i1l4718 0217                                   i1l4670 019F  
                                 i1l4662 018F                                   i1l4654 0182  
                                 u221_20 0D0F                                   u213_20 0463  
                                 i1l2896 0F5B                                   i1l2888 0F21  
                                 i1l2992 099D                                   i1l2984 0993  
                                 i1l4496 0341                                   i1l4592 0DA3  
                                 i1l4584 0D95                                   i1l4576 0D8A  
                                 i1l4568 0D78                                   u205_20 062F  
                                 i1l4648 0B9D                                   i1l3696 088B  
                                 i1l3792 05BD                                   i1l3784 059F  
                                 i1l3776 0597                                   i1l3768 0585  
                                 i1l4752 0298                                   i1l4744 026F  
                                 i1l4736 0249                                   i1l4728 023C  
                                 i1l4680 01B8                                   i1l4672 01A5  
                                 i1l4664 0190                                   i1l4656 0188  
                                 _LED_On 0938                                   u221_21 0D0E  
                                 u213_21 0462                                   u205_21 062E  
                                 i1l2898 0F73                                   i1l2986 0995  
                                 i1l4498 034E                                   i1l4594 0DA6  
                                 i1l4586 0D99                                   i1l4578 0D8B  
                                 i1l3698 088D                                   i1l3794 05BE  
                                 i1l3786 05B0                                   i1l3778 059E  
                                 i1l4754 029D                                   i1l4746 027F  
                                 i1l4738 0253                                   i1l4690 01CD  
                                 i1l4682 01BB                                   i1l4674 01A8  
                                 i1l4658 018D                                   i1l4666 0196  
                                 i1l2988 0996                                   i1l2996 09A2  
                                 i1l4596 0DB0                                   i1l4588 0D9E  
                                 i1l3796 05BF                                   i1l3788 05B4  
                                 i1l4748 0285                                   i1l4692 01D1  
                                 i1l4684 01BD                                   i1l4676 01AD  
                                 i1l4668 019B                                   i1l4756 0006  
                                 u301_25 0B66                                   i1l3798 05C3  
                                 i1l4694 01D4                                   i1l4686 01C3  
                                 i1l4678 01B4                                   u222_20 0D20  
                                 u214_20 0485                                   u150_20 0F0F  
                                 u206_20 0639                                   u302_20 0B89  
                                 i1l4696 01D9                                   u310_20 01B8  
                                 i1l4688 01C9                                   u222_21 0D1F  
                                 u214_21 0484                                   u150_21 0F0E  
                                 u206_21 0638                                   u302_21 0B88  
                                 u310_21 01B7                                   i1l4698 01DD  
                                 u223_20 0D38                                   u215_20 04CD  
                                 u151_20 0F44                                   u207_20 0675  
                                 u303_20 0BAB                                   u231_20 0897  
                                 u311_20 01CD                                   u223_21 0D37  
                                 u215_21 04CC                                   u151_21 0F43  
                                 u207_21 0674                                   u303_21 0BAA  
                                 u231_21 0896                                   u311_21 01CC  
                                 u143_25 0A7E                                   u160_20 0E2F  
                                 u224_20 0D4A                                   u152_20 06CD  
                                 u208_20 0680                                   u232_20 17F2  
                                 u320_20 021B                                   u312_20 01D1  
                                 u304_20 0188                                   u160_21 0E2E  
                                 u224_21 0D49                                   u152_21 06CC  
                                 u208_21 067F                                   u232_21 17F1  
                                 u320_21 021A                                   u312_21 01D0  
                                 u304_21 0187                                   u144_25 0A84  
                                 u161_20 0E4E                                   u225_20 0D68  
                                 u153_20 06D3                                   u209_20 068C  
                                 u217_20 0A3B                                   u233_20 17FB  
                                 u241_20 0597                                   u321_20 0234  
                                 u313_20 01D9                                   u305_20 018D  
                                 u161_21 0E4D                                   u225_21 0D67  
                                 u153_21 06D2                                   u209_21 068B  
                                 u217_21 0A3A                                   u233_21 17FA  
                                 u241_21 0596                                   u321_21 0233  
                                 u313_21 01D8                                   u305_21 018C  
                                 u145_25 0A8C                                   u162_20 0E6D  
                                 u170_20 0C8F                                   u218_20 0A43  
                                 u146_20 0A9D                                   u154_20 06DA  
                                 u234_20 09E6                                   u322_20 023C  
                                 u314_20 01DD                                   u306_20 019B  
                                 u162_21 0E6C                                   u170_21 0C8E  
                                 u218_21 0A42                                   u146_21 0A9C  
                                 u154_21 06D9                                   u234_21 09E5  
                                 u322_21 023B                                   u314_21 01DC  
                                 u306_21 019A                                   u242_25 05A2  
                                 u171_20 0CA7                                   u219_20 0A4E  
                                 u147_20 089F                                   u155_20 06E1  
                                 u235_20 09F0                                   u243_20 05BA  
                                 u323_20 0243                                   u315_20 01FC  
                                 u307_20 019F                                   u171_21 0CA6  
                                 u219_21 0A4D                                   u147_21 089E  
                                 u155_21 06E0                                   u235_21 09EF  
                                 u243_21 05B9                                   u323_21 0242  
                                 u315_21 01FB                                   u307_21 019E  
                                 u148_20 08A8                                   u156_20 0718  
                                 u180_20 0C16                                   u172_20 0BB9  
                                 u236_20 09FB                                   u244_20 05CE  
                                 u324_20 025E                                   u316_20 0203  
                                 u308_20 01AD                                   u148_21 08A7  
                                 u156_21 0717                                   u180_21 0C15  
                                 u172_21 0BB8                                   u236_21 09FA  
                                 u244_21 05CD                                   u324_21 025D  
                                 u316_21 0202                                   u308_21 01AC  
                                 u157_20 0DF9                                   u149_20 0EF7  
                                 u181_20 0C23                                   u173_20 0BEA  
                                 u245_20 0600                                   u325_20 0285  
                                 u317_20 020B                                   u309_20 01B4  
                                 u157_21 0DF8                                   u149_21 0EF6  
                                 u181_21 0C22                                   u173_21 0BE9  
                                 u245_21 05FF                                   u325_21 0284  
                                 u317_21 020A                                   u309_21 01B3  
                                 u173_25 0BE6                                   u158_20 0E03  
                                 u190_20 0055                                   u182_20 0C27  
                                 u326_20 02A3                                   u318_20 020F  
                                 u158_21 0E02                                   u190_21 0054  
                                 u182_21 0C26                                   u326_21 02A2  
                                 u318_21 020E                                   u159_20 0E0D  
                                 u191_20 005C                                   u183_20 0C45  
                                 u319_20 0217                                   u159_21 0E0C  
                                 u191_21 005B                                   u183_21 0C44  
                                 u319_21 0216                                   u168_20 0C7B  
                                 u192_20 0065                                   u184_20 0C4D  
                                 u168_21 0C7A                                   u192_21 0064  
                                 u184_21 0C4C                                   u169_20 0C84  
                                 u193_20 006C                                   u177_20 0E75  
                                 u185_20 0C6B                                   u169_21 0C83  
                                 u193_21 006B                                   u177_21 0E74  
                                 u185_21 0C6A                                   u194_20 0072  
                                 u186_20 0032                                   u178_20 0E88  
                                 u194_21 0071                                   u186_21 0031  
                                 u178_21 0E87                                   u195_20 00A0  
                                 u187_20 0039                                   u179_20 0EBE  
                                 u291_20 02B0                                   u195_21 009F  
                                 u187_21 0038                                   u179_21 0EBD  
                                 u291_21 02AF          ??_APP_DeviceCustomHIDInitialize 007D  
                                 u196_20 00B5                                   u188_20 0040  
                                 u292_20 02D2                                   u196_21 00B4  
                                 u188_21 003F                                   u292_21 02D1  
                                 u197_20 00D1                                   u189_20 004E  
                                 u293_20 0318                                   u197_21 00D0  
                                 u189_21 004D                                   u293_21 0317  
                                 u198_20 00D9                                   u294_20 0340  
                                 u198_21 00D8                                   u294_21 033F  
                                 u199_20 00DD                                   u295_20 036F  
                                 u199_21 00DC                                   u295_21 036E  
                                 u296_20 077D                                   u296_21 077C  
                                 u297_20 07A5                                   u297_21 07A4  
                                 u298_20 07D0                                   _OSCCON 0099  
                                 u298_21 07CF                                   u299_20 0D76  
                                 u299_21 0D75             i1USBTransferOnePacket@handle 0079  
                      _shortPacketStatus 016C                          USBDeviceTasks@i 0064  
            USBStdFeatureReqHandler@pUEP 0058                 USBTransferOnePacket@data 00E1  
             USBCtrlTrfInHandler@lastDTS 0075                          ??_USBDeviceInit 00E0  
                      _USBEnableEndpoint 089A           APP_DeviceCustomHIDTasks@result 00ED  
                                 _memcpy 0A0E                                   _memset 02A6  
                     ?_USBEnableEndpoint 0077                      ??_USBEnableEndpoint 0078  
                         ??_init_alcohol 00E0                         check_alcohol@max 00E1  
                       check_alcohol@ret 00E5                              _CtrlTrfData 0048  
                   _controlTransferState 016B               ??_APP_DeviceCustomHIDTasks 00EB  
                      _SYSTEM_Initialize 09B6                  __end_of__initialization 0028  
             i1USBTransferOnePacket@data 0071                                ?_LED_Init 0070  
                     ?_SYSTEM_Initialize 0070                                ?i1_LED_On 0070  
                   i1USBDeviceInit@i_878 0073                           __pcstackCOMMON 0070  
              __end_of_USBEnableEndpoint 08BF                            __end_of_sd000 181C  
                          __end_of_sd001 1075                            __end_of_sd002 102A  
                    ??_SYSTEM_Initialize 00E3                                LED_On@led 00E2  
                        _active_protocol 01B8                  __end_ofi1_USBDeviceInit 0623  
            __end_of_USBCtrlTrfInHandler 0D6D                 ??_USBCtrlTrfSetupHandler 005F  
                _USBTicksSinceSuspendEnd 01AE                         ?_USBDeviceAttach 0070  
              __end_of_SYSTEM_Initialize 09E1                   _USBStdGetStatusHandler 0C0B  
                           ??i1_LED_Init 0070                               __pbssBANK0 0065  
                             __pbssBANK1 00EE                               __pbssBANK2 0160  
                             __pbssBANK3 01A0                                  ?_LED_On 0070  
                           i1LED_Off@led 0072                               ??_LED_Init 00E0  
                            _pBDTEntryIn 006A                               ??i1_LED_On 0070  
       __end_of_USBCtrlEPServiceComplete 06C5    __end_of_APP_DeviceCustomHIDInitialize 0838  
          _APP_DeviceCustomHIDInitialize 081A                               __pmaintext 07EE  
                   USBCtrlTrfRxService@i 0074                               __pintentry 0004  
                                ?_memcpy 0070                                  ?_memset 0070  
                             _device_dsc 1800                         _USBCtrlEPService 0B54  
                             _ep_data_in 0167                       __end_ofi1_LED_Init 080F  
            __end_of_USBCtrlTrfRxService 04D1                       _USBCheckStdRequest 0D6D  
                      _configDescriptor1 102A                                  _LED_Off 090F  
            __end_of_USBCtrlTrfTxService 0E6E                      _USBStdSetCfgHandler 0764  
                    ?_USBCheckStdRequest 0070                                  _UIEbits 0E92  
                                _UIRbits 0E90                 ??i1_USBTransferOnePacket 0074  
        ??_USBIncrement1msInternalTimers 0070                     ?_USBStdSetCfgHandler 0070  
                      __end_of_hid_rpt01 1092                     ??_USBCheckStdRequest 005D  
                       _ToSendDataBuffer 0120                         ??_USBDeviceTasks 0062  
                   __end_of_init_alcohol 0804                        ??_USBStallHandler 0070  
                       ?i1_USBDeviceInit 0070                __end_of_configDescriptor1 1053  
                                __ptext1 0370                                  __ptext2 0858  
                                __ptext3 09B6                                  __ptext4 0801  
                                __ptext5 080F                                  __ptext6 04D1  
                                __ptext7 0961                                  __ptext8 0F78  
                                __ptext9 0938                                  _inPipes 0065  
            _USBDeferOUTDataStagePackets 01AF                             ??_USBSuspend 0056  
                     __end_of_USB_CD_Ptr 181E                                  clrloop0 17DF  
                   end_of_initialization 0028                       __end_of_USB_SD_Ptr 1818  
                                memcpy@d 0079                                  memcpy@n 0072  
                                memcpy@s 0075                      _pBDTEntryEP0OutNext 006E  
                                memset@c 0072                                  memset@k 007A  
                                memset@n 0074                                  memset@s 007C  
                        _USB1msTickCount 01A0                                i1_LED_Off 08E7  
               ?_USBStdFeatureReqHandler 0070                    ??_USBStdSetCfgHandler 0056  
                     __end_of_USBSuspend 0858                  _USBCtrlEPAllowDataStage 0BAF  
               _USBCtrlEPServiceComplete 0623               _USBStatusStageEnabledFlag1 01B2  
             _USBStatusStageEnabledFlag2 01B1                       USBEnableEndpoint@p 007A  
                              _PORTAbits 000C                                _TRISAbits 008C  
                              _TRISCbits 008E                       _ReceivedDataBuffer 00A0  
                     _BothEP0OutUOWNsSet 01B4                USBStdSetCfgHandler@i_1611 0059  
                          _check_alcohol 0961                USBConfigureEndpoint@EPNum 0075  
             ?_USBCtrlEPAllowStatusStage 0070      USER_USB_CALLBACK_EVENT_HANDLER@size 0054  
                              _USTATcopy 016D                 i1USBTransferOnePacket@ep 0078  
           __end_of_USBTransferOnePacket 1000                           __end_of_LED_On 0961  
                             ?i1_LED_Off 0070                       USBDeviceInit@i_878 00E3  
                 _USBCtrlTrfSetupHandler 0AB9                    __end_of_USBDeviceInit 0423  
  __end_of_USBIncrement1msInternalTimers 1800            _USBIncrement1msInternalTimers 17E4  
                             LED_Off@led 00E2                           __end_of_memcpy 0A3C  
                         __end_of_memset 0370                        _USBBusIsSuspended 01B5  
                         check_alcohol@i 00E3                      start_initialization 000D  
                ?_USBStdGetStatusHandler 0070            USBCtrlTrfRxService@byteToRead 0075  
                         ?_check_alcohol 0070             __end_of_USBConfigureEndpoint 0AB9  
        __end_of_USBStdFeatureReqHandler 0182                                 ??_LED_On 00E0  
      __end_of_USBCtrlEPAllowStatusStage 0CEF                 __end_of_USBCtrlEPService 0BAF  
              ??_USBCtrlEPAllowDataStage 0073                           USBDeviceInit@i 00E4  
                         USBDeviceInit@p 00E1                   _pBDTEntryEP0OutCurrent 00EE  
                USBTransferOnePacket@dir 00E0                  USBTransferOnePacket@len 00E3  
                    _USBStdGetDscHandler 0E6E                ?_APP_DeviceCustomHIDTasks 0070  
                               ??_memcpy 0074                                 ??_memset 0076  
                    i1_SYSTEM_Initialize 098B                               memset@dest 0070  
                 i1_USBTransferOnePacket 0EF1                   _USBActiveConfiguration 016F  
         __end_of_USBStdGetStatusHandler 0C75                i1USBTransferOnePacket@dir 0070  
              i1USBTransferOnePacket@len 0073                                 ?_LED_Off 0070  
                              ___latbits 0002                            __pcstackBANK0 0050  
                          __pcstackBANK1 00E0                     ?_USBStdGetDscHandler 0070  
                           _init_alcohol 0801                     ?i1_SYSTEM_Initialize 0070  
             __end_of_USBWakeFromSuspend 089A                          _USBStallHandler 09E1  
                           _pBDTEntryOut 01A4                              ??i1_LED_Off 0070  
                            i1LED_On@led 0072                                _hid_rpt01 1075  
                              _idle_rate 01B9                     _USBTransferOnePacket 0F78  
                        ??_check_alcohol 00E0             __end_of_USBCtrlTrfOutHandler 0A76  
                  ??_USBStdGetDscHandler 0070                              _ep_data_out 01A8  
          USBConfigureEndpoint@direction 0070                    ??i1_SYSTEM_Initialize 0073  
                         i1_init_alcohol 17DB                                 _LED_Init 080F  
                               _LATCbits 010E               __end_of_USBCheckHIDRequest 0764  
             ??_USBCtrlEPServiceComplete 0075                                clear_ram0 17DE  
                               _PIE2bits 0092                                 i1_LED_On 08BF  
                               _PIR2bits 0012                                 _UEP0bits 0E98  
             _USBDeferINDataStagePackets 01B0                                 _UCONbits 0E8E  
                   _USBConfigureEndpoint 0A76                    ?_USBTransferOnePacket 00E0  
                      _SYS_InterruptHigh 0004                             _RemoteWakeup 01B6  
                     ?_SYS_InterruptHigh 0070                  __end_of_USBStallHandler 0A0E  
                 __end_ofi1_init_alcohol 17DE              ??_USBCtrlEPAllowStatusStage 0070  
            __end_of_USBStdSetCfgHandler 07EE                      ??_SYS_InterruptHigh 007E  
                     __end_of_device_dsc 1812                  ?_USBCtrlTrfSetupHandler 0070  
                USBStdGetStatusHandler@p 0072                                memcpy@tmp 0077  
                 USBTransferOnePacket@ep 00E8                                 _SetupPkt 0040  
                  ?_USBConfigureEndpoint 0070                        ??_USBDeviceAttach 00E0  
              __end_of_SYS_InterruptHigh 000B                                 __ptext10 090F  
                               __ptext20 0AB9                                 __ptext12 0182  
                               __ptext21 0623                                 __ptext13 057A  
                               __ptext30 098B                                 __ptext22 0BAF  
                               __ptext14 0878                                 __ptext31 17DB  
                               __ptext23 0D6D                                 __ptext15 0838  
                               __ptext40 0A3C                                 __ptext32 08E7  
                               __ptext24 0764                                 __ptext16 09E1  
                               __ptext41 0423                                 __ptext33 0804  
                               __ptext25 02A6                                 __ptext17 17E4  
                               __ptext42 0C75                                 __ptext34 08BF  
                               __ptext26 0C0B                                 __ptext18 0B54  
                               __ptext43 0CEF                                 __ptext35 06C5  
                               __ptext27 0E6E                                 __ptext19 0A0E  
                               __ptext44 0DEB                                 __ptext36 081A  
                               __ptext28 002C                                 __ptext37 0EF1  
                               __ptext29 0B04                                 __ptext38 089A  
                               __ptext39 0A76                          ?i1_init_alcohol 0070  
       __end_of_APP_DeviceCustomHIDTasks 057A           __end_of_USBCtrlTrfSetupHandler 0B04  
                      ?_USBCtrlEPService 0070                       ??_USBCtrlEPService 0060  
                    _USBCtrlTrfInHandler 0CEF                                 _outPipes 0160  
                   _USBCtrlTrfOutHandler 0A3C                                 int$flags 007E  
                ?i1_USBTransferOnePacket 0070                _USBCtrlEPAllowStatusStage 0C75  
                 ??_USBTransferOnePacket 00E4           ?_APP_DeviceCustomHIDInitialize 0070  
              _USBDeferStatusStagePacket 0169                         i1USBDeviceInit@i 0074  
                       i1USBDeviceInit@p 0071                               _INTCONbits 000B  
               i1SYSTEM_Initialize@state 0075                     ?_USBCtrlTrfInHandler 0070  
                               memcpy@d1 0078                                 memcpy@s1 0070  
          USBCtrlTrfTxService@byteToSend 0072                         ?_USBStallHandler 0070  
               USBStdFeatureReqHandler@p 005B                                 intlevel1 0000  
                             i1_LED_Init 0804  __end_of_USER_USB_CALLBACK_EVENT_HANDLER 0B54  
       ?_USER_USB_CALLBACK_EVENT_HANDLER 0050        ??_USER_USB_CALLBACK_EVENT_HANDLER 007E  
        _USER_USB_CALLBACK_EVENT_HANDLER 0B04                        ??i1_USBDeviceInit 0070  
         __end_ofi1_USBTransferOnePacket 0F78                   ??_USBConfigureEndpoint 0071  
                  ?_USBCtrlTrfOutHandler 0070                      _USBCtrlTrfRxService 0423  
                     _USBWakeFromSuspend 0878                  _USBStdFeatureReqHandler 002C  
                    _USBCtrlTrfTxService 0DEB                            __pstringtext1 1812  
                          __pstringtext2 181C                            __pstringtext3 1000  
                          __pstringtext4 102A                            __pstringtext5 1053  
                          __pstringtext6 1075                            __pstringtext7 1800  
                          __pstringtext8 1818                      ?_USBWakeFromSuspend 0070  
                  ??_USBCtrlTrfInHandler 0073                    _USBAlternateInterface 016E  
                    USBEnableEndpoint@ep 007C                          _endpoint_number 016A  
                   ?_USBCtrlTrfRxService 0070                 ?_USBCtrlEPAllowDataStage 0070  
                   ?_USBCtrlTrfTxService 0070             _USBStatusStageTimeoutCounter 01B3  
                   ??_USBWakeFromSuspend 0056               USBTransferOnePacket@handle 00E9  
                             _USB_CD_Ptr 181C                              _USBInHandle 01AA  
               _APP_DeviceCustomHIDTasks 04D1  
